ARM GAS  C:\Users\Mxuan\AppData\Local\Temp\ccSEBS4R.s 			page 1


   1              		.cpu cortex-m4
   2              		.arch armv7e-m
   3              		.fpu softvfp
   4              		.eabi_attribute 20, 1
   5              		.eabi_attribute 21, 1
   6              		.eabi_attribute 23, 3
   7              		.eabi_attribute 24, 1
   8              		.eabi_attribute 25, 1
   9              		.eabi_attribute 26, 1
  10              		.eabi_attribute 30, 1
  11              		.eabi_attribute 34, 1
  12              		.eabi_attribute 18, 4
  13              		.file	"lib_printf.c"
  14              		.text
  15              	.Ltext0:
  16              		.cfi_sections	.debug_frame
  17              		.file 1 "Libraries/ctrl_sdk/src/lib_printf.c"
  18              		.section	.text.putchar_via_gadget,"ax",%progbits
  19              		.align	1
  20              		.syntax unified
  21              		.thumb
  22              		.thumb_func
  24              	putchar_via_gadget:
  25              	.LVL0:
  26              	.LFB3:
   1:Libraries/ctrl_sdk/src/lib_printf.c **** /**
   2:Libraries/ctrl_sdk/src/lib_printf.c ****  * @author (c) Eyal Rozenberg <eyalroz1@gmx.com>
   3:Libraries/ctrl_sdk/src/lib_printf.c ****  *             2021-2022, Haifa, Palestine/Israel
   4:Libraries/ctrl_sdk/src/lib_printf.c ****  * @author (c) Marco Paland (info@paland.com)
   5:Libraries/ctrl_sdk/src/lib_printf.c ****  *             2014-2019, PALANDesign Hannover, Germany
   6:Libraries/ctrl_sdk/src/lib_printf.c ****  *
   7:Libraries/ctrl_sdk/src/lib_printf.c ****  * @note Others have made smaller contributions to this file: see the
   8:Libraries/ctrl_sdk/src/lib_printf.c ****  * contributors page at https://github.com/eyalroz/printf/graphs/contributors
   9:Libraries/ctrl_sdk/src/lib_printf.c ****  * or ask one of the authors. The original code for exponential specifiers was
  10:Libraries/ctrl_sdk/src/lib_printf.c ****  * contributed by Martijn Jasperse <m.jasperse@gmail.com>.
  11:Libraries/ctrl_sdk/src/lib_printf.c ****  *
  12:Libraries/ctrl_sdk/src/lib_printf.c ****  * @brief Small stand-alone implementation of the printf family of functions
  13:Libraries/ctrl_sdk/src/lib_printf.c ****  * (`(v)printf`, `(v)s(n)printf` etc., geared towards use on embedded systems with
  14:Libraries/ctrl_sdk/src/lib_printf.c ****  * a very limited resources.
  15:Libraries/ctrl_sdk/src/lib_printf.c ****  *
  16:Libraries/ctrl_sdk/src/lib_printf.c ****  * @note the implementations are thread-safe; re-entrant; use no functions from
  17:Libraries/ctrl_sdk/src/lib_printf.c ****  * the standard library; and do not dynamically allocate any memory.
  18:Libraries/ctrl_sdk/src/lib_printf.c ****  *
  19:Libraries/ctrl_sdk/src/lib_printf.c ****  * @license The MIT License (MIT)
  20:Libraries/ctrl_sdk/src/lib_printf.c ****  *
  21:Libraries/ctrl_sdk/src/lib_printf.c ****  * Permission is hereby granted, free of charge, to any person obtaining a copy
  22:Libraries/ctrl_sdk/src/lib_printf.c ****  * of this software and associated documentation files (the "Software"), to deal
  23:Libraries/ctrl_sdk/src/lib_printf.c ****  * in the Software without restriction, including without limitation the rights
  24:Libraries/ctrl_sdk/src/lib_printf.c ****  * to use, copy, modify, merge, publish, distribute, sublicense, and/or sell
  25:Libraries/ctrl_sdk/src/lib_printf.c ****  * copies of the Software, and to permit persons to whom the Software is
  26:Libraries/ctrl_sdk/src/lib_printf.c ****  * furnished to do so, subject to the following conditions:
  27:Libraries/ctrl_sdk/src/lib_printf.c ****  *
  28:Libraries/ctrl_sdk/src/lib_printf.c ****  * The above copyright notice and this permission notice shall be included in
  29:Libraries/ctrl_sdk/src/lib_printf.c ****  * all copies or substantial portions of the Software.
  30:Libraries/ctrl_sdk/src/lib_printf.c ****  *
  31:Libraries/ctrl_sdk/src/lib_printf.c ****  * THE SOFTWARE IS PROVIDED "AS IS", WITHOUT WARRANTY OF ANY KIND, EXPRESS OR
  32:Libraries/ctrl_sdk/src/lib_printf.c ****  * IMPLIED, INCLUDING BUT NOT LIMITED TO THE WARRANTIES OF MERCHANTABILITY,
ARM GAS  C:\Users\Mxuan\AppData\Local\Temp\ccSEBS4R.s 			page 2


  33:Libraries/ctrl_sdk/src/lib_printf.c ****  * FITNESS FOR A PARTICULAR PURPOSE AND NONINFRINGEMENT. IN NO EVENT SHALL THE
  34:Libraries/ctrl_sdk/src/lib_printf.c ****  * AUTHORS OR COPYRIGHT HOLDERS BE LIABLE FOR ANY CLAIM, DAMAGES OR OTHER
  35:Libraries/ctrl_sdk/src/lib_printf.c ****  * LIABILITY, WHETHER IN AN ACTION OF CONTRACT, TORT OR OTHERWISE, ARISING FROM,
  36:Libraries/ctrl_sdk/src/lib_printf.c ****  * OUT OF OR IN CONNECTION WITH THE SOFTWARE OR THE USE OR OTHER DEALINGS IN
  37:Libraries/ctrl_sdk/src/lib_printf.c ****  * THE SOFTWARE.
  38:Libraries/ctrl_sdk/src/lib_printf.c ****  */
  39:Libraries/ctrl_sdk/src/lib_printf.c **** 
  40:Libraries/ctrl_sdk/src/lib_printf.c **** // clang-format off
  41:Libraries/ctrl_sdk/src/lib_printf.c **** // Define this globally (e.g. gcc -DPRINTF_INCLUDE_CONFIG_H=1 ...) to include the
  42:Libraries/ctrl_sdk/src/lib_printf.c **** // printf_config.h header file
  43:Libraries/ctrl_sdk/src/lib_printf.c **** #if PRINTF_INCLUDE_CONFIG_H
  44:Libraries/ctrl_sdk/src/lib_printf.c **** #include "printf_config.h"
  45:Libraries/ctrl_sdk/src/lib_printf.c **** #endif
  46:Libraries/ctrl_sdk/src/lib_printf.c **** 
  47:Libraries/ctrl_sdk/src/lib_printf.c **** #include "lib_printf.h"
  48:Libraries/ctrl_sdk/src/lib_printf.c **** 
  49:Libraries/ctrl_sdk/src/lib_printf.c **** #ifdef __cplusplus
  50:Libraries/ctrl_sdk/src/lib_printf.c **** #include <cstdint>
  51:Libraries/ctrl_sdk/src/lib_printf.c **** #include <climits>
  52:Libraries/ctrl_sdk/src/lib_printf.c **** #else
  53:Libraries/ctrl_sdk/src/lib_printf.c **** #include <stdint.h>
  54:Libraries/ctrl_sdk/src/lib_printf.c **** #include <limits.h>
  55:Libraries/ctrl_sdk/src/lib_printf.c **** #include <stdbool.h>
  56:Libraries/ctrl_sdk/src/lib_printf.c **** #endif // __cplusplus
  57:Libraries/ctrl_sdk/src/lib_printf.c **** 
  58:Libraries/ctrl_sdk/src/lib_printf.c **** #if PRINTF_ALIAS_STANDARD_FUNCTION_NAMES
  59:Libraries/ctrl_sdk/src/lib_printf.c **** # define printf_    lib_printf
  60:Libraries/ctrl_sdk/src/lib_printf.c **** # define sprintf_   lib_sprintf
  61:Libraries/ctrl_sdk/src/lib_printf.c **** # define vsprintf_  lib_vsprintf
  62:Libraries/ctrl_sdk/src/lib_printf.c **** # define snprintf_  lib_snprintf
  63:Libraries/ctrl_sdk/src/lib_printf.c **** # define vsnprintf_ lib_vsnprintf
  64:Libraries/ctrl_sdk/src/lib_printf.c **** # define vprintf_   lib_vprintf
  65:Libraries/ctrl_sdk/src/lib_printf.c **** #endif
  66:Libraries/ctrl_sdk/src/lib_printf.c **** 
  67:Libraries/ctrl_sdk/src/lib_printf.c **** 
  68:Libraries/ctrl_sdk/src/lib_printf.c **** // 'ntoa' conversion buffer size, this must be big enough to hold one converted
  69:Libraries/ctrl_sdk/src/lib_printf.c **** // numeric number including padded zeros (dynamically created on stack)
  70:Libraries/ctrl_sdk/src/lib_printf.c **** #ifndef PRINTF_INTEGER_BUFFER_SIZE
  71:Libraries/ctrl_sdk/src/lib_printf.c **** #define PRINTF_INTEGER_BUFFER_SIZE    32
  72:Libraries/ctrl_sdk/src/lib_printf.c **** #endif
  73:Libraries/ctrl_sdk/src/lib_printf.c **** 
  74:Libraries/ctrl_sdk/src/lib_printf.c **** // size of the fixed (on-stack) buffer for printing individual decimal numbers.
  75:Libraries/ctrl_sdk/src/lib_printf.c **** // this must be big enough to hold one converted floating-point value including
  76:Libraries/ctrl_sdk/src/lib_printf.c **** // padded zeros.
  77:Libraries/ctrl_sdk/src/lib_printf.c **** #ifndef PRINTF_DECIMAL_BUFFER_SIZE
  78:Libraries/ctrl_sdk/src/lib_printf.c **** #define PRINTF_DECIMAL_BUFFER_SIZE    32
  79:Libraries/ctrl_sdk/src/lib_printf.c **** #endif
  80:Libraries/ctrl_sdk/src/lib_printf.c **** 
  81:Libraries/ctrl_sdk/src/lib_printf.c **** // Support for the decimal notation floating point conversion specifiers (%f, %F)
  82:Libraries/ctrl_sdk/src/lib_printf.c **** #ifndef PRINTF_SUPPORT_DECIMAL_SPECIFIERS
  83:Libraries/ctrl_sdk/src/lib_printf.c **** #define PRINTF_SUPPORT_DECIMAL_SPECIFIERS 1
  84:Libraries/ctrl_sdk/src/lib_printf.c **** #endif
  85:Libraries/ctrl_sdk/src/lib_printf.c **** 
  86:Libraries/ctrl_sdk/src/lib_printf.c **** // Support for the exponential notation floating point conversion specifiers (%e, %g, %E, %G)
  87:Libraries/ctrl_sdk/src/lib_printf.c **** #ifndef PRINTF_SUPPORT_EXPONENTIAL_SPECIFIERS
  88:Libraries/ctrl_sdk/src/lib_printf.c **** #define PRINTF_SUPPORT_EXPONENTIAL_SPECIFIERS 1
  89:Libraries/ctrl_sdk/src/lib_printf.c **** #endif
ARM GAS  C:\Users\Mxuan\AppData\Local\Temp\ccSEBS4R.s 			page 3


  90:Libraries/ctrl_sdk/src/lib_printf.c **** 
  91:Libraries/ctrl_sdk/src/lib_printf.c **** // Support for the length write-back specifier (%n)
  92:Libraries/ctrl_sdk/src/lib_printf.c **** #ifndef PRINTF_SUPPORT_WRITEBACK_SPECIFIER
  93:Libraries/ctrl_sdk/src/lib_printf.c **** #define PRINTF_SUPPORT_WRITEBACK_SPECIFIER 1
  94:Libraries/ctrl_sdk/src/lib_printf.c **** #endif
  95:Libraries/ctrl_sdk/src/lib_printf.c **** 
  96:Libraries/ctrl_sdk/src/lib_printf.c **** // Default precision for the floating point conversion specifiers (the C standard sets this at 6)
  97:Libraries/ctrl_sdk/src/lib_printf.c **** #ifndef PRINTF_DEFAULT_FLOAT_PRECISION
  98:Libraries/ctrl_sdk/src/lib_printf.c **** #define PRINTF_DEFAULT_FLOAT_PRECISION  5
  99:Libraries/ctrl_sdk/src/lib_printf.c **** #endif
 100:Libraries/ctrl_sdk/src/lib_printf.c **** 
 101:Libraries/ctrl_sdk/src/lib_printf.c **** // According to the C languages standard, printf() and related functions must be able to print any
 102:Libraries/ctrl_sdk/src/lib_printf.c **** // integral number in floating-point notation, regardless of length, when using the %f specifier -
 103:Libraries/ctrl_sdk/src/lib_printf.c **** // possibly hundreds of characters, potentially overflowing your buffers. In this implementation,
 104:Libraries/ctrl_sdk/src/lib_printf.c **** // all values beyond this threshold are switched to exponential notation.
 105:Libraries/ctrl_sdk/src/lib_printf.c **** #ifndef PRINTF_MAX_INTEGRAL_DIGITS_FOR_DECIMAL
 106:Libraries/ctrl_sdk/src/lib_printf.c **** #define PRINTF_MAX_INTEGRAL_DIGITS_FOR_DECIMAL 9
 107:Libraries/ctrl_sdk/src/lib_printf.c **** #endif
 108:Libraries/ctrl_sdk/src/lib_printf.c **** 
 109:Libraries/ctrl_sdk/src/lib_printf.c **** // Support for the long long integral types (with the ll, z and t length modifiers for specifiers
 110:Libraries/ctrl_sdk/src/lib_printf.c **** // %d,%i,%o,%x,%X,%u, and with the %p specifier). Note: 'L' (long double) is not supported.
 111:Libraries/ctrl_sdk/src/lib_printf.c **** #ifndef PRINTF_SUPPORT_LONG_LONG
 112:Libraries/ctrl_sdk/src/lib_printf.c **** #define PRINTF_SUPPORT_LONG_LONG 0
 113:Libraries/ctrl_sdk/src/lib_printf.c **** #endif
 114:Libraries/ctrl_sdk/src/lib_printf.c **** 
 115:Libraries/ctrl_sdk/src/lib_printf.c **** // The number of terms in a Taylor series expansion of log_10(x) to
 116:Libraries/ctrl_sdk/src/lib_printf.c **** // use for approximation - including the power-zero term (i.e. the
 117:Libraries/ctrl_sdk/src/lib_printf.c **** // value at the point of expansion).
 118:Libraries/ctrl_sdk/src/lib_printf.c **** #ifndef PRINTF_LOG10_TAYLOR_TERMS
 119:Libraries/ctrl_sdk/src/lib_printf.c **** #define PRINTF_LOG10_TAYLOR_TERMS 4
 120:Libraries/ctrl_sdk/src/lib_printf.c **** #endif
 121:Libraries/ctrl_sdk/src/lib_printf.c **** 
 122:Libraries/ctrl_sdk/src/lib_printf.c **** #if PRINTF_LOG10_TAYLOR_TERMS <= 1
 123:Libraries/ctrl_sdk/src/lib_printf.c **** #error "At least one non-constant Taylor expansion is necessary for the log10() calculation"
 124:Libraries/ctrl_sdk/src/lib_printf.c **** #endif
 125:Libraries/ctrl_sdk/src/lib_printf.c **** 
 126:Libraries/ctrl_sdk/src/lib_printf.c **** // Be extra-safe, and don't assume format specifiers are completed correctly
 127:Libraries/ctrl_sdk/src/lib_printf.c **** // before the format string end.
 128:Libraries/ctrl_sdk/src/lib_printf.c **** #ifndef PRINTF_CHECK_FOR_NUL_IN_FORMAT_SPECIFIER
 129:Libraries/ctrl_sdk/src/lib_printf.c **** #define PRINTF_CHECK_FOR_NUL_IN_FORMAT_SPECIFIER 1
 130:Libraries/ctrl_sdk/src/lib_printf.c **** #endif
 131:Libraries/ctrl_sdk/src/lib_printf.c **** 
 132:Libraries/ctrl_sdk/src/lib_printf.c **** #define PRINTF_PREFER_DECIMAL     false
 133:Libraries/ctrl_sdk/src/lib_printf.c **** #define PRINTF_PREFER_EXPONENTIAL true
 134:Libraries/ctrl_sdk/src/lib_printf.c **** 
 135:Libraries/ctrl_sdk/src/lib_printf.c **** ///////////////////////////////////////////////////////////////////////////////
 136:Libraries/ctrl_sdk/src/lib_printf.c **** 
 137:Libraries/ctrl_sdk/src/lib_printf.c **** // The following will convert the number-of-digits into an exponential-notation literal
 138:Libraries/ctrl_sdk/src/lib_printf.c **** #define PRINTF_CONCATENATE(s1, s2) s1##s2
 139:Libraries/ctrl_sdk/src/lib_printf.c **** #define PRINTF_EXPAND_THEN_CONCATENATE(s1, s2) PRINTF_CONCATENATE(s1, s2)
 140:Libraries/ctrl_sdk/src/lib_printf.c **** #define PRINTF_FLOAT_NOTATION_THRESHOLD PRINTF_EXPAND_THEN_CONCATENATE(1e,PRINTF_MAX_INTEGRAL_DIGIT
 141:Libraries/ctrl_sdk/src/lib_printf.c **** 
 142:Libraries/ctrl_sdk/src/lib_printf.c **** // internal flag definitions
 143:Libraries/ctrl_sdk/src/lib_printf.c **** #define FLAGS_ZEROPAD   (1U <<  0U)
 144:Libraries/ctrl_sdk/src/lib_printf.c **** #define FLAGS_LEFT      (1U <<  1U)
 145:Libraries/ctrl_sdk/src/lib_printf.c **** #define FLAGS_PLUS      (1U <<  2U)
 146:Libraries/ctrl_sdk/src/lib_printf.c **** #define FLAGS_SPACE     (1U <<  3U)
ARM GAS  C:\Users\Mxuan\AppData\Local\Temp\ccSEBS4R.s 			page 4


 147:Libraries/ctrl_sdk/src/lib_printf.c **** #define FLAGS_HASH      (1U <<  4U)
 148:Libraries/ctrl_sdk/src/lib_printf.c **** #define FLAGS_UPPERCASE (1U <<  5U)
 149:Libraries/ctrl_sdk/src/lib_printf.c **** #define FLAGS_CHAR      (1U <<  6U)
 150:Libraries/ctrl_sdk/src/lib_printf.c **** #define FLAGS_SHORT     (1U <<  7U)
 151:Libraries/ctrl_sdk/src/lib_printf.c **** #define FLAGS_INT       (1U <<  8U)
 152:Libraries/ctrl_sdk/src/lib_printf.c ****   // Only used with PRINTF_SUPPORT_MSVC_STYLE_INTEGER_SPECIFIERS
 153:Libraries/ctrl_sdk/src/lib_printf.c **** #define FLAGS_LONG      (1U <<  9U)
 154:Libraries/ctrl_sdk/src/lib_printf.c **** #define FLAGS_LONG_LONG (1U << 10U)
 155:Libraries/ctrl_sdk/src/lib_printf.c **** #define FLAGS_PRECISION (1U << 11U)
 156:Libraries/ctrl_sdk/src/lib_printf.c **** #define FLAGS_ADAPT_EXP (1U << 12U)
 157:Libraries/ctrl_sdk/src/lib_printf.c **** #define FLAGS_POINTER   (1U << 13U)
 158:Libraries/ctrl_sdk/src/lib_printf.c ****   // Note: Similar, but not identical, effect as FLAGS_HASH
 159:Libraries/ctrl_sdk/src/lib_printf.c **** #define FLAGS_SIGNED    (1U << 14U)
 160:Libraries/ctrl_sdk/src/lib_printf.c ****   // Only used with PRINTF_SUPPORT_MSVC_STYLE_INTEGER_SPECIFIERS
 161:Libraries/ctrl_sdk/src/lib_printf.c **** 
 162:Libraries/ctrl_sdk/src/lib_printf.c **** #ifdef PRINTF_SUPPORT_MSVC_STYLE_INTEGER_SPECIFIERS
 163:Libraries/ctrl_sdk/src/lib_printf.c **** 
 164:Libraries/ctrl_sdk/src/lib_printf.c **** #define FLAGS_INT8 FLAGS_CHAR
 165:Libraries/ctrl_sdk/src/lib_printf.c **** 
 166:Libraries/ctrl_sdk/src/lib_printf.c **** 
 167:Libraries/ctrl_sdk/src/lib_printf.c **** #if   (SHRT_MAX   == 32767LL)
 168:Libraries/ctrl_sdk/src/lib_printf.c **** #define FLAGS_INT16       FLAGS_SHORT
 169:Libraries/ctrl_sdk/src/lib_printf.c **** #elif (INT_MAX    == 32767LL)
 170:Libraries/ctrl_sdk/src/lib_printf.c **** #define FLAGS_INT16       FLAGS_INT
 171:Libraries/ctrl_sdk/src/lib_printf.c **** #elif (LONG_MAX   == 32767LL)
 172:Libraries/ctrl_sdk/src/lib_printf.c **** #define FLAGS_INT16       FLAGS_LONG
 173:Libraries/ctrl_sdk/src/lib_printf.c **** #elif (LLONG_MAX  == 32767LL)
 174:Libraries/ctrl_sdk/src/lib_printf.c **** #define FLAGS_INT16       FLAGS_LONG_LONG
 175:Libraries/ctrl_sdk/src/lib_printf.c **** #else
 176:Libraries/ctrl_sdk/src/lib_printf.c **** #error "No basic integer type has a size of 16 bits exactly"
 177:Libraries/ctrl_sdk/src/lib_printf.c **** #endif
 178:Libraries/ctrl_sdk/src/lib_printf.c **** 
 179:Libraries/ctrl_sdk/src/lib_printf.c **** #if   (SHRT_MAX   == 2147483647LL)
 180:Libraries/ctrl_sdk/src/lib_printf.c **** #define FLAGS_INT32       FLAGS_SHORT
 181:Libraries/ctrl_sdk/src/lib_printf.c **** #elif (INT_MAX    == 2147483647LL)
 182:Libraries/ctrl_sdk/src/lib_printf.c **** #define FLAGS_INT32       FLAGS_INT
 183:Libraries/ctrl_sdk/src/lib_printf.c **** #elif (LONG_MAX   == 2147483647LL)
 184:Libraries/ctrl_sdk/src/lib_printf.c **** #define FLAGS_INT32       FLAGS_LONG
 185:Libraries/ctrl_sdk/src/lib_printf.c **** #elif (LLONG_MAX  == 2147483647LL)
 186:Libraries/ctrl_sdk/src/lib_printf.c **** #define FLAGS_INT32       FLAGS_LONG_LONG
 187:Libraries/ctrl_sdk/src/lib_printf.c **** #else
 188:Libraries/ctrl_sdk/src/lib_printf.c **** #error "No basic integer type has a size of 32 bits exactly"
 189:Libraries/ctrl_sdk/src/lib_printf.c **** #endif
 190:Libraries/ctrl_sdk/src/lib_printf.c **** 
 191:Libraries/ctrl_sdk/src/lib_printf.c **** #if   (SHRT_MAX   == 9223372036854775807LL)
 192:Libraries/ctrl_sdk/src/lib_printf.c **** #define FLAGS_INT64       FLAGS_SHORT
 193:Libraries/ctrl_sdk/src/lib_printf.c **** #elif (INT_MAX    == 9223372036854775807LL)
 194:Libraries/ctrl_sdk/src/lib_printf.c **** #define FLAGS_INT64       FLAGS_INT
 195:Libraries/ctrl_sdk/src/lib_printf.c **** #elif (LONG_MAX   == 9223372036854775807LL)
 196:Libraries/ctrl_sdk/src/lib_printf.c **** #define FLAGS_INT64       FLAGS_LONG
 197:Libraries/ctrl_sdk/src/lib_printf.c **** #elif (LLONG_MAX  == 9223372036854775807LL)
 198:Libraries/ctrl_sdk/src/lib_printf.c **** #define FLAGS_INT64       FLAGS_LONG_LONG
 199:Libraries/ctrl_sdk/src/lib_printf.c **** #else
 200:Libraries/ctrl_sdk/src/lib_printf.c **** #error "No basic integer type has a size of 64 bits exactly"
 201:Libraries/ctrl_sdk/src/lib_printf.c **** #endif
 202:Libraries/ctrl_sdk/src/lib_printf.c **** 
 203:Libraries/ctrl_sdk/src/lib_printf.c **** #endif // PRINTF_SUPPORT_MSVC_STYLE_INTEGER_SPECIFIERS
ARM GAS  C:\Users\Mxuan\AppData\Local\Temp\ccSEBS4R.s 			page 5


 204:Libraries/ctrl_sdk/src/lib_printf.c **** 
 205:Libraries/ctrl_sdk/src/lib_printf.c **** 
 206:Libraries/ctrl_sdk/src/lib_printf.c **** typedef unsigned int printf_flags_t;
 207:Libraries/ctrl_sdk/src/lib_printf.c **** 
 208:Libraries/ctrl_sdk/src/lib_printf.c **** #define BASE_BINARY    2
 209:Libraries/ctrl_sdk/src/lib_printf.c **** #define BASE_OCTAL     8
 210:Libraries/ctrl_sdk/src/lib_printf.c **** #define BASE_DECIMAL  10
 211:Libraries/ctrl_sdk/src/lib_printf.c **** #define BASE_HEX      16
 212:Libraries/ctrl_sdk/src/lib_printf.c **** 
 213:Libraries/ctrl_sdk/src/lib_printf.c **** typedef uint8_t numeric_base_t;
 214:Libraries/ctrl_sdk/src/lib_printf.c **** 
 215:Libraries/ctrl_sdk/src/lib_printf.c **** #if PRINTF_SUPPORT_LONG_LONG
 216:Libraries/ctrl_sdk/src/lib_printf.c **** typedef unsigned long long printf_unsigned_value_t;
 217:Libraries/ctrl_sdk/src/lib_printf.c **** typedef long long          printf_signed_value_t;
 218:Libraries/ctrl_sdk/src/lib_printf.c **** #else
 219:Libraries/ctrl_sdk/src/lib_printf.c **** typedef unsigned long printf_unsigned_value_t;
 220:Libraries/ctrl_sdk/src/lib_printf.c **** typedef long          printf_signed_value_t;
 221:Libraries/ctrl_sdk/src/lib_printf.c **** #endif
 222:Libraries/ctrl_sdk/src/lib_printf.c **** 
 223:Libraries/ctrl_sdk/src/lib_printf.c **** // The printf()-family functions return an `int`; it is therefore
 224:Libraries/ctrl_sdk/src/lib_printf.c **** // unnecessary/inappropriate to use size_t - often larger than int
 225:Libraries/ctrl_sdk/src/lib_printf.c **** // in practice - for non-negative related values, such as widths,
 226:Libraries/ctrl_sdk/src/lib_printf.c **** // precisions, offsets into buffers used for printing and the sizes
 227:Libraries/ctrl_sdk/src/lib_printf.c **** // of these buffers. instead, we use:
 228:Libraries/ctrl_sdk/src/lib_printf.c **** typedef unsigned int printf_size_t;
 229:Libraries/ctrl_sdk/src/lib_printf.c **** #define PRINTF_MAX_POSSIBLE_BUFFER_SIZE INT_MAX
 230:Libraries/ctrl_sdk/src/lib_printf.c ****   // If we were to nitpick, this would actually be INT_MAX + 1,
 231:Libraries/ctrl_sdk/src/lib_printf.c ****   // since INT_MAX is the maximum return value, which excludes the
 232:Libraries/ctrl_sdk/src/lib_printf.c ****   // trailing '\0'.
 233:Libraries/ctrl_sdk/src/lib_printf.c **** 
 234:Libraries/ctrl_sdk/src/lib_printf.c **** #if (PRINTF_SUPPORT_DECIMAL_SPECIFIERS || PRINTF_SUPPORT_EXPONENTIAL_SPECIFIERS)
 235:Libraries/ctrl_sdk/src/lib_printf.c **** #include <float.h>
 236:Libraries/ctrl_sdk/src/lib_printf.c **** #if FLT_RADIX != 2
 237:Libraries/ctrl_sdk/src/lib_printf.c **** #error "Non-binary-radix floating-point types are unsupported."
 238:Libraries/ctrl_sdk/src/lib_printf.c **** #endif
 239:Libraries/ctrl_sdk/src/lib_printf.c **** 
 240:Libraries/ctrl_sdk/src/lib_printf.c **** #if DBL_MANT_DIG == 24
 241:Libraries/ctrl_sdk/src/lib_printf.c **** 
 242:Libraries/ctrl_sdk/src/lib_printf.c **** #define DOUBLE_SIZE_IN_BITS 32
 243:Libraries/ctrl_sdk/src/lib_printf.c **** typedef uint32_t double_uint_t;
 244:Libraries/ctrl_sdk/src/lib_printf.c **** #define DOUBLE_EXPONENT_MASK 0xFFU
 245:Libraries/ctrl_sdk/src/lib_printf.c **** #define DOUBLE_BASE_EXPONENT 127
 246:Libraries/ctrl_sdk/src/lib_printf.c **** #define DOUBLE_MAX_SUBNORMAL_EXPONENT_OF_10 -38
 247:Libraries/ctrl_sdk/src/lib_printf.c **** #define DOUBLE_MAX_SUBNORMAL_POWER_OF_10 1e-38
 248:Libraries/ctrl_sdk/src/lib_printf.c **** 
 249:Libraries/ctrl_sdk/src/lib_printf.c **** #elif DBL_MANT_DIG == 53
 250:Libraries/ctrl_sdk/src/lib_printf.c **** 
 251:Libraries/ctrl_sdk/src/lib_printf.c **** #define DOUBLE_SIZE_IN_BITS 64
 252:Libraries/ctrl_sdk/src/lib_printf.c **** typedef uint64_t double_uint_t;
 253:Libraries/ctrl_sdk/src/lib_printf.c **** #define DOUBLE_EXPONENT_MASK 0x7FFU
 254:Libraries/ctrl_sdk/src/lib_printf.c **** #define DOUBLE_BASE_EXPONENT 1023
 255:Libraries/ctrl_sdk/src/lib_printf.c **** #define DOUBLE_MAX_SUBNORMAL_EXPONENT_OF_10 -308
 256:Libraries/ctrl_sdk/src/lib_printf.c **** #define DOUBLE_MAX_SUBNORMAL_POWER_OF_10 1e-308
 257:Libraries/ctrl_sdk/src/lib_printf.c **** 
 258:Libraries/ctrl_sdk/src/lib_printf.c **** #else
 259:Libraries/ctrl_sdk/src/lib_printf.c **** #error "Unsupported double type configuration"
 260:Libraries/ctrl_sdk/src/lib_printf.c **** #endif
ARM GAS  C:\Users\Mxuan\AppData\Local\Temp\ccSEBS4R.s 			page 6


 261:Libraries/ctrl_sdk/src/lib_printf.c **** #define DOUBLE_STORED_MANTISSA_BITS (DBL_MANT_DIG - 1)
 262:Libraries/ctrl_sdk/src/lib_printf.c **** 
 263:Libraries/ctrl_sdk/src/lib_printf.c **** typedef union {
 264:Libraries/ctrl_sdk/src/lib_printf.c ****   double_uint_t U;
 265:Libraries/ctrl_sdk/src/lib_printf.c ****   double        F;
 266:Libraries/ctrl_sdk/src/lib_printf.c **** } double_with_bit_access;
 267:Libraries/ctrl_sdk/src/lib_printf.c **** 
 268:Libraries/ctrl_sdk/src/lib_printf.c **** // This is unnecessary in C99, since compound initializers can be used,
 269:Libraries/ctrl_sdk/src/lib_printf.c **** // but:
 270:Libraries/ctrl_sdk/src/lib_printf.c **** // 1. Some compilers are finicky about this;
 271:Libraries/ctrl_sdk/src/lib_printf.c **** // 2. Some people may want to convert this to C89;
 272:Libraries/ctrl_sdk/src/lib_printf.c **** // 3. If you try to use it as C++, only C++20 supports compound literals
 273:Libraries/ctrl_sdk/src/lib_printf.c **** static inline double_with_bit_access get_bit_access(double x)
 274:Libraries/ctrl_sdk/src/lib_printf.c **** {
 275:Libraries/ctrl_sdk/src/lib_printf.c ****   double_with_bit_access dwba;
 276:Libraries/ctrl_sdk/src/lib_printf.c ****   dwba.F = x;
 277:Libraries/ctrl_sdk/src/lib_printf.c ****   return dwba;
 278:Libraries/ctrl_sdk/src/lib_printf.c **** }
 279:Libraries/ctrl_sdk/src/lib_printf.c **** 
 280:Libraries/ctrl_sdk/src/lib_printf.c **** static inline int get_sign_bit(double x)
 281:Libraries/ctrl_sdk/src/lib_printf.c **** {
 282:Libraries/ctrl_sdk/src/lib_printf.c ****   // The sign is stored in the highest bit
 283:Libraries/ctrl_sdk/src/lib_printf.c ****   return (int) (get_bit_access(x).U >> (DOUBLE_SIZE_IN_BITS - 1));
 284:Libraries/ctrl_sdk/src/lib_printf.c **** }
 285:Libraries/ctrl_sdk/src/lib_printf.c **** 
 286:Libraries/ctrl_sdk/src/lib_printf.c **** static inline int get_exp2(double_with_bit_access x)
 287:Libraries/ctrl_sdk/src/lib_printf.c **** {
 288:Libraries/ctrl_sdk/src/lib_printf.c ****   // The exponent in an IEEE-754 floating-point number occupies a contiguous
 289:Libraries/ctrl_sdk/src/lib_printf.c ****   // sequence of bits (e.g. 52..62 for 64-bit doubles), but with a non-trivial representation: An
 290:Libraries/ctrl_sdk/src/lib_printf.c ****   // unsigned offset from some negative value (with the extremal offset values reserved for
 291:Libraries/ctrl_sdk/src/lib_printf.c ****   // special use).
 292:Libraries/ctrl_sdk/src/lib_printf.c ****   return (int)((x.U >> DOUBLE_STORED_MANTISSA_BITS ) & DOUBLE_EXPONENT_MASK) - DOUBLE_BASE_EXPONENT
 293:Libraries/ctrl_sdk/src/lib_printf.c **** }
 294:Libraries/ctrl_sdk/src/lib_printf.c **** #define PRINTF_ABS(_x) ( (_x) > 0 ? (_x) : -(_x) )
 295:Libraries/ctrl_sdk/src/lib_printf.c **** 
 296:Libraries/ctrl_sdk/src/lib_printf.c **** #endif // (PRINTF_SUPPORT_DECIMAL_SPECIFIERS || PRINTF_SUPPORT_EXPONENTIAL_SPECIFIERS)
 297:Libraries/ctrl_sdk/src/lib_printf.c **** 
 298:Libraries/ctrl_sdk/src/lib_printf.c **** // Note in particular the behavior here on LONG_MIN or LLONG_MIN; it is valid
 299:Libraries/ctrl_sdk/src/lib_printf.c **** // and well-defined, but if you're not careful you can easily trigger undefined
 300:Libraries/ctrl_sdk/src/lib_printf.c **** // behavior with -LONG_MIN or -LLONG_MIN
 301:Libraries/ctrl_sdk/src/lib_printf.c **** #define ABS_FOR_PRINTING(_x) ((printf_unsigned_value_t) ( (_x) > 0 ? (_x) : -((printf_signed_value_
 302:Libraries/ctrl_sdk/src/lib_printf.c **** 
 303:Libraries/ctrl_sdk/src/lib_printf.c **** // wrapper (used as buffer) for output function type
 304:Libraries/ctrl_sdk/src/lib_printf.c **** //
 305:Libraries/ctrl_sdk/src/lib_printf.c **** // One of the following must hold:
 306:Libraries/ctrl_sdk/src/lib_printf.c **** // 1. max_chars is 0
 307:Libraries/ctrl_sdk/src/lib_printf.c **** // 2. buffer is non-null
 308:Libraries/ctrl_sdk/src/lib_printf.c **** // 3. function is non-null
 309:Libraries/ctrl_sdk/src/lib_printf.c **** //
 310:Libraries/ctrl_sdk/src/lib_printf.c **** // ... otherwise bad things will happen.
 311:Libraries/ctrl_sdk/src/lib_printf.c **** typedef struct {
 312:Libraries/ctrl_sdk/src/lib_printf.c ****   void (*function)(char c, void* extra_arg);
 313:Libraries/ctrl_sdk/src/lib_printf.c ****   void* extra_function_arg;
 314:Libraries/ctrl_sdk/src/lib_printf.c ****   char* buffer;
 315:Libraries/ctrl_sdk/src/lib_printf.c ****   printf_size_t pos;
 316:Libraries/ctrl_sdk/src/lib_printf.c ****   printf_size_t max_chars;
 317:Libraries/ctrl_sdk/src/lib_printf.c **** } output_gadget_t;
ARM GAS  C:\Users\Mxuan\AppData\Local\Temp\ccSEBS4R.s 			page 7


 318:Libraries/ctrl_sdk/src/lib_printf.c **** 
 319:Libraries/ctrl_sdk/src/lib_printf.c **** // Note: This function currently assumes it is not passed a '\0' c,
 320:Libraries/ctrl_sdk/src/lib_printf.c **** // or alternatively, that '\0' can be passed to the function in the output
 321:Libraries/ctrl_sdk/src/lib_printf.c **** // gadget. The former assumption holds within the printf library. It also
 322:Libraries/ctrl_sdk/src/lib_printf.c **** // assumes that the output gadget has been properly initialized.
 323:Libraries/ctrl_sdk/src/lib_printf.c **** static inline void putchar_via_gadget(output_gadget_t* gadget, char c)
 324:Libraries/ctrl_sdk/src/lib_printf.c **** {
  27              		.loc 1 324 1 view -0
  28              		.cfi_startproc
  29              		@ args = 0, pretend = 0, frame = 0
  30              		@ frame_needed = 0, uses_anonymous_args = 0
  31              		.loc 1 324 1 is_stmt 0 view .LVU1
  32 0000 0346     		mov	r3, r0
  33 0002 0846     		mov	r0, r1
  34              	.LVL1:
 325:Libraries/ctrl_sdk/src/lib_printf.c ****   printf_size_t write_pos = gadget->pos++;
  35              		.loc 1 325 3 is_stmt 1 view .LVU2
  36              		.loc 1 325 35 is_stmt 0 view .LVU3
  37 0004 DA68     		ldr	r2, [r3, #12]
  38              		.loc 1 325 40 view .LVU4
  39 0006 511C     		adds	r1, r2, #1
  40              	.LVL2:
  41              		.loc 1 325 40 view .LVU5
  42 0008 D960     		str	r1, [r3, #12]
  43              	.LVL3:
 326:Libraries/ctrl_sdk/src/lib_printf.c ****     // We're _always_ increasing pos, so as to count how may characters
 327:Libraries/ctrl_sdk/src/lib_printf.c ****     // _would_ have been written if not for the max_chars limitation
 328:Libraries/ctrl_sdk/src/lib_printf.c ****   if (write_pos >= gadget->max_chars) {
  44              		.loc 1 328 3 is_stmt 1 view .LVU6
  45              		.loc 1 328 26 is_stmt 0 view .LVU7
  46 000a 1969     		ldr	r1, [r3, #16]
  47              		.loc 1 328 6 view .LVU8
  48 000c 8A42     		cmp	r2, r1
  49 000e 08D2     		bcs	.L5
 324:Libraries/ctrl_sdk/src/lib_printf.c ****   printf_size_t write_pos = gadget->pos++;
  50              		.loc 1 324 1 view .LVU9
  51 0010 10B5     		push	{r4, lr}
  52              	.LCFI0:
  53              		.cfi_def_cfa_offset 8
  54              		.cfi_offset 4, -8
  55              		.cfi_offset 14, -4
 329:Libraries/ctrl_sdk/src/lib_printf.c ****     return;
 330:Libraries/ctrl_sdk/src/lib_printf.c ****   }
 331:Libraries/ctrl_sdk/src/lib_printf.c ****   if (gadget->function != NULL) {
  56              		.loc 1 331 3 is_stmt 1 view .LVU10
  57              		.loc 1 331 13 is_stmt 0 view .LVU11
  58 0012 1C68     		ldr	r4, [r3]
  59              		.loc 1 331 6 view .LVU12
  60 0014 14B1     		cbz	r4, .L3
 332:Libraries/ctrl_sdk/src/lib_printf.c ****     // No check for c == '\0' .
 333:Libraries/ctrl_sdk/src/lib_printf.c ****     gadget->function(c, gadget->extra_function_arg);
  61              		.loc 1 333 5 is_stmt 1 view .LVU13
  62 0016 5968     		ldr	r1, [r3, #4]
  63 0018 A047     		blx	r4
  64              	.LVL4:
  65              	.L1:
 334:Libraries/ctrl_sdk/src/lib_printf.c ****   }
ARM GAS  C:\Users\Mxuan\AppData\Local\Temp\ccSEBS4R.s 			page 8


 335:Libraries/ctrl_sdk/src/lib_printf.c ****   else {
 336:Libraries/ctrl_sdk/src/lib_printf.c ****     // it must be the case that gadget->buffer != NULL , due to the constraint
 337:Libraries/ctrl_sdk/src/lib_printf.c ****     // on output_gadget_t ; and note we're relying on write_pos being non-negative.
 338:Libraries/ctrl_sdk/src/lib_printf.c ****     gadget->buffer[write_pos] = c;
 339:Libraries/ctrl_sdk/src/lib_printf.c ****   }
 340:Libraries/ctrl_sdk/src/lib_printf.c **** }
  66              		.loc 1 340 1 is_stmt 0 view .LVU14
  67 001a 10BD     		pop	{r4, pc}
  68              	.LVL5:
  69              	.L3:
 338:Libraries/ctrl_sdk/src/lib_printf.c ****   }
  70              		.loc 1 338 5 is_stmt 1 view .LVU15
 338:Libraries/ctrl_sdk/src/lib_printf.c ****   }
  71              		.loc 1 338 11 is_stmt 0 view .LVU16
  72 001c 9B68     		ldr	r3, [r3, #8]
  73              	.LVL6:
 338:Libraries/ctrl_sdk/src/lib_printf.c ****   }
  74              		.loc 1 338 31 view .LVU17
  75 001e 9854     		strb	r0, [r3, r2]
  76 0020 FBE7     		b	.L1
  77              	.LVL7:
  78              	.L5:
  79              	.LCFI1:
  80              		.cfi_def_cfa_offset 0
  81              		.cfi_restore 4
  82              		.cfi_restore 14
 338:Libraries/ctrl_sdk/src/lib_printf.c ****   }
  83              		.loc 1 338 31 view .LVU18
  84 0022 7047     		bx	lr
  85              		.cfi_endproc
  86              	.LFE3:
  88              		.section	.text.append_termination_with_gadget,"ax",%progbits
  89              		.align	1
  90              		.syntax unified
  91              		.thumb
  92              		.thumb_func
  94              	append_termination_with_gadget:
  95              	.LVL8:
  96              	.LFB4:
 341:Libraries/ctrl_sdk/src/lib_printf.c **** 
 342:Libraries/ctrl_sdk/src/lib_printf.c **** // Possibly-write the string-terminating '\0' character
 343:Libraries/ctrl_sdk/src/lib_printf.c **** static inline void append_termination_with_gadget(output_gadget_t* gadget)
 344:Libraries/ctrl_sdk/src/lib_printf.c **** {
  97              		.loc 1 344 1 is_stmt 1 view -0
  98              		.cfi_startproc
  99              		@ args = 0, pretend = 0, frame = 0
 100              		@ frame_needed = 0, uses_anonymous_args = 0
 101              		@ link register save eliminated.
 345:Libraries/ctrl_sdk/src/lib_printf.c ****   if (gadget->function != NULL || gadget->max_chars == 0) {
 102              		.loc 1 345 3 view .LVU20
 103              		.loc 1 345 13 is_stmt 0 view .LVU21
 104 0000 0368     		ldr	r3, [r0]
 105              		.loc 1 345 6 view .LVU22
 106 0002 03B1     		cbz	r3, .L11
 107              	.L8:
 346:Libraries/ctrl_sdk/src/lib_printf.c ****     return;
 347:Libraries/ctrl_sdk/src/lib_printf.c ****   }
ARM GAS  C:\Users\Mxuan\AppData\Local\Temp\ccSEBS4R.s 			page 9


 348:Libraries/ctrl_sdk/src/lib_printf.c ****   if (gadget->buffer == NULL) {
 349:Libraries/ctrl_sdk/src/lib_printf.c ****     return;
 350:Libraries/ctrl_sdk/src/lib_printf.c ****   }
 351:Libraries/ctrl_sdk/src/lib_printf.c ****   printf_size_t null_char_pos = gadget->pos < gadget->max_chars ? gadget->pos : gadget->max_chars -
 352:Libraries/ctrl_sdk/src/lib_printf.c ****   gadget->buffer[null_char_pos] = '\0';
 353:Libraries/ctrl_sdk/src/lib_printf.c **** }
 108              		.loc 1 353 1 view .LVU23
 109 0004 7047     		bx	lr
 110              	.L11:
 345:Libraries/ctrl_sdk/src/lib_printf.c ****   if (gadget->function != NULL || gadget->max_chars == 0) {
 111              		.loc 1 345 41 discriminator 1 view .LVU24
 112 0006 0369     		ldr	r3, [r0, #16]
 345:Libraries/ctrl_sdk/src/lib_printf.c ****   if (gadget->function != NULL || gadget->max_chars == 0) {
 113              		.loc 1 345 32 discriminator 1 view .LVU25
 114 0008 002B     		cmp	r3, #0
 115 000a FBD0     		beq	.L8
 348:Libraries/ctrl_sdk/src/lib_printf.c ****     return;
 116              		.loc 1 348 3 is_stmt 1 view .LVU26
 348:Libraries/ctrl_sdk/src/lib_printf.c ****     return;
 117              		.loc 1 348 13 is_stmt 0 view .LVU27
 118 000c 8168     		ldr	r1, [r0, #8]
 348:Libraries/ctrl_sdk/src/lib_printf.c ****     return;
 119              		.loc 1 348 6 view .LVU28
 120 000e 0029     		cmp	r1, #0
 121 0010 F8D0     		beq	.L8
 351:Libraries/ctrl_sdk/src/lib_printf.c ****   gadget->buffer[null_char_pos] = '\0';
 122              		.loc 1 351 3 is_stmt 1 view .LVU29
 351:Libraries/ctrl_sdk/src/lib_printf.c ****   gadget->buffer[null_char_pos] = '\0';
 123              		.loc 1 351 39 is_stmt 0 view .LVU30
 124 0012 C268     		ldr	r2, [r0, #12]
 351:Libraries/ctrl_sdk/src/lib_printf.c ****   gadget->buffer[null_char_pos] = '\0';
 125              		.loc 1 351 79 view .LVU31
 126 0014 9342     		cmp	r3, r2
 127 0016 00D8     		bhi	.L10
 351:Libraries/ctrl_sdk/src/lib_printf.c ****   gadget->buffer[null_char_pos] = '\0';
 128              		.loc 1 351 79 discriminator 2 view .LVU32
 129 0018 5A1E     		subs	r2, r3, #1
 130              	.L10:
 131              	.LVL9:
 352:Libraries/ctrl_sdk/src/lib_printf.c **** }
 132              		.loc 1 352 3 is_stmt 1 discriminator 4 view .LVU33
 352:Libraries/ctrl_sdk/src/lib_printf.c **** }
 133              		.loc 1 352 33 is_stmt 0 discriminator 4 view .LVU34
 134 001a 0023     		movs	r3, #0
 135 001c 8B54     		strb	r3, [r1, r2]
 136 001e F1E7     		b	.L8
 137              		.cfi_endproc
 138              	.LFE4:
 140              		.section	.text.discarding_gadget,"ax",%progbits
 141              		.align	1
 142              		.syntax unified
 143              		.thumb
 144              		.thumb_func
 146              	discarding_gadget:
 147              	.LVL10:
 148              	.LFB6:
 354:Libraries/ctrl_sdk/src/lib_printf.c **** 
ARM GAS  C:\Users\Mxuan\AppData\Local\Temp\ccSEBS4R.s 			page 10


 355:Libraries/ctrl_sdk/src/lib_printf.c **** // We can't use putchar_ as is, since our output gadget
 356:Libraries/ctrl_sdk/src/lib_printf.c **** // only takes pointers to functions with an extra argument
 357:Libraries/ctrl_sdk/src/lib_printf.c **** static inline void putchar_wrapper(char c, void* unused)
 358:Libraries/ctrl_sdk/src/lib_printf.c **** {
 359:Libraries/ctrl_sdk/src/lib_printf.c ****   (void) unused;
 360:Libraries/ctrl_sdk/src/lib_printf.c ****   putchar_(c);
 361:Libraries/ctrl_sdk/src/lib_printf.c **** }
 362:Libraries/ctrl_sdk/src/lib_printf.c **** 
 363:Libraries/ctrl_sdk/src/lib_printf.c **** static inline output_gadget_t discarding_gadget(void)
 364:Libraries/ctrl_sdk/src/lib_printf.c **** {
 149              		.loc 1 364 1 is_stmt 1 view -0
 150              		.cfi_startproc
 151              		@ args = 0, pretend = 0, frame = 0
 152              		@ frame_needed = 0, uses_anonymous_args = 0
 153              		@ link register save eliminated.
 365:Libraries/ctrl_sdk/src/lib_printf.c ****   output_gadget_t gadget;
 154              		.loc 1 365 3 view .LVU36
 366:Libraries/ctrl_sdk/src/lib_printf.c ****   gadget.function = NULL;
 155              		.loc 1 366 3 view .LVU37
 156              		.loc 1 366 19 is_stmt 0 view .LVU38
 157 0000 0022     		movs	r2, #0
 158 0002 0260     		str	r2, [r0]
 367:Libraries/ctrl_sdk/src/lib_printf.c ****   gadget.extra_function_arg = NULL;
 159              		.loc 1 367 3 is_stmt 1 view .LVU39
 160              		.loc 1 367 29 is_stmt 0 view .LVU40
 161 0004 4260     		str	r2, [r0, #4]
 368:Libraries/ctrl_sdk/src/lib_printf.c ****   gadget.buffer = NULL;
 162              		.loc 1 368 3 is_stmt 1 view .LVU41
 163              		.loc 1 368 17 is_stmt 0 view .LVU42
 164 0006 8260     		str	r2, [r0, #8]
 369:Libraries/ctrl_sdk/src/lib_printf.c ****   gadget.pos = 0;
 165              		.loc 1 369 3 is_stmt 1 view .LVU43
 166              		.loc 1 369 14 is_stmt 0 view .LVU44
 167 0008 C260     		str	r2, [r0, #12]
 370:Libraries/ctrl_sdk/src/lib_printf.c ****   gadget.max_chars = 0;
 168              		.loc 1 370 3 is_stmt 1 view .LVU45
 169              		.loc 1 370 20 is_stmt 0 view .LVU46
 170 000a 0261     		str	r2, [r0, #16]
 371:Libraries/ctrl_sdk/src/lib_printf.c ****   return gadget;
 171              		.loc 1 371 3 is_stmt 1 view .LVU47
 372:Libraries/ctrl_sdk/src/lib_printf.c **** }
 172              		.loc 1 372 1 is_stmt 0 view .LVU48
 173 000c 7047     		bx	lr
 174              		.cfi_endproc
 175              	.LFE6:
 177              		.section	.text.buffer_gadget,"ax",%progbits
 178              		.align	1
 179              		.syntax unified
 180              		.thumb
 181              		.thumb_func
 183              	buffer_gadget:
 184              	.LVL11:
 185              	.LFB7:
 373:Libraries/ctrl_sdk/src/lib_printf.c **** 
 374:Libraries/ctrl_sdk/src/lib_printf.c **** static inline output_gadget_t buffer_gadget(char* buffer, size_t buffer_size)
 375:Libraries/ctrl_sdk/src/lib_printf.c **** {
 186              		.loc 1 375 1 is_stmt 1 view -0
ARM GAS  C:\Users\Mxuan\AppData\Local\Temp\ccSEBS4R.s 			page 11


 187              		.cfi_startproc
 188              		@ args = 0, pretend = 0, frame = 0
 189              		@ frame_needed = 0, uses_anonymous_args = 0
 190              		.loc 1 375 1 is_stmt 0 view .LVU50
 191 0000 70B5     		push	{r4, r5, r6, lr}
 192              	.LCFI2:
 193              		.cfi_def_cfa_offset 16
 194              		.cfi_offset 4, -16
 195              		.cfi_offset 5, -12
 196              		.cfi_offset 6, -8
 197              		.cfi_offset 14, -4
 198 0002 0446     		mov	r4, r0
 199 0004 0E46     		mov	r6, r1
 376:Libraries/ctrl_sdk/src/lib_printf.c ****   printf_size_t usable_buffer_size = (buffer_size > PRINTF_MAX_POSSIBLE_BUFFER_SIZE) ?
 200              		.loc 1 376 3 is_stmt 1 view .LVU51
 377:Libraries/ctrl_sdk/src/lib_printf.c ****     PRINTF_MAX_POSSIBLE_BUFFER_SIZE : (printf_size_t) buffer_size;
 201              		.loc 1 377 37 is_stmt 0 view .LVU52
 202 0006 151E     		subs	r5, r2, #0
 203 0008 07DB     		blt	.L18
 204              	.L14:
 205              	.LVL12:
 378:Libraries/ctrl_sdk/src/lib_printf.c ****   output_gadget_t result = discarding_gadget();
 206              		.loc 1 378 3 is_stmt 1 view .LVU53
 207              		.loc 1 378 28 is_stmt 0 view .LVU54
 208 000a 2046     		mov	r0, r4
 209              	.LVL13:
 210              		.loc 1 378 28 view .LVU55
 211 000c FFF7FEFF 		bl	discarding_gadget
 212              	.LVL14:
 379:Libraries/ctrl_sdk/src/lib_printf.c ****   if (buffer != NULL) {
 213              		.loc 1 379 3 is_stmt 1 view .LVU56
 214              		.loc 1 379 6 is_stmt 0 view .LVU57
 215 0010 0EB1     		cbz	r6, .L13
 380:Libraries/ctrl_sdk/src/lib_printf.c ****     result.buffer = buffer;
 216              		.loc 1 380 5 is_stmt 1 view .LVU58
 217              		.loc 1 380 19 is_stmt 0 view .LVU59
 218 0012 A660     		str	r6, [r4, #8]
 381:Libraries/ctrl_sdk/src/lib_printf.c ****     result.max_chars = usable_buffer_size;
 219              		.loc 1 381 5 is_stmt 1 view .LVU60
 220              		.loc 1 381 22 is_stmt 0 view .LVU61
 221 0014 2561     		str	r5, [r4, #16]
 382:Libraries/ctrl_sdk/src/lib_printf.c ****   }
 383:Libraries/ctrl_sdk/src/lib_printf.c ****   return result;
 222              		.loc 1 383 3 is_stmt 1 view .LVU62
 223              	.L13:
 384:Libraries/ctrl_sdk/src/lib_printf.c **** }
 224              		.loc 1 384 1 is_stmt 0 view .LVU63
 225 0016 2046     		mov	r0, r4
 226 0018 70BD     		pop	{r4, r5, r6, pc}
 227              	.LVL15:
 228              	.L18:
 377:Libraries/ctrl_sdk/src/lib_printf.c ****   output_gadget_t result = discarding_gadget();
 229              		.loc 1 377 37 view .LVU64
 230 001a 6FF00045 		mvn	r5, #-2147483648
 231 001e F4E7     		b	.L14
 232              		.cfi_endproc
 233              	.LFE7:
ARM GAS  C:\Users\Mxuan\AppData\Local\Temp\ccSEBS4R.s 			page 12


 235              		.section	.text.function_gadget,"ax",%progbits
 236              		.align	1
 237              		.syntax unified
 238              		.thumb
 239              		.thumb_func
 241              	function_gadget:
 242              	.LVL16:
 243              	.LFB8:
 385:Libraries/ctrl_sdk/src/lib_printf.c **** 
 386:Libraries/ctrl_sdk/src/lib_printf.c **** static inline output_gadget_t function_gadget(void (*function)(char, void*), void* extra_arg)
 387:Libraries/ctrl_sdk/src/lib_printf.c **** {
 244              		.loc 1 387 1 is_stmt 1 view -0
 245              		.cfi_startproc
 246              		@ args = 0, pretend = 0, frame = 0
 247              		@ frame_needed = 0, uses_anonymous_args = 0
 248              		.loc 1 387 1 is_stmt 0 view .LVU66
 249 0000 70B5     		push	{r4, r5, r6, lr}
 250              	.LCFI3:
 251              		.cfi_def_cfa_offset 16
 252              		.cfi_offset 4, -16
 253              		.cfi_offset 5, -12
 254              		.cfi_offset 6, -8
 255              		.cfi_offset 14, -4
 256 0002 0446     		mov	r4, r0
 257 0004 0E46     		mov	r6, r1
 258 0006 1546     		mov	r5, r2
 388:Libraries/ctrl_sdk/src/lib_printf.c ****   output_gadget_t result = discarding_gadget();
 259              		.loc 1 388 3 is_stmt 1 view .LVU67
 260              		.loc 1 388 28 is_stmt 0 view .LVU68
 261 0008 FFF7FEFF 		bl	discarding_gadget
 262              	.LVL17:
 389:Libraries/ctrl_sdk/src/lib_printf.c ****   result.function = function;
 263              		.loc 1 389 3 is_stmt 1 view .LVU69
 264              		.loc 1 389 19 is_stmt 0 view .LVU70
 265 000c 2660     		str	r6, [r4]
 390:Libraries/ctrl_sdk/src/lib_printf.c ****   result.extra_function_arg = extra_arg;
 266              		.loc 1 390 3 is_stmt 1 view .LVU71
 267              		.loc 1 390 29 is_stmt 0 view .LVU72
 268 000e 6560     		str	r5, [r4, #4]
 391:Libraries/ctrl_sdk/src/lib_printf.c ****   result.max_chars = PRINTF_MAX_POSSIBLE_BUFFER_SIZE;
 269              		.loc 1 391 3 is_stmt 1 view .LVU73
 270              		.loc 1 391 20 is_stmt 0 view .LVU74
 271 0010 6FF00043 		mvn	r3, #-2147483648
 272 0014 2361     		str	r3, [r4, #16]
 392:Libraries/ctrl_sdk/src/lib_printf.c ****   return result;
 273              		.loc 1 392 3 is_stmt 1 view .LVU75
 393:Libraries/ctrl_sdk/src/lib_printf.c **** }
 274              		.loc 1 393 1 is_stmt 0 view .LVU76
 275 0016 2046     		mov	r0, r4
 276 0018 70BD     		pop	{r4, r5, r6, pc}
 277              		.loc 1 393 1 view .LVU77
 278              		.cfi_endproc
 279              	.LFE8:
 281              		.section	.text.atou_,"ax",%progbits
 282              		.align	1
 283              		.syntax unified
 284              		.thumb
ARM GAS  C:\Users\Mxuan\AppData\Local\Temp\ccSEBS4R.s 			page 13


 285              		.thumb_func
 287              	atou_:
 288              	.LVL18:
 289              	.LFB12:
 394:Libraries/ctrl_sdk/src/lib_printf.c **** 
 395:Libraries/ctrl_sdk/src/lib_printf.c **** static inline output_gadget_t extern_putchar_gadget(void)
 396:Libraries/ctrl_sdk/src/lib_printf.c **** {
 397:Libraries/ctrl_sdk/src/lib_printf.c ****   return function_gadget(putchar_wrapper, NULL);
 398:Libraries/ctrl_sdk/src/lib_printf.c **** }
 399:Libraries/ctrl_sdk/src/lib_printf.c **** 
 400:Libraries/ctrl_sdk/src/lib_printf.c **** // internal secure strlen
 401:Libraries/ctrl_sdk/src/lib_printf.c **** // @return The length of the string (excluding the terminating 0) limited by 'maxsize'
 402:Libraries/ctrl_sdk/src/lib_printf.c **** // @note strlen uses size_t, but wes only use this function with printf_size_t
 403:Libraries/ctrl_sdk/src/lib_printf.c **** // variables - hence the signature.
 404:Libraries/ctrl_sdk/src/lib_printf.c **** static inline printf_size_t strnlen_s_(const char* str, printf_size_t maxsize)
 405:Libraries/ctrl_sdk/src/lib_printf.c **** {
 406:Libraries/ctrl_sdk/src/lib_printf.c ****   const char* s;
 407:Libraries/ctrl_sdk/src/lib_printf.c ****   for (s = str; *s && maxsize--; ++s);
 408:Libraries/ctrl_sdk/src/lib_printf.c ****   return (printf_size_t)(s - str);
 409:Libraries/ctrl_sdk/src/lib_printf.c **** }
 410:Libraries/ctrl_sdk/src/lib_printf.c **** 
 411:Libraries/ctrl_sdk/src/lib_printf.c **** 
 412:Libraries/ctrl_sdk/src/lib_printf.c **** // internal test if char is a digit (0-9)
 413:Libraries/ctrl_sdk/src/lib_printf.c **** // @return true if char is a digit
 414:Libraries/ctrl_sdk/src/lib_printf.c **** static inline bool is_digit_(char ch)
 415:Libraries/ctrl_sdk/src/lib_printf.c **** {
 416:Libraries/ctrl_sdk/src/lib_printf.c ****   return (ch >= '0') && (ch <= '9');
 417:Libraries/ctrl_sdk/src/lib_printf.c **** }
 418:Libraries/ctrl_sdk/src/lib_printf.c **** 
 419:Libraries/ctrl_sdk/src/lib_printf.c **** 
 420:Libraries/ctrl_sdk/src/lib_printf.c **** // internal ASCII string to printf_size_t conversion
 421:Libraries/ctrl_sdk/src/lib_printf.c **** static printf_size_t atou_(const char** str)
 422:Libraries/ctrl_sdk/src/lib_printf.c **** {
 290              		.loc 1 422 1 is_stmt 1 view -0
 291              		.cfi_startproc
 292              		@ args = 0, pretend = 0, frame = 0
 293              		@ frame_needed = 0, uses_anonymous_args = 0
 294              		@ link register save eliminated.
 295              		.loc 1 422 1 is_stmt 0 view .LVU79
 296 0000 0146     		mov	r1, r0
 423:Libraries/ctrl_sdk/src/lib_printf.c ****   printf_size_t i = 0U;
 297              		.loc 1 423 3 is_stmt 1 view .LVU80
 298              	.LVL19:
 424:Libraries/ctrl_sdk/src/lib_printf.c ****   while (is_digit_(**str)) {
 299              		.loc 1 424 3 view .LVU81
 423:Libraries/ctrl_sdk/src/lib_printf.c ****   printf_size_t i = 0U;
 300              		.loc 1 423 17 is_stmt 0 view .LVU82
 301 0002 0020     		movs	r0, #0
 302              	.LVL20:
 303              		.loc 1 424 9 view .LVU83
 304 0004 08E0     		b	.L22
 305              	.LVL21:
 306              	.L23:
 425:Libraries/ctrl_sdk/src/lib_printf.c ****     i = i * 10U + (printf_size_t)(*((*str)++) - '0');
 307              		.loc 1 425 5 is_stmt 1 view .LVU84
 308              		.loc 1 425 11 is_stmt 0 view .LVU85
 309 0006 00EB8000 		add	r0, r0, r0, lsl #2
ARM GAS  C:\Users\Mxuan\AppData\Local\Temp\ccSEBS4R.s 			page 14


 310              	.LVL22:
 311              		.loc 1 425 43 view .LVU86
 312 000a 531C     		adds	r3, r2, #1
 313 000c 0B60     		str	r3, [r1]
 314              		.loc 1 425 35 view .LVU87
 315 000e 1378     		ldrb	r3, [r2]	@ zero_extendqisi2
 316              		.loc 1 425 17 view .LVU88
 317 0010 03EB4003 		add	r3, r3, r0, lsl #1
 318              		.loc 1 425 7 view .LVU89
 319 0014 A3F13000 		sub	r0, r3, #48
 320              	.LVL23:
 321              	.L22:
 424:Libraries/ctrl_sdk/src/lib_printf.c ****   while (is_digit_(**str)) {
 322              		.loc 1 424 10 is_stmt 1 view .LVU90
 424:Libraries/ctrl_sdk/src/lib_printf.c ****   while (is_digit_(**str)) {
 323              		.loc 1 424 21 is_stmt 0 view .LVU91
 324 0018 0A68     		ldr	r2, [r1]
 424:Libraries/ctrl_sdk/src/lib_printf.c ****   while (is_digit_(**str)) {
 325              		.loc 1 424 10 view .LVU92
 326 001a 1378     		ldrb	r3, [r2]	@ zero_extendqisi2
 327              	.LVL24:
 328              	.LBB48:
 329              	.LBI48:
 414:Libraries/ctrl_sdk/src/lib_printf.c **** {
 330              		.loc 1 414 20 is_stmt 1 view .LVU93
 331              	.LBB49:
 416:Libraries/ctrl_sdk/src/lib_printf.c **** }
 332              		.loc 1 416 3 view .LVU94
 416:Libraries/ctrl_sdk/src/lib_printf.c **** }
 333              		.loc 1 416 22 is_stmt 0 view .LVU95
 334 001c 303B     		subs	r3, r3, #48
 335 001e DBB2     		uxtb	r3, r3
 336              	.LVL25:
 416:Libraries/ctrl_sdk/src/lib_printf.c **** }
 337              		.loc 1 416 22 view .LVU96
 338              	.LBE49:
 339              	.LBE48:
 424:Libraries/ctrl_sdk/src/lib_printf.c ****     i = i * 10U + (printf_size_t)(*((*str)++) - '0');
 340              		.loc 1 424 10 view .LVU97
 341 0020 092B     		cmp	r3, #9
 342 0022 F0D9     		bls	.L23
 426:Libraries/ctrl_sdk/src/lib_printf.c ****   }
 427:Libraries/ctrl_sdk/src/lib_printf.c ****   return i;
 343              		.loc 1 427 3 is_stmt 1 view .LVU98
 428:Libraries/ctrl_sdk/src/lib_printf.c **** }
 344              		.loc 1 428 1 is_stmt 0 view .LVU99
 345 0024 7047     		bx	lr
 346              		.cfi_endproc
 347              	.LFE12:
 349              		.section	.text.out_rev_,"ax",%progbits
 350              		.align	1
 351              		.syntax unified
 352              		.thumb
 353              		.thumb_func
 355              	out_rev_:
 356              	.LVL26:
 357              	.LFB13:
ARM GAS  C:\Users\Mxuan\AppData\Local\Temp\ccSEBS4R.s 			page 15


 429:Libraries/ctrl_sdk/src/lib_printf.c **** 
 430:Libraries/ctrl_sdk/src/lib_printf.c **** 
 431:Libraries/ctrl_sdk/src/lib_printf.c **** // output the specified string in reverse, taking care of any zero-padding
 432:Libraries/ctrl_sdk/src/lib_printf.c **** static void out_rev_(output_gadget_t* output, const char* buf, printf_size_t len, printf_size_t wid
 433:Libraries/ctrl_sdk/src/lib_printf.c **** {
 358              		.loc 1 433 1 is_stmt 1 view -0
 359              		.cfi_startproc
 360              		@ args = 4, pretend = 0, frame = 0
 361              		@ frame_needed = 0, uses_anonymous_args = 0
 362              		.loc 1 433 1 is_stmt 0 view .LVU101
 363 0000 2DE9F047 		push	{r4, r5, r6, r7, r8, r9, r10, lr}
 364              	.LCFI4:
 365              		.cfi_def_cfa_offset 32
 366              		.cfi_offset 4, -32
 367              		.cfi_offset 5, -28
 368              		.cfi_offset 6, -24
 369              		.cfi_offset 7, -20
 370              		.cfi_offset 8, -16
 371              		.cfi_offset 9, -12
 372              		.cfi_offset 10, -8
 373              		.cfi_offset 14, -4
 374 0004 0546     		mov	r5, r0
 375 0006 8846     		mov	r8, r1
 376 0008 1446     		mov	r4, r2
 377 000a 1F46     		mov	r7, r3
 378 000c DDF820A0 		ldr	r10, [sp, #32]
 434:Libraries/ctrl_sdk/src/lib_printf.c ****   const printf_size_t start_pos = output->pos;
 379              		.loc 1 434 3 is_stmt 1 view .LVU102
 380              		.loc 1 434 23 is_stmt 0 view .LVU103
 381 0010 D0F80C90 		ldr	r9, [r0, #12]
 382              	.LVL27:
 435:Libraries/ctrl_sdk/src/lib_printf.c **** 
 436:Libraries/ctrl_sdk/src/lib_printf.c ****   // pad spaces up to given width
 437:Libraries/ctrl_sdk/src/lib_printf.c ****   if (!(flags & FLAGS_LEFT) && !(flags & FLAGS_ZEROPAD)) {
 383              		.loc 1 437 3 is_stmt 1 view .LVU104
 384              		.loc 1 437 6 is_stmt 0 view .LVU105
 385 0014 1AF0030F 		tst	r10, #3
 386 0018 0ED1     		bne	.L26
 387              	.LBB50:
 438:Libraries/ctrl_sdk/src/lib_printf.c ****     for (printf_size_t i = len; i < width; i++) {
 388              		.loc 1 438 24 view .LVU106
 389 001a 1646     		mov	r6, r2
 390              	.LVL28:
 391              	.L25:
 392              		.loc 1 438 35 is_stmt 1 discriminator 1 view .LVU107
 393 001c BE42     		cmp	r6, r7
 394 001e 0BD2     		bcs	.L26
 439:Libraries/ctrl_sdk/src/lib_printf.c ****       putchar_via_gadget(output, ' ');
 395              		.loc 1 439 7 discriminator 3 view .LVU108
 396 0020 2021     		movs	r1, #32
 397 0022 2846     		mov	r0, r5
 398 0024 FFF7FEFF 		bl	putchar_via_gadget
 399              	.LVL29:
 438:Libraries/ctrl_sdk/src/lib_printf.c ****     for (printf_size_t i = len; i < width; i++) {
 400              		.loc 1 438 45 discriminator 3 view .LVU109
 401 0028 0136     		adds	r6, r6, #1
 402              	.LVL30:
ARM GAS  C:\Users\Mxuan\AppData\Local\Temp\ccSEBS4R.s 			page 16


 438:Libraries/ctrl_sdk/src/lib_printf.c ****     for (printf_size_t i = len; i < width; i++) {
 403              		.loc 1 438 45 is_stmt 0 discriminator 3 view .LVU110
 404 002a F7E7     		b	.L25
 405              	.LVL31:
 406              	.L29:
 438:Libraries/ctrl_sdk/src/lib_printf.c ****     for (printf_size_t i = len; i < width; i++) {
 407              		.loc 1 438 45 discriminator 3 view .LVU111
 408              	.LBE50:
 440:Libraries/ctrl_sdk/src/lib_printf.c ****     }
 441:Libraries/ctrl_sdk/src/lib_printf.c ****   }
 442:Libraries/ctrl_sdk/src/lib_printf.c **** 
 443:Libraries/ctrl_sdk/src/lib_printf.c ****   // reverse string
 444:Libraries/ctrl_sdk/src/lib_printf.c ****   while (len) {
 445:Libraries/ctrl_sdk/src/lib_printf.c ****     putchar_via_gadget(output, buf[--len]);
 409              		.loc 1 445 5 is_stmt 1 view .LVU112
 410 002c 013C     		subs	r4, r4, #1
 411              	.LVL32:
 412              		.loc 1 445 5 is_stmt 0 view .LVU113
 413 002e 18F80410 		ldrb	r1, [r8, r4]	@ zero_extendqisi2
 414 0032 2846     		mov	r0, r5
 415 0034 FFF7FEFF 		bl	putchar_via_gadget
 416              	.LVL33:
 417              	.L26:
 444:Libraries/ctrl_sdk/src/lib_printf.c ****     putchar_via_gadget(output, buf[--len]);
 418              		.loc 1 444 10 is_stmt 1 view .LVU114
 419 0038 002C     		cmp	r4, #0
 420 003a F7D1     		bne	.L29
 446:Libraries/ctrl_sdk/src/lib_printf.c ****   }
 447:Libraries/ctrl_sdk/src/lib_printf.c **** 
 448:Libraries/ctrl_sdk/src/lib_printf.c ****   // append pad spaces up to given width
 449:Libraries/ctrl_sdk/src/lib_printf.c ****   if (flags & FLAGS_LEFT) {
 421              		.loc 1 449 3 view .LVU115
 422              		.loc 1 449 6 is_stmt 0 view .LVU116
 423 003c 1AF0020F 		tst	r10, #2
 424 0040 01D1     		bne	.L30
 425              	.L24:
 450:Libraries/ctrl_sdk/src/lib_printf.c ****     while (output->pos - start_pos < width) {
 451:Libraries/ctrl_sdk/src/lib_printf.c ****       putchar_via_gadget(output, ' ');
 452:Libraries/ctrl_sdk/src/lib_printf.c ****     }
 453:Libraries/ctrl_sdk/src/lib_printf.c ****   }
 454:Libraries/ctrl_sdk/src/lib_printf.c **** }
 426              		.loc 1 454 1 view .LVU117
 427 0042 BDE8F087 		pop	{r4, r5, r6, r7, r8, r9, r10, pc}
 428              	.LVL34:
 429              	.L30:
 450:Libraries/ctrl_sdk/src/lib_printf.c ****     while (output->pos - start_pos < width) {
 430              		.loc 1 450 36 is_stmt 1 view .LVU118
 450:Libraries/ctrl_sdk/src/lib_printf.c ****     while (output->pos - start_pos < width) {
 431              		.loc 1 450 18 is_stmt 0 view .LVU119
 432 0046 EA68     		ldr	r2, [r5, #12]
 450:Libraries/ctrl_sdk/src/lib_printf.c ****     while (output->pos - start_pos < width) {
 433              		.loc 1 450 24 view .LVU120
 434 0048 A2EB0902 		sub	r2, r2, r9
 450:Libraries/ctrl_sdk/src/lib_printf.c ****     while (output->pos - start_pos < width) {
 435              		.loc 1 450 36 view .LVU121
 436 004c BA42     		cmp	r2, r7
 437 004e F8D2     		bcs	.L24
ARM GAS  C:\Users\Mxuan\AppData\Local\Temp\ccSEBS4R.s 			page 17


 451:Libraries/ctrl_sdk/src/lib_printf.c ****     }
 438              		.loc 1 451 7 is_stmt 1 view .LVU122
 439 0050 2021     		movs	r1, #32
 440 0052 2846     		mov	r0, r5
 441 0054 FFF7FEFF 		bl	putchar_via_gadget
 442              	.LVL35:
 443 0058 F5E7     		b	.L30
 444              		.cfi_endproc
 445              	.LFE13:
 447              		.section	.text.print_integer_finalization,"ax",%progbits
 448              		.align	1
 449              		.syntax unified
 450              		.thumb
 451              		.thumb_func
 453              	print_integer_finalization:
 454              	.LVL36:
 455              	.LFB14:
 455:Libraries/ctrl_sdk/src/lib_printf.c **** 
 456:Libraries/ctrl_sdk/src/lib_printf.c **** 
 457:Libraries/ctrl_sdk/src/lib_printf.c **** // Invoked by print_integer after the actual number has been printed, performing necessary
 458:Libraries/ctrl_sdk/src/lib_printf.c **** // work on the number's prefix (as the number is initially printed in reverse order)
 459:Libraries/ctrl_sdk/src/lib_printf.c **** static void print_integer_finalization(output_gadget_t* output, char* buf, printf_size_t len, bool 
 460:Libraries/ctrl_sdk/src/lib_printf.c **** {
 456              		.loc 1 460 1 view -0
 457              		.cfi_startproc
 458              		@ args = 16, pretend = 0, frame = 0
 459              		@ frame_needed = 0, uses_anonymous_args = 0
 460              		.loc 1 460 1 is_stmt 0 view .LVU124
 461 0000 F0B5     		push	{r4, r5, r6, r7, lr}
 462              	.LCFI5:
 463              		.cfi_def_cfa_offset 20
 464              		.cfi_offset 4, -20
 465              		.cfi_offset 5, -16
 466              		.cfi_offset 6, -12
 467              		.cfi_offset 7, -8
 468              		.cfi_offset 14, -4
 469 0002 83B0     		sub	sp, sp, #12
 470              	.LCFI6:
 471              		.cfi_def_cfa_offset 32
 472 0004 9646     		mov	lr, r2
 473 0006 1F46     		mov	r7, r3
 474 0008 9DF82060 		ldrb	r6, [sp, #32]	@ zero_extendqisi2
 475 000c 099C     		ldr	r4, [sp, #36]
 476 000e 0A9B     		ldr	r3, [sp, #40]
 477              	.LVL37:
 478              		.loc 1 460 1 view .LVU125
 479 0010 0B9D     		ldr	r5, [sp, #44]
 461:Libraries/ctrl_sdk/src/lib_printf.c ****   printf_size_t unpadded_len = len;
 480              		.loc 1 461 3 is_stmt 1 view .LVU126
 481              	.LVL38:
 462:Libraries/ctrl_sdk/src/lib_printf.c **** 
 463:Libraries/ctrl_sdk/src/lib_printf.c ****   // pad with leading zeros
 464:Libraries/ctrl_sdk/src/lib_printf.c ****   {
 465:Libraries/ctrl_sdk/src/lib_printf.c ****     if (!(flags & FLAGS_LEFT)) {
 482              		.loc 1 465 5 view .LVU127
 483              		.loc 1 465 8 is_stmt 0 view .LVU128
 484 0012 15F0020F 		tst	r5, #2
ARM GAS  C:\Users\Mxuan\AppData\Local\Temp\ccSEBS4R.s 			page 18


 485 0016 1CD1     		bne	.L41
 466:Libraries/ctrl_sdk/src/lib_printf.c ****       if (width && (flags & FLAGS_ZEROPAD) && (negative || (flags & (FLAGS_PLUS | FLAGS_SPACE)))) {
 486              		.loc 1 466 7 is_stmt 1 view .LVU129
 487              		.loc 1 466 10 is_stmt 0 view .LVU130
 488 0018 3BB1     		cbz	r3, .L37
 489              		.loc 1 466 17 discriminator 1 view .LVU131
 490 001a 15F0010F 		tst	r5, #1
 491 001e 04D0     		beq	.L37
 492              		.loc 1 466 44 discriminator 2 view .LVU132
 493 0020 17B9     		cbnz	r7, .L38
 494              		.loc 1 466 57 discriminator 3 view .LVU133
 495 0022 15F00C0F 		tst	r5, #12
 496 0026 00D0     		beq	.L37
 497              	.L38:
 467:Libraries/ctrl_sdk/src/lib_printf.c ****         width--;
 498              		.loc 1 467 9 is_stmt 1 view .LVU134
 499              		.loc 1 467 14 is_stmt 0 view .LVU135
 500 0028 013B     		subs	r3, r3, #1
 501              	.LVL39:
 502              	.L37:
 460:Libraries/ctrl_sdk/src/lib_printf.c ****   printf_size_t unpadded_len = len;
 503              		.loc 1 460 1 view .LVU136
 504 002a 7246     		mov	r2, lr
 505              	.LVL40:
 460:Libraries/ctrl_sdk/src/lib_printf.c ****   printf_size_t unpadded_len = len;
 506              		.loc 1 460 1 view .LVU137
 507 002c 04E0     		b	.L39
 508              	.LVL41:
 509              	.L40:
 468:Libraries/ctrl_sdk/src/lib_printf.c ****       }
 469:Libraries/ctrl_sdk/src/lib_printf.c ****       while ((flags & FLAGS_ZEROPAD) && (len < width) && (len < PRINTF_INTEGER_BUFFER_SIZE)) {
 470:Libraries/ctrl_sdk/src/lib_printf.c ****         buf[len++] = '0';
 510              		.loc 1 470 9 is_stmt 1 view .LVU138
 511              		.loc 1 470 20 is_stmt 0 view .LVU139
 512 002e 4FF0300C 		mov	ip, #48
 513 0032 01F802C0 		strb	ip, [r1, r2]
 514              		.loc 1 470 16 view .LVU140
 515 0036 0132     		adds	r2, r2, #1
 516              	.LVL42:
 517              	.L39:
 469:Libraries/ctrl_sdk/src/lib_printf.c ****         buf[len++] = '0';
 518              		.loc 1 469 55 is_stmt 1 view .LVU141
 519 0038 15F0010F 		tst	r5, #1
 520 003c 09D0     		beq	.L41
 469:Libraries/ctrl_sdk/src/lib_printf.c ****         buf[len++] = '0';
 521              		.loc 1 469 38 is_stmt 0 discriminator 1 view .LVU142
 522 003e 9A42     		cmp	r2, r3
 523 0040 07D2     		bcs	.L41
 469:Libraries/ctrl_sdk/src/lib_printf.c ****         buf[len++] = '0';
 524              		.loc 1 469 55 discriminator 2 view .LVU143
 525 0042 1F2A     		cmp	r2, #31
 526 0044 F3D9     		bls	.L40
 527 0046 04E0     		b	.L41
 528              	.L43:
 471:Libraries/ctrl_sdk/src/lib_printf.c ****       }
 472:Libraries/ctrl_sdk/src/lib_printf.c ****     }
 473:Libraries/ctrl_sdk/src/lib_printf.c **** 
ARM GAS  C:\Users\Mxuan\AppData\Local\Temp\ccSEBS4R.s 			page 19


 474:Libraries/ctrl_sdk/src/lib_printf.c ****     while ((len < precision) && (len < PRINTF_INTEGER_BUFFER_SIZE)) {
 475:Libraries/ctrl_sdk/src/lib_printf.c ****       buf[len++] = '0';
 529              		.loc 1 475 7 is_stmt 1 view .LVU144
 530              	.LVL43:
 531              		.loc 1 475 18 is_stmt 0 view .LVU145
 532 0048 4FF0300C 		mov	ip, #48
 533 004c 01F802C0 		strb	ip, [r1, r2]
 534              		.loc 1 475 14 view .LVU146
 535 0050 0132     		adds	r2, r2, #1
 536              	.LVL44:
 537              	.L41:
 474:Libraries/ctrl_sdk/src/lib_printf.c ****       buf[len++] = '0';
 538              		.loc 1 474 30 is_stmt 1 view .LVU147
 539 0052 A242     		cmp	r2, r4
 540 0054 01D2     		bcs	.L42
 474:Libraries/ctrl_sdk/src/lib_printf.c ****       buf[len++] = '0';
 541              		.loc 1 474 30 is_stmt 0 discriminator 1 view .LVU148
 542 0056 1F2A     		cmp	r2, #31
 543 0058 F6D9     		bls	.L43
 544              	.L42:
 476:Libraries/ctrl_sdk/src/lib_printf.c ****     }
 477:Libraries/ctrl_sdk/src/lib_printf.c **** 
 478:Libraries/ctrl_sdk/src/lib_printf.c ****     if (base == BASE_OCTAL && (len > unpadded_len)) {
 545              		.loc 1 478 5 is_stmt 1 view .LVU149
 546              		.loc 1 478 8 is_stmt 0 view .LVU150
 547 005a 082E     		cmp	r6, #8
 548 005c 20D0     		beq	.L58
 549              	.LVL45:
 550              	.L44:
 479:Libraries/ctrl_sdk/src/lib_printf.c ****       // Since we've written some zeros, we've satisfied the alternative format leading space requi
 480:Libraries/ctrl_sdk/src/lib_printf.c ****       flags &= ~FLAGS_HASH;
 481:Libraries/ctrl_sdk/src/lib_printf.c ****     }
 482:Libraries/ctrl_sdk/src/lib_printf.c ****   }
 483:Libraries/ctrl_sdk/src/lib_printf.c **** 
 484:Libraries/ctrl_sdk/src/lib_printf.c ****   // handle hash
 485:Libraries/ctrl_sdk/src/lib_printf.c ****   if (flags & (FLAGS_HASH | FLAGS_POINTER)) {
 551              		.loc 1 485 3 is_stmt 1 view .LVU151
 552              		.loc 1 485 6 is_stmt 0 view .LVU152
 553 005e 42F2100C 		movw	ip, #8208
 554 0062 15EA0C0F 		tst	r5, ip
 555 0066 10D0     		beq	.L45
 486:Libraries/ctrl_sdk/src/lib_printf.c ****     if (!(flags & FLAGS_PRECISION) && len && ((len == precision) || (len == width))) {
 556              		.loc 1 486 5 is_stmt 1 view .LVU153
 557              		.loc 1 486 8 is_stmt 0 view .LVU154
 558 0068 15F4006F 		tst	r5, #2048
 559 006c 04D1     		bne	.L46
 560              		.loc 1 486 36 discriminator 1 view .LVU155
 561 006e 1AB1     		cbz	r2, .L46
 562              		.loc 1 486 43 discriminator 2 view .LVU156
 563 0070 A242     		cmp	r2, r4
 564 0072 1AD0     		beq	.L47
 565              		.loc 1 486 66 discriminator 3 view .LVU157
 566 0074 9A42     		cmp	r2, r3
 567 0076 18D0     		beq	.L47
 568              	.L46:
 487:Libraries/ctrl_sdk/src/lib_printf.c ****       // Let's take back some padding digits to fit in what will eventually
 488:Libraries/ctrl_sdk/src/lib_printf.c ****       // be the format-specific prefix
ARM GAS  C:\Users\Mxuan\AppData\Local\Temp\ccSEBS4R.s 			page 20


 489:Libraries/ctrl_sdk/src/lib_printf.c ****       if (unpadded_len < len) {
 490:Libraries/ctrl_sdk/src/lib_printf.c ****         len--; // This should suffice for BASE_OCTAL
 491:Libraries/ctrl_sdk/src/lib_printf.c ****       }
 492:Libraries/ctrl_sdk/src/lib_printf.c ****       if (len && (base == BASE_HEX || base == BASE_BINARY) && (unpadded_len < len)) {
 493:Libraries/ctrl_sdk/src/lib_printf.c ****         len--; // ... and an extra one for 0x or 0b
 494:Libraries/ctrl_sdk/src/lib_printf.c ****       }
 495:Libraries/ctrl_sdk/src/lib_printf.c ****     }
 496:Libraries/ctrl_sdk/src/lib_printf.c ****     if ((base == BASE_HEX) && !(flags & FLAGS_UPPERCASE) && (len < PRINTF_INTEGER_BUFFER_SIZE)) {
 569              		.loc 1 496 5 is_stmt 1 view .LVU158
 570              		.loc 1 496 8 is_stmt 0 view .LVU159
 571 0078 102E     		cmp	r6, #16
 572 007a 23D0     		beq	.L59
 573              	.L50:
 497:Libraries/ctrl_sdk/src/lib_printf.c ****       buf[len++] = 'x';
 498:Libraries/ctrl_sdk/src/lib_printf.c ****     }
 499:Libraries/ctrl_sdk/src/lib_printf.c ****     else if ((base == BASE_HEX) && (flags & FLAGS_UPPERCASE) && (len < PRINTF_INTEGER_BUFFER_SIZE))
 500:Libraries/ctrl_sdk/src/lib_printf.c ****       buf[len++] = 'X';
 501:Libraries/ctrl_sdk/src/lib_printf.c ****     }
 502:Libraries/ctrl_sdk/src/lib_printf.c ****     else if ((base == BASE_BINARY) && (len < PRINTF_INTEGER_BUFFER_SIZE)) {
 574              		.loc 1 502 10 is_stmt 1 view .LVU160
 575              		.loc 1 502 13 is_stmt 0 view .LVU161
 576 007c 022E     		cmp	r6, #2
 577 007e 32D0     		beq	.L60
 578              	.L52:
 503:Libraries/ctrl_sdk/src/lib_printf.c ****       buf[len++] = 'b';
 504:Libraries/ctrl_sdk/src/lib_printf.c ****     }
 505:Libraries/ctrl_sdk/src/lib_printf.c ****     if (len < PRINTF_INTEGER_BUFFER_SIZE) {
 579              		.loc 1 505 5 is_stmt 1 view .LVU162
 580              		.loc 1 505 8 is_stmt 0 view .LVU163
 581 0080 1F2A     		cmp	r2, #31
 582 0082 08D8     		bhi	.L53
 506:Libraries/ctrl_sdk/src/lib_printf.c ****       buf[len++] = '0';
 583              		.loc 1 506 7 is_stmt 1 view .LVU164
 584              	.LVL46:
 585              		.loc 1 506 18 is_stmt 0 view .LVU165
 586 0084 3024     		movs	r4, #48
 587 0086 8C54     		strb	r4, [r1, r2]
 588              		.loc 1 506 14 view .LVU166
 589 0088 0132     		adds	r2, r2, #1
 590              	.LVL47:
 591              	.L45:
 507:Libraries/ctrl_sdk/src/lib_printf.c ****     }
 508:Libraries/ctrl_sdk/src/lib_printf.c ****   }
 509:Libraries/ctrl_sdk/src/lib_printf.c **** 
 510:Libraries/ctrl_sdk/src/lib_printf.c ****   if (len < PRINTF_INTEGER_BUFFER_SIZE) {
 592              		.loc 1 510 3 is_stmt 1 view .LVU167
 593              		.loc 1 510 6 is_stmt 0 view .LVU168
 594 008a 1F2A     		cmp	r2, #31
 595 008c 03D8     		bhi	.L53
 511:Libraries/ctrl_sdk/src/lib_printf.c ****     if (negative) {
 596              		.loc 1 511 5 is_stmt 1 view .LVU169
 597              		.loc 1 511 8 is_stmt 0 view .LVU170
 598 008e 87B3     		cbz	r7, .L54
 512:Libraries/ctrl_sdk/src/lib_printf.c ****       buf[len++] = '-';
 599              		.loc 1 512 7 is_stmt 1 view .LVU171
 600              	.LVL48:
 601              		.loc 1 512 18 is_stmt 0 view .LVU172
ARM GAS  C:\Users\Mxuan\AppData\Local\Temp\ccSEBS4R.s 			page 21


 602 0090 2D24     		movs	r4, #45
 603 0092 8C54     		strb	r4, [r1, r2]
 604              		.loc 1 512 14 view .LVU173
 605 0094 0132     		adds	r2, r2, #1
 606              	.LVL49:
 607              	.L53:
 513:Libraries/ctrl_sdk/src/lib_printf.c ****     }
 514:Libraries/ctrl_sdk/src/lib_printf.c ****     else if (flags & FLAGS_PLUS) {
 515:Libraries/ctrl_sdk/src/lib_printf.c ****       buf[len++] = '+';  // ignore the space if the '+' exists
 516:Libraries/ctrl_sdk/src/lib_printf.c ****     }
 517:Libraries/ctrl_sdk/src/lib_printf.c ****     else if (flags & FLAGS_SPACE) {
 518:Libraries/ctrl_sdk/src/lib_printf.c ****       buf[len++] = ' ';
 519:Libraries/ctrl_sdk/src/lib_printf.c ****     }
 520:Libraries/ctrl_sdk/src/lib_printf.c ****   }
 521:Libraries/ctrl_sdk/src/lib_printf.c **** 
 522:Libraries/ctrl_sdk/src/lib_printf.c ****   out_rev_(output, buf, len, width, flags);
 608              		.loc 1 522 3 is_stmt 1 view .LVU174
 609 0096 0095     		str	r5, [sp]
 610 0098 FFF7FEFF 		bl	out_rev_
 611              	.LVL50:
 523:Libraries/ctrl_sdk/src/lib_printf.c **** }
 612              		.loc 1 523 1 is_stmt 0 view .LVU175
 613 009c 03B0     		add	sp, sp, #12
 614              	.LCFI7:
 615              		.cfi_remember_state
 616              		.cfi_def_cfa_offset 20
 617              		@ sp needed
 618 009e F0BD     		pop	{r4, r5, r6, r7, pc}
 619              	.LVL51:
 620              	.L58:
 621              	.LCFI8:
 622              		.cfi_restore_state
 478:Libraries/ctrl_sdk/src/lib_printf.c ****       // Since we've written some zeros, we've satisfied the alternative format leading space requi
 623              		.loc 1 478 28 discriminator 1 view .LVU176
 624 00a0 7245     		cmp	r2, lr
 625 00a2 DCD9     		bls	.L44
 480:Libraries/ctrl_sdk/src/lib_printf.c ****     }
 626              		.loc 1 480 7 is_stmt 1 view .LVU177
 480:Libraries/ctrl_sdk/src/lib_printf.c ****     }
 627              		.loc 1 480 13 is_stmt 0 view .LVU178
 628 00a4 25F01005 		bic	r5, r5, #16
 629              	.LVL52:
 480:Libraries/ctrl_sdk/src/lib_printf.c ****     }
 630              		.loc 1 480 13 view .LVU179
 631 00a8 D9E7     		b	.L44
 632              	.L47:
 489:Libraries/ctrl_sdk/src/lib_printf.c ****         len--; // This should suffice for BASE_OCTAL
 633              		.loc 1 489 7 is_stmt 1 view .LVU180
 489:Libraries/ctrl_sdk/src/lib_printf.c ****         len--; // This should suffice for BASE_OCTAL
 634              		.loc 1 489 10 is_stmt 0 view .LVU181
 635 00aa 7245     		cmp	r2, lr
 636 00ac 00D9     		bls	.L48
 490:Libraries/ctrl_sdk/src/lib_printf.c ****       }
 637              		.loc 1 490 9 is_stmt 1 view .LVU182
 490:Libraries/ctrl_sdk/src/lib_printf.c ****       }
 638              		.loc 1 490 12 is_stmt 0 view .LVU183
 639 00ae 013A     		subs	r2, r2, #1
ARM GAS  C:\Users\Mxuan\AppData\Local\Temp\ccSEBS4R.s 			page 22


 640              	.LVL53:
 641              	.L48:
 492:Libraries/ctrl_sdk/src/lib_printf.c ****         len--; // ... and an extra one for 0x or 0b
 642              		.loc 1 492 7 is_stmt 1 view .LVU184
 492:Libraries/ctrl_sdk/src/lib_printf.c ****         len--; // ... and an extra one for 0x or 0b
 643              		.loc 1 492 10 is_stmt 0 view .LVU185
 644 00b0 002A     		cmp	r2, #0
 645 00b2 E1D0     		beq	.L46
 492:Libraries/ctrl_sdk/src/lib_printf.c ****         len--; // ... and an extra one for 0x or 0b
 646              		.loc 1 492 15 discriminator 1 view .LVU186
 647 00b4 102E     		cmp	r6, #16
 648 00b6 01D0     		beq	.L49
 492:Libraries/ctrl_sdk/src/lib_printf.c ****         len--; // ... and an extra one for 0x or 0b
 649              		.loc 1 492 36 discriminator 3 view .LVU187
 650 00b8 022E     		cmp	r6, #2
 651 00ba DDD1     		bne	.L46
 652              	.L49:
 492:Libraries/ctrl_sdk/src/lib_printf.c ****         len--; // ... and an extra one for 0x or 0b
 653              		.loc 1 492 60 discriminator 4 view .LVU188
 654 00bc 7245     		cmp	r2, lr
 655 00be DBD9     		bls	.L46
 493:Libraries/ctrl_sdk/src/lib_printf.c ****       }
 656              		.loc 1 493 9 is_stmt 1 view .LVU189
 493:Libraries/ctrl_sdk/src/lib_printf.c ****       }
 657              		.loc 1 493 12 is_stmt 0 view .LVU190
 658 00c0 013A     		subs	r2, r2, #1
 659              	.LVL54:
 493:Libraries/ctrl_sdk/src/lib_printf.c ****       }
 660              		.loc 1 493 12 view .LVU191
 661 00c2 D9E7     		b	.L46
 662              	.L59:
 496:Libraries/ctrl_sdk/src/lib_printf.c ****       buf[len++] = 'x';
 663              		.loc 1 496 28 discriminator 1 view .LVU192
 664 00c4 15F02004 		ands	r4, r5, #32
 665 00c8 05D1     		bne	.L51
 496:Libraries/ctrl_sdk/src/lib_printf.c ****       buf[len++] = 'x';
 666              		.loc 1 496 58 discriminator 2 view .LVU193
 667 00ca 1F2A     		cmp	r2, #31
 668 00cc 03D8     		bhi	.L51
 497:Libraries/ctrl_sdk/src/lib_printf.c ****     }
 669              		.loc 1 497 7 is_stmt 1 view .LVU194
 670              	.LVL55:
 497:Libraries/ctrl_sdk/src/lib_printf.c ****     }
 671              		.loc 1 497 18 is_stmt 0 view .LVU195
 672 00ce 7824     		movs	r4, #120
 673 00d0 8C54     		strb	r4, [r1, r2]
 497:Libraries/ctrl_sdk/src/lib_printf.c ****     }
 674              		.loc 1 497 14 view .LVU196
 675 00d2 0132     		adds	r2, r2, #1
 676              	.LVL56:
 497:Libraries/ctrl_sdk/src/lib_printf.c ****     }
 677              		.loc 1 497 18 view .LVU197
 678 00d4 D4E7     		b	.L52
 679              	.L51:
 499:Libraries/ctrl_sdk/src/lib_printf.c ****       buf[len++] = 'X';
 680              		.loc 1 499 10 is_stmt 1 discriminator 1 view .LVU198
 499:Libraries/ctrl_sdk/src/lib_printf.c ****       buf[len++] = 'X';
ARM GAS  C:\Users\Mxuan\AppData\Local\Temp\ccSEBS4R.s 			page 23


 681              		.loc 1 499 33 is_stmt 0 discriminator 1 view .LVU199
 682 00d6 002C     		cmp	r4, #0
 683 00d8 D0D0     		beq	.L50
 499:Libraries/ctrl_sdk/src/lib_printf.c ****       buf[len++] = 'X';
 684              		.loc 1 499 62 discriminator 2 view .LVU200
 685 00da 1F2A     		cmp	r2, #31
 686 00dc CED8     		bhi	.L50
 500:Libraries/ctrl_sdk/src/lib_printf.c ****     }
 687              		.loc 1 500 7 is_stmt 1 view .LVU201
 688              	.LVL57:
 500:Libraries/ctrl_sdk/src/lib_printf.c ****     }
 689              		.loc 1 500 18 is_stmt 0 view .LVU202
 690 00de 5824     		movs	r4, #88
 691 00e0 8C54     		strb	r4, [r1, r2]
 500:Libraries/ctrl_sdk/src/lib_printf.c ****     }
 692              		.loc 1 500 14 view .LVU203
 693 00e2 0132     		adds	r2, r2, #1
 694              	.LVL58:
 500:Libraries/ctrl_sdk/src/lib_printf.c ****     }
 695              		.loc 1 500 18 view .LVU204
 696 00e4 CCE7     		b	.L52
 697              	.L60:
 502:Libraries/ctrl_sdk/src/lib_printf.c ****       buf[len++] = 'b';
 698              		.loc 1 502 36 discriminator 1 view .LVU205
 699 00e6 1F2A     		cmp	r2, #31
 700 00e8 D5D8     		bhi	.L53
 503:Libraries/ctrl_sdk/src/lib_printf.c ****     }
 701              		.loc 1 503 7 is_stmt 1 view .LVU206
 702              	.LVL59:
 503:Libraries/ctrl_sdk/src/lib_printf.c ****     }
 703              		.loc 1 503 18 is_stmt 0 view .LVU207
 704 00ea 6224     		movs	r4, #98
 705 00ec 8C54     		strb	r4, [r1, r2]
 503:Libraries/ctrl_sdk/src/lib_printf.c ****     }
 706              		.loc 1 503 14 view .LVU208
 707 00ee 0132     		adds	r2, r2, #1
 708              	.LVL60:
 503:Libraries/ctrl_sdk/src/lib_printf.c ****     }
 709              		.loc 1 503 14 view .LVU209
 710 00f0 C6E7     		b	.L52
 711              	.L54:
 514:Libraries/ctrl_sdk/src/lib_printf.c ****       buf[len++] = '+';  // ignore the space if the '+' exists
 712              		.loc 1 514 10 is_stmt 1 view .LVU210
 514:Libraries/ctrl_sdk/src/lib_printf.c ****       buf[len++] = '+';  // ignore the space if the '+' exists
 713              		.loc 1 514 13 is_stmt 0 view .LVU211
 714 00f2 15F0040F 		tst	r5, #4
 715 00f6 03D0     		beq	.L55
 515:Libraries/ctrl_sdk/src/lib_printf.c ****     }
 716              		.loc 1 515 7 is_stmt 1 view .LVU212
 717              	.LVL61:
 515:Libraries/ctrl_sdk/src/lib_printf.c ****     }
 718              		.loc 1 515 18 is_stmt 0 view .LVU213
 719 00f8 2B24     		movs	r4, #43
 720 00fa 8C54     		strb	r4, [r1, r2]
 515:Libraries/ctrl_sdk/src/lib_printf.c ****     }
 721              		.loc 1 515 14 view .LVU214
 722 00fc 0132     		adds	r2, r2, #1
ARM GAS  C:\Users\Mxuan\AppData\Local\Temp\ccSEBS4R.s 			page 24


 723              	.LVL62:
 515:Libraries/ctrl_sdk/src/lib_printf.c ****     }
 724              		.loc 1 515 14 view .LVU215
 725 00fe CAE7     		b	.L53
 726              	.L55:
 517:Libraries/ctrl_sdk/src/lib_printf.c ****       buf[len++] = ' ';
 727              		.loc 1 517 10 is_stmt 1 view .LVU216
 517:Libraries/ctrl_sdk/src/lib_printf.c ****       buf[len++] = ' ';
 728              		.loc 1 517 13 is_stmt 0 view .LVU217
 729 0100 15F0080F 		tst	r5, #8
 730 0104 C7D0     		beq	.L53
 518:Libraries/ctrl_sdk/src/lib_printf.c ****     }
 731              		.loc 1 518 7 is_stmt 1 view .LVU218
 732              	.LVL63:
 518:Libraries/ctrl_sdk/src/lib_printf.c ****     }
 733              		.loc 1 518 18 is_stmt 0 view .LVU219
 734 0106 2024     		movs	r4, #32
 735 0108 8C54     		strb	r4, [r1, r2]
 518:Libraries/ctrl_sdk/src/lib_printf.c ****     }
 736              		.loc 1 518 14 view .LVU220
 737 010a 0132     		adds	r2, r2, #1
 738              	.LVL64:
 518:Libraries/ctrl_sdk/src/lib_printf.c ****     }
 739              		.loc 1 518 14 view .LVU221
 740 010c C3E7     		b	.L53
 741              		.cfi_endproc
 742              	.LFE14:
 744              		.section	.text.print_integer,"ax",%progbits
 745              		.align	1
 746              		.syntax unified
 747              		.thumb
 748              		.thumb_func
 750              	print_integer:
 751              	.LVL65:
 752              	.LFB15:
 524:Libraries/ctrl_sdk/src/lib_printf.c **** 
 525:Libraries/ctrl_sdk/src/lib_printf.c **** // An internal itoa-like function
 526:Libraries/ctrl_sdk/src/lib_printf.c **** static void print_integer(output_gadget_t* output, printf_unsigned_value_t value, bool negative, nu
 527:Libraries/ctrl_sdk/src/lib_printf.c **** {
 753              		.loc 1 527 1 is_stmt 1 view -0
 754              		.cfi_startproc
 755              		@ args = 12, pretend = 0, frame = 32
 756              		@ frame_needed = 0, uses_anonymous_args = 0
 757              		.loc 1 527 1 is_stmt 0 view .LVU223
 758 0000 30B5     		push	{r4, r5, lr}
 759              	.LCFI9:
 760              		.cfi_def_cfa_offset 12
 761              		.cfi_offset 4, -12
 762              		.cfi_offset 5, -8
 763              		.cfi_offset 14, -4
 764 0002 8DB0     		sub	sp, sp, #52
 765              	.LCFI10:
 766              		.cfi_def_cfa_offset 64
 767 0004 1446     		mov	r4, r2
 768 0006 129D     		ldr	r5, [sp, #72]
 528:Libraries/ctrl_sdk/src/lib_printf.c ****   char buf[PRINTF_INTEGER_BUFFER_SIZE];
 769              		.loc 1 528 3 is_stmt 1 view .LVU224
ARM GAS  C:\Users\Mxuan\AppData\Local\Temp\ccSEBS4R.s 			page 25


 529:Libraries/ctrl_sdk/src/lib_printf.c ****   printf_size_t len = 0U;
 770              		.loc 1 529 3 view .LVU225
 771              	.LVL66:
 530:Libraries/ctrl_sdk/src/lib_printf.c **** 
 531:Libraries/ctrl_sdk/src/lib_printf.c ****   if (!value) {
 772              		.loc 1 531 3 view .LVU226
 773              		.loc 1 531 6 is_stmt 0 view .LVU227
 774 0008 8C46     		mov	ip, r1
 775 000a E1B9     		cbnz	r1, .L68
 532:Libraries/ctrl_sdk/src/lib_printf.c ****     if ( !(flags & FLAGS_PRECISION) ) {
 776              		.loc 1 532 5 is_stmt 1 view .LVU228
 777              		.loc 1 532 8 is_stmt 0 view .LVU229
 778 000c 15F4006F 		tst	r5, #2048
 779 0010 11D1     		bne	.L63
 533:Libraries/ctrl_sdk/src/lib_printf.c ****       buf[len++] = '0';
 780              		.loc 1 533 7 is_stmt 1 view .LVU230
 781              	.LVL67:
 782              		.loc 1 533 18 is_stmt 0 view .LVU231
 783 0012 3022     		movs	r2, #48
 784              	.LVL68:
 785              		.loc 1 533 18 view .LVU232
 786 0014 8DF81020 		strb	r2, [sp, #16]
 534:Libraries/ctrl_sdk/src/lib_printf.c ****       flags &= ~FLAGS_HASH;
 787              		.loc 1 534 7 is_stmt 1 view .LVU233
 788              		.loc 1 534 13 is_stmt 0 view .LVU234
 789 0018 25F01005 		bic	r5, r5, #16
 790              	.LVL69:
 533:Libraries/ctrl_sdk/src/lib_printf.c ****       buf[len++] = '0';
 791              		.loc 1 533 14 view .LVU235
 792 001c 0122     		movs	r2, #1
 793              	.LVL70:
 794              	.L64:
 535:Libraries/ctrl_sdk/src/lib_printf.c ****       // We drop this flag this since either the alternative and regular modes of the specifier
 536:Libraries/ctrl_sdk/src/lib_printf.c ****       // don't differ on 0 values, or (in the case of octal) we've already provided the special
 537:Libraries/ctrl_sdk/src/lib_printf.c ****       // handling for this mode.
 538:Libraries/ctrl_sdk/src/lib_printf.c ****     }
 539:Libraries/ctrl_sdk/src/lib_printf.c ****     else if (base == BASE_HEX) {
 540:Libraries/ctrl_sdk/src/lib_printf.c ****       flags &= ~FLAGS_HASH;
 541:Libraries/ctrl_sdk/src/lib_printf.c ****       // We drop this flag this since either the alternative and regular modes of the specifier
 542:Libraries/ctrl_sdk/src/lib_printf.c ****       // don't differ on 0 values
 543:Libraries/ctrl_sdk/src/lib_printf.c ****     }
 544:Libraries/ctrl_sdk/src/lib_printf.c ****   }
 545:Libraries/ctrl_sdk/src/lib_printf.c ****   else {
 546:Libraries/ctrl_sdk/src/lib_printf.c ****     do {
 547:Libraries/ctrl_sdk/src/lib_printf.c ****       const char digit = (char)(value % base);
 548:Libraries/ctrl_sdk/src/lib_printf.c ****       buf[len++] = (char)(digit < 10 ? '0' + digit : (flags & FLAGS_UPPERCASE ? 'A' : 'a') + digit 
 549:Libraries/ctrl_sdk/src/lib_printf.c ****       value /= base;
 550:Libraries/ctrl_sdk/src/lib_printf.c ****     } while (value && (len < PRINTF_INTEGER_BUFFER_SIZE));
 551:Libraries/ctrl_sdk/src/lib_printf.c ****   }
 552:Libraries/ctrl_sdk/src/lib_printf.c **** 
 553:Libraries/ctrl_sdk/src/lib_printf.c ****   print_integer_finalization(output, buf, len, negative, base, precision, width, flags);
 795              		.loc 1 553 3 is_stmt 1 view .LVU236
 796 001e 0395     		str	r5, [sp, #12]
 797 0020 1199     		ldr	r1, [sp, #68]
 798              	.LVL71:
 799              		.loc 1 553 3 is_stmt 0 view .LVU237
 800 0022 0291     		str	r1, [sp, #8]
ARM GAS  C:\Users\Mxuan\AppData\Local\Temp\ccSEBS4R.s 			page 26


 801 0024 1099     		ldr	r1, [sp, #64]
 802 0026 0191     		str	r1, [sp, #4]
 803 0028 0093     		str	r3, [sp]
 804 002a 2346     		mov	r3, r4
 805              	.LVL72:
 806              		.loc 1 553 3 view .LVU238
 807 002c 04A9     		add	r1, sp, #16
 808 002e FFF7FEFF 		bl	print_integer_finalization
 809              	.LVL73:
 554:Libraries/ctrl_sdk/src/lib_printf.c **** }
 810              		.loc 1 554 1 view .LVU239
 811 0032 0DB0     		add	sp, sp, #52
 812              	.LCFI11:
 813              		.cfi_remember_state
 814              		.cfi_def_cfa_offset 12
 815              		@ sp needed
 816 0034 30BD     		pop	{r4, r5, pc}
 817              	.LVL74:
 818              	.L63:
 819              	.LCFI12:
 820              		.cfi_restore_state
 539:Libraries/ctrl_sdk/src/lib_printf.c ****       flags &= ~FLAGS_HASH;
 821              		.loc 1 539 10 is_stmt 1 view .LVU240
 539:Libraries/ctrl_sdk/src/lib_printf.c ****       flags &= ~FLAGS_HASH;
 822              		.loc 1 539 13 is_stmt 0 view .LVU241
 823 0036 102B     		cmp	r3, #16
 824 0038 01D0     		beq	.L73
 529:Libraries/ctrl_sdk/src/lib_printf.c **** 
 825              		.loc 1 529 17 view .LVU242
 826 003a 0A46     		mov	r2, r1
 827              	.LVL75:
 529:Libraries/ctrl_sdk/src/lib_printf.c **** 
 828              		.loc 1 529 17 view .LVU243
 829 003c EFE7     		b	.L64
 830              	.LVL76:
 831              	.L73:
 540:Libraries/ctrl_sdk/src/lib_printf.c ****       // We drop this flag this since either the alternative and regular modes of the specifier
 832              		.loc 1 540 7 is_stmt 1 view .LVU244
 540:Libraries/ctrl_sdk/src/lib_printf.c ****       // We drop this flag this since either the alternative and regular modes of the specifier
 833              		.loc 1 540 13 is_stmt 0 view .LVU245
 834 003e 25F01005 		bic	r5, r5, #16
 835              	.LVL77:
 529:Libraries/ctrl_sdk/src/lib_printf.c **** 
 836              		.loc 1 529 17 view .LVU246
 837 0042 0A46     		mov	r2, r1
 838              	.LVL78:
 529:Libraries/ctrl_sdk/src/lib_printf.c **** 
 839              		.loc 1 529 17 view .LVU247
 840 0044 EBE7     		b	.L64
 841              	.LVL79:
 842              	.L68:
 529:Libraries/ctrl_sdk/src/lib_printf.c **** 
 843              		.loc 1 529 17 view .LVU248
 844 0046 4FF0000E 		mov	lr, #0
 845 004a 10E0     		b	.L62
 846              	.LVL80:
 847              	.L74:
ARM GAS  C:\Users\Mxuan\AppData\Local\Temp\ccSEBS4R.s 			page 27


 848              	.LBB51:
 548:Libraries/ctrl_sdk/src/lib_printf.c ****       value /= base;
 849              		.loc 1 548 20 discriminator 1 view .LVU249
 850 004c 3031     		adds	r1, r1, #48
 851              	.LVL81:
 548:Libraries/ctrl_sdk/src/lib_printf.c ****       value /= base;
 852              		.loc 1 548 20 discriminator 1 view .LVU250
 853 004e C9B2     		uxtb	r1, r1
 854              	.LVL82:
 855              	.L66:
 548:Libraries/ctrl_sdk/src/lib_printf.c ****       value /= base;
 856              		.loc 1 548 14 discriminator 8 view .LVU251
 857 0050 0EF10102 		add	r2, lr, #1
 858              	.LVL83:
 548:Libraries/ctrl_sdk/src/lib_printf.c ****       value /= base;
 859              		.loc 1 548 18 discriminator 8 view .LVU252
 860 0054 0EF1300E 		add	lr, lr, #48
 861 0058 EE44     		add	lr, sp, lr
 862 005a 0EF8201C 		strb	r1, [lr, #-32]
 549:Libraries/ctrl_sdk/src/lib_printf.c ****     } while (value && (len < PRINTF_INTEGER_BUFFER_SIZE));
 863              		.loc 1 549 7 is_stmt 1 discriminator 8 view .LVU253
 549:Libraries/ctrl_sdk/src/lib_printf.c ****     } while (value && (len < PRINTF_INTEGER_BUFFER_SIZE));
 864              		.loc 1 549 13 is_stmt 0 discriminator 8 view .LVU254
 865 005e BCFBF3F1 		udiv	r1, ip, r3
 866              	.LVL84:
 549:Libraries/ctrl_sdk/src/lib_printf.c ****     } while (value && (len < PRINTF_INTEGER_BUFFER_SIZE));
 867              		.loc 1 549 13 discriminator 8 view .LVU255
 868              	.LBE51:
 550:Libraries/ctrl_sdk/src/lib_printf.c ****   }
 869              		.loc 1 550 20 is_stmt 1 discriminator 8 view .LVU256
 870 0062 6345     		cmp	r3, ip
 871 0064 DBD8     		bhi	.L64
 550:Libraries/ctrl_sdk/src/lib_printf.c ****   }
 872              		.loc 1 550 20 is_stmt 0 discriminator 1 view .LVU257
 873 0066 1F2A     		cmp	r2, #31
 874 0068 D9D8     		bhi	.L64
 875              	.LBB52:
 548:Libraries/ctrl_sdk/src/lib_printf.c ****       value /= base;
 876              		.loc 1 548 14 view .LVU258
 877 006a 9646     		mov	lr, r2
 549:Libraries/ctrl_sdk/src/lib_printf.c ****     } while (value && (len < PRINTF_INTEGER_BUFFER_SIZE));
 878              		.loc 1 549 13 view .LVU259
 879 006c 8C46     		mov	ip, r1
 880              	.LVL85:
 881              	.L62:
 549:Libraries/ctrl_sdk/src/lib_printf.c ****     } while (value && (len < PRINTF_INTEGER_BUFFER_SIZE));
 882              		.loc 1 549 13 view .LVU260
 883              	.LBE52:
 546:Libraries/ctrl_sdk/src/lib_printf.c ****       const char digit = (char)(value % base);
 884              		.loc 1 546 5 is_stmt 1 view .LVU261
 885              	.LBB53:
 547:Libraries/ctrl_sdk/src/lib_printf.c ****       buf[len++] = (char)(digit < 10 ? '0' + digit : (flags & FLAGS_UPPERCASE ? 'A' : 'a') + digit 
 886              		.loc 1 547 7 view .LVU262
 547:Libraries/ctrl_sdk/src/lib_printf.c ****       buf[len++] = (char)(digit < 10 ? '0' + digit : (flags & FLAGS_UPPERCASE ? 'A' : 'a') + digit 
 887              		.loc 1 547 39 is_stmt 0 view .LVU263
 888 006e BCFBF3F1 		udiv	r1, ip, r3
 889              	.LVL86:
ARM GAS  C:\Users\Mxuan\AppData\Local\Temp\ccSEBS4R.s 			page 28


 547:Libraries/ctrl_sdk/src/lib_printf.c ****       buf[len++] = (char)(digit < 10 ? '0' + digit : (flags & FLAGS_UPPERCASE ? 'A' : 'a') + digit 
 890              		.loc 1 547 39 view .LVU264
 891 0072 03FB11C1 		mls	r1, r3, r1, ip
 547:Libraries/ctrl_sdk/src/lib_printf.c ****       buf[len++] = (char)(digit < 10 ? '0' + digit : (flags & FLAGS_UPPERCASE ? 'A' : 'a') + digit 
 892              		.loc 1 547 18 view .LVU265
 893 0076 C9B2     		uxtb	r1, r1
 894              	.LVL87:
 548:Libraries/ctrl_sdk/src/lib_printf.c ****       value /= base;
 895              		.loc 1 548 7 is_stmt 1 view .LVU266
 548:Libraries/ctrl_sdk/src/lib_printf.c ****       value /= base;
 896              		.loc 1 548 20 is_stmt 0 view .LVU267
 897 0078 0929     		cmp	r1, #9
 898 007a E7D9     		bls	.L74
 548:Libraries/ctrl_sdk/src/lib_printf.c ****       value /= base;
 899              		.loc 1 548 92 discriminator 2 view .LVU268
 900 007c 15F0200F 		tst	r5, #32
 901 0080 05D0     		beq	.L70
 548:Libraries/ctrl_sdk/src/lib_printf.c ****       value /= base;
 902              		.loc 1 548 92 view .LVU269
 903 0082 4122     		movs	r2, #65
 904              	.L67:
 548:Libraries/ctrl_sdk/src/lib_printf.c ****       value /= base;
 905              		.loc 1 548 92 discriminator 7 view .LVU270
 906 0084 1144     		add	r1, r1, r2
 907              	.LVL88:
 548:Libraries/ctrl_sdk/src/lib_printf.c ****       value /= base;
 908              		.loc 1 548 92 discriminator 7 view .LVU271
 909 0086 C9B2     		uxtb	r1, r1
 548:Libraries/ctrl_sdk/src/lib_printf.c ****       value /= base;
 910              		.loc 1 548 20 discriminator 7 view .LVU272
 911 0088 0A39     		subs	r1, r1, #10
 912 008a C9B2     		uxtb	r1, r1
 913 008c E0E7     		b	.L66
 914              	.LVL89:
 915              	.L70:
 548:Libraries/ctrl_sdk/src/lib_printf.c ****       value /= base;
 916              		.loc 1 548 92 view .LVU273
 917 008e 6122     		movs	r2, #97
 918 0090 F8E7     		b	.L67
 919              	.LBE53:
 920              		.cfi_endproc
 921              	.LFE15:
 923              		.global	__aeabi_d2lz
 924              		.global	__aeabi_l2d
 925              		.global	__aeabi_dsub
 926              		.global	__aeabi_dmul
 927              		.global	__aeabi_dcmpgt
 928              		.global	__aeabi_dcmple
 929              		.global	__aeabi_dcmpeq
 930              		.global	__aeabi_dcmplt
 931              		.section	.text.get_components,"ax",%progbits
 932              		.align	1
 933              		.syntax unified
 934              		.thumb
 935              		.thumb_func
 937              	get_components:
 938              	.LVL90:
ARM GAS  C:\Users\Mxuan\AppData\Local\Temp\ccSEBS4R.s 			page 29


 939              	.LFB16:
 555:Libraries/ctrl_sdk/src/lib_printf.c **** 
 556:Libraries/ctrl_sdk/src/lib_printf.c **** #if (PRINTF_SUPPORT_DECIMAL_SPECIFIERS || PRINTF_SUPPORT_EXPONENTIAL_SPECIFIERS)
 557:Libraries/ctrl_sdk/src/lib_printf.c **** 
 558:Libraries/ctrl_sdk/src/lib_printf.c **** // Stores a fixed-precision representation of a double relative
 559:Libraries/ctrl_sdk/src/lib_printf.c **** // to a fixed precision (which cannot be determined by examining this structure)
 560:Libraries/ctrl_sdk/src/lib_printf.c **** struct double_components {
 561:Libraries/ctrl_sdk/src/lib_printf.c ****   int_fast64_t integral;
 562:Libraries/ctrl_sdk/src/lib_printf.c ****   int_fast64_t fractional;
 563:Libraries/ctrl_sdk/src/lib_printf.c ****     // ... truncation of the actual fractional part of the double value, scaled
 564:Libraries/ctrl_sdk/src/lib_printf.c ****     // by the precision value
 565:Libraries/ctrl_sdk/src/lib_printf.c ****   bool is_negative;
 566:Libraries/ctrl_sdk/src/lib_printf.c **** };
 567:Libraries/ctrl_sdk/src/lib_printf.c **** 
 568:Libraries/ctrl_sdk/src/lib_printf.c **** #define NUM_DECIMAL_DIGITS_IN_INT64_T 18
 569:Libraries/ctrl_sdk/src/lib_printf.c **** #define PRINTF_MAX_PRECOMPUTED_POWER_OF_10  NUM_DECIMAL_DIGITS_IN_INT64_T
 570:Libraries/ctrl_sdk/src/lib_printf.c **** static const double powers_of_10[NUM_DECIMAL_DIGITS_IN_INT64_T] = {
 571:Libraries/ctrl_sdk/src/lib_printf.c ****   1e00, 1e01, 1e02, 1e03, 1e04, 1e05, 1e06, 1e07, 1e08,
 572:Libraries/ctrl_sdk/src/lib_printf.c ****   1e09, 1e10, 1e11, 1e12, 1e13, 1e14, 1e15, 1e16, 1e17
 573:Libraries/ctrl_sdk/src/lib_printf.c **** };
 574:Libraries/ctrl_sdk/src/lib_printf.c **** 
 575:Libraries/ctrl_sdk/src/lib_printf.c **** #define PRINTF_MAX_SUPPORTED_PRECISION NUM_DECIMAL_DIGITS_IN_INT64_T - 1
 576:Libraries/ctrl_sdk/src/lib_printf.c **** 
 577:Libraries/ctrl_sdk/src/lib_printf.c **** 
 578:Libraries/ctrl_sdk/src/lib_printf.c **** // Break up a double number - which is known to be a finite non-negative number -
 579:Libraries/ctrl_sdk/src/lib_printf.c **** // into its base-10 parts: integral - before the decimal point, and fractional - after it.
 580:Libraries/ctrl_sdk/src/lib_printf.c **** // Taken the precision into account, but does not change it even internally.
 581:Libraries/ctrl_sdk/src/lib_printf.c **** static struct double_components get_components(double number, printf_size_t precision)
 582:Libraries/ctrl_sdk/src/lib_printf.c **** {
 940              		.loc 1 582 1 is_stmt 1 view -0
 941              		.cfi_startproc
 942              		@ args = 4, pretend = 0, frame = 16
 943              		@ frame_needed = 0, uses_anonymous_args = 0
 944              		.loc 1 582 1 is_stmt 0 view .LVU275
 945 0000 2DE9F04F 		push	{r4, r5, r6, r7, r8, r9, r10, fp, lr}
 946              	.LCFI13:
 947              		.cfi_def_cfa_offset 36
 948              		.cfi_offset 4, -36
 949              		.cfi_offset 5, -32
 950              		.cfi_offset 6, -28
 951              		.cfi_offset 7, -24
 952              		.cfi_offset 8, -20
 953              		.cfi_offset 9, -16
 954              		.cfi_offset 10, -12
 955              		.cfi_offset 11, -8
 956              		.cfi_offset 14, -4
 957 0004 85B0     		sub	sp, sp, #20
 958              	.LCFI14:
 959              		.cfi_def_cfa_offset 56
 960 0006 0446     		mov	r4, r0
 961 0008 1646     		mov	r6, r2
 962 000a 1F46     		mov	r7, r3
 583:Libraries/ctrl_sdk/src/lib_printf.c ****   struct double_components number_;
 963              		.loc 1 583 3 is_stmt 1 view .LVU276
 584:Libraries/ctrl_sdk/src/lib_printf.c ****   number_.is_negative = get_sign_bit(number);
 964              		.loc 1 584 3 view .LVU277
 965              	.LVL91:
ARM GAS  C:\Users\Mxuan\AppData\Local\Temp\ccSEBS4R.s 			page 30


 966              	.LBB54:
 967              	.LBI54:
 280:Libraries/ctrl_sdk/src/lib_printf.c **** {
 968              		.loc 1 280 19 view .LVU278
 969              	.LBB55:
 283:Libraries/ctrl_sdk/src/lib_printf.c **** }
 970              		.loc 1 283 3 view .LVU279
 971              	.LBB56:
 972              	.LBI56:
 273:Libraries/ctrl_sdk/src/lib_printf.c **** {
 973              		.loc 1 273 38 view .LVU280
 974              	.LBB57:
 275:Libraries/ctrl_sdk/src/lib_printf.c ****   dwba.F = x;
 975              		.loc 1 275 3 view .LVU281
 276:Libraries/ctrl_sdk/src/lib_printf.c ****   return dwba;
 976              		.loc 1 276 3 view .LVU282
 277:Libraries/ctrl_sdk/src/lib_printf.c **** }
 977              		.loc 1 277 3 view .LVU283
 277:Libraries/ctrl_sdk/src/lib_printf.c **** }
 978              		.loc 1 277 3 is_stmt 0 view .LVU284
 979              	.LBE57:
 980              	.LBE56:
 981              	.LBE55:
 982              	.LBE54:
 983              		.loc 1 584 25 view .LVU285
 984 000c DB0F     		lsrs	r3, r3, #31
 985              		.loc 1 584 23 view .LVU286
 986 000e 0374     		strb	r3, [r0, #16]
 585:Libraries/ctrl_sdk/src/lib_printf.c ****   double abs_number = (number_.is_negative) ? -number : number;
 987              		.loc 1 585 3 is_stmt 1 view .LVU287
 988              		.loc 1 585 55 is_stmt 0 view .LVU288
 989 0010 13B1     		cbz	r3, .L76
 990              		.loc 1 585 55 discriminator 1 view .LVU289
 991 0012 07F10043 		add	r3, r7, #-2147483648
 992 0016 1F46     		mov	r7, r3
 993              	.L76:
 994              	.LVL92:
 586:Libraries/ctrl_sdk/src/lib_printf.c ****   number_.integral = (int_fast64_t)abs_number;
 995              		.loc 1 586 3 is_stmt 1 discriminator 4 view .LVU290
 996              		.loc 1 586 22 is_stmt 0 discriminator 4 view .LVU291
 997 0018 3046     		mov	r0, r6
 998              	.LVL93:
 999              		.loc 1 586 22 discriminator 4 view .LVU292
 1000 001a 3946     		mov	r1, r7
 1001 001c FFF7FEFF 		bl	__aeabi_d2lz
 1002              	.LVL94:
 1003              		.loc 1 586 22 discriminator 4 view .LVU293
 1004 0020 8146     		mov	r9, r0
 1005              		.loc 1 586 20 discriminator 4 view .LVU294
 1006 0022 2060     		str	r0, [r4]
 1007 0024 0391     		str	r1, [sp, #12]
 1008 0026 6160     		str	r1, [r4, #4]
 587:Libraries/ctrl_sdk/src/lib_printf.c ****   double remainder = (abs_number - (double) number_.integral) * powers_of_10[precision];
 1009              		.loc 1 587 3 is_stmt 1 discriminator 4 view .LVU295
 1010              		.loc 1 587 36 is_stmt 0 discriminator 4 view .LVU296
 1011 0028 FFF7FEFF 		bl	__aeabi_l2d
 1012              	.LVL95:
ARM GAS  C:\Users\Mxuan\AppData\Local\Temp\ccSEBS4R.s 			page 31


 1013 002c 0246     		mov	r2, r0
 1014 002e 0B46     		mov	r3, r1
 1015              		.loc 1 587 34 discriminator 4 view .LVU297
 1016 0030 3046     		mov	r0, r6
 1017 0032 3946     		mov	r1, r7
 1018 0034 FFF7FEFF 		bl	__aeabi_dsub
 1019              	.LVL96:
 1020              		.loc 1 587 77 discriminator 4 view .LVU298
 1021 0038 3D4B     		ldr	r3, .L93
 1022 003a 0E9D     		ldr	r5, [sp, #56]
 1023 003c 03EBC503 		add	r3, r3, r5, lsl #3
 1024 0040 D3E900AB 		ldrd	r10, [r3]
 1025              		.loc 1 587 10 discriminator 4 view .LVU299
 1026 0044 5246     		mov	r2, r10
 1027 0046 5B46     		mov	r3, fp
 1028 0048 FFF7FEFF 		bl	__aeabi_dmul
 1029              	.LVL97:
 1030 004c 0246     		mov	r2, r0
 1031 004e 0B46     		mov	r3, r1
 1032 0050 CDE90023 		strd	r2, [sp]
 1033              	.LVL98:
 588:Libraries/ctrl_sdk/src/lib_printf.c ****   number_.fractional = (int_fast64_t)remainder;
 1034              		.loc 1 588 3 is_stmt 1 discriminator 4 view .LVU300
 1035              		.loc 1 588 24 is_stmt 0 discriminator 4 view .LVU301
 1036 0054 FFF7FEFF 		bl	__aeabi_d2lz
 1037              	.LVL99:
 1038              		.loc 1 588 24 discriminator 4 view .LVU302
 1039 0058 0546     		mov	r5, r0
 1040 005a 8846     		mov	r8, r1
 1041              		.loc 1 588 22 discriminator 4 view .LVU303
 1042 005c A060     		str	r0, [r4, #8]
 1043 005e E160     		str	r1, [r4, #12]
 589:Libraries/ctrl_sdk/src/lib_printf.c **** 
 590:Libraries/ctrl_sdk/src/lib_printf.c ****   remainder -= (double) number_.fractional;
 1044              		.loc 1 590 3 is_stmt 1 discriminator 4 view .LVU304
 1045              		.loc 1 590 16 is_stmt 0 discriminator 4 view .LVU305
 1046 0060 FFF7FEFF 		bl	__aeabi_l2d
 1047              	.LVL100:
 1048 0064 0246     		mov	r2, r0
 1049 0066 0B46     		mov	r3, r1
 1050              		.loc 1 590 13 discriminator 4 view .LVU306
 1051 0068 DDE90001 		ldrd	r0, [sp]
 1052 006c FFF7FEFF 		bl	__aeabi_dsub
 1053              	.LVL101:
 1054 0070 0246     		mov	r2, r0
 1055 0072 0B46     		mov	r3, r1
 1056 0074 CDE90023 		strd	r2, [sp]
 1057              	.LVL102:
 591:Libraries/ctrl_sdk/src/lib_printf.c **** 
 592:Libraries/ctrl_sdk/src/lib_printf.c ****   if (remainder > 0.5) {
 1058              		.loc 1 592 3 is_stmt 1 discriminator 4 view .LVU307
 1059              		.loc 1 592 6 is_stmt 0 discriminator 4 view .LVU308
 1060 0078 0022     		movs	r2, #0
 1061              	.LVL103:
 1062              		.loc 1 592 6 discriminator 4 view .LVU309
 1063 007a 2E4B     		ldr	r3, .L93+4
 1064 007c FFF7FEFF 		bl	__aeabi_dcmpgt
ARM GAS  C:\Users\Mxuan\AppData\Local\Temp\ccSEBS4R.s 			page 32


 1065              	.LVL104:
 1066 0080 0028     		cmp	r0, #0
 1067 0082 41D0     		beq	.L91
 593:Libraries/ctrl_sdk/src/lib_printf.c ****     ++number_.fractional;
 1068              		.loc 1 593 5 is_stmt 1 view .LVU310
 1069 0084 681C     		adds	r0, r5, #1
 1070 0086 48F10001 		adc	r1, r8, #0
 1071 008a A060     		str	r0, [r4, #8]
 1072 008c E160     		str	r1, [r4, #12]
 594:Libraries/ctrl_sdk/src/lib_printf.c ****     // handle rollover, e.g. case 0.99 with precision 1 is 1.0
 595:Libraries/ctrl_sdk/src/lib_printf.c ****     if ((double) number_.fractional >= powers_of_10[precision]) {
 1073              		.loc 1 595 5 view .LVU311
 1074              		.loc 1 595 9 is_stmt 0 view .LVU312
 1075 008e FFF7FEFF 		bl	__aeabi_l2d
 1076              	.LVL105:
 1077 0092 0246     		mov	r2, r0
 1078 0094 0B46     		mov	r3, r1
 1079              		.loc 1 595 8 view .LVU313
 1080 0096 5046     		mov	r0, r10
 1081 0098 5946     		mov	r1, fp
 1082 009a FFF7FEFF 		bl	__aeabi_dcmple
 1083              	.LVL106:
 1084 009e 50B1     		cbz	r0, .L79
 596:Libraries/ctrl_sdk/src/lib_printf.c ****       number_.fractional = 0;
 1085              		.loc 1 596 7 is_stmt 1 view .LVU314
 1086              		.loc 1 596 26 is_stmt 0 view .LVU315
 1087 00a0 0022     		movs	r2, #0
 1088 00a2 0023     		movs	r3, #0
 1089 00a4 C4E90223 		strd	r2, [r4, #8]
 597:Libraries/ctrl_sdk/src/lib_printf.c ****       ++number_.integral;
 1090              		.loc 1 597 7 is_stmt 1 view .LVU316
 1091 00a8 19F10103 		adds	r3, r9, #1
 1092 00ac 039A     		ldr	r2, [sp, #12]
 1093 00ae 42F10002 		adc	r2, r2, #0
 1094 00b2 2360     		str	r3, [r4]
 1095 00b4 6260     		str	r2, [r4, #4]
 1096              	.L79:
 598:Libraries/ctrl_sdk/src/lib_printf.c ****     }
 599:Libraries/ctrl_sdk/src/lib_printf.c ****   }
 600:Libraries/ctrl_sdk/src/lib_printf.c ****   else if ((remainder == 0.5) && ((number_.fractional == 0U) || (number_.fractional & 1U))) {
 601:Libraries/ctrl_sdk/src/lib_printf.c ****     // if halfway, round up if odd OR if last digit is 0
 602:Libraries/ctrl_sdk/src/lib_printf.c ****     ++number_.fractional;
 603:Libraries/ctrl_sdk/src/lib_printf.c ****   }
 604:Libraries/ctrl_sdk/src/lib_printf.c **** 
 605:Libraries/ctrl_sdk/src/lib_printf.c ****   if (precision == 0U) {
 1097              		.loc 1 605 3 view .LVU317
 1098              		.loc 1 605 6 is_stmt 0 view .LVU318
 1099 00b6 0E9B     		ldr	r3, [sp, #56]
 1100 00b8 13BB     		cbnz	r3, .L75
 606:Libraries/ctrl_sdk/src/lib_printf.c ****     remainder = abs_number - (double) number_.integral;
 1101              		.loc 1 606 5 is_stmt 1 view .LVU319
 1102              		.loc 1 606 46 is_stmt 0 view .LVU320
 1103 00ba 2568     		ldr	r5, [r4]
 1104 00bc D4F80480 		ldr	r8, [r4, #4]
 1105              		.loc 1 606 30 view .LVU321
 1106 00c0 2846     		mov	r0, r5
 1107 00c2 4146     		mov	r1, r8
ARM GAS  C:\Users\Mxuan\AppData\Local\Temp\ccSEBS4R.s 			page 33


 1108 00c4 FFF7FEFF 		bl	__aeabi_l2d
 1109              	.LVL107:
 1110 00c8 0246     		mov	r2, r0
 1111 00ca 0B46     		mov	r3, r1
 1112              		.loc 1 606 15 view .LVU322
 1113 00cc 3046     		mov	r0, r6
 1114 00ce 3946     		mov	r1, r7
 1115 00d0 FFF7FEFF 		bl	__aeabi_dsub
 1116              	.LVL108:
 1117 00d4 0646     		mov	r6, r0
 1118              	.LVL109:
 1119              		.loc 1 606 15 view .LVU323
 1120 00d6 0F46     		mov	r7, r1
 1121              	.LVL110:
 607:Libraries/ctrl_sdk/src/lib_printf.c ****     if ((!(remainder < 0.5) || (remainder > 0.5)) && (number_.integral & 1)) {
 1122              		.loc 1 607 5 is_stmt 1 view .LVU324
 1123              		.loc 1 607 8 is_stmt 0 view .LVU325
 1124 00d8 0022     		movs	r2, #0
 1125 00da 164B     		ldr	r3, .L93+4
 1126 00dc FFF7FEFF 		bl	__aeabi_dcmplt
 1127              	.LVL111:
 1128 00e0 30B1     		cbz	r0, .L84
 1129              		.loc 1 607 29 discriminator 2 view .LVU326
 1130 00e2 0022     		movs	r2, #0
 1131 00e4 134B     		ldr	r3, .L93+4
 1132 00e6 3046     		mov	r0, r6
 1133 00e8 3946     		mov	r1, r7
 1134 00ea FFF7FEFF 		bl	__aeabi_dcmpgt
 1135              	.LVL112:
 1136 00ee 38B1     		cbz	r0, .L75
 1137              	.L84:
 1138              		.loc 1 607 51 discriminator 3 view .LVU327
 1139 00f0 15F0010F 		tst	r5, #1
 1140 00f4 04D0     		beq	.L75
 608:Libraries/ctrl_sdk/src/lib_printf.c ****       // exactly 0.5 and ODD, then round up
 609:Libraries/ctrl_sdk/src/lib_printf.c ****       // 1.5 -> 2, but 2.5 -> 2
 610:Libraries/ctrl_sdk/src/lib_printf.c ****       ++number_.integral;
 1141              		.loc 1 610 7 is_stmt 1 view .LVU328
 1142 00f6 0135     		adds	r5, r5, #1
 1143 00f8 48F10003 		adc	r3, r8, #0
 1144 00fc 2560     		str	r5, [r4]
 1145 00fe 6360     		str	r3, [r4, #4]
 611:Libraries/ctrl_sdk/src/lib_printf.c ****     }
 612:Libraries/ctrl_sdk/src/lib_printf.c ****   }
 613:Libraries/ctrl_sdk/src/lib_printf.c ****   return number_;
 1146              		.loc 1 613 3 view .LVU329
 1147              	.LVL113:
 1148              	.L75:
 614:Libraries/ctrl_sdk/src/lib_printf.c **** }
 1149              		.loc 1 614 1 is_stmt 0 view .LVU330
 1150 0100 2046     		mov	r0, r4
 1151 0102 05B0     		add	sp, sp, #20
 1152              	.LCFI15:
 1153              		.cfi_remember_state
 1154              		.cfi_def_cfa_offset 36
 1155              		@ sp needed
 1156 0104 BDE8F08F 		pop	{r4, r5, r6, r7, r8, r9, r10, fp, pc}
ARM GAS  C:\Users\Mxuan\AppData\Local\Temp\ccSEBS4R.s 			page 34


 1157              	.LVL114:
 1158              	.L91:
 1159              	.LCFI16:
 1160              		.cfi_restore_state
 600:Libraries/ctrl_sdk/src/lib_printf.c ****     // if halfway, round up if odd OR if last digit is 0
 1161              		.loc 1 600 8 is_stmt 1 view .LVU331
 600:Libraries/ctrl_sdk/src/lib_printf.c ****     // if halfway, round up if odd OR if last digit is 0
 1162              		.loc 1 600 11 is_stmt 0 view .LVU332
 1163 0108 0022     		movs	r2, #0
 1164 010a 0A4B     		ldr	r3, .L93+4
 1165 010c DDE90001 		ldrd	r0, [sp]
 1166 0110 FFF7FEFF 		bl	__aeabi_dcmpeq
 1167              	.LVL115:
 1168 0114 0028     		cmp	r0, #0
 1169 0116 CED0     		beq	.L79
 600:Libraries/ctrl_sdk/src/lib_printf.c ****     // if halfway, round up if odd OR if last digit is 0
 1170              		.loc 1 600 31 discriminator 1 view .LVU333
 1171 0118 55EA0803 		orrs	r3, r5, r8
 1172 011c 02D0     		beq	.L82
 600:Libraries/ctrl_sdk/src/lib_printf.c ****     // if halfway, round up if odd OR if last digit is 0
 1173              		.loc 1 600 62 discriminator 2 view .LVU334
 1174 011e 15F0010F 		tst	r5, #1
 1175 0122 C8D0     		beq	.L79
 1176              	.L82:
 602:Libraries/ctrl_sdk/src/lib_printf.c ****   }
 1177              		.loc 1 602 5 is_stmt 1 view .LVU335
 1178 0124 0135     		adds	r5, r5, #1
 1179 0126 48F10003 		adc	r3, r8, #0
 1180 012a A560     		str	r5, [r4, #8]
 1181 012c E360     		str	r3, [r4, #12]
 1182 012e C2E7     		b	.L79
 1183              	.L94:
 1184              		.align	2
 1185              	.L93:
 1186 0130 00000000 		.word	powers_of_10
 1187 0134 0000E03F 		.word	1071644672
 1188              		.cfi_endproc
 1189              	.LFE16:
 1191              		.global	__aeabi_ddiv
 1192              		.section	.text.apply_scaling,"ax",%progbits
 1193              		.align	1
 1194              		.syntax unified
 1195              		.thumb
 1196              		.thumb_func
 1198              	apply_scaling:
 1199              	.LVL116:
 1200              	.LFB17:
 615:Libraries/ctrl_sdk/src/lib_printf.c **** 
 616:Libraries/ctrl_sdk/src/lib_printf.c **** #if PRINTF_SUPPORT_EXPONENTIAL_SPECIFIERS
 617:Libraries/ctrl_sdk/src/lib_printf.c **** struct scaling_factor {
 618:Libraries/ctrl_sdk/src/lib_printf.c ****   double raw_factor;
 619:Libraries/ctrl_sdk/src/lib_printf.c ****   bool multiply; // if true, need to multiply by raw_factor; otherwise need to divide by it
 620:Libraries/ctrl_sdk/src/lib_printf.c **** };
 621:Libraries/ctrl_sdk/src/lib_printf.c **** 
 622:Libraries/ctrl_sdk/src/lib_printf.c **** static double apply_scaling(double num, struct scaling_factor normalization)
 623:Libraries/ctrl_sdk/src/lib_printf.c **** {
 1201              		.loc 1 623 1 view -0
ARM GAS  C:\Users\Mxuan\AppData\Local\Temp\ccSEBS4R.s 			page 35


 1202              		.cfi_startproc
 1203              		@ args = 16, pretend = 8, frame = 0
 1204              		@ frame_needed = 0, uses_anonymous_args = 0
 1205              		.loc 1 623 1 is_stmt 0 view .LVU337
 1206 0000 82B0     		sub	sp, sp, #8
 1207              	.LCFI17:
 1208              		.cfi_def_cfa_offset 8
 1209 0002 08B5     		push	{r3, lr}
 1210              	.LCFI18:
 1211              		.cfi_def_cfa_offset 16
 1212              		.cfi_offset 3, -16
 1213              		.cfi_offset 14, -12
 1214 0004 0DF1080C 		add	ip, sp, #8
 1215 0008 8CE80C00 		stm	ip, {r2, r3}
 624:Libraries/ctrl_sdk/src/lib_printf.c ****   return normalization.multiply ? num * normalization.raw_factor : num / normalization.raw_factor;
 1216              		.loc 1 624 3 is_stmt 1 view .LVU338
 1217              		.loc 1 624 23 is_stmt 0 view .LVU339
 1218 000c 9DF81030 		ldrb	r3, [sp, #16]	@ zero_extendqisi2
 1219              		.loc 1 624 66 view .LVU340
 1220 0010 4BB1     		cbz	r3, .L96
 1221              		.loc 1 624 66 discriminator 1 view .LVU341
 1222 0012 0246     		mov	r2, r0
 1223 0014 0B46     		mov	r3, r1
 1224 0016 DDE90201 		ldrd	r0, [sp, #8]
 1225              	.LVL117:
 1226              		.loc 1 624 66 discriminator 1 view .LVU342
 1227 001a FFF7FEFF 		bl	__aeabi_dmul
 1228              	.LVL118:
 1229              	.L95:
 625:Libraries/ctrl_sdk/src/lib_printf.c **** }
 1230              		.loc 1 625 1 view .LVU343
 1231 001e BDE80840 		pop	{r3, lr}
 1232              	.LCFI19:
 1233              		.cfi_remember_state
 1234              		.cfi_restore 14
 1235              		.cfi_restore 3
 1236              		.cfi_def_cfa_offset 8
 1237 0022 02B0     		add	sp, sp, #8
 1238              	.LCFI20:
 1239              		.cfi_def_cfa_offset 0
 1240 0024 7047     		bx	lr
 1241              	.LVL119:
 1242              	.L96:
 1243              	.LCFI21:
 1244              		.cfi_restore_state
 624:Libraries/ctrl_sdk/src/lib_printf.c ****   return normalization.multiply ? num * normalization.raw_factor : num / normalization.raw_factor;
 1245              		.loc 1 624 66 discriminator 2 view .LVU344
 1246 0026 DDE90223 		ldrd	r2, [sp, #8]
 1247 002a FFF7FEFF 		bl	__aeabi_ddiv
 1248              	.LVL120:
 624:Libraries/ctrl_sdk/src/lib_printf.c ****   return normalization.multiply ? num * normalization.raw_factor : num / normalization.raw_factor;
 1249              		.loc 1 624 66 discriminator 2 view .LVU345
 1250 002e F6E7     		b	.L95
 1251              		.cfi_endproc
 1252              	.LFE17:
 1254              		.section	.text.unapply_scaling,"ax",%progbits
 1255              		.align	1
ARM GAS  C:\Users\Mxuan\AppData\Local\Temp\ccSEBS4R.s 			page 36


 1256              		.syntax unified
 1257              		.thumb
 1258              		.thumb_func
 1260              	unapply_scaling:
 1261              	.LVL121:
 1262              	.LFB18:
 626:Libraries/ctrl_sdk/src/lib_printf.c **** 
 627:Libraries/ctrl_sdk/src/lib_printf.c **** static double unapply_scaling(double normalized, struct scaling_factor normalization)
 628:Libraries/ctrl_sdk/src/lib_printf.c **** {
 1263              		.loc 1 628 1 is_stmt 1 view -0
 1264              		.cfi_startproc
 1265              		@ args = 16, pretend = 8, frame = 0
 1266              		@ frame_needed = 0, uses_anonymous_args = 0
 1267              		.loc 1 628 1 is_stmt 0 view .LVU347
 1268 0000 82B0     		sub	sp, sp, #8
 1269              	.LCFI22:
 1270              		.cfi_def_cfa_offset 8
 1271 0002 08B5     		push	{r3, lr}
 1272              	.LCFI23:
 1273              		.cfi_def_cfa_offset 16
 1274              		.cfi_offset 3, -16
 1275              		.cfi_offset 14, -12
 1276 0004 0DF1080C 		add	ip, sp, #8
 1277 0008 8CE80C00 		stm	ip, {r2, r3}
 629:Libraries/ctrl_sdk/src/lib_printf.c **** #ifdef __GNUC__
 630:Libraries/ctrl_sdk/src/lib_printf.c **** // accounting for a static analysis bug in GCC 6.x and earlier
 631:Libraries/ctrl_sdk/src/lib_printf.c **** #pragma GCC diagnostic push
 632:Libraries/ctrl_sdk/src/lib_printf.c **** #pragma GCC diagnostic ignored "-Wmaybe-uninitialized"
 633:Libraries/ctrl_sdk/src/lib_printf.c **** #endif
 634:Libraries/ctrl_sdk/src/lib_printf.c ****   return normalization.multiply ? normalized / normalization.raw_factor : normalized * normalizatio
 1278              		.loc 1 634 3 is_stmt 1 view .LVU348
 1279              		.loc 1 634 23 is_stmt 0 view .LVU349
 1280 000c 9DF81030 		ldrb	r3, [sp, #16]	@ zero_extendqisi2
 1281              		.loc 1 634 73 view .LVU350
 1282 0010 3BB1     		cbz	r3, .L100
 1283              		.loc 1 634 73 discriminator 1 view .LVU351
 1284 0012 DDE90223 		ldrd	r2, [sp, #8]
 1285 0016 FFF7FEFF 		bl	__aeabi_ddiv
 1286              	.LVL122:
 1287              	.L99:
 635:Libraries/ctrl_sdk/src/lib_printf.c **** #ifdef __GNUC__
 636:Libraries/ctrl_sdk/src/lib_printf.c **** #pragma GCC diagnostic pop
 637:Libraries/ctrl_sdk/src/lib_printf.c **** #endif
 638:Libraries/ctrl_sdk/src/lib_printf.c **** }
 1288              		.loc 1 638 1 view .LVU352
 1289 001a BDE80840 		pop	{r3, lr}
 1290              	.LCFI24:
 1291              		.cfi_remember_state
 1292              		.cfi_restore 14
 1293              		.cfi_restore 3
 1294              		.cfi_def_cfa_offset 8
 1295 001e 02B0     		add	sp, sp, #8
 1296              	.LCFI25:
 1297              		.cfi_def_cfa_offset 0
 1298 0020 7047     		bx	lr
 1299              	.LVL123:
 1300              	.L100:
ARM GAS  C:\Users\Mxuan\AppData\Local\Temp\ccSEBS4R.s 			page 37


 1301              	.LCFI26:
 1302              		.cfi_restore_state
 634:Libraries/ctrl_sdk/src/lib_printf.c **** #ifdef __GNUC__
 1303              		.loc 1 634 73 discriminator 2 view .LVU353
 1304 0022 0246     		mov	r2, r0
 1305 0024 0B46     		mov	r3, r1
 1306 0026 DDE90201 		ldrd	r0, [sp, #8]
 1307              	.LVL124:
 634:Libraries/ctrl_sdk/src/lib_printf.c **** #ifdef __GNUC__
 1308              		.loc 1 634 73 discriminator 2 view .LVU354
 1309 002a FFF7FEFF 		bl	__aeabi_dmul
 1310              	.LVL125:
 1311 002e F4E7     		b	.L99
 1312              		.cfi_endproc
 1313              	.LFE18:
 1315              		.section	.text.update_normalization,"ax",%progbits
 1316              		.align	1
 1317              		.syntax unified
 1318              		.thumb
 1319              		.thumb_func
 1321              	update_normalization:
 1322              	.LVL126:
 1323              	.LFB19:
 639:Libraries/ctrl_sdk/src/lib_printf.c **** 
 640:Libraries/ctrl_sdk/src/lib_printf.c **** static struct scaling_factor update_normalization(struct scaling_factor sf, double extra_multiplica
 641:Libraries/ctrl_sdk/src/lib_printf.c **** {
 1324              		.loc 1 641 1 is_stmt 1 view -0
 1325              		.cfi_startproc
 1326              		@ args = 24, pretend = 8, frame = 0
 1327              		@ frame_needed = 0, uses_anonymous_args = 0
 1328              		.loc 1 641 1 is_stmt 0 view .LVU356
 1329 0000 82B0     		sub	sp, sp, #8
 1330              	.LCFI27:
 1331              		.cfi_def_cfa_offset 8
 1332 0002 D0B5     		push	{r4, r6, r7, lr}
 1333              	.LCFI28:
 1334              		.cfi_def_cfa_offset 24
 1335              		.cfi_offset 4, -24
 1336              		.cfi_offset 6, -20
 1337              		.cfi_offset 7, -16
 1338              		.cfi_offset 14, -12
 1339 0004 0446     		mov	r4, r0
 1340 0006 04A9     		add	r1, sp, #16
 1341 0008 81E80C00 		stm	r1, {r2, r3}
 1342 000c DDE90801 		ldrd	r0, [sp, #32]
 1343              	.LVL127:
 642:Libraries/ctrl_sdk/src/lib_printf.c ****   struct scaling_factor result;
 1344              		.loc 1 642 3 is_stmt 1 view .LVU357
 643:Libraries/ctrl_sdk/src/lib_printf.c ****   if (sf.multiply) {
 1345              		.loc 1 643 3 view .LVU358
 1346              		.loc 1 643 9 is_stmt 0 view .LVU359
 1347 0010 9DF81830 		ldrb	r3, [sp, #24]	@ zero_extendqisi2
 1348              		.loc 1 643 6 view .LVU360
 1349 0014 73B1     		cbz	r3, .L104
 644:Libraries/ctrl_sdk/src/lib_printf.c ****     result.multiply = true;
 1350              		.loc 1 644 5 is_stmt 1 view .LVU361
 1351              		.loc 1 644 21 is_stmt 0 view .LVU362
ARM GAS  C:\Users\Mxuan\AppData\Local\Temp\ccSEBS4R.s 			page 38


 1352 0016 0123     		movs	r3, #1
 1353 0018 2372     		strb	r3, [r4, #8]
 645:Libraries/ctrl_sdk/src/lib_printf.c ****     result.raw_factor = sf.raw_factor * extra_multiplicative_factor;
 1354              		.loc 1 645 5 is_stmt 1 view .LVU363
 1355              		.loc 1 645 39 is_stmt 0 view .LVU364
 1356 001a 0246     		mov	r2, r0
 1357 001c 0B46     		mov	r3, r1
 1358 001e DDE90401 		ldrd	r0, [sp, #16]
 1359 0022 FFF7FEFF 		bl	__aeabi_dmul
 1360              	.LVL128:
 1361              		.loc 1 645 23 view .LVU365
 1362 0026 C4E90001 		strd	r0, [r4]
 1363              	.L103:
 646:Libraries/ctrl_sdk/src/lib_printf.c ****   }
 647:Libraries/ctrl_sdk/src/lib_printf.c ****   else {
 648:Libraries/ctrl_sdk/src/lib_printf.c ****     int factor_exp2 = get_exp2(get_bit_access(sf.raw_factor));
 649:Libraries/ctrl_sdk/src/lib_printf.c ****     int extra_factor_exp2 = get_exp2(get_bit_access(extra_multiplicative_factor));
 650:Libraries/ctrl_sdk/src/lib_printf.c **** 
 651:Libraries/ctrl_sdk/src/lib_printf.c ****     // Divide the larger-exponent raw raw_factor by the smaller
 652:Libraries/ctrl_sdk/src/lib_printf.c ****     if (PRINTF_ABS(factor_exp2) > PRINTF_ABS(extra_factor_exp2)) {
 653:Libraries/ctrl_sdk/src/lib_printf.c ****       result.multiply = false;
 654:Libraries/ctrl_sdk/src/lib_printf.c ****       result.raw_factor = sf.raw_factor / extra_multiplicative_factor;
 655:Libraries/ctrl_sdk/src/lib_printf.c ****     }
 656:Libraries/ctrl_sdk/src/lib_printf.c ****     else {
 657:Libraries/ctrl_sdk/src/lib_printf.c ****       result.multiply = true;
 658:Libraries/ctrl_sdk/src/lib_printf.c ****       result.raw_factor = extra_multiplicative_factor / sf.raw_factor;
 659:Libraries/ctrl_sdk/src/lib_printf.c ****     }
 660:Libraries/ctrl_sdk/src/lib_printf.c ****   }
 661:Libraries/ctrl_sdk/src/lib_printf.c ****   return result;
 662:Libraries/ctrl_sdk/src/lib_printf.c **** }
 1364              		.loc 1 662 1 view .LVU366
 1365 002a 2046     		mov	r0, r4
 1366 002c BDE8D040 		pop	{r4, r6, r7, lr}
 1367              	.LCFI29:
 1368              		.cfi_remember_state
 1369              		.cfi_restore 14
 1370              		.cfi_restore 7
 1371              		.cfi_restore 6
 1372              		.cfi_restore 4
 1373              		.cfi_def_cfa_offset 8
 1374              	.LVL129:
 1375              		.loc 1 662 1 view .LVU367
 1376 0030 02B0     		add	sp, sp, #8
 1377              	.LCFI30:
 1378              		.cfi_def_cfa_offset 0
 1379 0032 7047     		bx	lr
 1380              	.LVL130:
 1381              	.L104:
 1382              	.LCFI31:
 1383              		.cfi_restore_state
 1384              	.LBB58:
 648:Libraries/ctrl_sdk/src/lib_printf.c ****     int extra_factor_exp2 = get_exp2(get_bit_access(extra_multiplicative_factor));
 1385              		.loc 1 648 5 is_stmt 1 view .LVU368
 648:Libraries/ctrl_sdk/src/lib_printf.c ****     int extra_factor_exp2 = get_exp2(get_bit_access(extra_multiplicative_factor));
 1386              		.loc 1 648 23 is_stmt 0 view .LVU369
 1387 0034 DDE90467 		ldrd	r6, [sp, #16]
 1388              	.LVL131:
ARM GAS  C:\Users\Mxuan\AppData\Local\Temp\ccSEBS4R.s 			page 39


 1389              	.LBB59:
 1390              	.LBI59:
 273:Libraries/ctrl_sdk/src/lib_printf.c **** {
 1391              		.loc 1 273 38 is_stmt 1 view .LVU370
 1392              	.LBB60:
 275:Libraries/ctrl_sdk/src/lib_printf.c ****   dwba.F = x;
 1393              		.loc 1 275 3 view .LVU371
 276:Libraries/ctrl_sdk/src/lib_printf.c ****   return dwba;
 1394              		.loc 1 276 3 view .LVU372
 277:Libraries/ctrl_sdk/src/lib_printf.c **** }
 1395              		.loc 1 277 3 view .LVU373
 277:Libraries/ctrl_sdk/src/lib_printf.c **** }
 1396              		.loc 1 277 3 is_stmt 0 view .LVU374
 1397              	.LBE60:
 1398              	.LBE59:
 1399              	.LBB61:
 1400              	.LBI61:
 286:Libraries/ctrl_sdk/src/lib_printf.c **** {
 1401              		.loc 1 286 19 is_stmt 1 view .LVU375
 1402              	.LBB62:
 292:Libraries/ctrl_sdk/src/lib_printf.c **** }
 1403              		.loc 1 292 3 view .LVU376
 292:Libraries/ctrl_sdk/src/lib_printf.c **** }
 1404              		.loc 1 292 10 is_stmt 0 view .LVU377
 1405 0038 C7F30A52 		ubfx	r2, r7, #20, #11
 292:Libraries/ctrl_sdk/src/lib_printf.c **** }
 1406              		.loc 1 292 78 view .LVU378
 1407 003c A2F2FF32 		subw	r2, r2, #1023
 1408              	.LVL132:
 292:Libraries/ctrl_sdk/src/lib_printf.c **** }
 1409              		.loc 1 292 78 view .LVU379
 1410              	.LBE62:
 1411              	.LBE61:
 649:Libraries/ctrl_sdk/src/lib_printf.c **** 
 1412              		.loc 1 649 5 is_stmt 1 view .LVU380
 1413              	.LBB63:
 1414              	.LBI63:
 273:Libraries/ctrl_sdk/src/lib_printf.c **** {
 1415              		.loc 1 273 38 view .LVU381
 1416              	.LBB64:
 275:Libraries/ctrl_sdk/src/lib_printf.c ****   dwba.F = x;
 1417              		.loc 1 275 3 view .LVU382
 276:Libraries/ctrl_sdk/src/lib_printf.c ****   return dwba;
 1418              		.loc 1 276 3 view .LVU383
 277:Libraries/ctrl_sdk/src/lib_printf.c **** }
 1419              		.loc 1 277 3 view .LVU384
 277:Libraries/ctrl_sdk/src/lib_printf.c **** }
 1420              		.loc 1 277 3 is_stmt 0 view .LVU385
 1421              	.LBE64:
 1422              	.LBE63:
 1423              	.LBB65:
 1424              	.LBI65:
 286:Libraries/ctrl_sdk/src/lib_printf.c **** {
 1425              		.loc 1 286 19 is_stmt 1 view .LVU386
 1426              	.LBB66:
 292:Libraries/ctrl_sdk/src/lib_printf.c **** }
 1427              		.loc 1 292 3 view .LVU387
ARM GAS  C:\Users\Mxuan\AppData\Local\Temp\ccSEBS4R.s 			page 40


 292:Libraries/ctrl_sdk/src/lib_printf.c **** }
 1428              		.loc 1 292 10 is_stmt 0 view .LVU388
 1429 0040 C1F30A53 		ubfx	r3, r1, #20, #11
 292:Libraries/ctrl_sdk/src/lib_printf.c **** }
 1430              		.loc 1 292 78 view .LVU389
 1431 0044 A3F2FF33 		subw	r3, r3, #1023
 1432              	.LVL133:
 292:Libraries/ctrl_sdk/src/lib_printf.c **** }
 1433              		.loc 1 292 78 view .LVU390
 1434              	.LBE66:
 1435              	.LBE65:
 652:Libraries/ctrl_sdk/src/lib_printf.c ****       result.multiply = false;
 1436              		.loc 1 652 5 is_stmt 1 view .LVU391
 652:Libraries/ctrl_sdk/src/lib_printf.c ****       result.multiply = false;
 1437              		.loc 1 652 9 is_stmt 0 view .LVU392
 1438 0048 002A     		cmp	r2, #0
 1439 004a B8BF     		it	lt
 1440 004c 5242     		rsblt	r2, r2, #0
 1441              	.LVL134:
 652:Libraries/ctrl_sdk/src/lib_printf.c ****       result.multiply = false;
 1442              		.loc 1 652 35 view .LVU393
 1443 004e 002B     		cmp	r3, #0
 1444 0050 B8BF     		it	lt
 1445 0052 5B42     		rsblt	r3, r3, #0
 1446              	.LVL135:
 652:Libraries/ctrl_sdk/src/lib_printf.c ****       result.multiply = false;
 1447              		.loc 1 652 8 view .LVU394
 1448 0054 9A42     		cmp	r2, r3
 1449 0056 0ADD     		ble	.L106
 653:Libraries/ctrl_sdk/src/lib_printf.c ****       result.raw_factor = sf.raw_factor / extra_multiplicative_factor;
 1450              		.loc 1 653 7 is_stmt 1 view .LVU395
 653:Libraries/ctrl_sdk/src/lib_printf.c ****       result.raw_factor = sf.raw_factor / extra_multiplicative_factor;
 1451              		.loc 1 653 23 is_stmt 0 view .LVU396
 1452 0058 0023     		movs	r3, #0
 1453 005a 2372     		strb	r3, [r4, #8]
 654:Libraries/ctrl_sdk/src/lib_printf.c ****     }
 1454              		.loc 1 654 7 is_stmt 1 view .LVU397
 654:Libraries/ctrl_sdk/src/lib_printf.c ****     }
 1455              		.loc 1 654 41 is_stmt 0 view .LVU398
 1456 005c 0246     		mov	r2, r0
 1457 005e 0B46     		mov	r3, r1
 1458 0060 3046     		mov	r0, r6
 1459 0062 3946     		mov	r1, r7
 1460              	.LVL136:
 654:Libraries/ctrl_sdk/src/lib_printf.c ****     }
 1461              		.loc 1 654 41 view .LVU399
 1462 0064 FFF7FEFF 		bl	__aeabi_ddiv
 1463              	.LVL137:
 654:Libraries/ctrl_sdk/src/lib_printf.c ****     }
 1464              		.loc 1 654 25 view .LVU400
 1465 0068 C4E90001 		strd	r0, [r4]
 1466 006c DDE7     		b	.L103
 1467              	.LVL138:
 1468              	.L106:
 657:Libraries/ctrl_sdk/src/lib_printf.c ****       result.raw_factor = extra_multiplicative_factor / sf.raw_factor;
 1469              		.loc 1 657 7 is_stmt 1 view .LVU401
 657:Libraries/ctrl_sdk/src/lib_printf.c ****       result.raw_factor = extra_multiplicative_factor / sf.raw_factor;
ARM GAS  C:\Users\Mxuan\AppData\Local\Temp\ccSEBS4R.s 			page 41


 1470              		.loc 1 657 23 is_stmt 0 view .LVU402
 1471 006e 0123     		movs	r3, #1
 1472 0070 2372     		strb	r3, [r4, #8]
 658:Libraries/ctrl_sdk/src/lib_printf.c ****     }
 1473              		.loc 1 658 7 is_stmt 1 view .LVU403
 658:Libraries/ctrl_sdk/src/lib_printf.c ****     }
 1474              		.loc 1 658 55 is_stmt 0 view .LVU404
 1475 0072 3246     		mov	r2, r6
 1476 0074 3B46     		mov	r3, r7
 1477 0076 FFF7FEFF 		bl	__aeabi_ddiv
 1478              	.LVL139:
 658:Libraries/ctrl_sdk/src/lib_printf.c ****     }
 1479              		.loc 1 658 25 view .LVU405
 1480 007a C4E90001 		strd	r0, [r4]
 1481              	.LBE58:
 661:Libraries/ctrl_sdk/src/lib_printf.c **** }
 1482              		.loc 1 661 3 is_stmt 1 view .LVU406
 661:Libraries/ctrl_sdk/src/lib_printf.c **** }
 1483              		.loc 1 661 10 is_stmt 0 view .LVU407
 1484 007e D4E7     		b	.L103
 1485              		.cfi_endproc
 1486              	.LFE19:
 1488              		.global	__aeabi_dcmpge
 1489              		.section	.text.get_normalized_components,"ax",%progbits
 1490              		.align	1
 1491              		.syntax unified
 1492              		.thumb
 1493              		.thumb_func
 1495              	get_normalized_components:
 1496              	.LVL140:
 1497              	.LFB20:
 663:Libraries/ctrl_sdk/src/lib_printf.c **** 
 664:Libraries/ctrl_sdk/src/lib_printf.c **** static struct double_components get_normalized_components(bool negative, printf_size_t precision, d
 665:Libraries/ctrl_sdk/src/lib_printf.c **** {
 1498              		.loc 1 665 1 is_stmt 1 view -0
 1499              		.cfi_startproc
 1500              		@ args = 28, pretend = 0, frame = 56
 1501              		@ frame_needed = 0, uses_anonymous_args = 0
 1502              		.loc 1 665 1 is_stmt 0 view .LVU409
 1503 0000 2DE9F04F 		push	{r4, r5, r6, r7, r8, r9, r10, fp, lr}
 1504              	.LCFI32:
 1505              		.cfi_def_cfa_offset 36
 1506              		.cfi_offset 4, -36
 1507              		.cfi_offset 5, -32
 1508              		.cfi_offset 6, -28
 1509              		.cfi_offset 7, -24
 1510              		.cfi_offset 8, -20
 1511              		.cfi_offset 9, -16
 1512              		.cfi_offset 10, -12
 1513              		.cfi_offset 11, -8
 1514              		.cfi_offset 14, -4
 1515 0004 93B0     		sub	sp, sp, #76
 1516              	.LCFI33:
 1517              		.cfi_def_cfa_offset 112
 1518 0006 8346     		mov	fp, r0
 1519 0008 0D46     		mov	r5, r1
 1520 000a 1446     		mov	r4, r2
ARM GAS  C:\Users\Mxuan\AppData\Local\Temp\ccSEBS4R.s 			page 42


 1521 000c DDE91C67 		ldrd	r6, [sp, #112]
 666:Libraries/ctrl_sdk/src/lib_printf.c ****   struct double_components components;
 1522              		.loc 1 666 3 is_stmt 1 view .LVU410
 667:Libraries/ctrl_sdk/src/lib_printf.c ****   components.is_negative = negative;
 1523              		.loc 1 667 3 view .LVU411
 1524              		.loc 1 667 26 is_stmt 0 view .LVU412
 1525 0010 8DF84010 		strb	r1, [sp, #64]
 668:Libraries/ctrl_sdk/src/lib_printf.c ****   double scaled = apply_scaling(non_normalized, normalization);
 1526              		.loc 1 668 3 is_stmt 1 view .LVU413
 1527              		.loc 1 668 19 is_stmt 0 view .LVU414
 1528 0014 20AB     		add	r3, sp, #128
 1529 0016 93E80300 		ldm	r3, {r0, r1}
 1530              	.LVL141:
 1531              		.loc 1 668 19 view .LVU415
 1532 001a 8DE80300 		stm	sp, {r0, r1}
 1533 001e 1EAB     		add	r3, sp, #120
 1534 0020 0CCB     		ldm	r3, {r2, r3}
 1535              	.LVL142:
 1536              		.loc 1 668 19 view .LVU416
 1537 0022 3046     		mov	r0, r6
 1538 0024 3946     		mov	r1, r7
 1539 0026 FFF7FEFF 		bl	apply_scaling
 1540              	.LVL143:
 669:Libraries/ctrl_sdk/src/lib_printf.c **** 
 670:Libraries/ctrl_sdk/src/lib_printf.c ****   bool close_to_representation_extremum = ( (-floored_exp10 + (int) precision) >= DBL_MAX_10_EXP - 
 1541              		.loc 1 670 3 is_stmt 1 view .LVU417
 1542              		.loc 1 670 61 is_stmt 0 view .LVU418
 1543 002a 229B     		ldr	r3, [sp, #136]
 1544 002c E31A     		subs	r3, r4, r3
 1545              	.LVL144:
 671:Libraries/ctrl_sdk/src/lib_printf.c ****   if (close_to_representation_extremum) {
 1546              		.loc 1 671 3 is_stmt 1 view .LVU419
 1547              		.loc 1 671 6 is_stmt 0 view .LVU420
 1548 002e B3F5997F 		cmp	r3, #306
 1549 0032 00F38680 		bgt	.L120
 672:Libraries/ctrl_sdk/src/lib_printf.c ****     // We can't have a normalization factor which also accounts for the precision, i.e. moves
 673:Libraries/ctrl_sdk/src/lib_printf.c ****     // some decimal digits into the mantissa, since it's unrepresentable, or nearly unrepresentable
 674:Libraries/ctrl_sdk/src/lib_printf.c ****     // So, we'll give up early on getting extra precision...
 675:Libraries/ctrl_sdk/src/lib_printf.c ****     return get_components(negative ? -scaled : scaled, precision);
 676:Libraries/ctrl_sdk/src/lib_printf.c ****   }
 677:Libraries/ctrl_sdk/src/lib_printf.c ****   components.integral = (int_fast64_t) scaled;
 1550              		.loc 1 677 3 is_stmt 1 view .LVU421
 1551              		.loc 1 677 25 is_stmt 0 view .LVU422
 1552 0036 FFF7FEFF 		bl	__aeabi_d2lz
 1553              	.LVL145:
 1554              		.loc 1 677 25 view .LVU423
 1555 003a 0690     		str	r0, [sp, #24]
 1556 003c 0791     		str	r1, [sp, #28]
 1557              		.loc 1 677 23 view .LVU424
 1558 003e 0C90     		str	r0, [sp, #48]
 1559 0040 0D91     		str	r1, [sp, #52]
 678:Libraries/ctrl_sdk/src/lib_printf.c ****   double remainder = non_normalized - unapply_scaling((double) components.integral, normalization);
 1560              		.loc 1 678 3 is_stmt 1 view .LVU425
 1561              		.loc 1 678 39 is_stmt 0 view .LVU426
 1562 0042 FFF7FEFF 		bl	__aeabi_l2d
 1563              	.LVL146:
 1564 0046 8046     		mov	r8, r0
ARM GAS  C:\Users\Mxuan\AppData\Local\Temp\ccSEBS4R.s 			page 43


 1565 0048 8946     		mov	r9, r1
 1566 004a 0DF1800A 		add	r10, sp, #128
 1567 004e 9AE80300 		ldm	r10, {r0, r1}
 1568 0052 8DE80300 		stm	sp, {r0, r1}
 1569 0056 1EAD     		add	r5, sp, #120
 1570 0058 95E80C00 		ldm	r5, {r2, r3}
 1571 005c 4046     		mov	r0, r8
 1572 005e 4946     		mov	r1, r9
 1573 0060 FFF7FEFF 		bl	unapply_scaling
 1574              	.LVL147:
 1575 0064 0246     		mov	r2, r0
 1576 0066 0B46     		mov	r3, r1
 1577              		.loc 1 678 10 view .LVU427
 1578 0068 3046     		mov	r0, r6
 1579 006a 3946     		mov	r1, r7
 1580 006c FFF7FEFF 		bl	__aeabi_dsub
 1581              	.LVL148:
 1582 0070 0646     		mov	r6, r0
 1583 0072 0F46     		mov	r7, r1
 1584              	.LVL149:
 679:Libraries/ctrl_sdk/src/lib_printf.c ****   double prec_power_of_10 = powers_of_10[precision];
 1585              		.loc 1 679 3 is_stmt 1 view .LVU428
 1586              		.loc 1 679 10 is_stmt 0 view .LVU429
 1587 0074 384B     		ldr	r3, .L121
 1588 0076 03EBC403 		add	r3, r3, r4, lsl #3
 1589 007a D3E90089 		ldrd	r8, [r3]
 1590              	.LVL150:
 680:Libraries/ctrl_sdk/src/lib_printf.c ****   struct scaling_factor account_for_precision = update_normalization(normalization, prec_power_of_1
 1591              		.loc 1 680 3 is_stmt 1 view .LVU430
 1592              		.loc 1 680 49 is_stmt 0 view .LVU431
 1593 007e 08AC     		add	r4, sp, #32
 1594              	.LVL151:
 1595              		.loc 1 680 49 view .LVU432
 1596 0080 CDE90289 		strd	r8, [sp, #8]
 1597 0084 9AE80300 		ldm	r10, {r0, r1}
 1598 0088 8DE80300 		stm	sp, {r0, r1}
 1599 008c 95E80C00 		ldm	r5, {r2, r3}
 1600 0090 2046     		mov	r0, r4
 1601 0092 FFF7FEFF 		bl	update_normalization
 1602              	.LVL152:
 681:Libraries/ctrl_sdk/src/lib_printf.c ****   double scaled_remainder = apply_scaling(remainder, account_for_precision);
 1603              		.loc 1 681 3 is_stmt 1 view .LVU433
 1604              		.loc 1 681 29 is_stmt 0 view .LVU434
 1605 0096 0AAB     		add	r3, sp, #40
 1606 0098 93E80300 		ldm	r3, {r0, r1}
 1607 009c 8DE80300 		stm	sp, {r0, r1}
 1608 00a0 94E80C00 		ldm	r4, {r2, r3}
 1609 00a4 3046     		mov	r0, r6
 1610 00a6 3946     		mov	r1, r7
 1611 00a8 FFF7FEFF 		bl	apply_scaling
 1612              	.LVL153:
 1613 00ac 0446     		mov	r4, r0
 1614 00ae 0D46     		mov	r5, r1
 1615              	.LVL154:
 682:Libraries/ctrl_sdk/src/lib_printf.c ****   double rounding_threshold = 0.5;
 1616              		.loc 1 682 3 is_stmt 1 view .LVU435
 683:Libraries/ctrl_sdk/src/lib_printf.c **** 
ARM GAS  C:\Users\Mxuan\AppData\Local\Temp\ccSEBS4R.s 			page 44


 684:Libraries/ctrl_sdk/src/lib_printf.c ****   components.fractional = (int_fast64_t) scaled_remainder; // when precision == 0, the assigned val
 1617              		.loc 1 684 3 view .LVU436
 1618              		.loc 1 684 27 is_stmt 0 view .LVU437
 1619 00b0 FFF7FEFF 		bl	__aeabi_d2lz
 1620              	.LVL155:
 1621 00b4 0746     		mov	r7, r0
 1622 00b6 0E46     		mov	r6, r1
 1623              	.LVL156:
 1624              		.loc 1 684 25 view .LVU438
 1625 00b8 0E90     		str	r0, [sp, #56]
 1626 00ba 0F91     		str	r1, [sp, #60]
 685:Libraries/ctrl_sdk/src/lib_printf.c ****   scaled_remainder -= (double) components.fractional; //when precision == 0, this will not change s
 1627              		.loc 1 685 3 is_stmt 1 view .LVU439
 1628              		.loc 1 685 23 is_stmt 0 view .LVU440
 1629 00bc FFF7FEFF 		bl	__aeabi_l2d
 1630              	.LVL157:
 1631 00c0 0246     		mov	r2, r0
 1632 00c2 0B46     		mov	r3, r1
 1633              		.loc 1 685 20 view .LVU441
 1634 00c4 2046     		mov	r0, r4
 1635 00c6 2946     		mov	r1, r5
 1636 00c8 FFF7FEFF 		bl	__aeabi_dsub
 1637              	.LVL158:
 1638 00cc 0246     		mov	r2, r0
 1639 00ce 0B46     		mov	r3, r1
 1640 00d0 CDE90423 		strd	r2, [sp, #16]
 1641              	.LVL159:
 686:Libraries/ctrl_sdk/src/lib_printf.c **** 
 687:Libraries/ctrl_sdk/src/lib_printf.c ****   components.fractional += (scaled_remainder >= rounding_threshold);
 1642              		.loc 1 687 3 is_stmt 1 view .LVU442
 1643              		.loc 1 687 46 is_stmt 0 view .LVU443
 1644 00d4 0124     		movs	r4, #1
 1645 00d6 0025     		movs	r5, #0
 1646 00d8 0022     		movs	r2, #0
 1647              	.LVL160:
 1648              		.loc 1 687 46 view .LVU444
 1649 00da 204B     		ldr	r3, .L121+4
 1650 00dc FFF7FEFF 		bl	__aeabi_dcmpge
 1651              	.LVL161:
 1652 00e0 00B9     		cbnz	r0, .L112
 1653 00e2 2C46     		mov	r4, r5
 1654              	.L112:
 1655              		.loc 1 687 25 view .LVU445
 1656 00e4 3C19     		adds	r4, r7, r4
 1657 00e6 46EB0506 		adc	r6, r6, r5
 1658 00ea 0E94     		str	r4, [sp, #56]
 1659 00ec 0F96     		str	r6, [sp, #60]
 688:Libraries/ctrl_sdk/src/lib_printf.c ****   if (scaled_remainder == rounding_threshold) {
 1660              		.loc 1 688 3 is_stmt 1 view .LVU446
 1661              		.loc 1 688 6 is_stmt 0 view .LVU447
 1662 00ee 0022     		movs	r2, #0
 1663 00f0 1A4B     		ldr	r3, .L121+4
 1664 00f2 DDE90401 		ldrd	r0, [sp, #16]
 1665 00f6 FFF7FEFF 		bl	__aeabi_dcmpeq
 1666              	.LVL162:
 1667 00fa 10B1     		cbz	r0, .L113
 689:Libraries/ctrl_sdk/src/lib_printf.c ****     // banker's rounding: Round towards the even number (making the mean error 0)
ARM GAS  C:\Users\Mxuan\AppData\Local\Temp\ccSEBS4R.s 			page 45


 690:Libraries/ctrl_sdk/src/lib_printf.c ****     components.fractional &= ~((int_fast64_t) 0x1);
 1668              		.loc 1 690 5 is_stmt 1 view .LVU448
 1669              		.loc 1 690 27 is_stmt 0 view .LVU449
 1670 00fc 24F00104 		bic	r4, r4, #1
 1671 0100 0E94     		str	r4, [sp, #56]
 1672              	.L113:
 691:Libraries/ctrl_sdk/src/lib_printf.c ****   }
 692:Libraries/ctrl_sdk/src/lib_printf.c ****   // handle rollover, e.g. the case of 0.99 with precision 1 becoming (0,100),
 693:Libraries/ctrl_sdk/src/lib_printf.c ****   // and must then be corrected into (1, 0).
 694:Libraries/ctrl_sdk/src/lib_printf.c ****   // Note: for precision = 0, this will "translate" the rounding effect from
 695:Libraries/ctrl_sdk/src/lib_printf.c ****   // the fractional part to the integral part where it should actually be
 696:Libraries/ctrl_sdk/src/lib_printf.c ****   // felt (as prec_power_of_10 is 1)
 697:Libraries/ctrl_sdk/src/lib_printf.c ****   if ((double) components.fractional >= prec_power_of_10) {
 1673              		.loc 1 697 3 is_stmt 1 view .LVU450
 1674              		.loc 1 697 7 is_stmt 0 view .LVU451
 1675 0102 DDE90E01 		ldrd	r0, [sp, #56]
 1676 0106 FFF7FEFF 		bl	__aeabi_l2d
 1677              	.LVL163:
 1678              		.loc 1 697 6 view .LVU452
 1679 010a 4246     		mov	r2, r8
 1680 010c 4B46     		mov	r3, r9
 1681 010e FFF7FEFF 		bl	__aeabi_dcmpge
 1682              	.LVL164:
 1683 0112 50B1     		cbz	r0, .L115
 698:Libraries/ctrl_sdk/src/lib_printf.c ****     components.fractional = 0;
 1684              		.loc 1 698 5 is_stmt 1 view .LVU453
 1685              		.loc 1 698 27 is_stmt 0 view .LVU454
 1686 0114 0022     		movs	r2, #0
 1687 0116 0023     		movs	r3, #0
 1688 0118 CDE90E23 		strd	r2, [sp, #56]
 699:Libraries/ctrl_sdk/src/lib_printf.c ****     ++components.integral;
 1689              		.loc 1 699 5 is_stmt 1 view .LVU455
 1690 011c 069B     		ldr	r3, [sp, #24]
 1691 011e 0133     		adds	r3, r3, #1
 1692 0120 079A     		ldr	r2, [sp, #28]
 1693 0122 42F10002 		adc	r2, r2, #0
 1694 0126 0C93     		str	r3, [sp, #48]
 1695 0128 0D92     		str	r2, [sp, #52]
 1696              	.L115:
 700:Libraries/ctrl_sdk/src/lib_printf.c ****   }
 701:Libraries/ctrl_sdk/src/lib_printf.c ****   return components;
 1697              		.loc 1 701 3 view .LVU456
 1698              		.loc 1 701 10 is_stmt 0 view .LVU457
 1699 012a 5C46     		mov	r4, fp
 1700 012c 0CAD     		add	r5, sp, #48
 1701 012e 0FCD     		ldmia	r5!, {r0, r1, r2, r3}
 1702 0130 0FC4     		stmia	r4!, {r0, r1, r2, r3}
 1703 0132 95E80300 		ldm	r5, {r0, r1}
 1704 0136 84E80300 		stm	r4, {r0, r1}
 1705              	.LVL165:
 1706              	.L108:
 702:Libraries/ctrl_sdk/src/lib_printf.c **** }
 1707              		.loc 1 702 1 view .LVU458
 1708 013a 5846     		mov	r0, fp
 1709 013c 13B0     		add	sp, sp, #76
 1710              	.LCFI34:
 1711              		.cfi_remember_state
ARM GAS  C:\Users\Mxuan\AppData\Local\Temp\ccSEBS4R.s 			page 46


 1712              		.cfi_def_cfa_offset 36
 1713              		@ sp needed
 1714 013e BDE8F08F 		pop	{r4, r5, r6, r7, r8, r9, r10, fp, pc}
 1715              	.LVL166:
 1716              	.L120:
 1717              	.LCFI35:
 1718              		.cfi_restore_state
 675:Libraries/ctrl_sdk/src/lib_printf.c ****   }
 1719              		.loc 1 675 5 is_stmt 1 view .LVU459
 675:Libraries/ctrl_sdk/src/lib_printf.c ****   }
 1720              		.loc 1 675 12 is_stmt 0 view .LVU460
 1721 0142 15B1     		cbz	r5, .L110
 675:Libraries/ctrl_sdk/src/lib_printf.c ****   }
 1722              		.loc 1 675 12 discriminator 1 view .LVU461
 1723 0144 01F10043 		add	r3, r1, #-2147483648
 1724              	.LVL167:
 675:Libraries/ctrl_sdk/src/lib_printf.c ****   }
 1725              		.loc 1 675 12 discriminator 1 view .LVU462
 1726 0148 1946     		mov	r1, r3
 1727              	.L110:
 675:Libraries/ctrl_sdk/src/lib_printf.c ****   }
 1728              		.loc 1 675 12 discriminator 4 view .LVU463
 1729 014a 0094     		str	r4, [sp]
 1730 014c 0246     		mov	r2, r0
 1731 014e 0B46     		mov	r3, r1
 1732 0150 5846     		mov	r0, fp
 1733              	.LVL168:
 675:Libraries/ctrl_sdk/src/lib_printf.c ****   }
 1734              		.loc 1 675 12 discriminator 4 view .LVU464
 1735 0152 FFF7FEFF 		bl	get_components
 1736              	.LVL169:
 1737 0156 F0E7     		b	.L108
 1738              	.L122:
 1739              		.align	2
 1740              	.L121:
 1741 0158 00000000 		.word	powers_of_10
 1742 015c 0000E03F 		.word	1071644672
 1743              		.cfi_endproc
 1744              	.LFE20:
 1746              		.section	.text.print_broken_up_decimal,"ax",%progbits
 1747              		.align	1
 1748              		.syntax unified
 1749              		.thumb
 1750              		.thumb_func
 1752              	print_broken_up_decimal:
 1753              	.LVL170:
 1754              	.LFB21:
 703:Libraries/ctrl_sdk/src/lib_printf.c **** #endif // PRINTF_SUPPORT_EXPONENTIAL_SPECIFIERS
 704:Libraries/ctrl_sdk/src/lib_printf.c **** 
 705:Libraries/ctrl_sdk/src/lib_printf.c **** static void print_broken_up_decimal(
 706:Libraries/ctrl_sdk/src/lib_printf.c ****   struct double_components number_, output_gadget_t* output, printf_size_t precision,
 707:Libraries/ctrl_sdk/src/lib_printf.c ****   printf_size_t width, printf_flags_t flags, char *buf, printf_size_t len)
 708:Libraries/ctrl_sdk/src/lib_printf.c **** {
 1755              		.loc 1 708 1 is_stmt 1 view -0
 1756              		.cfi_startproc
 1757              		@ args = 48, pretend = 16, frame = 0
 1758              		@ frame_needed = 0, uses_anonymous_args = 0
ARM GAS  C:\Users\Mxuan\AppData\Local\Temp\ccSEBS4R.s 			page 47


 1759              		.loc 1 708 1 is_stmt 0 view .LVU466
 1760 0000 84B0     		sub	sp, sp, #16
 1761              	.LCFI36:
 1762              		.cfi_def_cfa_offset 16
 1763 0002 2DE9F047 		push	{r4, r5, r6, r7, r8, r9, r10, lr}
 1764              	.LCFI37:
 1765              		.cfi_def_cfa_offset 48
 1766              		.cfi_offset 4, -48
 1767              		.cfi_offset 5, -44
 1768              		.cfi_offset 6, -40
 1769              		.cfi_offset 7, -36
 1770              		.cfi_offset 8, -32
 1771              		.cfi_offset 9, -28
 1772              		.cfi_offset 10, -24
 1773              		.cfi_offset 14, -20
 1774 0006 82B0     		sub	sp, sp, #8
 1775              	.LCFI38:
 1776              		.cfi_def_cfa_offset 56
 1777 0008 0AAC     		add	r4, sp, #40
 1778 000a 84E80F00 		stm	r4, {r0, r1, r2, r3}
 1779 000e 119E     		ldr	r6, [sp, #68]
 1780 0010 129B     		ldr	r3, [sp, #72]
 1781 0012 139C     		ldr	r4, [sp, #76]
 1782 0014 1499     		ldr	r1, [sp, #80]
 1783 0016 159A     		ldr	r2, [sp, #84]
 709:Libraries/ctrl_sdk/src/lib_printf.c ****   if (precision != 0U) {
 1784              		.loc 1 709 3 is_stmt 1 view .LVU467
 1785              		.loc 1 709 6 is_stmt 0 view .LVU468
 1786 0018 002E     		cmp	r6, #0
 1787 001a 00F09281 		beq	.L124
 1788              	.LBB67:
 710:Libraries/ctrl_sdk/src/lib_printf.c ****     // do fractional part, as an unsigned number
 711:Libraries/ctrl_sdk/src/lib_printf.c **** 
 712:Libraries/ctrl_sdk/src/lib_printf.c ****     printf_size_t count = precision;
 1789              		.loc 1 712 5 is_stmt 1 view .LVU469
 1790              	.LVL171:
 713:Libraries/ctrl_sdk/src/lib_printf.c **** 
 714:Libraries/ctrl_sdk/src/lib_printf.c ****     // %g/%G mandates we skip the trailing 0 digits...
 715:Libraries/ctrl_sdk/src/lib_printf.c ****     if ((flags & FLAGS_ADAPT_EXP) && !(flags & FLAGS_HASH) && (number_.fractional > 0)) {
 1791              		.loc 1 715 5 view .LVU470
 1792              		.loc 1 715 35 is_stmt 0 view .LVU471
 1793 001e 41F21007 		movw	r7, #4112
 1794 0022 2740     		ands	r7, r7, r4
 1795              		.loc 1 715 8 view .LVU472
 1796 0024 B7F5805F 		cmp	r7, #4096
 1797 0028 7FD0     		beq	.L155
 1798              	.L125:
 716:Libraries/ctrl_sdk/src/lib_printf.c ****       while(true) {
 717:Libraries/ctrl_sdk/src/lib_printf.c ****         int_fast64_t digit = number_.fractional % 10U;
 718:Libraries/ctrl_sdk/src/lib_printf.c ****         if (digit != 0) {
 719:Libraries/ctrl_sdk/src/lib_printf.c ****           break;
 720:Libraries/ctrl_sdk/src/lib_printf.c ****         }
 721:Libraries/ctrl_sdk/src/lib_printf.c ****         --count;
 722:Libraries/ctrl_sdk/src/lib_printf.c ****         number_.fractional /= 10U;
 723:Libraries/ctrl_sdk/src/lib_printf.c **** 
 724:Libraries/ctrl_sdk/src/lib_printf.c ****       }
 725:Libraries/ctrl_sdk/src/lib_printf.c ****       // ... and even the decimal point if there are no
ARM GAS  C:\Users\Mxuan\AppData\Local\Temp\ccSEBS4R.s 			page 48


 726:Libraries/ctrl_sdk/src/lib_printf.c ****       // non-zero fractional part digits (see below)
 727:Libraries/ctrl_sdk/src/lib_printf.c ****     }
 728:Libraries/ctrl_sdk/src/lib_printf.c **** 
 729:Libraries/ctrl_sdk/src/lib_printf.c ****     if (number_.fractional > 0 || !(flags & FLAGS_ADAPT_EXP) || (flags & FLAGS_HASH) ) {
 1799              		.loc 1 729 5 is_stmt 1 view .LVU473
 1800              		.loc 1 729 8 is_stmt 0 view .LVU474
 1801 002a 0C98     		ldr	r0, [sp, #48]
 1802 002c 0128     		cmp	r0, #1
 1803 002e 0D98     		ldr	r0, [sp, #52]
 1804 0030 70F10000 		sbcs	r0, r0, #0
 1805 0034 C0F20081 		blt	.L156
 1806              	.LVL172:
 1807              	.L134:
 730:Libraries/ctrl_sdk/src/lib_printf.c ****       while (len < PRINTF_DECIMAL_BUFFER_SIZE) {
 1808              		.loc 1 730 18 is_stmt 1 view .LVU475
 1809 0038 1F2A     		cmp	r2, #31
 1810 003a 00F20681 		bhi	.L136
 731:Libraries/ctrl_sdk/src/lib_printf.c ****         --count;
 1811              		.loc 1 731 9 view .LVU476
 1812 003e 013E     		subs	r6, r6, #1
 1813              	.LVL173:
 732:Libraries/ctrl_sdk/src/lib_printf.c ****         buf[len++] = (char)('0' + number_.fractional % 10U);
 1814              		.loc 1 732 9 view .LVU477
 1815              		.loc 1 732 42 is_stmt 0 view .LVU478
 1816 0040 0C98     		ldr	r0, [sp, #48]
 1817 0042 0D9F     		ldr	r7, [sp, #52]
 1818              		.loc 1 732 54 view .LVU479
 1819 0044 4FEAE77E 		asr	lr, r7, #31
 1820 0048 0EF00308 		and	r8, lr, #3
 1821 004c 20F07045 		bic	r5, r0, #-268435456
 1822 0050 4FEA107C 		lsr	ip, r0, #28
 1823 0054 4CEA071C 		orr	ip, ip, r7, lsl #4
 1824 0058 2CF0704C 		bic	ip, ip, #-268435456
 1825 005c 6544     		add	r5, r5, ip
 1826 005e 05EB1765 		add	r5, r5, r7, lsr #24
 1827 0062 4544     		add	r5, r5, r8
 1828 0064 DFF858C3 		ldr	ip, .L158
 1829 0068 ACFB0589 		umull	r8, r9, ip, r5
 1830 006c 29F00308 		bic	r8, r9, #3
 1831 0070 08EB9908 		add	r8, r8, r9, lsr #2
 1832 0074 A5EB0805 		sub	r5, r5, r8
 1833 0078 2EF0030E 		bic	lr, lr, #3
 1834 007c 7544     		add	r5, r5, lr
 1835 007e B0EB050E 		subs	lr, r0, r5
 1836 0082 67EBE575 		sbc	r5, r7, r5, asr #31
 1837 0086 4FF0CC38 		mov	r8, #-858993460
 1838 008a 08FB0EF8 		mul	r8, r8, lr
 1839 008e 0CFB0585 		mla	r5, ip, r5, r8
 1840 0092 AEFB0CEC 		umull	lr, ip, lr, ip
 1841 0096 AC44     		add	ip, ip, r5
 1842 0098 4FEADC75 		lsr	r5, ip, #31
 1843 009c 15EB0E05 		adds	r5, r5, lr
 1844 00a0 4CF1000C 		adc	ip, ip, #0
 1845 00a4 6D08     		lsrs	r5, r5, #1
 1846 00a6 45EACC75 		orr	r5, r5, ip, lsl #31
 1847 00aa 05EB8505 		add	r5, r5, r5, lsl #2
 1848 00ae 15EB050C 		adds	ip, r5, r5
ARM GAS  C:\Users\Mxuan\AppData\Local\Temp\ccSEBS4R.s 			page 49


 1849 00b2 B0EB0C0C 		subs	ip, r0, ip
 1850              		.loc 1 732 16 view .LVU480
 1851 00b6 551C     		adds	r5, r2, #1
 1852              	.LVL174:
 1853              		.loc 1 732 22 view .LVU481
 1854 00b8 0CF1300C 		add	ip, ip, #48
 1855              		.loc 1 732 20 view .LVU482
 1856 00bc 01F802C0 		strb	ip, [r1, r2]
 733:Libraries/ctrl_sdk/src/lib_printf.c ****         if (!(number_.fractional /= 10U)) {
 1857              		.loc 1 733 9 is_stmt 1 view .LVU483
 1858              		.loc 1 733 34 is_stmt 0 view .LVU484
 1859 00c0 4FEAE77E 		asr	lr, r7, #31
 1860 00c4 0EF00308 		and	r8, lr, #3
 1861 00c8 20F0704C 		bic	ip, r0, #-268435456
 1862 00cc 020F     		lsrs	r2, r0, #28
 1863 00ce 42EA0712 		orr	r2, r2, r7, lsl #4
 1864 00d2 22F07042 		bic	r2, r2, #-268435456
 1865 00d6 9444     		add	ip, ip, r2
 1866 00d8 0CEB176C 		add	ip, ip, r7, lsr #24
 1867 00dc C444     		add	ip, ip, r8
 1868 00de B84A     		ldr	r2, .L158
 1869 00e0 29F00308 		bic	r8, r9, #3
 1870 00e4 08EB9908 		add	r8, r8, r9, lsr #2
 1871 00e8 ACEB080C 		sub	ip, ip, r8
 1872 00ec 2EF0030E 		bic	lr, lr, #3
 1873 00f0 F444     		add	ip, ip, lr
 1874 00f2 B0EB0C00 		subs	r0, r0, ip
 1875 00f6 67EBEC77 		sbc	r7, r7, ip, asr #31
 1876 00fa 4FF0CC3C 		mov	ip, #-858993460
 1877 00fe 0CFB00FC 		mul	ip, ip, r0
 1878 0102 02FB07C7 		mla	r7, r2, r7, ip
 1879 0106 A0FB0202 		umull	r0, r2, r0, r2
 1880 010a 3A44     		add	r2, r2, r7
 1881 010c D70F     		lsrs	r7, r2, #31
 1882 010e 3818     		adds	r0, r7, r0
 1883 0110 42F10002 		adc	r2, r2, #0
 1884 0114 4008     		lsrs	r0, r0, #1
 1885 0116 40EAC270 		orr	r0, r0, r2, lsl #31
 1886 011a 5210     		asrs	r2, r2, #1
 1887 011c 0C90     		str	r0, [sp, #48]
 1888 011e 0D92     		str	r2, [sp, #52]
 1889              		.loc 1 733 12 view .LVU485
 1890 0120 1043     		orrs	r0, r0, r2
 1891 0122 00F00C81 		beq	.L152
 732:Libraries/ctrl_sdk/src/lib_printf.c ****         buf[len++] = (char)('0' + number_.fractional % 10U);
 1892              		.loc 1 732 16 view .LVU486
 1893 0126 2A46     		mov	r2, r5
 1894 0128 86E7     		b	.L134
 1895              	.LVL175:
 1896              	.L155:
 715:Libraries/ctrl_sdk/src/lib_printf.c ****       while(true) {
 1897              		.loc 1 715 60 discriminator 1 view .LVU487
 1898 012a 0C98     		ldr	r0, [sp, #48]
 1899 012c 0128     		cmp	r0, #1
 1900 012e 0D98     		ldr	r0, [sp, #52]
 1901 0130 70F10000 		sbcs	r0, r0, #0
 1902 0134 FFF679AF 		blt	.L125
ARM GAS  C:\Users\Mxuan\AppData\Local\Temp\ccSEBS4R.s 			page 50


 1903              	.L128:
 716:Libraries/ctrl_sdk/src/lib_printf.c ****         int_fast64_t digit = number_.fractional % 10U;
 1904              		.loc 1 716 7 is_stmt 1 view .LVU488
 1905              	.LBB68:
 717:Libraries/ctrl_sdk/src/lib_printf.c ****         if (digit != 0) {
 1906              		.loc 1 717 9 view .LVU489
 717:Libraries/ctrl_sdk/src/lib_printf.c ****         if (digit != 0) {
 1907              		.loc 1 717 37 is_stmt 0 view .LVU490
 1908 0138 0C9D     		ldr	r5, [sp, #48]
 1909 013a DDF834C0 		ldr	ip, [sp, #52]
 717:Libraries/ctrl_sdk/src/lib_printf.c ****         if (digit != 0) {
 1910              		.loc 1 717 22 view .LVU491
 1911 013e 4FEAEC78 		asr	r8, ip, #31
 1912 0142 08F00309 		and	r9, r8, #3
 1913 0146 25F0704E 		bic	lr, r5, #-268435456
 1914 014a 280F     		lsrs	r0, r5, #28
 1915 014c 40EA0C10 		orr	r0, r0, ip, lsl #4
 1916 0150 20F07040 		bic	r0, r0, #-268435456
 1917 0154 8644     		add	lr, lr, r0
 1918 0156 0EEB1C6E 		add	lr, lr, ip, lsr #24
 1919 015a CE44     		add	lr, lr, r9
 1920 015c 9848     		ldr	r0, .L158
 1921 015e A0FB0E9A 		umull	r9, r10, r0, lr
 1922 0162 2AF00309 		bic	r9, r10, #3
 1923 0166 09EB9A09 		add	r9, r9, r10, lsr #2
 1924 016a AEEB090E 		sub	lr, lr, r9
 1925 016e 28F00308 		bic	r8, r8, #3
 1926 0172 C644     		add	lr, lr, r8
 1927 0174 B5EB0E08 		subs	r8, r5, lr
 1928 0178 6CEBEE7E 		sbc	lr, ip, lr, asr #31
 1929 017c 4FF0CC39 		mov	r9, #-858993460
 1930 0180 09FB08F9 		mul	r9, r9, r8
 1931 0184 00FB0E9E 		mla	lr, r0, lr, r9
 1932 0188 A8FB0080 		umull	r8, r0, r8, r0
 1933 018c 7044     		add	r0, r0, lr
 1934 018e 4FEAD07E 		lsr	lr, r0, #31
 1935 0192 1EEB080E 		adds	lr, lr, r8
 1936 0196 40F10000 		adc	r0, r0, #0
 1937 019a 4FEA5E0E 		lsr	lr, lr, #1
 1938 019e 4EEAC07E 		orr	lr, lr, r0, lsl #31
 1939 01a2 4010     		asrs	r0, r0, #1
 1940 01a4 4FEA8009 		lsl	r9, r0, #2
 1941 01a8 49EA9E79 		orr	r9, r9, lr, lsr #30
 1942 01ac 4FEA8E08 		lsl	r8, lr, #2
 1943 01b0 18EB0E0E 		adds	lr, r8, lr
 1944 01b4 40EB0900 		adc	r0, r0, r9
 1945 01b8 1EEB0E08 		adds	r8, lr, lr
 1946 01bc 40EB0009 		adc	r9, r0, r0
 1947 01c0 B5EB0808 		subs	r8, r5, r8
 1948 01c4 6CEB0909 		sbc	r9, ip, r9
 1949              	.LVL176:
 718:Libraries/ctrl_sdk/src/lib_printf.c ****           break;
 1950              		.loc 1 718 9 is_stmt 1 view .LVU492
 718:Libraries/ctrl_sdk/src/lib_printf.c ****           break;
 1951              		.loc 1 718 12 is_stmt 0 view .LVU493
 1952 01c8 58EA0908 		orrs	r8, r8, r9
 1953              	.LVL177:
ARM GAS  C:\Users\Mxuan\AppData\Local\Temp\ccSEBS4R.s 			page 51


 718:Libraries/ctrl_sdk/src/lib_printf.c ****           break;
 1954              		.loc 1 718 12 view .LVU494
 1955 01cc 7FF42DAF 		bne	.L125
 721:Libraries/ctrl_sdk/src/lib_printf.c ****         number_.fractional /= 10U;
 1956              		.loc 1 721 9 is_stmt 1 view .LVU495
 1957 01d0 013E     		subs	r6, r6, #1
 1958              	.LVL178:
 722:Libraries/ctrl_sdk/src/lib_printf.c **** 
 1959              		.loc 1 722 9 view .LVU496
 722:Libraries/ctrl_sdk/src/lib_printf.c **** 
 1960              		.loc 1 722 28 is_stmt 0 view .LVU497
 1961 01d2 4FEAEC78 		asr	r8, ip, #31
 1962 01d6 08F00309 		and	r9, r8, #3
 1963              	.LVL179:
 722:Libraries/ctrl_sdk/src/lib_printf.c **** 
 1964              		.loc 1 722 28 view .LVU498
 1965 01da 25F0704E 		bic	lr, r5, #-268435456
 1966              	.LVL180:
 722:Libraries/ctrl_sdk/src/lib_printf.c **** 
 1967              		.loc 1 722 28 view .LVU499
 1968 01de 280F     		lsrs	r0, r5, #28
 722:Libraries/ctrl_sdk/src/lib_printf.c **** 
 1969              		.loc 1 722 28 view .LVU500
 1970 01e0 40EA0C10 		orr	r0, r0, ip, lsl #4
 722:Libraries/ctrl_sdk/src/lib_printf.c **** 
 1971              		.loc 1 722 28 view .LVU501
 1972 01e4 20F07040 		bic	r0, r0, #-268435456
 722:Libraries/ctrl_sdk/src/lib_printf.c **** 
 1973              		.loc 1 722 28 view .LVU502
 1974 01e8 8644     		add	lr, lr, r0
 722:Libraries/ctrl_sdk/src/lib_printf.c **** 
 1975              		.loc 1 722 28 view .LVU503
 1976 01ea 0EEB1C6E 		add	lr, lr, ip, lsr #24
 722:Libraries/ctrl_sdk/src/lib_printf.c **** 
 1977              		.loc 1 722 28 view .LVU504
 1978 01ee CE44     		add	lr, lr, r9
 722:Libraries/ctrl_sdk/src/lib_printf.c **** 
 1979              		.loc 1 722 28 view .LVU505
 1980 01f0 7348     		ldr	r0, .L158
 722:Libraries/ctrl_sdk/src/lib_printf.c **** 
 1981              		.loc 1 722 28 view .LVU506
 1982 01f2 2AF00309 		bic	r9, r10, #3
 722:Libraries/ctrl_sdk/src/lib_printf.c **** 
 1983              		.loc 1 722 28 view .LVU507
 1984 01f6 09EB9A09 		add	r9, r9, r10, lsr #2
 722:Libraries/ctrl_sdk/src/lib_printf.c **** 
 1985              		.loc 1 722 28 view .LVU508
 1986 01fa AEEB090E 		sub	lr, lr, r9
 722:Libraries/ctrl_sdk/src/lib_printf.c **** 
 1987              		.loc 1 722 28 view .LVU509
 1988 01fe 28F00308 		bic	r8, r8, #3
 722:Libraries/ctrl_sdk/src/lib_printf.c **** 
 1989              		.loc 1 722 28 view .LVU510
 1990 0202 C644     		add	lr, lr, r8
 722:Libraries/ctrl_sdk/src/lib_printf.c **** 
 1991              		.loc 1 722 28 view .LVU511
 1992 0204 B5EB0E05 		subs	r5, r5, lr
ARM GAS  C:\Users\Mxuan\AppData\Local\Temp\ccSEBS4R.s 			page 52


 1993              	.LVL181:
 722:Libraries/ctrl_sdk/src/lib_printf.c **** 
 1994              		.loc 1 722 28 view .LVU512
 1995 0208 6CEBEE7C 		sbc	ip, ip, lr, asr #31
 1996              	.LVL182:
 722:Libraries/ctrl_sdk/src/lib_printf.c **** 
 1997              		.loc 1 722 28 view .LVU513
 1998 020c 4FF0CC3E 		mov	lr, #-858993460
 1999              	.LVL183:
 722:Libraries/ctrl_sdk/src/lib_printf.c **** 
 2000              		.loc 1 722 28 view .LVU514
 2001 0210 0EFB05FE 		mul	lr, lr, r5
 2002              	.LVL184:
 722:Libraries/ctrl_sdk/src/lib_printf.c **** 
 2003              		.loc 1 722 28 view .LVU515
 2004 0214 00FB0CEC 		mla	ip, r0, ip, lr
 2005              	.LVL185:
 722:Libraries/ctrl_sdk/src/lib_printf.c **** 
 2006              		.loc 1 722 28 view .LVU516
 2007 0218 A5FB0050 		umull	r5, r0, r5, r0
 2008              	.LVL186:
 722:Libraries/ctrl_sdk/src/lib_printf.c **** 
 2009              		.loc 1 722 28 view .LVU517
 2010 021c 6044     		add	r0, r0, ip
 2011              	.LVL187:
 722:Libraries/ctrl_sdk/src/lib_printf.c **** 
 2012              		.loc 1 722 28 view .LVU518
 2013 021e 4FEAD07C 		lsr	ip, r0, #31
 2014              	.LVL188:
 722:Libraries/ctrl_sdk/src/lib_printf.c **** 
 2015              		.loc 1 722 28 view .LVU519
 2016 0222 1CEB0505 		adds	r5, ip, r5
 2017              	.LVL189:
 722:Libraries/ctrl_sdk/src/lib_printf.c **** 
 2018              		.loc 1 722 28 view .LVU520
 2019 0226 40F10000 		adc	r0, r0, #0
 2020              	.LVL190:
 722:Libraries/ctrl_sdk/src/lib_printf.c **** 
 2021              		.loc 1 722 28 view .LVU521
 2022 022a 6D08     		lsrs	r5, r5, #1
 2023              	.LVL191:
 722:Libraries/ctrl_sdk/src/lib_printf.c **** 
 2024              		.loc 1 722 28 view .LVU522
 2025 022c 45EAC075 		orr	r5, r5, r0, lsl #31
 2026              	.LVL192:
 722:Libraries/ctrl_sdk/src/lib_printf.c **** 
 2027              		.loc 1 722 28 view .LVU523
 2028 0230 4010     		asrs	r0, r0, #1
 2029              	.LVL193:
 722:Libraries/ctrl_sdk/src/lib_printf.c **** 
 2030              		.loc 1 722 28 view .LVU524
 2031 0232 0C95     		str	r5, [sp, #48]
 2032              	.LVL194:
 722:Libraries/ctrl_sdk/src/lib_printf.c **** 
 2033              		.loc 1 722 28 view .LVU525
 2034 0234 0D90     		str	r0, [sp, #52]
 2035              	.LBE68:
ARM GAS  C:\Users\Mxuan\AppData\Local\Temp\ccSEBS4R.s 			page 53


 716:Libraries/ctrl_sdk/src/lib_printf.c ****         int_fast64_t digit = number_.fractional % 10U;
 2036              		.loc 1 716 12 is_stmt 1 view .LVU526
 716:Libraries/ctrl_sdk/src/lib_printf.c ****         int_fast64_t digit = number_.fractional % 10U;
 2037              		.loc 1 716 19 is_stmt 0 view .LVU527
 2038 0236 7FE7     		b	.L128
 2039              	.LVL195:
 2040              	.L156:
 729:Libraries/ctrl_sdk/src/lib_printf.c ****       while (len < PRINTF_DECIMAL_BUFFER_SIZE) {
 2041              		.loc 1 729 62 discriminator 1 view .LVU528
 2042 0238 B7F5805F 		cmp	r7, #4096
 2043 023c 7FF4FCAE 		bne	.L134
 2044 0240 0CE0     		b	.L142
 2045              	.LVL196:
 2046              	.L138:
 734:Libraries/ctrl_sdk/src/lib_printf.c ****           break;
 735:Libraries/ctrl_sdk/src/lib_printf.c ****         }
 736:Libraries/ctrl_sdk/src/lib_printf.c ****       }
 737:Libraries/ctrl_sdk/src/lib_printf.c ****       // add extra 0s
 738:Libraries/ctrl_sdk/src/lib_printf.c ****       while ((len < PRINTF_DECIMAL_BUFFER_SIZE) && (count > 0U)) {
 739:Libraries/ctrl_sdk/src/lib_printf.c ****         buf[len++] = '0';
 2047              		.loc 1 739 9 is_stmt 1 view .LVU529
 2048              		.loc 1 739 20 is_stmt 0 view .LVU530
 2049 0242 3020     		movs	r0, #48
 2050 0244 8854     		strb	r0, [r1, r2]
 740:Libraries/ctrl_sdk/src/lib_printf.c ****         --count;
 2051              		.loc 1 740 9 is_stmt 1 view .LVU531
 2052 0246 013E     		subs	r6, r6, #1
 2053              	.LVL197:
 739:Libraries/ctrl_sdk/src/lib_printf.c ****         --count;
 2054              		.loc 1 739 16 is_stmt 0 view .LVU532
 2055 0248 0132     		adds	r2, r2, #1
 2056              	.LVL198:
 2057              	.L136:
 738:Libraries/ctrl_sdk/src/lib_printf.c ****         buf[len++] = '0';
 2058              		.loc 1 738 49 is_stmt 1 view .LVU533
 2059 024a 1F2A     		cmp	r2, #31
 2060 024c 01D8     		bhi	.L137
 738:Libraries/ctrl_sdk/src/lib_printf.c ****         buf[len++] = '0';
 2061              		.loc 1 738 49 is_stmt 0 discriminator 1 view .LVU534
 2062 024e 002E     		cmp	r6, #0
 2063 0250 F7D1     		bne	.L138
 2064              	.L137:
 741:Libraries/ctrl_sdk/src/lib_printf.c ****       }
 742:Libraries/ctrl_sdk/src/lib_printf.c ****       if (len < PRINTF_DECIMAL_BUFFER_SIZE) {
 2065              		.loc 1 742 7 is_stmt 1 view .LVU535
 2066              		.loc 1 742 10 is_stmt 0 view .LVU536
 2067 0252 1F2A     		cmp	r2, #31
 2068 0254 02D8     		bhi	.L142
 743:Libraries/ctrl_sdk/src/lib_printf.c ****         buf[len++] = '.';
 2069              		.loc 1 743 9 is_stmt 1 view .LVU537
 2070              	.LVL199:
 2071              		.loc 1 743 20 is_stmt 0 view .LVU538
 2072 0256 2E20     		movs	r0, #46
 2073 0258 8854     		strb	r0, [r1, r2]
 2074              		.loc 1 743 16 view .LVU539
 2075 025a 0132     		adds	r2, r2, #1
 2076              	.LVL200:
ARM GAS  C:\Users\Mxuan\AppData\Local\Temp\ccSEBS4R.s 			page 54


 2077              	.L142:
 2078              		.loc 1 743 16 view .LVU540
 2079              	.LBE67:
 744:Libraries/ctrl_sdk/src/lib_printf.c ****       }
 745:Libraries/ctrl_sdk/src/lib_printf.c ****     }
 746:Libraries/ctrl_sdk/src/lib_printf.c ****   }
 747:Libraries/ctrl_sdk/src/lib_printf.c ****   else {
 748:Libraries/ctrl_sdk/src/lib_printf.c ****     if ((flags & FLAGS_HASH) && (len < PRINTF_DECIMAL_BUFFER_SIZE)) {
 749:Libraries/ctrl_sdk/src/lib_printf.c ****       buf[len++] = '.';
 750:Libraries/ctrl_sdk/src/lib_printf.c ****     }
 751:Libraries/ctrl_sdk/src/lib_printf.c ****   }
 752:Libraries/ctrl_sdk/src/lib_printf.c **** 
 753:Libraries/ctrl_sdk/src/lib_printf.c ****   // Write the integer part of the number (it comes after the fractional
 754:Libraries/ctrl_sdk/src/lib_printf.c ****   // since the character order is reversed)
 755:Libraries/ctrl_sdk/src/lib_printf.c ****   while (len < PRINTF_DECIMAL_BUFFER_SIZE) {
 2080              		.loc 1 755 14 is_stmt 1 view .LVU541
 2081 025c 1F2A     		cmp	r2, #31
 2082 025e 7AD8     		bhi	.L141
 756:Libraries/ctrl_sdk/src/lib_printf.c ****     buf[len++] = (char)('0' + (number_.integral % 10));
 2083              		.loc 1 756 5 view .LVU542
 2084              		.loc 1 756 39 is_stmt 0 view .LVU543
 2085 0260 0A98     		ldr	r0, [sp, #40]
 2086 0262 0B9D     		ldr	r5, [sp, #44]
 2087              		.loc 1 756 49 view .LVU544
 2088 0264 EF17     		asrs	r7, r5, #31
 2089 0266 07F0030E 		and	lr, r7, #3
 2090 026a 20F0704C 		bic	ip, r0, #-268435456
 2091 026e 060F     		lsrs	r6, r0, #28
 2092 0270 46EA0516 		orr	r6, r6, r5, lsl #4
 2093 0274 26F07046 		bic	r6, r6, #-268435456
 2094 0278 B444     		add	ip, ip, r6
 2095 027a 0CEB156C 		add	ip, ip, r5, lsr #24
 2096 027e F444     		add	ip, ip, lr
 2097 0280 4F4E     		ldr	r6, .L158
 2098 0282 A6FB0CE8 		umull	lr, r8, r6, ip
 2099 0286 28F0030E 		bic	lr, r8, #3
 2100 028a 0EEB980E 		add	lr, lr, r8, lsr #2
 2101 028e ACEB0E0C 		sub	ip, ip, lr
 2102 0292 27F00307 		bic	r7, r7, #3
 2103 0296 BC44     		add	ip, ip, r7
 2104 0298 B0EB0C07 		subs	r7, r0, ip
 2105 029c 65EBEC7C 		sbc	ip, r5, ip, asr #31
 2106 02a0 4FF0CC3E 		mov	lr, #-858993460
 2107 02a4 0EFB07FE 		mul	lr, lr, r7
 2108 02a8 06FB0CEC 		mla	ip, r6, ip, lr
 2109 02ac A7FB067E 		umull	r7, lr, r7, r6
 2110 02b0 E644     		add	lr, lr, ip
 2111 02b2 4FEADE7C 		lsr	ip, lr, #31
 2112 02b6 1CEB070C 		adds	ip, ip, r7
 2113 02ba 4EF1000E 		adc	lr, lr, #0
 2114 02be 4FEA5C0C 		lsr	ip, ip, #1
 2115 02c2 4CEACE7C 		orr	ip, ip, lr, lsl #31
 2116 02c6 0CEB8C0C 		add	ip, ip, ip, lsl #2
 2117 02ca 1CEB0C06 		adds	r6, ip, ip
 2118 02ce 861B     		subs	r6, r0, r6
 2119              		.loc 1 756 12 view .LVU545
 2120 02d0 02F1010E 		add	lr, r2, #1
ARM GAS  C:\Users\Mxuan\AppData\Local\Temp\ccSEBS4R.s 			page 55


 2121              	.LVL201:
 2122              		.loc 1 756 18 view .LVU546
 2123 02d4 3036     		adds	r6, r6, #48
 2124              		.loc 1 756 16 view .LVU547
 2125 02d6 8E54     		strb	r6, [r1, r2]
 757:Libraries/ctrl_sdk/src/lib_printf.c ****     if (!(number_.integral /= 10)) {
 2126              		.loc 1 757 5 is_stmt 1 view .LVU548
 2127              		.loc 1 757 28 is_stmt 0 view .LVU549
 2128 02d8 EE17     		asrs	r6, r5, #31
 2129 02da 06F00307 		and	r7, r6, #3
 2130 02de 20F0704C 		bic	ip, r0, #-268435456
 2131 02e2 020F     		lsrs	r2, r0, #28
 2132 02e4 42EA0512 		orr	r2, r2, r5, lsl #4
 2133 02e8 22F07042 		bic	r2, r2, #-268435456
 2134 02ec 9444     		add	ip, ip, r2
 2135 02ee 0CEB156C 		add	ip, ip, r5, lsr #24
 2136 02f2 BC44     		add	ip, ip, r7
 2137 02f4 324A     		ldr	r2, .L158
 2138 02f6 28F00307 		bic	r7, r8, #3
 2139 02fa 07EB9807 		add	r7, r7, r8, lsr #2
 2140 02fe ACEB070C 		sub	ip, ip, r7
 2141 0302 26F00306 		bic	r6, r6, #3
 2142 0306 B444     		add	ip, ip, r6
 2143 0308 B0EB0C00 		subs	r0, r0, ip
 2144 030c 65EBEC75 		sbc	r5, r5, ip, asr #31
 2145 0310 4FF0CC36 		mov	r6, #-858993460
 2146 0314 00FB06F6 		mul	r6, r0, r6
 2147 0318 02FB0565 		mla	r5, r2, r5, r6
 2148 031c A0FB0202 		umull	r0, r2, r0, r2
 2149 0320 2A44     		add	r2, r2, r5
 2150 0322 D50F     		lsrs	r5, r2, #31
 2151 0324 2818     		adds	r0, r5, r0
 2152 0326 42F10002 		adc	r2, r2, #0
 2153 032a 4008     		lsrs	r0, r0, #1
 2154 032c 40EAC270 		orr	r0, r0, r2, lsl #31
 2155 0330 5210     		asrs	r2, r2, #1
 2156 0332 0A90     		str	r0, [sp, #40]
 2157 0334 0B92     		str	r2, [sp, #44]
 2158              		.loc 1 757 8 view .LVU550
 2159 0336 1043     		orrs	r0, r0, r2
 2160 0338 0CD0     		beq	.L153
 756:Libraries/ctrl_sdk/src/lib_printf.c ****     buf[len++] = (char)('0' + (number_.integral % 10));
 2161              		.loc 1 756 12 view .LVU551
 2162 033a 7246     		mov	r2, lr
 2163 033c 8EE7     		b	.L142
 2164              	.LVL202:
 2165              	.L152:
 2166              	.LBB69:
 732:Libraries/ctrl_sdk/src/lib_printf.c ****         if (!(number_.fractional /= 10U)) {
 2167              		.loc 1 732 16 view .LVU552
 2168 033e 2A46     		mov	r2, r5
 2169 0340 83E7     		b	.L136
 2170              	.LVL203:
 2171              	.L124:
 732:Libraries/ctrl_sdk/src/lib_printf.c ****         if (!(number_.fractional /= 10U)) {
 2172              		.loc 1 732 16 view .LVU553
 2173              	.LBE69:
ARM GAS  C:\Users\Mxuan\AppData\Local\Temp\ccSEBS4R.s 			page 56


 748:Libraries/ctrl_sdk/src/lib_printf.c ****       buf[len++] = '.';
 2174              		.loc 1 748 5 is_stmt 1 view .LVU554
 748:Libraries/ctrl_sdk/src/lib_printf.c ****       buf[len++] = '.';
 2175              		.loc 1 748 8 is_stmt 0 view .LVU555
 2176 0342 14F0100F 		tst	r4, #16
 2177 0346 89D0     		beq	.L142
 748:Libraries/ctrl_sdk/src/lib_printf.c ****       buf[len++] = '.';
 2178              		.loc 1 748 30 discriminator 1 view .LVU556
 2179 0348 1F2A     		cmp	r2, #31
 2180 034a 87D8     		bhi	.L142
 749:Libraries/ctrl_sdk/src/lib_printf.c ****     }
 2181              		.loc 1 749 7 is_stmt 1 view .LVU557
 2182              	.LVL204:
 749:Libraries/ctrl_sdk/src/lib_printf.c ****     }
 2183              		.loc 1 749 18 is_stmt 0 view .LVU558
 2184 034c 2E20     		movs	r0, #46
 2185 034e 8854     		strb	r0, [r1, r2]
 749:Libraries/ctrl_sdk/src/lib_printf.c ****     }
 2186              		.loc 1 749 14 view .LVU559
 2187 0350 0132     		adds	r2, r2, #1
 2188              	.LVL205:
 749:Libraries/ctrl_sdk/src/lib_printf.c ****     }
 2189              		.loc 1 749 14 view .LVU560
 2190 0352 83E7     		b	.L142
 2191              	.LVL206:
 2192              	.L153:
 756:Libraries/ctrl_sdk/src/lib_printf.c ****     if (!(number_.integral /= 10)) {
 2193              		.loc 1 756 12 view .LVU561
 2194 0354 7246     		mov	r2, lr
 2195              	.LVL207:
 2196              	.L141:
 758:Libraries/ctrl_sdk/src/lib_printf.c ****       break;
 759:Libraries/ctrl_sdk/src/lib_printf.c ****     }
 760:Libraries/ctrl_sdk/src/lib_printf.c ****   }
 761:Libraries/ctrl_sdk/src/lib_printf.c **** 
 762:Libraries/ctrl_sdk/src/lib_printf.c ****   // pad leading zeros
 763:Libraries/ctrl_sdk/src/lib_printf.c ****   if (!(flags & FLAGS_LEFT) && (flags & FLAGS_ZEROPAD)) {
 2197              		.loc 1 763 3 is_stmt 1 view .LVU562
 2198              		.loc 1 763 29 is_stmt 0 view .LVU563
 2199 0356 04F00300 		and	r0, r4, #3
 2200              		.loc 1 763 6 view .LVU564
 2201 035a 0128     		cmp	r0, #1
 2202 035c 10D0     		beq	.L157
 2203              	.LVL208:
 2204              	.L144:
 764:Libraries/ctrl_sdk/src/lib_printf.c ****     if (width && (number_.is_negative || (flags & (FLAGS_PLUS | FLAGS_SPACE)))) {
 765:Libraries/ctrl_sdk/src/lib_printf.c ****       width--;
 766:Libraries/ctrl_sdk/src/lib_printf.c ****     }
 767:Libraries/ctrl_sdk/src/lib_printf.c ****     while ((len < width) && (len < PRINTF_DECIMAL_BUFFER_SIZE)) {
 768:Libraries/ctrl_sdk/src/lib_printf.c ****       buf[len++] = '0';
 769:Libraries/ctrl_sdk/src/lib_printf.c ****     }
 770:Libraries/ctrl_sdk/src/lib_printf.c ****   }
 771:Libraries/ctrl_sdk/src/lib_printf.c **** 
 772:Libraries/ctrl_sdk/src/lib_printf.c ****   if (len < PRINTF_DECIMAL_BUFFER_SIZE) {
 2205              		.loc 1 772 3 is_stmt 1 view .LVU565
 2206              		.loc 1 772 6 is_stmt 0 view .LVU566
 2207 035e 1F2A     		cmp	r2, #31
ARM GAS  C:\Users\Mxuan\AppData\Local\Temp\ccSEBS4R.s 			page 57


 2208 0360 05D8     		bhi	.L149
 773:Libraries/ctrl_sdk/src/lib_printf.c ****     if (number_.is_negative) {
 2209              		.loc 1 773 5 is_stmt 1 view .LVU567
 2210              		.loc 1 773 16 is_stmt 0 view .LVU568
 2211 0362 9DF83800 		ldrb	r0, [sp, #56]	@ zero_extendqisi2
 2212              		.loc 1 773 8 view .LVU569
 2213 0366 E0B1     		cbz	r0, .L150
 774:Libraries/ctrl_sdk/src/lib_printf.c ****       buf[len++] = '-';
 2214              		.loc 1 774 7 is_stmt 1 view .LVU570
 2215              	.LVL209:
 2216              		.loc 1 774 18 is_stmt 0 view .LVU571
 2217 0368 2D20     		movs	r0, #45
 2218 036a 8854     		strb	r0, [r1, r2]
 2219              		.loc 1 774 14 view .LVU572
 2220 036c 0132     		adds	r2, r2, #1
 2221              	.LVL210:
 2222              	.L149:
 775:Libraries/ctrl_sdk/src/lib_printf.c ****     }
 776:Libraries/ctrl_sdk/src/lib_printf.c ****     else if (flags & FLAGS_PLUS) {
 777:Libraries/ctrl_sdk/src/lib_printf.c ****       buf[len++] = '+';  // ignore the space if the '+' exists
 778:Libraries/ctrl_sdk/src/lib_printf.c ****     }
 779:Libraries/ctrl_sdk/src/lib_printf.c ****     else if (flags & FLAGS_SPACE) {
 780:Libraries/ctrl_sdk/src/lib_printf.c ****       buf[len++] = ' ';
 781:Libraries/ctrl_sdk/src/lib_printf.c ****     }
 782:Libraries/ctrl_sdk/src/lib_printf.c ****   }
 783:Libraries/ctrl_sdk/src/lib_printf.c **** 
 784:Libraries/ctrl_sdk/src/lib_printf.c ****   out_rev_(output, buf, len, width, flags);
 2223              		.loc 1 784 3 is_stmt 1 view .LVU573
 2224 036e 0094     		str	r4, [sp]
 2225 0370 1098     		ldr	r0, [sp, #64]
 2226 0372 FFF7FEFF 		bl	out_rev_
 2227              	.LVL211:
 785:Libraries/ctrl_sdk/src/lib_printf.c **** }
 2228              		.loc 1 785 1 is_stmt 0 view .LVU574
 2229 0376 02B0     		add	sp, sp, #8
 2230              	.LCFI39:
 2231              		.cfi_remember_state
 2232              		.cfi_def_cfa_offset 48
 2233              		@ sp needed
 2234 0378 BDE8F047 		pop	{r4, r5, r6, r7, r8, r9, r10, lr}
 2235              	.LCFI40:
 2236              		.cfi_restore 14
 2237              		.cfi_restore 10
 2238              		.cfi_restore 9
 2239              		.cfi_restore 8
 2240              		.cfi_restore 7
 2241              		.cfi_restore 6
 2242              		.cfi_restore 5
 2243              		.cfi_restore 4
 2244              		.cfi_def_cfa_offset 16
 2245 037c 04B0     		add	sp, sp, #16
 2246              	.LCFI41:
 2247              		.cfi_def_cfa_offset 0
 2248 037e 7047     		bx	lr
 2249              	.LVL212:
 2250              	.L157:
 2251              	.LCFI42:
ARM GAS  C:\Users\Mxuan\AppData\Local\Temp\ccSEBS4R.s 			page 58


 2252              		.cfi_restore_state
 764:Libraries/ctrl_sdk/src/lib_printf.c ****       width--;
 2253              		.loc 1 764 5 is_stmt 1 view .LVU575
 764:Libraries/ctrl_sdk/src/lib_printf.c ****       width--;
 2254              		.loc 1 764 8 is_stmt 0 view .LVU576
 2255 0380 53B1     		cbz	r3, .L147
 764:Libraries/ctrl_sdk/src/lib_printf.c ****       width--;
 2256              		.loc 1 764 26 discriminator 1 view .LVU577
 2257 0382 9DF83800 		ldrb	r0, [sp, #56]	@ zero_extendqisi2
 764:Libraries/ctrl_sdk/src/lib_printf.c ****       width--;
 2258              		.loc 1 764 15 discriminator 1 view .LVU578
 2259 0386 10B9     		cbnz	r0, .L146
 764:Libraries/ctrl_sdk/src/lib_printf.c ****       width--;
 2260              		.loc 1 764 39 discriminator 2 view .LVU579
 2261 0388 14F00C0F 		tst	r4, #12
 2262 038c 04D0     		beq	.L147
 2263              	.L146:
 765:Libraries/ctrl_sdk/src/lib_printf.c ****     }
 2264              		.loc 1 765 7 is_stmt 1 view .LVU580
 765:Libraries/ctrl_sdk/src/lib_printf.c ****     }
 2265              		.loc 1 765 12 is_stmt 0 view .LVU581
 2266 038e 013B     		subs	r3, r3, #1
 2267              	.LVL213:
 765:Libraries/ctrl_sdk/src/lib_printf.c ****     }
 2268              		.loc 1 765 12 view .LVU582
 2269 0390 02E0     		b	.L147
 2270              	.L148:
 768:Libraries/ctrl_sdk/src/lib_printf.c ****     }
 2271              		.loc 1 768 7 is_stmt 1 view .LVU583
 2272              	.LVL214:
 768:Libraries/ctrl_sdk/src/lib_printf.c ****     }
 2273              		.loc 1 768 18 is_stmt 0 view .LVU584
 2274 0392 3020     		movs	r0, #48
 2275 0394 8854     		strb	r0, [r1, r2]
 768:Libraries/ctrl_sdk/src/lib_printf.c ****     }
 2276              		.loc 1 768 14 view .LVU585
 2277 0396 0132     		adds	r2, r2, #1
 2278              	.LVL215:
 2279              	.L147:
 767:Libraries/ctrl_sdk/src/lib_printf.c ****       buf[len++] = '0';
 2280              		.loc 1 767 26 is_stmt 1 view .LVU586
 2281 0398 9A42     		cmp	r2, r3
 2282 039a E0D2     		bcs	.L144
 767:Libraries/ctrl_sdk/src/lib_printf.c ****       buf[len++] = '0';
 2283              		.loc 1 767 26 is_stmt 0 discriminator 1 view .LVU587
 2284 039c 1F2A     		cmp	r2, #31
 2285 039e F8D9     		bls	.L148
 2286 03a0 DDE7     		b	.L144
 2287              	.L150:
 776:Libraries/ctrl_sdk/src/lib_printf.c ****       buf[len++] = '+';  // ignore the space if the '+' exists
 2288              		.loc 1 776 10 is_stmt 1 view .LVU588
 776:Libraries/ctrl_sdk/src/lib_printf.c ****       buf[len++] = '+';  // ignore the space if the '+' exists
 2289              		.loc 1 776 13 is_stmt 0 view .LVU589
 2290 03a2 14F0040F 		tst	r4, #4
 2291 03a6 03D0     		beq	.L151
 777:Libraries/ctrl_sdk/src/lib_printf.c ****     }
 2292              		.loc 1 777 7 is_stmt 1 view .LVU590
ARM GAS  C:\Users\Mxuan\AppData\Local\Temp\ccSEBS4R.s 			page 59


 2293              	.LVL216:
 777:Libraries/ctrl_sdk/src/lib_printf.c ****     }
 2294              		.loc 1 777 18 is_stmt 0 view .LVU591
 2295 03a8 2B20     		movs	r0, #43
 2296 03aa 8854     		strb	r0, [r1, r2]
 777:Libraries/ctrl_sdk/src/lib_printf.c ****     }
 2297              		.loc 1 777 14 view .LVU592
 2298 03ac 0132     		adds	r2, r2, #1
 2299              	.LVL217:
 777:Libraries/ctrl_sdk/src/lib_printf.c ****     }
 2300              		.loc 1 777 14 view .LVU593
 2301 03ae DEE7     		b	.L149
 2302              	.L151:
 779:Libraries/ctrl_sdk/src/lib_printf.c ****       buf[len++] = ' ';
 2303              		.loc 1 779 10 is_stmt 1 view .LVU594
 779:Libraries/ctrl_sdk/src/lib_printf.c ****       buf[len++] = ' ';
 2304              		.loc 1 779 13 is_stmt 0 view .LVU595
 2305 03b0 14F0080F 		tst	r4, #8
 2306 03b4 DBD0     		beq	.L149
 780:Libraries/ctrl_sdk/src/lib_printf.c ****     }
 2307              		.loc 1 780 7 is_stmt 1 view .LVU596
 2308              	.LVL218:
 780:Libraries/ctrl_sdk/src/lib_printf.c ****     }
 2309              		.loc 1 780 18 is_stmt 0 view .LVU597
 2310 03b6 2020     		movs	r0, #32
 2311 03b8 8854     		strb	r0, [r1, r2]
 780:Libraries/ctrl_sdk/src/lib_printf.c ****     }
 2312              		.loc 1 780 14 view .LVU598
 2313 03ba 0132     		adds	r2, r2, #1
 2314              	.LVL219:
 780:Libraries/ctrl_sdk/src/lib_printf.c ****     }
 2315              		.loc 1 780 14 view .LVU599
 2316 03bc D7E7     		b	.L149
 2317              	.L159:
 2318 03be 00BF     		.align	2
 2319              	.L158:
 2320 03c0 CDCCCCCC 		.word	-858993459
 2321              		.cfi_endproc
 2322              	.LFE21:
 2324              		.section	.text.print_decimal_number,"ax",%progbits
 2325              		.align	1
 2326              		.syntax unified
 2327              		.thumb
 2328              		.thumb_func
 2330              	print_decimal_number:
 2331              	.LVL220:
 2332              	.LFB22:
 786:Libraries/ctrl_sdk/src/lib_printf.c **** 
 787:Libraries/ctrl_sdk/src/lib_printf.c ****       // internal ftoa for fixed decimal floating point
 788:Libraries/ctrl_sdk/src/lib_printf.c **** static void print_decimal_number(output_gadget_t* output, double number, printf_size_t precision, p
 789:Libraries/ctrl_sdk/src/lib_printf.c **** {
 2333              		.loc 1 789 1 is_stmt 1 view -0
 2334              		.cfi_startproc
 2335              		@ args = 20, pretend = 0, frame = 24
 2336              		@ frame_needed = 0, uses_anonymous_args = 0
 2337              		.loc 1 789 1 is_stmt 0 view .LVU601
 2338 0000 70B5     		push	{r4, r5, r6, lr}
ARM GAS  C:\Users\Mxuan\AppData\Local\Temp\ccSEBS4R.s 			page 60


 2339              	.LCFI43:
 2340              		.cfi_def_cfa_offset 16
 2341              		.cfi_offset 4, -16
 2342              		.cfi_offset 5, -12
 2343              		.cfi_offset 6, -8
 2344              		.cfi_offset 14, -4
 2345 0002 8EB0     		sub	sp, sp, #56
 2346              	.LCFI44:
 2347              		.cfi_def_cfa_offset 72
 2348 0004 0546     		mov	r5, r0
 2349 0006 129E     		ldr	r6, [sp, #72]
 790:Libraries/ctrl_sdk/src/lib_printf.c ****   struct double_components value_ = get_components(number, precision);
 2350              		.loc 1 790 3 is_stmt 1 view .LVU602
 2351              		.loc 1 790 37 is_stmt 0 view .LVU603
 2352 0008 08AC     		add	r4, sp, #32
 2353 000a 0096     		str	r6, [sp]
 2354 000c 2046     		mov	r0, r4
 2355              	.LVL221:
 2356              		.loc 1 790 37 view .LVU604
 2357 000e FFF7FEFF 		bl	get_components
 2358              	.LVL222:
 791:Libraries/ctrl_sdk/src/lib_printf.c ****   print_broken_up_decimal(value_, output, precision, width, flags, buf, len);
 2359              		.loc 1 791 3 is_stmt 1 view .LVU605
 2360 0012 169B     		ldr	r3, [sp, #88]
 2361 0014 0793     		str	r3, [sp, #28]
 2362 0016 159B     		ldr	r3, [sp, #84]
 2363 0018 0693     		str	r3, [sp, #24]
 2364 001a 149B     		ldr	r3, [sp, #80]
 2365 001c 0593     		str	r3, [sp, #20]
 2366 001e 139B     		ldr	r3, [sp, #76]
 2367 0020 0493     		str	r3, [sp, #16]
 2368 0022 0396     		str	r6, [sp, #12]
 2369 0024 0295     		str	r5, [sp, #8]
 2370 0026 0EAB     		add	r3, sp, #56
 2371 0028 13E90300 		ldmdb	r3, {r0, r1}
 2372 002c 8DE80300 		stm	sp, {r0, r1}
 2373 0030 94E80F00 		ldm	r4, {r0, r1, r2, r3}
 2374 0034 FFF7FEFF 		bl	print_broken_up_decimal
 2375              	.LVL223:
 792:Libraries/ctrl_sdk/src/lib_printf.c **** }
 2376              		.loc 1 792 1 is_stmt 0 view .LVU606
 2377 0038 0EB0     		add	sp, sp, #56
 2378              	.LCFI45:
 2379              		.cfi_def_cfa_offset 16
 2380              		@ sp needed
 2381 003a 70BD     		pop	{r4, r5, r6, pc}
 2382              		.loc 1 792 1 view .LVU607
 2383              		.cfi_endproc
 2384              	.LFE22:
 2386              		.global	__aeabi_d2iz
 2387              		.global	__aeabi_i2d
 2388              		.section	.text.bastardized_floor,"ax",%progbits
 2389              		.align	1
 2390              		.syntax unified
 2391              		.thumb
 2392              		.thumb_func
 2394              	bastardized_floor:
ARM GAS  C:\Users\Mxuan\AppData\Local\Temp\ccSEBS4R.s 			page 61


 2395              	.LVL224:
 2396              	.LFB23:
 793:Libraries/ctrl_sdk/src/lib_printf.c **** 
 794:Libraries/ctrl_sdk/src/lib_printf.c **** #if PRINTF_SUPPORT_EXPONENTIAL_SPECIFIERS
 795:Libraries/ctrl_sdk/src/lib_printf.c **** 
 796:Libraries/ctrl_sdk/src/lib_printf.c **** // A floor function - but one which only works for numbers whose
 797:Libraries/ctrl_sdk/src/lib_printf.c **** // floor value is representable by an int.
 798:Libraries/ctrl_sdk/src/lib_printf.c **** static int bastardized_floor(double x)
 799:Libraries/ctrl_sdk/src/lib_printf.c **** {
 2397              		.loc 1 799 1 is_stmt 1 view -0
 2398              		.cfi_startproc
 2399              		@ args = 0, pretend = 0, frame = 0
 2400              		@ frame_needed = 0, uses_anonymous_args = 0
 2401              		.loc 1 799 1 is_stmt 0 view .LVU609
 2402 0000 70B5     		push	{r4, r5, r6, lr}
 2403              	.LCFI46:
 2404              		.cfi_def_cfa_offset 16
 2405              		.cfi_offset 4, -16
 2406              		.cfi_offset 5, -12
 2407              		.cfi_offset 6, -8
 2408              		.cfi_offset 14, -4
 2409 0002 0446     		mov	r4, r0
 2410 0004 0D46     		mov	r5, r1
 800:Libraries/ctrl_sdk/src/lib_printf.c ****   if (x >= 0) { return (int) x; }
 2411              		.loc 1 800 3 is_stmt 1 view .LVU610
 2412              		.loc 1 800 6 is_stmt 0 view .LVU611
 2413 0006 0022     		movs	r2, #0
 2414 0008 0023     		movs	r3, #0
 2415 000a FFF7FEFF 		bl	__aeabi_dcmpge
 2416              	.LVL225:
 2417              		.loc 1 800 6 view .LVU612
 2418 000e 68B9     		cbnz	r0, .L171
 801:Libraries/ctrl_sdk/src/lib_printf.c ****   int n = (int) x;
 2419              		.loc 1 801 3 is_stmt 1 view .LVU613
 2420              		.loc 1 801 7 is_stmt 0 view .LVU614
 2421 0010 2046     		mov	r0, r4
 2422 0012 2946     		mov	r1, r5
 2423 0014 FFF7FEFF 		bl	__aeabi_d2iz
 2424              	.LVL226:
 2425 0018 0646     		mov	r6, r0
 2426              	.LVL227:
 802:Libraries/ctrl_sdk/src/lib_printf.c ****   return ( ((double) n) == x ) ? n : n-1;
 2427              		.loc 1 802 3 is_stmt 1 view .LVU615
 2428              		.loc 1 802 13 is_stmt 0 view .LVU616
 2429 001a FFF7FEFF 		bl	__aeabi_i2d
 2430              	.LVL228:
 2431              		.loc 1 802 36 view .LVU617
 2432 001e 2246     		mov	r2, r4
 2433 0020 2B46     		mov	r3, r5
 2434 0022 FFF7FEFF 		bl	__aeabi_dcmpeq
 2435              	.LVL229:
 2436 0026 30B9     		cbnz	r0, .L162
 2437              		.loc 1 802 36 discriminator 1 view .LVU618
 2438 0028 013E     		subs	r6, r6, #1
 2439              	.LVL230:
 2440              		.loc 1 802 36 discriminator 1 view .LVU619
 2441 002a 04E0     		b	.L162
ARM GAS  C:\Users\Mxuan\AppData\Local\Temp\ccSEBS4R.s 			page 62


 2442              	.LVL231:
 2443              	.L171:
 800:Libraries/ctrl_sdk/src/lib_printf.c ****   if (x >= 0) { return (int) x; }
 2444              		.loc 1 800 17 is_stmt 1 discriminator 1 view .LVU620
 800:Libraries/ctrl_sdk/src/lib_printf.c ****   if (x >= 0) { return (int) x; }
 2445              		.loc 1 800 24 is_stmt 0 discriminator 1 view .LVU621
 2446 002c 2046     		mov	r0, r4
 2447 002e 2946     		mov	r1, r5
 2448 0030 FFF7FEFF 		bl	__aeabi_d2iz
 2449              	.LVL232:
 2450 0034 0646     		mov	r6, r0
 2451              	.L162:
 803:Libraries/ctrl_sdk/src/lib_printf.c **** }
 2452              		.loc 1 803 1 view .LVU622
 2453 0036 3046     		mov	r0, r6
 2454 0038 70BD     		pop	{r4, r5, r6, pc}
 2455              		.cfi_endproc
 2456              	.LFE23:
 2458              		.global	__aeabi_dadd
 2459              		.section	.text.log10_of_positive,"ax",%progbits
 2460              		.align	1
 2461              		.syntax unified
 2462              		.thumb
 2463              		.thumb_func
 2465              	log10_of_positive:
 2466              	.LVL233:
 2467              	.LFB24:
 804:Libraries/ctrl_sdk/src/lib_printf.c **** 
 805:Libraries/ctrl_sdk/src/lib_printf.c **** // Computes the base-10 logarithm of the input number - which must be an actual
 806:Libraries/ctrl_sdk/src/lib_printf.c **** // positive number (not infinity or NaN, nor a sub-normal)
 807:Libraries/ctrl_sdk/src/lib_printf.c **** static double log10_of_positive(double positive_number)
 808:Libraries/ctrl_sdk/src/lib_printf.c **** {
 2468              		.loc 1 808 1 is_stmt 1 view -0
 2469              		.cfi_startproc
 2470              		@ args = 0, pretend = 0, frame = 0
 2471              		@ frame_needed = 0, uses_anonymous_args = 0
 2472              		.loc 1 808 1 is_stmt 0 view .LVU624
 2473 0000 2DE9F047 		push	{r4, r5, r6, r7, r8, r9, r10, lr}
 2474              	.LCFI47:
 2475              		.cfi_def_cfa_offset 32
 2476              		.cfi_offset 4, -32
 2477              		.cfi_offset 5, -28
 2478              		.cfi_offset 6, -24
 2479              		.cfi_offset 7, -20
 2480              		.cfi_offset 8, -16
 2481              		.cfi_offset 9, -12
 2482              		.cfi_offset 10, -8
 2483              		.cfi_offset 14, -4
 809:Libraries/ctrl_sdk/src/lib_printf.c ****   // The implementation follows David Gay (https://www.ampl.com/netlib/fp/dtoa.c).
 810:Libraries/ctrl_sdk/src/lib_printf.c ****   //
 811:Libraries/ctrl_sdk/src/lib_printf.c ****   // Since log_10 ( M * 2^x ) = log_10(M) + x , we can separate the components of
 812:Libraries/ctrl_sdk/src/lib_printf.c ****   // our input number, and need only solve log_10(M) for M between 1 and 2 (as
 813:Libraries/ctrl_sdk/src/lib_printf.c ****   // the base-2 mantissa is always 1-point-something). In that limited range, a
 814:Libraries/ctrl_sdk/src/lib_printf.c ****   // Taylor series expansion of log10(x) should serve us well enough; and we'll
 815:Libraries/ctrl_sdk/src/lib_printf.c ****   // take the mid-point, 1.5, as the point of expansion.
 816:Libraries/ctrl_sdk/src/lib_printf.c **** 
 817:Libraries/ctrl_sdk/src/lib_printf.c ****   double_with_bit_access dwba = get_bit_access(positive_number);
ARM GAS  C:\Users\Mxuan\AppData\Local\Temp\ccSEBS4R.s 			page 63


 2484              		.loc 1 817 3 is_stmt 1 view .LVU625
 2485              	.LVL234:
 2486              	.LBB70:
 2487              	.LBI70:
 273:Libraries/ctrl_sdk/src/lib_printf.c **** {
 2488              		.loc 1 273 38 view .LVU626
 2489              	.LBB71:
 275:Libraries/ctrl_sdk/src/lib_printf.c ****   dwba.F = x;
 2490              		.loc 1 275 3 view .LVU627
 276:Libraries/ctrl_sdk/src/lib_printf.c ****   return dwba;
 2491              		.loc 1 276 3 view .LVU628
 277:Libraries/ctrl_sdk/src/lib_printf.c **** }
 2492              		.loc 1 277 3 view .LVU629
 277:Libraries/ctrl_sdk/src/lib_printf.c **** }
 2493              		.loc 1 277 3 is_stmt 0 view .LVU630
 2494              	.LBE71:
 2495              	.LBE70:
 818:Libraries/ctrl_sdk/src/lib_printf.c ****   // based on the algorithm by David Gay (https://www.ampl.com/netlib/fp/dtoa.c)
 819:Libraries/ctrl_sdk/src/lib_printf.c ****   int exp2 = get_exp2(dwba);
 2496              		.loc 1 819 3 is_stmt 1 view .LVU631
 2497              	.LBB72:
 2498              	.LBI72:
 286:Libraries/ctrl_sdk/src/lib_printf.c **** {
 2499              		.loc 1 286 19 view .LVU632
 2500              	.LBB73:
 292:Libraries/ctrl_sdk/src/lib_printf.c **** }
 2501              		.loc 1 292 3 view .LVU633
 292:Libraries/ctrl_sdk/src/lib_printf.c **** }
 2502              		.loc 1 292 10 is_stmt 0 view .LVU634
 2503 0004 C1F30A5A 		ubfx	r10, r1, #20, #11
 292:Libraries/ctrl_sdk/src/lib_printf.c **** }
 2504              		.loc 1 292 78 view .LVU635
 2505 0008 AAF2FF3A 		subw	r10, r10, #1023
 2506              	.LVL235:
 292:Libraries/ctrl_sdk/src/lib_printf.c **** }
 2507              		.loc 1 292 78 view .LVU636
 2508              	.LBE73:
 2509              	.LBE72:
 820:Libraries/ctrl_sdk/src/lib_printf.c ****   // drop the exponent, so dwba.F comes into the range [1,2)
 821:Libraries/ctrl_sdk/src/lib_printf.c ****   dwba.U = (dwba.U & (((double_uint_t) (1) << DOUBLE_STORED_MANTISSA_BITS) - 1U)) |
 2510              		.loc 1 821 3 is_stmt 1 view .LVU637
 2511              		.loc 1 821 20 is_stmt 0 view .LVU638
 2512 000c C1F31303 		ubfx	r3, r1, #0, #20
 2513              		.loc 1 821 83 view .LVU639
 2514 0010 43F07F51 		orr	r1, r3, #1069547520
 2515 0014 41F44011 		orr	r1, r1, #3145728
 822:Libraries/ctrl_sdk/src/lib_printf.c ****            ((double_uint_t) DOUBLE_BASE_EXPONENT << DOUBLE_STORED_MANTISSA_BITS);
 823:Libraries/ctrl_sdk/src/lib_printf.c ****   double z = (dwba.F - 1.5);
 2516              		.loc 1 823 3 is_stmt 1 view .LVU640
 2517              		.loc 1 823 10 is_stmt 0 view .LVU641
 2518 0018 0022     		movs	r2, #0
 2519 001a 2F4B     		ldr	r3, .L174+40
 2520 001c FFF7FEFF 		bl	__aeabi_dsub
 2521              	.LVL236:
 2522              		.loc 1 823 10 view .LVU642
 2523 0020 0446     		mov	r4, r0
 2524 0022 0D46     		mov	r5, r1
ARM GAS  C:\Users\Mxuan\AppData\Local\Temp\ccSEBS4R.s 			page 64


 2525              	.LVL237:
 824:Libraries/ctrl_sdk/src/lib_printf.c ****   return (
 2526              		.loc 1 824 3 is_stmt 1 view .LVU643
 825:Libraries/ctrl_sdk/src/lib_printf.c ****     // Taylor expansion around 1.5:
 826:Libraries/ctrl_sdk/src/lib_printf.c ****     0.1760912590556812420           // Expansion term 0: ln(1.5)            / ln(10)
 827:Libraries/ctrl_sdk/src/lib_printf.c ****     + z     * 0.2895296546021678851 // Expansion term 1: (M - 1.5)   * 2/3  / ln(10)
 2527              		.loc 1 827 13 is_stmt 0 view .LVU644
 2528 0024 22A3     		adr	r3, .L174
 2529 0026 D3E90023 		ldrd	r2, [r3]
 2530 002a FFF7FEFF 		bl	__aeabi_dmul
 2531              	.LVL238:
 2532              		.loc 1 827 5 view .LVU645
 2533 002e 22A3     		adr	r3, .L174+8
 2534 0030 D3E90023 		ldrd	r2, [r3]
 2535 0034 FFF7FEFF 		bl	__aeabi_dadd
 2536              	.LVL239:
 2537 0038 8046     		mov	r8, r0
 2538 003a 8946     		mov	r9, r1
 828:Libraries/ctrl_sdk/src/lib_printf.c **** #if PRINTF_LOG10_TAYLOR_TERMS > 2
 829:Libraries/ctrl_sdk/src/lib_printf.c ****     - z*z   * 0.0965098848673892950 // Expansion term 2: (M - 1.5)^2 * 2/9  / ln(10)
 2539              		.loc 1 829 8 view .LVU646
 2540 003c 2246     		mov	r2, r4
 2541 003e 2B46     		mov	r3, r5
 2542 0040 2046     		mov	r0, r4
 2543 0042 2946     		mov	r1, r5
 2544 0044 FFF7FEFF 		bl	__aeabi_dmul
 2545              	.LVL240:
 2546 0048 0646     		mov	r6, r0
 2547 004a 0F46     		mov	r7, r1
 2548              		.loc 1 829 13 view .LVU647
 2549 004c 1CA3     		adr	r3, .L174+16
 2550 004e D3E90023 		ldrd	r2, [r3]
 2551 0052 FFF7FEFF 		bl	__aeabi_dmul
 2552              	.LVL241:
 2553 0056 0246     		mov	r2, r0
 2554 0058 0B46     		mov	r3, r1
 2555              		.loc 1 829 5 view .LVU648
 2556 005a 4046     		mov	r0, r8
 2557 005c 4946     		mov	r1, r9
 2558 005e FFF7FEFF 		bl	__aeabi_dsub
 2559              	.LVL242:
 2560 0062 8046     		mov	r8, r0
 2561 0064 8946     		mov	r9, r1
 830:Libraries/ctrl_sdk/src/lib_printf.c **** #if PRINTF_LOG10_TAYLOR_TERMS > 3
 831:Libraries/ctrl_sdk/src/lib_printf.c ****     + z*z*z * 0.0428932821632841311 // Expansion term 2: (M - 1.5)^3 * 8/81 / ln(10)
 2562              		.loc 1 831 10 view .LVU649
 2563 0066 2246     		mov	r2, r4
 2564 0068 2B46     		mov	r3, r5
 2565 006a 3046     		mov	r0, r6
 2566 006c 3946     		mov	r1, r7
 2567 006e FFF7FEFF 		bl	__aeabi_dmul
 2568              	.LVL243:
 2569              		.loc 1 831 13 view .LVU650
 2570 0072 15A3     		adr	r3, .L174+24
 2571 0074 D3E90023 		ldrd	r2, [r3]
 2572 0078 FFF7FEFF 		bl	__aeabi_dmul
 2573              	.LVL244:
ARM GAS  C:\Users\Mxuan\AppData\Local\Temp\ccSEBS4R.s 			page 65


 2574 007c 0246     		mov	r2, r0
 2575 007e 0B46     		mov	r3, r1
 2576              		.loc 1 831 5 view .LVU651
 2577 0080 4046     		mov	r0, r8
 2578 0082 4946     		mov	r1, r9
 2579 0084 FFF7FEFF 		bl	__aeabi_dadd
 2580              	.LVL245:
 2581 0088 0446     		mov	r4, r0
 2582              	.LVL246:
 2583              		.loc 1 831 5 view .LVU652
 2584 008a 0D46     		mov	r5, r1
 832:Libraries/ctrl_sdk/src/lib_printf.c **** #endif
 833:Libraries/ctrl_sdk/src/lib_printf.c **** #endif
 834:Libraries/ctrl_sdk/src/lib_printf.c ****     // exact log_2 of the exponent x, with logarithm base change
 835:Libraries/ctrl_sdk/src/lib_printf.c ****     + exp2 * 0.30102999566398119521 // = exp2 * log_10(2) = exp2 * ln(2)/ln(10)
 2585              		.loc 1 835 12 view .LVU653
 2586 008c 5046     		mov	r0, r10
 2587 008e FFF7FEFF 		bl	__aeabi_i2d
 2588              	.LVL247:
 2589 0092 0FA3     		adr	r3, .L174+32
 2590 0094 D3E90023 		ldrd	r2, [r3]
 2591 0098 FFF7FEFF 		bl	__aeabi_dmul
 2592              	.LVL248:
 2593 009c 0246     		mov	r2, r0
 2594 009e 0B46     		mov	r3, r1
 2595              		.loc 1 835 5 view .LVU654
 2596 00a0 2046     		mov	r0, r4
 2597 00a2 2946     		mov	r1, r5
 2598 00a4 FFF7FEFF 		bl	__aeabi_dadd
 2599              	.LVL249:
 836:Libraries/ctrl_sdk/src/lib_printf.c ****   );
 837:Libraries/ctrl_sdk/src/lib_printf.c **** }
 2600              		.loc 1 837 1 view .LVU655
 2601 00a8 BDE8F087 		pop	{r4, r5, r6, r7, r8, r9, r10, pc}
 2602              	.LVL250:
 2603              	.L175:
 2604              		.loc 1 837 1 view .LVU656
 2605 00ac AFF30080 		.align	3
 2606              	.L174:
 2607 00b0 5F436F63 		.word	1668236127
 2608 00b4 A787D23F 		.word	1070761895
 2609 00b8 FCB7608B 		.word	-1956595716
 2610 00bc 288AC63F 		.word	1069976104
 2611 00c0 7E043F2F 		.word	792659070
 2612 00c4 DFB4B83F 		.word	1069069535
 2613 00c8 FF0338B8 		.word	-1204288513
 2614 00cc 1BF6A53F 		.word	1067841051
 2615 00d0 FF799F50 		.word	1352628735
 2616 00d4 1344D33F 		.word	1070810131
 2617 00d8 0000F83F 		.word	1073217536
 2618              		.cfi_endproc
 2619              	.LFE24:
 2621              		.section	.text.pow10_of_int,"ax",%progbits
 2622              		.align	1
 2623              		.syntax unified
 2624              		.thumb
 2625              		.thumb_func
ARM GAS  C:\Users\Mxuan\AppData\Local\Temp\ccSEBS4R.s 			page 66


 2627              	pow10_of_int:
 2628              	.LVL251:
 2629              	.LFB25:
 838:Libraries/ctrl_sdk/src/lib_printf.c **** 
 839:Libraries/ctrl_sdk/src/lib_printf.c **** 
 840:Libraries/ctrl_sdk/src/lib_printf.c **** static double pow10_of_int(int floored_exp10)
 841:Libraries/ctrl_sdk/src/lib_printf.c **** {
 2630              		.loc 1 841 1 is_stmt 1 view -0
 2631              		.cfi_startproc
 2632              		@ args = 0, pretend = 0, frame = 0
 2633              		@ frame_needed = 0, uses_anonymous_args = 0
 842:Libraries/ctrl_sdk/src/lib_printf.c ****   // A crude hack for avoiding undesired behavior with barely-normal or slightly-subnormal values.
 843:Libraries/ctrl_sdk/src/lib_printf.c ****   if (floored_exp10 == DOUBLE_MAX_SUBNORMAL_EXPONENT_OF_10) {
 2634              		.loc 1 843 3 view .LVU658
 2635              		.loc 1 843 6 is_stmt 0 view .LVU659
 2636 0000 10F59A7F 		cmn	r0, #308
 2637 0004 77D0     		beq	.L178
 841:Libraries/ctrl_sdk/src/lib_printf.c ****   // A crude hack for avoiding undesired behavior with barely-normal or slightly-subnormal values.
 2638              		.loc 1 841 1 view .LVU660
 2639 0006 2DE9F84F 		push	{r3, r4, r5, r6, r7, r8, r9, r10, fp, lr}
 2640              	.LCFI48:
 2641              		.cfi_def_cfa_offset 40
 2642              		.cfi_offset 3, -40
 2643              		.cfi_offset 4, -36
 2644              		.cfi_offset 5, -32
 2645              		.cfi_offset 6, -28
 2646              		.cfi_offset 7, -24
 2647              		.cfi_offset 8, -20
 2648              		.cfi_offset 9, -16
 2649              		.cfi_offset 10, -12
 2650              		.cfi_offset 11, -8
 2651              		.cfi_offset 14, -4
 844:Libraries/ctrl_sdk/src/lib_printf.c ****     return DOUBLE_MAX_SUBNORMAL_POWER_OF_10;
 845:Libraries/ctrl_sdk/src/lib_printf.c ****   }
 846:Libraries/ctrl_sdk/src/lib_printf.c ****   // Compute 10^(floored_exp10) but (try to) make sure that doesn't overflow
 847:Libraries/ctrl_sdk/src/lib_printf.c ****   double_with_bit_access dwba;
 2652              		.loc 1 847 3 is_stmt 1 view .LVU661
 848:Libraries/ctrl_sdk/src/lib_printf.c ****   int exp2 = bastardized_floor(floored_exp10 * 3.321928094887362 + 0.5);
 2653              		.loc 1 848 3 view .LVU662
 2654              		.loc 1 848 46 is_stmt 0 view .LVU663
 2655 000a FFF7FEFF 		bl	__aeabi_i2d
 2656              	.LVL252:
 2657              		.loc 1 848 46 view .LVU664
 2658 000e 0446     		mov	r4, r0
 2659 0010 0D46     		mov	r5, r1
 2660 0012 3BA3     		adr	r3, .L183
 2661 0014 D3E90023 		ldrd	r2, [r3]
 2662 0018 FFF7FEFF 		bl	__aeabi_dmul
 2663              	.LVL253:
 2664              		.loc 1 848 14 view .LVU665
 2665 001c 0022     		movs	r2, #0
 2666 001e 404B     		ldr	r3, .L183+32
 2667 0020 FFF7FEFF 		bl	__aeabi_dadd
 2668              	.LVL254:
 2669 0024 FFF7FEFF 		bl	bastardized_floor
 2670              	.LVL255:
 2671 0028 8046     		mov	r8, r0
ARM GAS  C:\Users\Mxuan\AppData\Local\Temp\ccSEBS4R.s 			page 67


 2672              	.LVL256:
 849:Libraries/ctrl_sdk/src/lib_printf.c ****   const double z  = floored_exp10 * 2.302585092994046 - exp2 * 0.6931471805599453;
 2673              		.loc 1 849 3 is_stmt 1 view .LVU666
 2674              		.loc 1 849 35 is_stmt 0 view .LVU667
 2675 002a 37A3     		adr	r3, .L183+8
 2676 002c D3E90023 		ldrd	r2, [r3]
 2677 0030 2046     		mov	r0, r4
 2678              	.LVL257:
 2679              		.loc 1 849 35 view .LVU668
 2680 0032 2946     		mov	r1, r5
 2681 0034 FFF7FEFF 		bl	__aeabi_dmul
 2682              	.LVL258:
 2683 0038 0446     		mov	r4, r0
 2684 003a 0D46     		mov	r5, r1
 2685              		.loc 1 849 62 view .LVU669
 2686 003c 4046     		mov	r0, r8
 2687 003e FFF7FEFF 		bl	__aeabi_i2d
 2688              	.LVL259:
 2689 0042 33A3     		adr	r3, .L183+16
 2690 0044 D3E90023 		ldrd	r2, [r3]
 2691 0048 FFF7FEFF 		bl	__aeabi_dmul
 2692              	.LVL260:
 2693 004c 0246     		mov	r2, r0
 2694 004e 0B46     		mov	r3, r1
 2695              		.loc 1 849 16 view .LVU670
 2696 0050 2046     		mov	r0, r4
 2697 0052 2946     		mov	r1, r5
 2698 0054 FFF7FEFF 		bl	__aeabi_dsub
 2699              	.LVL261:
 2700 0058 0446     		mov	r4, r0
 2701 005a 0D46     		mov	r5, r1
 2702              	.LVL262:
 850:Libraries/ctrl_sdk/src/lib_printf.c ****   const double z2 = z * z;
 2703              		.loc 1 850 3 is_stmt 1 view .LVU671
 2704              		.loc 1 850 16 is_stmt 0 view .LVU672
 2705 005c 0246     		mov	r2, r0
 2706 005e 0B46     		mov	r3, r1
 2707 0060 FFF7FEFF 		bl	__aeabi_dmul
 2708              	.LVL263:
 2709 0064 0646     		mov	r6, r0
 2710 0066 0F46     		mov	r7, r1
 2711              	.LVL264:
 851:Libraries/ctrl_sdk/src/lib_printf.c ****   dwba.U = ((double_uint_t)(exp2) + DOUBLE_BASE_EXPONENT) << DOUBLE_STORED_MANTISSA_BITS;
 2712              		.loc 1 851 3 is_stmt 1 view .LVU673
 2713              		.loc 1 851 35 is_stmt 0 view .LVU674
 2714 0068 08F2FF33 		addw	r3, r8, #1023
 2715              		.loc 1 851 59 view .LVU675
 2716 006c 4FF00008 		mov	r8, #0
 2717              	.LVL265:
 2718              		.loc 1 851 59 view .LVU676
 2719 0070 4FEA0359 		lsl	r9, r3, #20
 852:Libraries/ctrl_sdk/src/lib_printf.c ****   // compute exp(z) using continued fractions,
 853:Libraries/ctrl_sdk/src/lib_printf.c ****   // see https://en.wikipedia.org/wiki/Exponential_function#Continued_fractions_for_ex
 854:Libraries/ctrl_sdk/src/lib_printf.c ****   dwba.F *= 1 + 2 * z / (2 - z + (z2 / (6 + (z2 / (10 + z2 / 14)))));
 2720              		.loc 1 854 3 is_stmt 1 view .LVU677
 2721              		.loc 1 854 19 is_stmt 0 view .LVU678
 2722 0074 2246     		mov	r2, r4
ARM GAS  C:\Users\Mxuan\AppData\Local\Temp\ccSEBS4R.s 			page 68


 2723 0076 2B46     		mov	r3, r5
 2724              	.LVL266:
 2725              		.loc 1 854 19 view .LVU679
 2726 0078 2046     		mov	r0, r4
 2727 007a 2946     		mov	r1, r5
 2728 007c FFF7FEFF 		bl	__aeabi_dadd
 2729              	.LVL267:
 2730 0080 8246     		mov	r10, r0
 2731 0082 8B46     		mov	fp, r1
 2732              		.loc 1 854 28 view .LVU680
 2733 0084 2246     		mov	r2, r4
 2734 0086 2B46     		mov	r3, r5
 2735 0088 0020     		movs	r0, #0
 2736 008a 4FF08041 		mov	r1, #1073741824
 2737 008e FFF7FEFF 		bl	__aeabi_dsub
 2738              	.LVL268:
 2739 0092 0446     		mov	r4, r0
 2740              	.LVL269:
 2741              		.loc 1 854 28 view .LVU681
 2742 0094 0D46     		mov	r5, r1
 2743              		.loc 1 854 60 view .LVU682
 2744 0096 0022     		movs	r2, #0
 2745 0098 224B     		ldr	r3, .L183+36
 2746 009a 3046     		mov	r0, r6
 2747 009c 3946     		mov	r1, r7
 2748 009e FFF7FEFF 		bl	__aeabi_ddiv
 2749              	.LVL270:
 2750              		.loc 1 854 55 view .LVU683
 2751 00a2 0022     		movs	r2, #0
 2752 00a4 204B     		ldr	r3, .L183+40
 2753 00a6 FFF7FEFF 		bl	__aeabi_dadd
 2754              	.LVL271:
 2755 00aa 0246     		mov	r2, r0
 2756 00ac 0B46     		mov	r3, r1
 2757              		.loc 1 854 49 view .LVU684
 2758 00ae 3046     		mov	r0, r6
 2759 00b0 3946     		mov	r1, r7
 2760 00b2 FFF7FEFF 		bl	__aeabi_ddiv
 2761              	.LVL272:
 2762              		.loc 1 854 43 view .LVU685
 2763 00b6 0022     		movs	r2, #0
 2764 00b8 1C4B     		ldr	r3, .L183+44
 2765 00ba FFF7FEFF 		bl	__aeabi_dadd
 2766              	.LVL273:
 2767 00be 0246     		mov	r2, r0
 2768 00c0 0B46     		mov	r3, r1
 2769              		.loc 1 854 38 view .LVU686
 2770 00c2 3046     		mov	r0, r6
 2771 00c4 3946     		mov	r1, r7
 2772 00c6 FFF7FEFF 		bl	__aeabi_ddiv
 2773              	.LVL274:
 2774 00ca 0246     		mov	r2, r0
 2775 00cc 0B46     		mov	r3, r1
 2776              		.loc 1 854 32 view .LVU687
 2777 00ce 2046     		mov	r0, r4
 2778 00d0 2946     		mov	r1, r5
 2779 00d2 FFF7FEFF 		bl	__aeabi_dadd
ARM GAS  C:\Users\Mxuan\AppData\Local\Temp\ccSEBS4R.s 			page 69


 2780              	.LVL275:
 2781 00d6 0246     		mov	r2, r0
 2782 00d8 0B46     		mov	r3, r1
 2783              		.loc 1 854 23 view .LVU688
 2784 00da 5046     		mov	r0, r10
 2785 00dc 5946     		mov	r1, fp
 2786 00de FFF7FEFF 		bl	__aeabi_ddiv
 2787              	.LVL276:
 2788              		.loc 1 854 15 view .LVU689
 2789 00e2 0022     		movs	r2, #0
 2790 00e4 124B     		ldr	r3, .L183+48
 2791 00e6 FFF7FEFF 		bl	__aeabi_dadd
 2792              	.LVL277:
 2793              		.loc 1 854 10 view .LVU690
 2794 00ea 4246     		mov	r2, r8
 2795 00ec 4B46     		mov	r3, r9
 2796 00ee FFF7FEFF 		bl	__aeabi_dmul
 2797              	.LVL278:
 855:Libraries/ctrl_sdk/src/lib_printf.c ****   return dwba.F;
 2798              		.loc 1 855 3 is_stmt 1 view .LVU691
 856:Libraries/ctrl_sdk/src/lib_printf.c **** }
 2799              		.loc 1 856 1 is_stmt 0 view .LVU692
 2800 00f2 BDE8F88F 		pop	{r3, r4, r5, r6, r7, r8, r9, r10, fp, pc}
 2801              	.LVL279:
 2802              	.L178:
 2803              	.LCFI49:
 2804              		.cfi_def_cfa_offset 0
 2805              		.cfi_restore 3
 2806              		.cfi_restore 4
 2807              		.cfi_restore 5
 2808              		.cfi_restore 6
 2809              		.cfi_restore 7
 2810              		.cfi_restore 8
 2811              		.cfi_restore 9
 2812              		.cfi_restore 10
 2813              		.cfi_restore 11
 2814              		.cfi_restore 14
 844:Libraries/ctrl_sdk/src/lib_printf.c ****   }
 2815              		.loc 1 844 12 view .LVU693
 2816 00f6 08A1     		adr	r1, .L183+24
 2817 00f8 D1E90001 		ldrd	r0, [r1]
 2818              	.LVL280:
 2819              		.loc 1 856 1 view .LVU694
 2820 00fc 7047     		bx	lr
 2821              	.L184:
 2822 00fe 00BF     		.align	3
 2823              	.L183:
 2824 0100 71A37909 		.word	158966641
 2825 0104 4F930A40 		.word	1074434895
 2826 0108 1655B5BB 		.word	-1145744106
 2827 010c B16B0240 		.word	1073900465
 2828 0110 EF39FAFE 		.word	-17155601
 2829 0114 422EE63F 		.word	1072049730
 2830 0118 D2E81978 		.word	2014963922
 2831 011c D6300700 		.word	471254
 2832 0120 0000E03F 		.word	1071644672
 2833 0124 00002C40 		.word	1076625408
ARM GAS  C:\Users\Mxuan\AppData\Local\Temp\ccSEBS4R.s 			page 70


 2834 0128 00002440 		.word	1076101120
 2835 012c 00001840 		.word	1075314688
 2836 0130 0000F03F 		.word	1072693248
 2837              		.cfi_endproc
 2838              	.LFE25:
 2840              		.section	.text.print_exponential_number,"ax",%progbits
 2841              		.align	1
 2842              		.syntax unified
 2843              		.thumb
 2844              		.thumb_func
 2846              	print_exponential_number:
 2847              	.LVL281:
 2848              	.LFB26:
 857:Libraries/ctrl_sdk/src/lib_printf.c **** 
 858:Libraries/ctrl_sdk/src/lib_printf.c **** static void print_exponential_number(output_gadget_t* output, double number, printf_size_t precisio
 859:Libraries/ctrl_sdk/src/lib_printf.c **** {
 2849              		.loc 1 859 1 is_stmt 1 view -0
 2850              		.cfi_startproc
 2851              		@ args = 20, pretend = 0, frame = 56
 2852              		@ frame_needed = 0, uses_anonymous_args = 0
 2853              		.loc 1 859 1 is_stmt 0 view .LVU696
 2854 0000 2DE9F04F 		push	{r4, r5, r6, r7, r8, r9, r10, fp, lr}
 2855              	.LCFI50:
 2856              		.cfi_def_cfa_offset 36
 2857              		.cfi_offset 4, -36
 2858              		.cfi_offset 5, -32
 2859              		.cfi_offset 6, -28
 2860              		.cfi_offset 7, -24
 2861              		.cfi_offset 8, -20
 2862              		.cfi_offset 9, -16
 2863              		.cfi_offset 10, -12
 2864              		.cfi_offset 11, -8
 2865              		.cfi_offset 14, -4
 2866 0004 97B0     		sub	sp, sp, #92
 2867              	.LCFI51:
 2868              		.cfi_def_cfa_offset 128
 2869 0006 0446     		mov	r4, r0
 2870 0008 9246     		mov	r10, r2
 2871 000a 9B46     		mov	fp, r3
 2872 000c 209F     		ldr	r7, [sp, #128]
 2873 000e 229E     		ldr	r6, [sp, #136]
 2874 0010 0023     		movs	r3, #0
 2875 0012 0A93     		str	r3, [sp, #40]
 860:Libraries/ctrl_sdk/src/lib_printf.c ****   const bool negative = get_sign_bit(number);
 2876              		.loc 1 860 3 is_stmt 1 view .LVU697
 2877              	.LVL282:
 2878              	.LBB74:
 2879              	.LBI74:
 280:Libraries/ctrl_sdk/src/lib_printf.c **** {
 2880              		.loc 1 280 19 view .LVU698
 2881              	.LBB75:
 283:Libraries/ctrl_sdk/src/lib_printf.c **** }
 2882              		.loc 1 283 3 view .LVU699
 2883              	.LBB76:
 2884              	.LBI76:
 273:Libraries/ctrl_sdk/src/lib_printf.c **** {
 2885              		.loc 1 273 38 view .LVU700
ARM GAS  C:\Users\Mxuan\AppData\Local\Temp\ccSEBS4R.s 			page 71


 2886              	.LBB77:
 275:Libraries/ctrl_sdk/src/lib_printf.c ****   dwba.F = x;
 2887              		.loc 1 275 3 view .LVU701
 276:Libraries/ctrl_sdk/src/lib_printf.c ****   return dwba;
 2888              		.loc 1 276 3 view .LVU702
 277:Libraries/ctrl_sdk/src/lib_printf.c **** }
 2889              		.loc 1 277 3 view .LVU703
 277:Libraries/ctrl_sdk/src/lib_printf.c **** }
 2890              		.loc 1 277 3 is_stmt 0 view .LVU704
 2891              	.LBE77:
 2892              	.LBE76:
 2893              	.LBE75:
 2894              	.LBE74:
 2895              		.loc 1 860 14 view .LVU705
 2896 0014 5FEADB79 		lsrs	r9, fp, #31
 2897 0018 CDF82C90 		str	r9, [sp, #44]
 2898              	.LVL283:
 861:Libraries/ctrl_sdk/src/lib_printf.c ****   // This number will decrease gradually (by factors of 10) as we "extract" the exponent out of it
 862:Libraries/ctrl_sdk/src/lib_printf.c ****   double abs_number =  negative ? -number : number;
 2899              		.loc 1 862 3 is_stmt 1 view .LVU706
 2900              		.loc 1 862 43 is_stmt 0 view .LVU707
 2901 001c 02D0     		beq	.L186
 2902              		.loc 1 862 43 discriminator 1 view .LVU708
 2903 001e 0BF10043 		add	r3, fp, #-2147483648
 2904 0022 9B46     		mov	fp, r3
 2905              	.L186:
 2906              	.LVL284:
 863:Libraries/ctrl_sdk/src/lib_printf.c **** 
 864:Libraries/ctrl_sdk/src/lib_printf.c ****   int floored_exp10;
 2907              		.loc 1 864 3 is_stmt 1 discriminator 4 view .LVU709
 865:Libraries/ctrl_sdk/src/lib_printf.c ****   bool abs_exp10_covered_by_powers_table;
 2908              		.loc 1 865 3 discriminator 4 view .LVU710
 866:Libraries/ctrl_sdk/src/lib_printf.c ****   struct scaling_factor normalization;
 2909              		.loc 1 866 3 discriminator 4 view .LVU711
 867:Libraries/ctrl_sdk/src/lib_printf.c **** 
 868:Libraries/ctrl_sdk/src/lib_printf.c **** 
 869:Libraries/ctrl_sdk/src/lib_printf.c ****   // Determine the decimal exponent
 870:Libraries/ctrl_sdk/src/lib_printf.c ****   if (abs_number == 0.0) {
 2910              		.loc 1 870 3 discriminator 4 view .LVU712
 2911              		.loc 1 870 6 is_stmt 0 discriminator 4 view .LVU713
 2912 0024 0022     		movs	r2, #0
 2913              	.LVL285:
 2914              		.loc 1 870 6 discriminator 4 view .LVU714
 2915 0026 0023     		movs	r3, #0
 2916 0028 5046     		mov	r0, r10
 2917              	.LVL286:
 2918              		.loc 1 870 6 discriminator 4 view .LVU715
 2919 002a 5946     		mov	r1, fp
 2920 002c FFF7FEFF 		bl	__aeabi_dcmpeq
 2921              	.LVL287:
 2922 0030 0028     		cmp	r0, #0
 2923 0032 40D1     		bne	.L209
 2924              	.LBB78:
 871:Libraries/ctrl_sdk/src/lib_printf.c ****     // TODO: This is a special-case for 0.0 (and -0.0); but proper handling is required for denorma
 872:Libraries/ctrl_sdk/src/lib_printf.c ****     floored_exp10 = 0; // ... and no need to set a normalization factor or check the powers table
 873:Libraries/ctrl_sdk/src/lib_printf.c ****   }
 874:Libraries/ctrl_sdk/src/lib_printf.c ****   else  {
ARM GAS  C:\Users\Mxuan\AppData\Local\Temp\ccSEBS4R.s 			page 72


 875:Libraries/ctrl_sdk/src/lib_printf.c ****     double exp10 = log10_of_positive(abs_number);
 2925              		.loc 1 875 5 is_stmt 1 view .LVU716
 2926              		.loc 1 875 20 is_stmt 0 view .LVU717
 2927 0034 5046     		mov	r0, r10
 2928 0036 5946     		mov	r1, fp
 2929 0038 FFF7FEFF 		bl	log10_of_positive
 2930              	.LVL288:
 876:Libraries/ctrl_sdk/src/lib_printf.c ****     floored_exp10 = bastardized_floor(exp10);
 2931              		.loc 1 876 5 is_stmt 1 view .LVU718
 2932              		.loc 1 876 21 is_stmt 0 view .LVU719
 2933 003c FFF7FEFF 		bl	bastardized_floor
 2934              	.LVL289:
 2935              		.loc 1 876 21 view .LVU720
 2936 0040 0546     		mov	r5, r0
 2937              	.LVL290:
 877:Libraries/ctrl_sdk/src/lib_printf.c ****     double p10 = pow10_of_int(floored_exp10);
 2938              		.loc 1 877 5 is_stmt 1 view .LVU721
 2939              		.loc 1 877 18 is_stmt 0 view .LVU722
 2940 0042 FFF7FEFF 		bl	pow10_of_int
 2941              	.LVL291:
 878:Libraries/ctrl_sdk/src/lib_printf.c ****     // correct for rounding errors
 879:Libraries/ctrl_sdk/src/lib_printf.c ****     if (abs_number < p10) {
 2942              		.loc 1 879 5 is_stmt 1 view .LVU723
 2943              		.loc 1 879 8 is_stmt 0 view .LVU724
 2944 0046 CDE90801 		strd	r0, [sp, #32]
 2945 004a 0246     		mov	r2, r0
 2946 004c 0B46     		mov	r3, r1
 2947 004e 5046     		mov	r0, r10
 2948              	.LVL292:
 2949              		.loc 1 879 8 view .LVU725
 2950 0050 5946     		mov	r1, fp
 2951 0052 FFF7FEFF 		bl	__aeabi_dcmplt
 2952              	.LVL293:
 2953 0056 40B1     		cbz	r0, .L188
 880:Libraries/ctrl_sdk/src/lib_printf.c ****       floored_exp10--;
 2954              		.loc 1 880 7 is_stmt 1 view .LVU726
 2955              		.loc 1 880 20 is_stmt 0 view .LVU727
 2956 0058 013D     		subs	r5, r5, #1
 2957              	.LVL294:
 881:Libraries/ctrl_sdk/src/lib_printf.c ****       p10 /= 10;
 2958              		.loc 1 881 7 is_stmt 1 view .LVU728
 2959              		.loc 1 881 11 is_stmt 0 view .LVU729
 2960 005a 0022     		movs	r2, #0
 2961 005c 764B     		ldr	r3, .L224
 2962 005e DDE90801 		ldrd	r0, [sp, #32]
 2963 0062 FFF7FEFF 		bl	__aeabi_ddiv
 2964              	.LVL295:
 2965 0066 CDE90801 		strd	r0, [sp, #32]
 2966              	.LVL296:
 2967              	.L188:
 882:Libraries/ctrl_sdk/src/lib_printf.c ****     }
 883:Libraries/ctrl_sdk/src/lib_printf.c ****     abs_exp10_covered_by_powers_table = PRINTF_ABS(floored_exp10) < PRINTF_MAX_PRECOMPUTED_POWER_OF
 2968              		.loc 1 883 5 is_stmt 1 view .LVU730
 2969              		.loc 1 883 67 is_stmt 0 view .LVU731
 2970 006a 05F11103 		add	r3, r5, #17
 2971              		.loc 1 883 39 view .LVU732
 2972 006e 222B     		cmp	r3, #34
ARM GAS  C:\Users\Mxuan\AppData\Local\Temp\ccSEBS4R.s 			page 73


 2973 0070 94BF     		ite	ls
 2974 0072 0123     		movls	r3, #1
 2975 0074 0023     		movhi	r3, #0
 2976 0076 0A93     		str	r3, [sp, #40]
 2977              	.LVL297:
 884:Libraries/ctrl_sdk/src/lib_printf.c ****     normalization.raw_factor = abs_exp10_covered_by_powers_table ? powers_of_10[PRINTF_ABS(floored_
 2978              		.loc 1 884 5 is_stmt 1 view .LVU733
 2979              		.loc 1 884 108 is_stmt 0 view .LVU734
 2980 0078 0AD8     		bhi	.L190
 2981              		.loc 1 884 81 discriminator 1 view .LVU735
 2982 007a 85EAE572 		eor	r2, r5, r5, asr #31
 2983 007e A2EBE572 		sub	r2, r2, r5, asr #31
 2984              		.loc 1 884 108 discriminator 1 view .LVU736
 2985 0082 6E4B     		ldr	r3, .L224+4
 2986 0084 03EBC203 		add	r3, r3, r2, lsl #3
 2987 0088 D3E90023 		ldrd	r2, [r3]
 2988 008c CDE90823 		strd	r2, [sp, #32]
 2989              	.LVL298:
 2990              	.L190:
 2991              		.loc 1 884 30 discriminator 4 view .LVU737
 2992 0090 DDE90823 		ldrd	r2, [sp, #32]
 2993 0094 CDE91223 		strd	r2, [sp, #72]
 2994              	.LVL299:
 2995              	.L187:
 2996              		.loc 1 884 30 discriminator 4 view .LVU738
 2997              	.LBE78:
 885:Libraries/ctrl_sdk/src/lib_printf.c ****   }
 886:Libraries/ctrl_sdk/src/lib_printf.c **** 
 887:Libraries/ctrl_sdk/src/lib_printf.c ****   // We now begin accounting for the widths of the two parts of our printed field:
 888:Libraries/ctrl_sdk/src/lib_printf.c ****   // the decimal part after decimal exponent extraction, and the base-10 exponent part.
 889:Libraries/ctrl_sdk/src/lib_printf.c ****   // For both of these, the value of 0 has a special meaning, but not the same one:
 890:Libraries/ctrl_sdk/src/lib_printf.c ****   // a 0 exponent-part width means "don't print the exponent"; a 0 decimal-part width
 891:Libraries/ctrl_sdk/src/lib_printf.c ****   // means "use as many characters as necessary".
 892:Libraries/ctrl_sdk/src/lib_printf.c **** 
 893:Libraries/ctrl_sdk/src/lib_printf.c ****   bool fall_back_to_decimal_only_mode = false;
 2998              		.loc 1 893 3 is_stmt 1 view .LVU739
 894:Libraries/ctrl_sdk/src/lib_printf.c ****   if (flags & FLAGS_ADAPT_EXP) {
 2999              		.loc 1 894 3 view .LVU740
 3000              		.loc 1 894 6 is_stmt 0 view .LVU741
 3001 0098 16F4805F 		tst	r6, #4096
 3002 009c 2FD0     		beq	.L210
 3003              	.LBB79:
 895:Libraries/ctrl_sdk/src/lib_printf.c ****     int required_significant_digits = (precision == 0) ? 1 : (int) precision;
 3004              		.loc 1 895 5 is_stmt 1 view .LVU742
 3005              		.loc 1 895 60 is_stmt 0 view .LVU743
 3006 009e 67B1     		cbz	r7, .L211
 3007              		.loc 1 895 60 discriminator 1 view .LVU744
 3008 00a0 3B46     		mov	r3, r7
 3009              	.L192:
 3010              	.LVL300:
 896:Libraries/ctrl_sdk/src/lib_printf.c ****     // Should we want to fall-back to "%f" mode, and only print the decimal part?
 897:Libraries/ctrl_sdk/src/lib_printf.c ****     fall_back_to_decimal_only_mode = (floored_exp10 >= -4 && floored_exp10 < required_significant_d
 3011              		.loc 1 897 5 is_stmt 1 discriminator 4 view .LVU745
 3012              		.loc 1 897 59 is_stmt 0 discriminator 4 view .LVU746
 3013 00a2 15F1040F 		cmn	r5, #4
 3014 00a6 0ADB     		blt	.L193
 3015              		.loc 1 897 59 discriminator 1 view .LVU747
ARM GAS  C:\Users\Mxuan\AppData\Local\Temp\ccSEBS4R.s 			page 74


 3016 00a8 9D42     		cmp	r5, r3
 3017 00aa 08DA     		bge	.L193
 3018              	.LVL301:
 898:Libraries/ctrl_sdk/src/lib_printf.c ****     // Now, let's adjust the precision
 899:Libraries/ctrl_sdk/src/lib_printf.c ****     // This also decided how we adjust the precision value - as in "%g" mode,
 900:Libraries/ctrl_sdk/src/lib_printf.c ****     // "precision" is the number of _significant digits_, and this is when we "translate"
 901:Libraries/ctrl_sdk/src/lib_printf.c ****     // the precision value to an actual number of decimal digits.
 902:Libraries/ctrl_sdk/src/lib_printf.c ****     int precision_ = fall_back_to_decimal_only_mode ?
 3019              		.loc 1 902 5 is_stmt 1 view .LVU748
 903:Libraries/ctrl_sdk/src/lib_printf.c ****                      (int) precision - 1 - floored_exp10 :
 3020              		.loc 1 903 38 is_stmt 0 view .LVU749
 3021 00ac 013F     		subs	r7, r7, #1
 3022              		.loc 1 903 58 view .LVU750
 3023 00ae 7F1B     		subs	r7, r7, r5
 897:Libraries/ctrl_sdk/src/lib_printf.c ****     // Now, let's adjust the precision
 3024              		.loc 1 897 36 view .LVU751
 3025 00b0 4FF00108 		mov	r8, #1
 3026 00b4 06E0     		b	.L194
 3027              	.LVL302:
 3028              	.L209:
 897:Libraries/ctrl_sdk/src/lib_printf.c ****     // Now, let's adjust the precision
 3029              		.loc 1 897 36 view .LVU752
 3030              	.LBE79:
 872:Libraries/ctrl_sdk/src/lib_printf.c ****   }
 3031              		.loc 1 872 19 view .LVU753
 3032 00b6 0025     		movs	r5, #0
 3033 00b8 EEE7     		b	.L187
 3034              	.LVL303:
 3035              	.L211:
 3036              	.LBB80:
 895:Libraries/ctrl_sdk/src/lib_printf.c ****     // Should we want to fall-back to "%f" mode, and only print the decimal part?
 3037              		.loc 1 895 60 view .LVU754
 3038 00ba 0123     		movs	r3, #1
 3039 00bc F1E7     		b	.L192
 3040              	.LVL304:
 3041              	.L193:
 902:Libraries/ctrl_sdk/src/lib_printf.c ****                      (int) precision - 1 - floored_exp10 :
 3042              		.loc 1 902 5 is_stmt 1 view .LVU755
 3043              		.loc 1 903 58 is_stmt 0 view .LVU756
 3044 00be 013F     		subs	r7, r7, #1
 897:Libraries/ctrl_sdk/src/lib_printf.c ****     // Now, let's adjust the precision
 3045              		.loc 1 897 36 view .LVU757
 3046 00c0 4FF00008 		mov	r8, #0
 3047              	.LVL305:
 3048              	.L194:
 904:Libraries/ctrl_sdk/src/lib_printf.c ****         (int) precision - 1; // the presence of the exponent ensures only one significant digit com
 905:Libraries/ctrl_sdk/src/lib_printf.c ****     precision = (precision_ > 0 ? (unsigned) precision_ : 0U);
 3049              		.loc 1 905 5 is_stmt 1 view .LVU758
 3050              		.loc 1 905 57 is_stmt 0 view .LVU759
 3051 00c4 27EAE777 		bic	r7, r7, r7, asr #31
 3052              	.LVL306:
 906:Libraries/ctrl_sdk/src/lib_printf.c ****     flags |= FLAGS_PRECISION;   // make sure print_broken_up_decimal respects our choice above
 3053              		.loc 1 906 5 is_stmt 1 view .LVU760
 3054              		.loc 1 906 11 is_stmt 0 view .LVU761
 3055 00c8 46F40066 		orr	r6, r6, #2048
 3056              	.LVL307:
 3057              	.L191:
ARM GAS  C:\Users\Mxuan\AppData\Local\Temp\ccSEBS4R.s 			page 75


 3058              		.loc 1 906 11 view .LVU762
 3059              	.LBE80:
 907:Libraries/ctrl_sdk/src/lib_printf.c ****   }
 908:Libraries/ctrl_sdk/src/lib_printf.c **** 
 909:Libraries/ctrl_sdk/src/lib_printf.c ****   normalization.multiply = (floored_exp10 < 0 && abs_exp10_covered_by_powers_table);
 3060              		.loc 1 909 3 is_stmt 1 view .LVU763
 3061              		.loc 1 909 47 is_stmt 0 view .LVU764
 3062 00cc 002D     		cmp	r5, #0
 3063 00ce 19DB     		blt	.L223
 3064 00d0 0023     		movs	r3, #0
 3065              	.L195:
 3066              		.loc 1 909 26 discriminator 6 view .LVU765
 3067 00d2 8DF85030 		strb	r3, [sp, #80]
 910:Libraries/ctrl_sdk/src/lib_printf.c ****   bool should_skip_normalization = (fall_back_to_decimal_only_mode || floored_exp10 == 0);
 3068              		.loc 1 910 3 is_stmt 1 discriminator 6 view .LVU766
 3069              		.loc 1 910 68 is_stmt 0 discriminator 6 view .LVU767
 3070 00d6 B8F1000F 		cmp	r8, #0
 3071 00da 18D1     		bne	.L196
 3072              		.loc 1 910 68 discriminator 2 view .LVU768
 3073 00dc BDB1     		cbz	r5, .L196
 3074              	.LVL308:
 911:Libraries/ctrl_sdk/src/lib_printf.c ****   struct double_components decimal_part_components =
 3075              		.loc 1 911 3 is_stmt 1 view .LVU769
 912:Libraries/ctrl_sdk/src/lib_printf.c ****     should_skip_normalization ?
 913:Libraries/ctrl_sdk/src/lib_printf.c ****     get_components(negative ? -abs_number : abs_number, precision) :
 914:Libraries/ctrl_sdk/src/lib_printf.c ****     get_normalized_components(negative, precision, abs_number, normalization, floored_exp10);
 3076              		.loc 1 914 5 is_stmt 0 view .LVU770
 3077 00de 0695     		str	r5, [sp, #24]
 3078 00e0 0DF1080C 		add	ip, sp, #8
 3079 00e4 16AB     		add	r3, sp, #88
 3080 00e6 13E90F00 		ldmdb	r3, {r0, r1, r2, r3}
 3081 00ea 8CE80F00 		stm	ip, {r0, r1, r2, r3}
 3082 00ee CDE900AB 		strd	r10, [sp]
 3083 00f2 3A46     		mov	r2, r7
 3084 00f4 0B99     		ldr	r1, [sp, #44]
 3085 00f6 0CA8     		add	r0, sp, #48
 3086 00f8 FFF7FEFF 		bl	get_normalized_components
 3087              	.LVL309:
 3088 00fc 13E0     		b	.L197
 3089              	.LVL310:
 3090              	.L210:
 893:Libraries/ctrl_sdk/src/lib_printf.c ****   if (flags & FLAGS_ADAPT_EXP) {
 3091              		.loc 1 893 8 view .LVU771
 3092 00fe 4FF00008 		mov	r8, #0
 3093 0102 E3E7     		b	.L191
 3094              	.LVL311:
 3095              	.L223:
 909:Libraries/ctrl_sdk/src/lib_printf.c ****   bool should_skip_normalization = (fall_back_to_decimal_only_mode || floored_exp10 == 0);
 3096              		.loc 1 909 47 discriminator 1 view .LVU772
 3097 0104 0A9B     		ldr	r3, [sp, #40]
 3098 0106 002B     		cmp	r3, #0
 3099 0108 E3D0     		beq	.L195
 909:Libraries/ctrl_sdk/src/lib_printf.c ****   bool should_skip_normalization = (fall_back_to_decimal_only_mode || floored_exp10 == 0);
 3100              		.loc 1 909 47 view .LVU773
 3101 010a 0123     		movs	r3, #1
 3102 010c E1E7     		b	.L195
 3103              	.L196:
ARM GAS  C:\Users\Mxuan\AppData\Local\Temp\ccSEBS4R.s 			page 76


 913:Libraries/ctrl_sdk/src/lib_printf.c ****     get_normalized_components(negative, precision, abs_number, normalization, floored_exp10);
 3104              		.loc 1 913 5 discriminator 1 view .LVU774
 3105 010e B9F1000F 		cmp	r9, #0
 3106 0112 02D0     		beq	.L198
 913:Libraries/ctrl_sdk/src/lib_printf.c ****     get_normalized_components(negative, precision, abs_number, normalization, floored_exp10);
 3107              		.loc 1 913 5 discriminator 2 view .LVU775
 3108 0114 0BF10043 		add	r3, fp, #-2147483648
 3109 0118 9B46     		mov	fp, r3
 3110              	.L198:
 913:Libraries/ctrl_sdk/src/lib_printf.c ****     get_normalized_components(negative, precision, abs_number, normalization, floored_exp10);
 3111              		.loc 1 913 5 discriminator 5 view .LVU776
 3112 011a 0097     		str	r7, [sp]
 3113 011c 5246     		mov	r2, r10
 3114 011e 5B46     		mov	r3, fp
 3115 0120 0CA8     		add	r0, sp, #48
 3116 0122 FFF7FEFF 		bl	get_components
 3117              	.LVL312:
 3118              	.L197:
 915:Libraries/ctrl_sdk/src/lib_printf.c **** 
 916:Libraries/ctrl_sdk/src/lib_printf.c ****   // Account for roll-over, e.g. rounding from 9.99 to 100.0 - which effects
 917:Libraries/ctrl_sdk/src/lib_printf.c ****   // the exponent and may require additional tweaking of the parts
 918:Libraries/ctrl_sdk/src/lib_printf.c ****   if (fall_back_to_decimal_only_mode) {
 3119              		.loc 1 918 3 is_stmt 1 view .LVU777
 3120              		.loc 1 918 6 is_stmt 0 view .LVU778
 3121 0126 B8F1000F 		cmp	r8, #0
 3122 012a 16D0     		beq	.L199
 919:Libraries/ctrl_sdk/src/lib_printf.c ****     if ((flags & FLAGS_ADAPT_EXP) && floored_exp10 >= -1 && decimal_part_components.integral == pow
 3123              		.loc 1 919 5 is_stmt 1 view .LVU779
 3124              		.loc 1 919 8 is_stmt 0 view .LVU780
 3125 012c 16F4805F 		tst	r6, #4096
 3126 0130 22D0     		beq	.L200
 3127              		.loc 1 919 35 discriminator 1 view .LVU781
 3128 0132 B5F1FF3F 		cmp	r5, #-1
 3129 0136 1FDB     		blt	.L200
 3130              		.loc 1 919 94 discriminator 2 view .LVU782
 3131 0138 DDE90C01 		ldrd	r0, [sp, #48]
 3132 013c FFF7FEFF 		bl	__aeabi_l2d
 3133              	.LVL313:
 3134              		.loc 1 919 124 discriminator 2 view .LVU783
 3135 0140 05F10109 		add	r9, r5, #1
 3136              		.loc 1 919 109 discriminator 2 view .LVU784
 3137 0144 3D4B     		ldr	r3, .L224+4
 3138 0146 03EBC903 		add	r3, r3, r9, lsl #3
 3139              		.loc 1 919 58 discriminator 2 view .LVU785
 3140 014a D3E90023 		ldrd	r2, [r3]
 3141 014e FFF7FEFF 		bl	__aeabi_dcmpeq
 3142              	.LVL314:
 3143 0152 88B1     		cbz	r0, .L200
 920:Libraries/ctrl_sdk/src/lib_printf.c ****       floored_exp10++; // Not strictly necessary, since floored_exp10 is no longer really used
 3144              		.loc 1 920 7 is_stmt 1 view .LVU786
 3145              	.LVL315:
 921:Libraries/ctrl_sdk/src/lib_printf.c ****       precision--;
 3146              		.loc 1 921 7 view .LVU787
 3147              		.loc 1 921 16 is_stmt 0 view .LVU788
 3148 0154 013F     		subs	r7, r7, #1
 3149              	.LVL316:
 920:Libraries/ctrl_sdk/src/lib_printf.c ****       floored_exp10++; // Not strictly necessary, since floored_exp10 is no longer really used
ARM GAS  C:\Users\Mxuan\AppData\Local\Temp\ccSEBS4R.s 			page 77


 3150              		.loc 1 920 20 view .LVU789
 3151 0156 4D46     		mov	r5, r9
 3152 0158 0EE0     		b	.L200
 3153              	.LVL317:
 3154              	.L199:
 922:Libraries/ctrl_sdk/src/lib_printf.c ****       // ... and it should already be the case that decimal_part_components.fractional == 0
 923:Libraries/ctrl_sdk/src/lib_printf.c ****     }
 924:Libraries/ctrl_sdk/src/lib_printf.c ****     // TODO: What about rollover strictly within the fractional part?
 925:Libraries/ctrl_sdk/src/lib_printf.c ****   }
 926:Libraries/ctrl_sdk/src/lib_printf.c ****   else {
 927:Libraries/ctrl_sdk/src/lib_printf.c ****     if (decimal_part_components.integral >= 10) {
 3155              		.loc 1 927 5 is_stmt 1 view .LVU790
 3156              		.loc 1 927 8 is_stmt 0 view .LVU791
 3157 015a 0C9B     		ldr	r3, [sp, #48]
 3158 015c 0A2B     		cmp	r3, #10
 3159 015e 0D9B     		ldr	r3, [sp, #52]
 3160 0160 73F10003 		sbcs	r3, r3, #0
 3161 0164 08DB     		blt	.L200
 928:Libraries/ctrl_sdk/src/lib_printf.c ****       floored_exp10++;
 3162              		.loc 1 928 7 is_stmt 1 view .LVU792
 3163              		.loc 1 928 20 is_stmt 0 view .LVU793
 3164 0166 0135     		adds	r5, r5, #1
 3165              	.LVL318:
 929:Libraries/ctrl_sdk/src/lib_printf.c ****       decimal_part_components.integral = 1;
 3166              		.loc 1 929 7 is_stmt 1 view .LVU794
 3167              		.loc 1 929 40 is_stmt 0 view .LVU795
 3168 0168 0122     		movs	r2, #1
 3169 016a 0023     		movs	r3, #0
 3170 016c CDE90C23 		strd	r2, [sp, #48]
 930:Libraries/ctrl_sdk/src/lib_printf.c ****       decimal_part_components.fractional = 0;
 3171              		.loc 1 930 7 is_stmt 1 view .LVU796
 3172              		.loc 1 930 42 is_stmt 0 view .LVU797
 3173 0170 0022     		movs	r2, #0
 3174 0172 0023     		movs	r3, #0
 3175 0174 CDE90E23 		strd	r2, [sp, #56]
 3176              	.L200:
 931:Libraries/ctrl_sdk/src/lib_printf.c ****     }
 932:Libraries/ctrl_sdk/src/lib_printf.c ****   }
 933:Libraries/ctrl_sdk/src/lib_printf.c **** 
 934:Libraries/ctrl_sdk/src/lib_printf.c ****   // the floored_exp10 format is "E%+03d" and largest possible floored_exp10 value for a 64-bit dou
 935:Libraries/ctrl_sdk/src/lib_printf.c ****   // is "307" (for 2^1023), so we set aside 4-5 characters overall
 936:Libraries/ctrl_sdk/src/lib_printf.c ****   printf_size_t exp10_part_width = fall_back_to_decimal_only_mode ? 0U : (PRINTF_ABS(floored_exp10)
 3177              		.loc 1 936 3 is_stmt 1 view .LVU798
 3178              		.loc 1 936 72 is_stmt 0 view .LVU799
 3179 0178 B8F1000F 		cmp	r8, #0
 3180 017c 06D1     		bne	.L214
 3181              		.loc 1 936 101 discriminator 2 view .LVU800
 3182 017e 05F16303 		add	r3, r5, #99
 3183              		.loc 1 936 113 discriminator 2 view .LVU801
 3184 0182 C62B     		cmp	r3, #198
 3185 0184 42D8     		bhi	.L215
 3186              		.loc 1 936 113 view .LVU802
 3187 0186 4FF00409 		mov	r9, #4
 3188 018a 01E0     		b	.L202
 3189              	.L214:
 3190              		.loc 1 936 72 view .LVU803
 3191 018c 4FF00009 		mov	r9, #0
ARM GAS  C:\Users\Mxuan\AppData\Local\Temp\ccSEBS4R.s 			page 78


 3192              	.L202:
 3193              	.LVL319:
 937:Libraries/ctrl_sdk/src/lib_printf.c **** 
 938:Libraries/ctrl_sdk/src/lib_printf.c ****   printf_size_t decimal_part_width =
 3194              		.loc 1 938 3 is_stmt 1 discriminator 8 view .LVU804
 939:Libraries/ctrl_sdk/src/lib_printf.c ****     ((flags & FLAGS_LEFT) && exp10_part_width) ?
 940:Libraries/ctrl_sdk/src/lib_printf.c ****       // We're padding on the right, so the width constraint is the exponent part's
 941:Libraries/ctrl_sdk/src/lib_printf.c ****       // problem, not the decimal part's, so we'll use as many characters as we need:
 942:Libraries/ctrl_sdk/src/lib_printf.c ****       0U :
 3195              		.loc 1 942 10 is_stmt 0 discriminator 8 view .LVU805
 3196 0190 16F0020B 		ands	fp, r6, #2
 3197 0194 02D0     		beq	.L203
 939:Libraries/ctrl_sdk/src/lib_printf.c ****     ((flags & FLAGS_LEFT) && exp10_part_width) ?
 3198              		.loc 1 939 27 view .LVU806
 3199 0196 B9F1000F 		cmp	r9, #0
 3200 019a 3AD1     		bne	.L216
 3201              	.L203:
 943:Libraries/ctrl_sdk/src/lib_printf.c ****       // We're padding on the left; so the width constraint is the decimal part's
 944:Libraries/ctrl_sdk/src/lib_printf.c ****       // problem. Well, can both the decimal part and the exponent part fit within our overall widt
 945:Libraries/ctrl_sdk/src/lib_printf.c ****       ((width > exp10_part_width) ?
 946:Libraries/ctrl_sdk/src/lib_printf.c ****         // Yes, so we limit our decimal part's width.
 947:Libraries/ctrl_sdk/src/lib_printf.c ****         // (Note this is trivially valid even if we've fallen back to "%f" mode)
 948:Libraries/ctrl_sdk/src/lib_printf.c ****         width - exp10_part_width :
 3202              		.loc 1 948 34 view .LVU807
 3203 019c 219B     		ldr	r3, [sp, #132]
 3204 019e 9945     		cmp	r9, r3
 3205 01a0 39D2     		bcs	.L217
 3206              		.loc 1 948 34 discriminator 1 view .LVU808
 3207 01a2 A3EB0903 		sub	r3, r3, r9
 3208              	.L204:
 3209              	.LVL320:
 949:Libraries/ctrl_sdk/src/lib_printf.c ****         // No; we just give up on any restriction on the decimal part and use as many
 950:Libraries/ctrl_sdk/src/lib_printf.c ****         // characters as we need
 951:Libraries/ctrl_sdk/src/lib_printf.c ****         0U);
 952:Libraries/ctrl_sdk/src/lib_printf.c **** 
 953:Libraries/ctrl_sdk/src/lib_printf.c ****   const printf_size_t printed_exponential_start_pos = output->pos;
 3210              		.loc 1 953 3 is_stmt 1 view .LVU809
 3211              		.loc 1 953 23 is_stmt 0 view .LVU810
 3212 01a6 D4F80CA0 		ldr	r10, [r4, #12]
 3213              	.LVL321:
 954:Libraries/ctrl_sdk/src/lib_printf.c ****   print_broken_up_decimal(decimal_part_components, output, precision, decimal_part_width, flags, bu
 3214              		.loc 1 954 3 is_stmt 1 view .LVU811
 3215 01aa 249A     		ldr	r2, [sp, #144]
 3216 01ac 0792     		str	r2, [sp, #28]
 3217 01ae 239A     		ldr	r2, [sp, #140]
 3218 01b0 0692     		str	r2, [sp, #24]
 3219 01b2 0596     		str	r6, [sp, #20]
 3220 01b4 0493     		str	r3, [sp, #16]
 3221 01b6 0397     		str	r7, [sp, #12]
 3222 01b8 0294     		str	r4, [sp, #8]
 3223 01ba 10AB     		add	r3, sp, #64
 3224              	.LVL322:
 3225              		.loc 1 954 3 is_stmt 0 view .LVU812
 3226 01bc 93E80300 		ldm	r3, {r0, r1}
 3227 01c0 8DE80300 		stm	sp, {r0, r1}
 3228 01c4 0CAB     		add	r3, sp, #48
 3229 01c6 0FCB     		ldm	r3, {r0, r1, r2, r3}
ARM GAS  C:\Users\Mxuan\AppData\Local\Temp\ccSEBS4R.s 			page 79


 3230 01c8 FFF7FEFF 		bl	print_broken_up_decimal
 3231              	.LVL323:
 955:Libraries/ctrl_sdk/src/lib_printf.c **** 
 956:Libraries/ctrl_sdk/src/lib_printf.c ****   if (! fall_back_to_decimal_only_mode) {
 3232              		.loc 1 956 3 is_stmt 1 view .LVU813
 3233              		.loc 1 956 6 is_stmt 0 view .LVU814
 3234 01cc B8F1000F 		cmp	r8, #0
 3235 01d0 19D1     		bne	.L185
 957:Libraries/ctrl_sdk/src/lib_printf.c ****     putchar_via_gadget(output, (flags & FLAGS_UPPERCASE) ? 'E' : 'e');
 3236              		.loc 1 957 5 is_stmt 1 view .LVU815
 3237 01d2 16F0200F 		tst	r6, #32
 3238 01d6 20D0     		beq	.L218
 3239 01d8 4521     		movs	r1, #69
 3240              	.L206:
 3241              		.loc 1 957 5 is_stmt 0 discriminator 4 view .LVU816
 3242 01da 2046     		mov	r0, r4
 3243 01dc FFF7FEFF 		bl	putchar_via_gadget
 3244              	.LVL324:
 958:Libraries/ctrl_sdk/src/lib_printf.c ****     print_integer(output,
 3245              		.loc 1 958 5 is_stmt 1 discriminator 4 view .LVU817
 3246 01e0 0523     		movs	r3, #5
 3247 01e2 0293     		str	r3, [sp, #8]
 3248 01e4 09F1FF33 		add	r3, r9, #-1
 3249 01e8 0193     		str	r3, [sp, #4]
 3250 01ea 0023     		movs	r3, #0
 3251 01ec 0093     		str	r3, [sp]
 3252 01ee 0A23     		movs	r3, #10
 3253 01f0 EA0F     		lsrs	r2, r5, #31
 3254 01f2 85EAE571 		eor	r1, r5, r5, asr #31
 3255 01f6 A1EBE571 		sub	r1, r1, r5, asr #31
 3256 01fa 2046     		mov	r0, r4
 3257 01fc FFF7FEFF 		bl	print_integer
 3258              	.LVL325:
 959:Libraries/ctrl_sdk/src/lib_printf.c ****                   ABS_FOR_PRINTING(floored_exp10),
 960:Libraries/ctrl_sdk/src/lib_printf.c ****                   floored_exp10 < 0, 10, 0, exp10_part_width - 1,
 961:Libraries/ctrl_sdk/src/lib_printf.c ****                 FLAGS_ZEROPAD | FLAGS_PLUS);
 962:Libraries/ctrl_sdk/src/lib_printf.c ****     if (flags & FLAGS_LEFT) {
 3259              		.loc 1 962 5 discriminator 4 view .LVU818
 3260              		.loc 1 962 8 is_stmt 0 discriminator 4 view .LVU819
 3261 0200 BBF1000F 		cmp	fp, #0
 3262 0204 15D1     		bne	.L221
 3263              	.LVL326:
 3264              	.L185:
 963:Libraries/ctrl_sdk/src/lib_printf.c ****       // We need to right-pad with spaces to meet the width requirement
 964:Libraries/ctrl_sdk/src/lib_printf.c ****       while (output->pos - printed_exponential_start_pos < width) {
 965:Libraries/ctrl_sdk/src/lib_printf.c ****         putchar_via_gadget(output, ' ');
 966:Libraries/ctrl_sdk/src/lib_printf.c ****       }
 967:Libraries/ctrl_sdk/src/lib_printf.c ****     }
 968:Libraries/ctrl_sdk/src/lib_printf.c ****   }
 969:Libraries/ctrl_sdk/src/lib_printf.c **** }
 3265              		.loc 1 969 1 view .LVU820
 3266 0206 17B0     		add	sp, sp, #92
 3267              	.LCFI52:
 3268              		.cfi_remember_state
 3269              		.cfi_def_cfa_offset 36
 3270              		@ sp needed
 3271 0208 BDE8F08F 		pop	{r4, r5, r6, r7, r8, r9, r10, fp, pc}
ARM GAS  C:\Users\Mxuan\AppData\Local\Temp\ccSEBS4R.s 			page 80


 3272              	.LVL327:
 3273              	.L215:
 3274              	.LCFI53:
 3275              		.cfi_restore_state
 936:Libraries/ctrl_sdk/src/lib_printf.c **** 
 3276              		.loc 1 936 113 view .LVU821
 3277 020c 4FF00509 		mov	r9, #5
 3278 0210 BEE7     		b	.L202
 3279              	.LVL328:
 3280              	.L216:
 942:Libraries/ctrl_sdk/src/lib_printf.c ****       // We're padding on the left; so the width constraint is the decimal part's
 3281              		.loc 1 942 10 view .LVU822
 3282 0212 0023     		movs	r3, #0
 3283 0214 C7E7     		b	.L204
 3284              	.L217:
 948:Libraries/ctrl_sdk/src/lib_printf.c ****         // No; we just give up on any restriction on the decimal part and use as many
 3285              		.loc 1 948 34 view .LVU823
 3286 0216 0023     		movs	r3, #0
 3287 0218 C5E7     		b	.L204
 3288              	.LVL329:
 3289              	.L218:
 957:Libraries/ctrl_sdk/src/lib_printf.c ****     print_integer(output,
 3290              		.loc 1 957 5 view .LVU824
 3291 021a 6521     		movs	r1, #101
 3292 021c DDE7     		b	.L206
 3293              	.LVL330:
 3294              	.L208:
 965:Libraries/ctrl_sdk/src/lib_printf.c ****       }
 3295              		.loc 1 965 9 is_stmt 1 view .LVU825
 3296 021e 2021     		movs	r1, #32
 3297 0220 2046     		mov	r0, r4
 3298 0222 FFF7FEFF 		bl	putchar_via_gadget
 3299              	.LVL331:
 3300              	.L207:
 964:Libraries/ctrl_sdk/src/lib_printf.c ****         putchar_via_gadget(output, ' ');
 3301              		.loc 1 964 58 view .LVU826
 964:Libraries/ctrl_sdk/src/lib_printf.c ****         putchar_via_gadget(output, ' ');
 3302              		.loc 1 964 20 is_stmt 0 view .LVU827
 3303 0226 E368     		ldr	r3, [r4, #12]
 964:Libraries/ctrl_sdk/src/lib_printf.c ****         putchar_via_gadget(output, ' ');
 3304              		.loc 1 964 26 view .LVU828
 3305 0228 A3EB0A03 		sub	r3, r3, r10
 964:Libraries/ctrl_sdk/src/lib_printf.c ****         putchar_via_gadget(output, ' ');
 3306              		.loc 1 964 58 view .LVU829
 3307 022c AB42     		cmp	r3, r5
 3308 022e F6D3     		bcc	.L208
 3309 0230 E9E7     		b	.L185
 3310              	.LVL332:
 3311              	.L221:
 964:Libraries/ctrl_sdk/src/lib_printf.c ****         putchar_via_gadget(output, ' ');
 3312              		.loc 1 964 58 view .LVU830
 3313 0232 219D     		ldr	r5, [sp, #132]
 3314              	.LVL333:
 964:Libraries/ctrl_sdk/src/lib_printf.c ****         putchar_via_gadget(output, ' ');
 3315              		.loc 1 964 58 view .LVU831
 3316 0234 F7E7     		b	.L207
 3317              	.L225:
ARM GAS  C:\Users\Mxuan\AppData\Local\Temp\ccSEBS4R.s 			page 81


 3318 0236 00BF     		.align	2
 3319              	.L224:
 3320 0238 00002440 		.word	1076101120
 3321 023c 00000000 		.word	powers_of_10
 3322              		.cfi_endproc
 3323              	.LFE26:
 3325              		.section	.rodata.print_floating_point.str1.4,"aMS",%progbits,1
 3326              		.align	2
 3327              	.LC0:
 3328 0000 666E692B 		.ascii	"fni+\000"
 3328      00
 3329 0005 000000   		.align	2
 3330              	.LC1:
 3331 0008 666E6900 		.ascii	"fni\000"
 3332              		.align	2
 3333              	.LC2:
 3334 000c 6E616E00 		.ascii	"nan\000"
 3335              		.align	2
 3336              	.LC3:
 3337 0010 666E692D 		.ascii	"fni-\000"
 3337      00
 3338              		.section	.text.print_floating_point,"ax",%progbits
 3339              		.align	1
 3340              		.syntax unified
 3341              		.thumb
 3342              		.thumb_func
 3344              	print_floating_point:
 3345              	.LVL334:
 3346              	.LFB27:
 970:Libraries/ctrl_sdk/src/lib_printf.c **** #endif  // PRINTF_SUPPORT_EXPONENTIAL_SPECIFIERS
 971:Libraries/ctrl_sdk/src/lib_printf.c **** 
 972:Libraries/ctrl_sdk/src/lib_printf.c **** static void print_floating_point(output_gadget_t* output, double value, printf_size_t precision, pr
 973:Libraries/ctrl_sdk/src/lib_printf.c **** {
 3347              		.loc 1 973 1 is_stmt 1 view -0
 3348              		.cfi_startproc
 3349              		@ args = 16, pretend = 0, frame = 32
 3350              		@ frame_needed = 0, uses_anonymous_args = 0
 3351              		.loc 1 973 1 is_stmt 0 view .LVU833
 3352 0000 2DE9F043 		push	{r4, r5, r6, r7, r8, r9, lr}
 3353              	.LCFI54:
 3354              		.cfi_def_cfa_offset 28
 3355              		.cfi_offset 4, -28
 3356              		.cfi_offset 5, -24
 3357              		.cfi_offset 6, -20
 3358              		.cfi_offset 7, -16
 3359              		.cfi_offset 8, -12
 3360              		.cfi_offset 9, -8
 3361              		.cfi_offset 14, -4
 3362 0004 8FB0     		sub	sp, sp, #60
 3363              	.LCFI55:
 3364              		.cfi_def_cfa_offset 88
 3365 0006 0546     		mov	r5, r0
 3366 0008 1646     		mov	r6, r2
 3367 000a 1F46     		mov	r7, r3
 3368 000c 169C     		ldr	r4, [sp, #88]
 3369 000e DDF86080 		ldr	r8, [sp, #96]
 3370 0012 9DF86490 		ldrb	r9, [sp, #100]	@ zero_extendqisi2
ARM GAS  C:\Users\Mxuan\AppData\Local\Temp\ccSEBS4R.s 			page 82


 974:Libraries/ctrl_sdk/src/lib_printf.c ****   char buf[PRINTF_DECIMAL_BUFFER_SIZE];
 3371              		.loc 1 974 3 is_stmt 1 view .LVU834
 975:Libraries/ctrl_sdk/src/lib_printf.c ****   printf_size_t len = 0U;
 3372              		.loc 1 975 3 view .LVU835
 3373              	.LVL335:
 976:Libraries/ctrl_sdk/src/lib_printf.c **** 
 977:Libraries/ctrl_sdk/src/lib_printf.c ****   // test for special values
 978:Libraries/ctrl_sdk/src/lib_printf.c ****   if (value != value) {
 3374              		.loc 1 978 3 view .LVU836
 3375              		.loc 1 978 6 is_stmt 0 view .LVU837
 3376 0016 1046     		mov	r0, r2
 3377              	.LVL336:
 3378              		.loc 1 978 6 view .LVU838
 3379 0018 1946     		mov	r1, r3
 3380 001a FFF7FEFF 		bl	__aeabi_dcmpeq
 3381              	.LVL337:
 3382              		.loc 1 978 6 view .LVU839
 3383 001e 0028     		cmp	r0, #0
 3384 0020 38D0     		beq	.L257
 979:Libraries/ctrl_sdk/src/lib_printf.c ****     out_rev_(output, "nan", 3, width, flags);
 980:Libraries/ctrl_sdk/src/lib_printf.c ****     return;
 981:Libraries/ctrl_sdk/src/lib_printf.c ****   }
 982:Libraries/ctrl_sdk/src/lib_printf.c ****   if (value < -DBL_MAX) {
 3385              		.loc 1 982 3 is_stmt 1 view .LVU840
 3386              		.loc 1 982 6 is_stmt 0 view .LVU841
 3387 0022 4FF0FF32 		mov	r2, #-1
 3388 0026 6FF48013 		mvn	r3, #1048576
 3389 002a 3046     		mov	r0, r6
 3390 002c 3946     		mov	r1, r7
 3391 002e FFF7FEFF 		bl	__aeabi_dcmplt
 3392              	.LVL338:
 3393 0032 0028     		cmp	r0, #0
 3394 0034 37D1     		bne	.L258
 983:Libraries/ctrl_sdk/src/lib_printf.c ****     out_rev_(output, "fni-", 4, width, flags);
 984:Libraries/ctrl_sdk/src/lib_printf.c ****     return;
 985:Libraries/ctrl_sdk/src/lib_printf.c ****   }
 986:Libraries/ctrl_sdk/src/lib_printf.c ****   if (value > DBL_MAX) {
 3395              		.loc 1 986 3 is_stmt 1 view .LVU842
 3396              		.loc 1 986 6 is_stmt 0 view .LVU843
 3397 0036 4FF0FF32 		mov	r2, #-1
 3398 003a 454B     		ldr	r3, .L260+16
 3399 003c 3046     		mov	r0, r6
 3400 003e 3946     		mov	r1, r7
 3401 0040 FFF7FEFF 		bl	__aeabi_dcmpgt
 3402              	.LVL339:
 3403 0044 0028     		cmp	r0, #0
 3404 0046 37D1     		bne	.L259
 987:Libraries/ctrl_sdk/src/lib_printf.c ****     out_rev_(output, (flags & FLAGS_PLUS) ? "fni+" : "fni", (flags & FLAGS_PLUS) ? 4U : 3U, width, 
 988:Libraries/ctrl_sdk/src/lib_printf.c ****     return;
 989:Libraries/ctrl_sdk/src/lib_printf.c ****   }
 990:Libraries/ctrl_sdk/src/lib_printf.c **** 
 991:Libraries/ctrl_sdk/src/lib_printf.c ****   if (!prefer_exponential &&
 3405              		.loc 1 991 3 is_stmt 1 view .LVU844
 3406              		.loc 1 991 6 is_stmt 0 view .LVU845
 3407 0048 B9F1000F 		cmp	r9, #0
 3408 004c 10D1     		bne	.L236
 3409              		.loc 1 991 27 discriminator 1 view .LVU846
ARM GAS  C:\Users\Mxuan\AppData\Local\Temp\ccSEBS4R.s 			page 83


 3410 004e 3CA3     		adr	r3, .L260
 3411 0050 D3E90023 		ldrd	r2, [r3]
 3412 0054 3046     		mov	r0, r6
 3413 0056 3946     		mov	r1, r7
 3414 0058 FFF7FEFF 		bl	__aeabi_dcmpgt
 3415              	.LVL340:
 3416 005c 0028     		cmp	r0, #0
 3417 005e 3ED1     		bne	.L237
 992:Libraries/ctrl_sdk/src/lib_printf.c ****       ((value > PRINTF_FLOAT_NOTATION_THRESHOLD) || (value < -PRINTF_FLOAT_NOTATION_THRESHOLD))) {
 3418              		.loc 1 992 50 view .LVU847
 3419 0060 39A3     		adr	r3, .L260+8
 3420 0062 D3E90023 		ldrd	r2, [r3]
 3421 0066 3046     		mov	r0, r6
 3422 0068 3946     		mov	r1, r7
 3423 006a FFF7FEFF 		bl	__aeabi_dcmplt
 3424              	.LVL341:
 3425 006e B0BB     		cbnz	r0, .L237
 3426              	.L236:
 993:Libraries/ctrl_sdk/src/lib_printf.c ****     // The required behavior of standard printf is to print _every_ integral-part digit -- which co
 994:Libraries/ctrl_sdk/src/lib_printf.c ****     // printing hundreds of characters, overflowing any fixed internal buffer and necessitating a m
 995:Libraries/ctrl_sdk/src/lib_printf.c ****     // implementation.
 996:Libraries/ctrl_sdk/src/lib_printf.c **** #if PRINTF_SUPPORT_EXPONENTIAL_SPECIFIERS
 997:Libraries/ctrl_sdk/src/lib_printf.c ****     print_exponential_number(output, value, precision, width, flags, buf, len);
 998:Libraries/ctrl_sdk/src/lib_printf.c **** #endif
 999:Libraries/ctrl_sdk/src/lib_printf.c ****     return;
1000:Libraries/ctrl_sdk/src/lib_printf.c ****   }
1001:Libraries/ctrl_sdk/src/lib_printf.c **** 
1002:Libraries/ctrl_sdk/src/lib_printf.c ****   // set default precision, if not set explicitly
1003:Libraries/ctrl_sdk/src/lib_printf.c ****   if (!(flags & FLAGS_PRECISION)) {
 3427              		.loc 1 1003 3 is_stmt 1 view .LVU848
 3428              		.loc 1 1003 6 is_stmt 0 view .LVU849
 3429 0070 18F4006F 		tst	r8, #2048
 3430 0074 42D0     		beq	.L249
 3431              	.L239:
 3432              	.LVL342:
1004:Libraries/ctrl_sdk/src/lib_printf.c ****     precision = PRINTF_DEFAULT_FLOAT_PRECISION;
 3433              		.loc 1 1004 15 view .LVU850
 3434 0076 0023     		movs	r3, #0
 3435              	.LVL343:
 3436              	.L241:
1005:Libraries/ctrl_sdk/src/lib_printf.c ****   }
1006:Libraries/ctrl_sdk/src/lib_printf.c **** 
1007:Libraries/ctrl_sdk/src/lib_printf.c ****   // limit precision so that our integer holding the fractional part does not overflow
1008:Libraries/ctrl_sdk/src/lib_printf.c ****   while ((len < PRINTF_DECIMAL_BUFFER_SIZE) && (precision > PRINTF_MAX_SUPPORTED_PRECISION)) {
 3437              		.loc 1 1008 45 is_stmt 1 view .LVU851
 3438 0078 1F2B     		cmp	r3, #31
 3439 007a 41D8     		bhi	.L242
 3440              		.loc 1 1008 45 is_stmt 0 discriminator 1 view .LVU852
 3441 007c 112C     		cmp	r4, #17
 3442 007e 3FD9     		bls	.L242
1009:Libraries/ctrl_sdk/src/lib_printf.c ****     buf[len++] = '0'; // This respects the precision in terms of result length only
 3443              		.loc 1 1009 5 is_stmt 1 view .LVU853
 3444              	.LVL344:
 3445              		.loc 1 1009 16 is_stmt 0 view .LVU854
 3446 0080 03F13802 		add	r2, r3, #56
 3447 0084 0DEB0201 		add	r1, sp, r2
 3448 0088 3022     		movs	r2, #48
ARM GAS  C:\Users\Mxuan\AppData\Local\Temp\ccSEBS4R.s 			page 84


 3449 008a 01F8202C 		strb	r2, [r1, #-32]
1010:Libraries/ctrl_sdk/src/lib_printf.c ****     precision--;
 3450              		.loc 1 1010 5 is_stmt 1 view .LVU855
 3451              		.loc 1 1010 14 is_stmt 0 view .LVU856
 3452 008e 013C     		subs	r4, r4, #1
 3453              	.LVL345:
1009:Libraries/ctrl_sdk/src/lib_printf.c ****     buf[len++] = '0'; // This respects the precision in terms of result length only
 3454              		.loc 1 1009 12 view .LVU857
 3455 0090 0133     		adds	r3, r3, #1
 3456              	.LVL346:
1009:Libraries/ctrl_sdk/src/lib_printf.c ****     buf[len++] = '0'; // This respects the precision in terms of result length only
 3457              		.loc 1 1009 12 view .LVU858
 3458 0092 F1E7     		b	.L241
 3459              	.LVL347:
 3460              	.L257:
 979:Libraries/ctrl_sdk/src/lib_printf.c ****     return;
 3461              		.loc 1 979 5 is_stmt 1 view .LVU859
 3462 0094 CDF80080 		str	r8, [sp]
 3463 0098 179B     		ldr	r3, [sp, #92]
 3464 009a 0322     		movs	r2, #3
 3465 009c 2D49     		ldr	r1, .L260+20
 3466 009e 2846     		mov	r0, r5
 3467 00a0 FFF7FEFF 		bl	out_rev_
 3468              	.LVL348:
 980:Libraries/ctrl_sdk/src/lib_printf.c ****   }
 3469              		.loc 1 980 5 view .LVU860
 3470 00a4 14E0     		b	.L226
 3471              	.L258:
 983:Libraries/ctrl_sdk/src/lib_printf.c ****     return;
 3472              		.loc 1 983 5 view .LVU861
 3473 00a6 CDF80080 		str	r8, [sp]
 3474 00aa 179B     		ldr	r3, [sp, #92]
 3475 00ac 0422     		movs	r2, #4
 3476 00ae 2A49     		ldr	r1, .L260+24
 3477 00b0 2846     		mov	r0, r5
 3478 00b2 FFF7FEFF 		bl	out_rev_
 3479              	.LVL349:
 984:Libraries/ctrl_sdk/src/lib_printf.c ****   }
 3480              		.loc 1 984 5 view .LVU862
 3481 00b6 0BE0     		b	.L226
 3482              	.L259:
 987:Libraries/ctrl_sdk/src/lib_printf.c ****     return;
 3483              		.loc 1 987 5 view .LVU863
 3484 00b8 18F00403 		ands	r3, r8, #4
 3485 00bc 0BD0     		beq	.L247
 3486 00be 2749     		ldr	r1, .L260+28
 3487              	.L234:
 987:Libraries/ctrl_sdk/src/lib_printf.c ****     return;
 3488              		.loc 1 987 5 is_stmt 0 discriminator 4 view .LVU864
 3489 00c0 5BB1     		cbz	r3, .L248
 987:Libraries/ctrl_sdk/src/lib_printf.c ****     return;
 3490              		.loc 1 987 5 view .LVU865
 3491 00c2 0422     		movs	r2, #4
 3492              	.L235:
 987:Libraries/ctrl_sdk/src/lib_printf.c ****     return;
 3493              		.loc 1 987 5 discriminator 8 view .LVU866
 3494 00c4 CDF80080 		str	r8, [sp]
ARM GAS  C:\Users\Mxuan\AppData\Local\Temp\ccSEBS4R.s 			page 85


 3495 00c8 179B     		ldr	r3, [sp, #92]
 3496 00ca 2846     		mov	r0, r5
 3497 00cc FFF7FEFF 		bl	out_rev_
 3498              	.LVL350:
 988:Libraries/ctrl_sdk/src/lib_printf.c ****   }
 3499              		.loc 1 988 5 is_stmt 1 discriminator 8 view .LVU867
 3500              	.L226:
1011:Libraries/ctrl_sdk/src/lib_printf.c ****   }
1012:Libraries/ctrl_sdk/src/lib_printf.c **** 
1013:Libraries/ctrl_sdk/src/lib_printf.c **** #if PRINTF_SUPPORT_EXPONENTIAL_SPECIFIERS
1014:Libraries/ctrl_sdk/src/lib_printf.c ****   if (prefer_exponential)
1015:Libraries/ctrl_sdk/src/lib_printf.c ****     print_exponential_number(output, value, precision, width, flags, buf, len);
1016:Libraries/ctrl_sdk/src/lib_printf.c ****   else
1017:Libraries/ctrl_sdk/src/lib_printf.c **** #endif
1018:Libraries/ctrl_sdk/src/lib_printf.c ****     print_decimal_number(output, value, precision, width, flags, buf, len);
1019:Libraries/ctrl_sdk/src/lib_printf.c **** }
 3501              		.loc 1 1019 1 is_stmt 0 view .LVU868
 3502 00d0 0FB0     		add	sp, sp, #60
 3503              	.LCFI56:
 3504              		.cfi_remember_state
 3505              		.cfi_def_cfa_offset 28
 3506              		@ sp needed
 3507 00d2 BDE8F083 		pop	{r4, r5, r6, r7, r8, r9, pc}
 3508              	.LVL351:
 3509              	.L247:
 3510              	.LCFI57:
 3511              		.cfi_restore_state
 987:Libraries/ctrl_sdk/src/lib_printf.c ****     return;
 3512              		.loc 1 987 5 view .LVU869
 3513 00d6 2249     		ldr	r1, .L260+32
 3514 00d8 F2E7     		b	.L234
 3515              	.L248:
 3516 00da 0322     		movs	r2, #3
 3517 00dc F2E7     		b	.L235
 3518              	.L237:
 997:Libraries/ctrl_sdk/src/lib_printf.c **** #endif
 3519              		.loc 1 997 5 is_stmt 1 view .LVU870
 3520 00de 0023     		movs	r3, #0
 3521 00e0 0493     		str	r3, [sp, #16]
 3522 00e2 06AB     		add	r3, sp, #24
 3523 00e4 0393     		str	r3, [sp, #12]
 3524 00e6 CDF80880 		str	r8, [sp, #8]
 3525 00ea 179B     		ldr	r3, [sp, #92]
 3526 00ec 0193     		str	r3, [sp, #4]
 3527 00ee 0094     		str	r4, [sp]
 3528 00f0 3246     		mov	r2, r6
 3529 00f2 3B46     		mov	r3, r7
 3530 00f4 2846     		mov	r0, r5
 3531 00f6 FFF7FEFF 		bl	print_exponential_number
 3532              	.LVL352:
 999:Libraries/ctrl_sdk/src/lib_printf.c ****   }
 3533              		.loc 1 999 5 view .LVU871
 3534 00fa E9E7     		b	.L226
 3535              	.L249:
1004:Libraries/ctrl_sdk/src/lib_printf.c ****   }
 3536              		.loc 1 1004 15 is_stmt 0 view .LVU872
 3537 00fc 0524     		movs	r4, #5
ARM GAS  C:\Users\Mxuan\AppData\Local\Temp\ccSEBS4R.s 			page 86


 3538 00fe BAE7     		b	.L239
 3539              	.LVL353:
 3540              	.L242:
1014:Libraries/ctrl_sdk/src/lib_printf.c ****     print_exponential_number(output, value, precision, width, flags, buf, len);
 3541              		.loc 1 1014 3 is_stmt 1 view .LVU873
1014:Libraries/ctrl_sdk/src/lib_printf.c ****     print_exponential_number(output, value, precision, width, flags, buf, len);
 3542              		.loc 1 1014 6 is_stmt 0 view .LVU874
 3543 0100 B9F1000F 		cmp	r9, #0
 3544 0104 0DD0     		beq	.L244
1015:Libraries/ctrl_sdk/src/lib_printf.c ****   else
 3545              		.loc 1 1015 5 is_stmt 1 view .LVU875
 3546 0106 0493     		str	r3, [sp, #16]
 3547 0108 06AB     		add	r3, sp, #24
 3548              	.LVL354:
1015:Libraries/ctrl_sdk/src/lib_printf.c ****   else
 3549              		.loc 1 1015 5 is_stmt 0 view .LVU876
 3550 010a 0393     		str	r3, [sp, #12]
 3551 010c CDF80880 		str	r8, [sp, #8]
 3552 0110 179B     		ldr	r3, [sp, #92]
 3553 0112 0193     		str	r3, [sp, #4]
 3554 0114 0094     		str	r4, [sp]
 3555 0116 3246     		mov	r2, r6
 3556 0118 3B46     		mov	r3, r7
 3557 011a 2846     		mov	r0, r5
 3558 011c FFF7FEFF 		bl	print_exponential_number
 3559              	.LVL355:
1015:Libraries/ctrl_sdk/src/lib_printf.c ****   else
 3560              		.loc 1 1015 5 view .LVU877
 3561 0120 D6E7     		b	.L226
 3562              	.LVL356:
 3563              	.L244:
1018:Libraries/ctrl_sdk/src/lib_printf.c **** }
 3564              		.loc 1 1018 5 is_stmt 1 view .LVU878
 3565 0122 0493     		str	r3, [sp, #16]
 3566 0124 06AB     		add	r3, sp, #24
 3567              	.LVL357:
1018:Libraries/ctrl_sdk/src/lib_printf.c **** }
 3568              		.loc 1 1018 5 is_stmt 0 view .LVU879
 3569 0126 0393     		str	r3, [sp, #12]
 3570 0128 CDF80880 		str	r8, [sp, #8]
 3571 012c 179B     		ldr	r3, [sp, #92]
 3572 012e 0193     		str	r3, [sp, #4]
 3573 0130 0094     		str	r4, [sp]
 3574 0132 3246     		mov	r2, r6
 3575 0134 3B46     		mov	r3, r7
 3576 0136 2846     		mov	r0, r5
 3577 0138 FFF7FEFF 		bl	print_decimal_number
 3578              	.LVL358:
1018:Libraries/ctrl_sdk/src/lib_printf.c **** }
 3579              		.loc 1 1018 5 view .LVU880
 3580 013c C8E7     		b	.L226
 3581              	.L261:
 3582 013e 00BF     		.align	3
 3583              	.L260:
 3584 0140 00000000 		.word	0
 3585 0144 65CDCD41 		.word	1104006501
 3586 0148 00000000 		.word	0
ARM GAS  C:\Users\Mxuan\AppData\Local\Temp\ccSEBS4R.s 			page 87


 3587 014c 65CDCDC1 		.word	-1043477147
 3588 0150 FFFFEF7F 		.word	2146435071
 3589 0154 0C000000 		.word	.LC2
 3590 0158 10000000 		.word	.LC3
 3591 015c 00000000 		.word	.LC0
 3592 0160 08000000 		.word	.LC1
 3593              		.cfi_endproc
 3594              	.LFE27:
 3596              		.section	.text.parse_flags,"ax",%progbits
 3597              		.align	1
 3598              		.syntax unified
 3599              		.thumb
 3600              		.thumb_func
 3602              	parse_flags:
 3603              	.LVL359:
 3604              	.LFB28:
1020:Libraries/ctrl_sdk/src/lib_printf.c **** 
1021:Libraries/ctrl_sdk/src/lib_printf.c **** #endif  // (PRINTF_SUPPORT_DECIMAL_SPECIFIERS || PRINTF_SUPPORT_EXPONENTIAL_SPECIFIERS)
1022:Libraries/ctrl_sdk/src/lib_printf.c **** 
1023:Libraries/ctrl_sdk/src/lib_printf.c **** // Advances the format pointer past the flags, and returns the parsed flags
1024:Libraries/ctrl_sdk/src/lib_printf.c **** // due to the characters passed
1025:Libraries/ctrl_sdk/src/lib_printf.c **** static printf_flags_t parse_flags(const char** format)
1026:Libraries/ctrl_sdk/src/lib_printf.c **** {
 3605              		.loc 1 1026 1 is_stmt 1 view -0
 3606              		.cfi_startproc
 3607              		@ args = 0, pretend = 0, frame = 0
 3608              		@ frame_needed = 0, uses_anonymous_args = 0
 3609              		@ link register save eliminated.
 3610              		.loc 1 1026 1 is_stmt 0 view .LVU882
 3611 0000 0146     		mov	r1, r0
1027:Libraries/ctrl_sdk/src/lib_printf.c ****   printf_flags_t flags = 0U;
 3612              		.loc 1 1027 3 is_stmt 1 view .LVU883
 3613              	.LVL360:
 3614              		.loc 1 1027 18 is_stmt 0 view .LVU884
 3615 0002 0020     		movs	r0, #0
 3616              	.LVL361:
 3617              	.L263:
1028:Libraries/ctrl_sdk/src/lib_printf.c ****   do {
 3618              		.loc 1 1028 3 is_stmt 1 view .LVU885
1029:Libraries/ctrl_sdk/src/lib_printf.c ****     switch (**format) {
 3619              		.loc 1 1029 5 view .LVU886
 3620              		.loc 1 1029 14 is_stmt 0 view .LVU887
 3621 0004 0A68     		ldr	r2, [r1]
 3622              		.loc 1 1029 13 view .LVU888
 3623 0006 1378     		ldrb	r3, [r2]	@ zero_extendqisi2
 3624              		.loc 1 1029 5 view .LVU889
 3625 0008 203B     		subs	r3, r3, #32
 3626 000a 102B     		cmp	r3, #16
 3627 000c 23D8     		bhi	.L262
 3628 000e DFE803F0 		tbb	[pc, r3]
 3629              	.L266:
 3630 0012 18       		.byte	(.L270-.L266)/2
 3631 0013 22       		.byte	(.L262-.L266)/2
 3632 0014 22       		.byte	(.L262-.L266)/2
 3633 0015 1D       		.byte	(.L269-.L266)/2
 3634 0016 22       		.byte	(.L262-.L266)/2
 3635 0017 22       		.byte	(.L262-.L266)/2
ARM GAS  C:\Users\Mxuan\AppData\Local\Temp\ccSEBS4R.s 			page 88


 3636 0018 22       		.byte	(.L262-.L266)/2
 3637 0019 22       		.byte	(.L262-.L266)/2
 3638 001a 22       		.byte	(.L262-.L266)/2
 3639 001b 22       		.byte	(.L262-.L266)/2
 3640 001c 22       		.byte	(.L262-.L266)/2
 3641 001d 13       		.byte	(.L268-.L266)/2
 3642 001e 22       		.byte	(.L262-.L266)/2
 3643 001f 0E       		.byte	(.L267-.L266)/2
 3644 0020 22       		.byte	(.L262-.L266)/2
 3645 0021 22       		.byte	(.L262-.L266)/2
 3646 0022 09       		.byte	(.L265-.L266)/2
 3647 0023 00       		.p2align 1
 3648              	.L265:
1030:Libraries/ctrl_sdk/src/lib_printf.c ****       case '0': flags |= FLAGS_ZEROPAD; (*format)++; break;
 3649              		.loc 1 1030 17 is_stmt 1 view .LVU890
 3650              		.loc 1 1030 23 is_stmt 0 view .LVU891
 3651 0024 40F00100 		orr	r0, r0, #1
 3652              	.LVL362:
 3653              		.loc 1 1030 41 is_stmt 1 view .LVU892
 3654              		.loc 1 1030 50 is_stmt 0 view .LVU893
 3655 0028 0132     		adds	r2, r2, #1
 3656 002a 0A60     		str	r2, [r1]
 3657              		.loc 1 1030 54 is_stmt 1 view .LVU894
 3658 002c EAE7     		b	.L263
 3659              	.L267:
1031:Libraries/ctrl_sdk/src/lib_printf.c ****       case '-': flags |= FLAGS_LEFT;    (*format)++; break;
 3660              		.loc 1 1031 17 view .LVU895
 3661              		.loc 1 1031 23 is_stmt 0 view .LVU896
 3662 002e 40F00200 		orr	r0, r0, #2
 3663              	.LVL363:
 3664              		.loc 1 1031 41 is_stmt 1 view .LVU897
 3665              		.loc 1 1031 50 is_stmt 0 view .LVU898
 3666 0032 0132     		adds	r2, r2, #1
 3667 0034 0A60     		str	r2, [r1]
 3668              		.loc 1 1031 54 is_stmt 1 view .LVU899
 3669 0036 E5E7     		b	.L263
 3670              	.L268:
1032:Libraries/ctrl_sdk/src/lib_printf.c ****       case '+': flags |= FLAGS_PLUS;    (*format)++; break;
 3671              		.loc 1 1032 17 view .LVU900
 3672              		.loc 1 1032 23 is_stmt 0 view .LVU901
 3673 0038 40F00400 		orr	r0, r0, #4
 3674              	.LVL364:
 3675              		.loc 1 1032 41 is_stmt 1 view .LVU902
 3676              		.loc 1 1032 50 is_stmt 0 view .LVU903
 3677 003c 0132     		adds	r2, r2, #1
 3678 003e 0A60     		str	r2, [r1]
 3679              		.loc 1 1032 54 is_stmt 1 view .LVU904
 3680 0040 E0E7     		b	.L263
 3681              	.L270:
1033:Libraries/ctrl_sdk/src/lib_printf.c ****       case ' ': flags |= FLAGS_SPACE;   (*format)++; break;
 3682              		.loc 1 1033 17 view .LVU905
 3683              		.loc 1 1033 23 is_stmt 0 view .LVU906
 3684 0042 40F00800 		orr	r0, r0, #8
 3685              	.LVL365:
 3686              		.loc 1 1033 41 is_stmt 1 view .LVU907
 3687              		.loc 1 1033 50 is_stmt 0 view .LVU908
 3688 0046 0132     		adds	r2, r2, #1
ARM GAS  C:\Users\Mxuan\AppData\Local\Temp\ccSEBS4R.s 			page 89


 3689 0048 0A60     		str	r2, [r1]
 3690              		.loc 1 1033 54 is_stmt 1 view .LVU909
 3691 004a DBE7     		b	.L263
 3692              	.L269:
1034:Libraries/ctrl_sdk/src/lib_printf.c ****       case '#': flags |= FLAGS_HASH;    (*format)++; break;
 3693              		.loc 1 1034 17 view .LVU910
 3694              		.loc 1 1034 23 is_stmt 0 view .LVU911
 3695 004c 40F01000 		orr	r0, r0, #16
 3696              	.LVL366:
 3697              		.loc 1 1034 41 is_stmt 1 view .LVU912
 3698              		.loc 1 1034 50 is_stmt 0 view .LVU913
 3699 0050 0132     		adds	r2, r2, #1
 3700 0052 0A60     		str	r2, [r1]
 3701              		.loc 1 1034 54 is_stmt 1 view .LVU914
 3702 0054 D6E7     		b	.L263
 3703              	.L262:
1035:Libraries/ctrl_sdk/src/lib_printf.c ****       default : return flags;
1036:Libraries/ctrl_sdk/src/lib_printf.c ****     }
1037:Libraries/ctrl_sdk/src/lib_printf.c ****   } while (true);
1038:Libraries/ctrl_sdk/src/lib_printf.c **** }
 3704              		.loc 1 1038 1 is_stmt 0 view .LVU915
 3705 0056 7047     		bx	lr
 3706              		.cfi_endproc
 3707              	.LFE28:
 3709              		.section	.rodata.format_string_loop.str1.4,"aMS",%progbits,1
 3710              		.align	2
 3711              	.LC4:
 3712 0000 296C6C75 		.ascii	")llun(\000"
 3712      6E2800
 3713 0007 00       		.align	2
 3714              	.LC5:
 3715 0008 296C696E 		.ascii	")lin(\000"
 3715      2800
 3716              		.section	.text.format_string_loop,"ax",%progbits
 3717              		.align	1
 3718              		.syntax unified
 3719              		.thumb
 3720              		.thumb_func
 3722              	format_string_loop:
 3723              	.LVL367:
 3724              	.LFB29:
1039:Libraries/ctrl_sdk/src/lib_printf.c **** 
1040:Libraries/ctrl_sdk/src/lib_printf.c **** static inline void format_string_loop(output_gadget_t* output, const char* format, va_list args)
1041:Libraries/ctrl_sdk/src/lib_printf.c **** {
 3725              		.loc 1 1041 1 is_stmt 1 view -0
 3726              		.cfi_startproc
 3727              		@ args = 0, pretend = 0, frame = 8
 3728              		@ frame_needed = 0, uses_anonymous_args = 0
 3729              		.loc 1 1041 1 is_stmt 0 view .LVU917
 3730 0000 2DE9F04F 		push	{r4, r5, r6, r7, r8, r9, r10, fp, lr}
 3731              	.LCFI58:
 3732              		.cfi_def_cfa_offset 36
 3733              		.cfi_offset 4, -36
 3734              		.cfi_offset 5, -32
 3735              		.cfi_offset 6, -28
 3736              		.cfi_offset 7, -24
 3737              		.cfi_offset 8, -20
ARM GAS  C:\Users\Mxuan\AppData\Local\Temp\ccSEBS4R.s 			page 90


 3738              		.cfi_offset 9, -16
 3739              		.cfi_offset 10, -12
 3740              		.cfi_offset 11, -8
 3741              		.cfi_offset 14, -4
 3742 0004 87B0     		sub	sp, sp, #28
 3743              	.LCFI59:
 3744              		.cfi_def_cfa_offset 64
 3745 0006 0546     		mov	r5, r0
 3746 0008 0591     		str	r1, [sp, #20]
 3747 000a 0492     		str	r2, [sp, #16]
1042:Libraries/ctrl_sdk/src/lib_printf.c **** #if PRINTF_CHECK_FOR_NUL_IN_FORMAT_SPECIFIER
1043:Libraries/ctrl_sdk/src/lib_printf.c **** #define ADVANCE_IN_FORMAT_STRING(cptr_) do { (cptr_)++; if (!*(cptr_)) return; } while(0)
1044:Libraries/ctrl_sdk/src/lib_printf.c **** #else
1045:Libraries/ctrl_sdk/src/lib_printf.c **** #define ADVANCE_IN_FORMAT_STRING(cptr_) (cptr_)++
1046:Libraries/ctrl_sdk/src/lib_printf.c **** #endif
1047:Libraries/ctrl_sdk/src/lib_printf.c **** 
1048:Libraries/ctrl_sdk/src/lib_printf.c **** 
1049:Libraries/ctrl_sdk/src/lib_printf.c ****   while (*format)
 3748              		.loc 1 1049 3 is_stmt 1 view .LVU918
 3749              		.loc 1 1049 9 is_stmt 0 view .LVU919
 3750 000c 05E0     		b	.L273
 3751              	.LVL368:
 3752              	.L360:
 3753              	.LBB81:
1050:Libraries/ctrl_sdk/src/lib_printf.c ****   {
1051:Libraries/ctrl_sdk/src/lib_printf.c ****     if (*format != '%') {
1052:Libraries/ctrl_sdk/src/lib_printf.c ****       // A regular content character
1053:Libraries/ctrl_sdk/src/lib_printf.c ****       putchar_via_gadget(output, *format);
 3754              		.loc 1 1053 7 is_stmt 1 discriminator 1 view .LVU920
 3755 000e 2846     		mov	r0, r5
 3756 0010 FFF7FEFF 		bl	putchar_via_gadget
 3757              	.LVL369:
1054:Libraries/ctrl_sdk/src/lib_printf.c ****       format++;
 3758              		.loc 1 1054 7 discriminator 1 view .LVU921
 3759              		.loc 1 1054 13 is_stmt 0 discriminator 1 view .LVU922
 3760 0014 059B     		ldr	r3, [sp, #20]
 3761 0016 0133     		adds	r3, r3, #1
 3762 0018 0593     		str	r3, [sp, #20]
1055:Libraries/ctrl_sdk/src/lib_printf.c ****       continue;
 3763              		.loc 1 1055 7 is_stmt 1 discriminator 1 view .LVU923
 3764              	.L273:
 3765              		.loc 1 1055 7 is_stmt 0 discriminator 1 view .LVU924
 3766              	.LBE81:
1049:Libraries/ctrl_sdk/src/lib_printf.c ****   {
 3767              		.loc 1 1049 10 is_stmt 1 view .LVU925
 3768 001a 059B     		ldr	r3, [sp, #20]
 3769 001c 1978     		ldrb	r1, [r3]	@ zero_extendqisi2
 3770 001e 0029     		cmp	r1, #0
 3771 0020 44D0     		beq	.L272
 3772              	.LBB105:
1051:Libraries/ctrl_sdk/src/lib_printf.c ****       // A regular content character
 3773              		.loc 1 1051 5 view .LVU926
1051:Libraries/ctrl_sdk/src/lib_printf.c ****       // A regular content character
 3774              		.loc 1 1051 8 is_stmt 0 view .LVU927
 3775 0022 2529     		cmp	r1, #37
 3776 0024 F3D1     		bne	.L360
1056:Libraries/ctrl_sdk/src/lib_printf.c ****     }
ARM GAS  C:\Users\Mxuan\AppData\Local\Temp\ccSEBS4R.s 			page 91


1057:Libraries/ctrl_sdk/src/lib_printf.c ****     // We're parsing a format specifier: %[flags][width][.precision][length]
1058:Libraries/ctrl_sdk/src/lib_printf.c ****     ADVANCE_IN_FORMAT_STRING(format);
 3777              		.loc 1 1058 5 is_stmt 1 view .LVU928
 3778              		.loc 1 1058 5 view .LVU929
 3779 0026 5A1C     		adds	r2, r3, #1
 3780 0028 0592     		str	r2, [sp, #20]
 3781              		.loc 1 1058 5 view .LVU930
 3782 002a 5B78     		ldrb	r3, [r3, #1]	@ zero_extendqisi2
 3783 002c 002B     		cmp	r3, #0
 3784 002e 3DD0     		beq	.L272
 3785              		.loc 1 1058 5 discriminator 2 view .LVU931
1059:Libraries/ctrl_sdk/src/lib_printf.c **** 
1060:Libraries/ctrl_sdk/src/lib_printf.c ****     printf_flags_t flags = parse_flags(&format);
 3786              		.loc 1 1060 5 discriminator 2 view .LVU932
 3787              		.loc 1 1060 28 is_stmt 0 discriminator 2 view .LVU933
 3788 0030 05A8     		add	r0, sp, #20
 3789 0032 FFF7FEFF 		bl	parse_flags
 3790              	.LVL370:
 3791 0036 0446     		mov	r4, r0
 3792              	.LVL371:
1061:Libraries/ctrl_sdk/src/lib_printf.c **** 
1062:Libraries/ctrl_sdk/src/lib_printf.c ****     // evaluate width field
1063:Libraries/ctrl_sdk/src/lib_printf.c ****     printf_size_t width = 0U;
 3793              		.loc 1 1063 5 is_stmt 1 discriminator 2 view .LVU934
1064:Libraries/ctrl_sdk/src/lib_printf.c ****     if (is_digit_(*format)) {
 3794              		.loc 1 1064 5 discriminator 2 view .LVU935
 3795              		.loc 1 1064 9 is_stmt 0 discriminator 2 view .LVU936
 3796 0038 059B     		ldr	r3, [sp, #20]
 3797 003a 1A78     		ldrb	r2, [r3]	@ zero_extendqisi2
 3798              	.LVL372:
 3799              	.LBB82:
 3800              	.LBI82:
 414:Libraries/ctrl_sdk/src/lib_printf.c **** {
 3801              		.loc 1 414 20 is_stmt 1 discriminator 2 view .LVU937
 3802              	.LBB83:
 416:Libraries/ctrl_sdk/src/lib_printf.c **** }
 3803              		.loc 1 416 3 discriminator 2 view .LVU938
 416:Libraries/ctrl_sdk/src/lib_printf.c **** }
 3804              		.loc 1 416 22 is_stmt 0 discriminator 2 view .LVU939
 3805 003c A2F13003 		sub	r3, r2, #48
 3806 0040 DBB2     		uxtb	r3, r3
 3807              	.LVL373:
 416:Libraries/ctrl_sdk/src/lib_printf.c **** }
 3808              		.loc 1 416 22 discriminator 2 view .LVU940
 3809              	.LBE83:
 3810              	.LBE82:
 3811              		.loc 1 1064 8 discriminator 2 view .LVU941
 3812 0042 092B     		cmp	r3, #9
 3813 0044 21D9     		bls	.L361
1065:Libraries/ctrl_sdk/src/lib_printf.c ****       width = (printf_size_t) atou_(&format);
1066:Libraries/ctrl_sdk/src/lib_printf.c ****     }
1067:Libraries/ctrl_sdk/src/lib_printf.c ****     else if (*format == '*') {
 3814              		.loc 1 1067 10 is_stmt 1 view .LVU942
 3815              		.loc 1 1067 13 is_stmt 0 view .LVU943
 3816 0046 2A2A     		cmp	r2, #42
 3817 0048 24D0     		beq	.L362
1063:Libraries/ctrl_sdk/src/lib_printf.c ****     if (is_digit_(*format)) {
ARM GAS  C:\Users\Mxuan\AppData\Local\Temp\ccSEBS4R.s 			page 92


 3818              		.loc 1 1063 19 view .LVU944
 3819 004a 0027     		movs	r7, #0
 3820              	.LVL374:
 3821              	.L278:
 3822              	.LBB84:
1068:Libraries/ctrl_sdk/src/lib_printf.c ****       const int w = va_arg(args, int);
1069:Libraries/ctrl_sdk/src/lib_printf.c ****       if (w < 0) {
1070:Libraries/ctrl_sdk/src/lib_printf.c ****         flags |= FLAGS_LEFT;    // reverse padding
1071:Libraries/ctrl_sdk/src/lib_printf.c ****         width = (printf_size_t)-w;
1072:Libraries/ctrl_sdk/src/lib_printf.c ****       }
1073:Libraries/ctrl_sdk/src/lib_printf.c ****       else {
1074:Libraries/ctrl_sdk/src/lib_printf.c ****         width = (printf_size_t)w;
1075:Libraries/ctrl_sdk/src/lib_printf.c ****       }
1076:Libraries/ctrl_sdk/src/lib_printf.c ****       ADVANCE_IN_FORMAT_STRING(format);
 3823              		.loc 1 1076 7 is_stmt 1 discriminator 2 view .LVU945
 3824              	.LBE84:
1077:Libraries/ctrl_sdk/src/lib_printf.c ****     }
1078:Libraries/ctrl_sdk/src/lib_printf.c **** 
1079:Libraries/ctrl_sdk/src/lib_printf.c ****     // evaluate precision field
1080:Libraries/ctrl_sdk/src/lib_printf.c ****     printf_size_t precision = 0U;
 3825              		.loc 1 1080 5 discriminator 2 view .LVU946
1081:Libraries/ctrl_sdk/src/lib_printf.c ****     if (*format == '.') {
 3826              		.loc 1 1081 5 discriminator 2 view .LVU947
 3827              		.loc 1 1081 9 is_stmt 0 discriminator 2 view .LVU948
 3828 004c 059B     		ldr	r3, [sp, #20]
 3829 004e 1A78     		ldrb	r2, [r3]	@ zero_extendqisi2
 3830              		.loc 1 1081 8 discriminator 2 view .LVU949
 3831 0050 2E2A     		cmp	r2, #46
 3832 0052 32D0     		beq	.L363
1080:Libraries/ctrl_sdk/src/lib_printf.c ****     if (*format == '.') {
 3833              		.loc 1 1080 19 view .LVU950
 3834 0054 0026     		movs	r6, #0
 3835              	.LVL375:
 3836              	.L281:
 3837              	.LBB85:
1082:Libraries/ctrl_sdk/src/lib_printf.c ****       flags |= FLAGS_PRECISION;
1083:Libraries/ctrl_sdk/src/lib_printf.c ****       ADVANCE_IN_FORMAT_STRING(format);
1084:Libraries/ctrl_sdk/src/lib_printf.c ****       if (is_digit_(*format)) {
1085:Libraries/ctrl_sdk/src/lib_printf.c ****         precision = (printf_size_t) atou_(&format);
1086:Libraries/ctrl_sdk/src/lib_printf.c ****       }
1087:Libraries/ctrl_sdk/src/lib_printf.c ****       else if (*format == '*') {
1088:Libraries/ctrl_sdk/src/lib_printf.c ****         const int precision_ = va_arg(args, int);
1089:Libraries/ctrl_sdk/src/lib_printf.c ****         precision = precision_ > 0 ? (printf_size_t) precision_ : 0U;
1090:Libraries/ctrl_sdk/src/lib_printf.c ****         ADVANCE_IN_FORMAT_STRING(format);
 3838              		.loc 1 1090 9 is_stmt 1 discriminator 2 view .LVU951
 3839              	.LBE85:
1091:Libraries/ctrl_sdk/src/lib_printf.c ****       }
1092:Libraries/ctrl_sdk/src/lib_printf.c ****     }
1093:Libraries/ctrl_sdk/src/lib_printf.c **** 
1094:Libraries/ctrl_sdk/src/lib_printf.c ****     // evaluate length field
1095:Libraries/ctrl_sdk/src/lib_printf.c ****     switch (*format) {
 3840              		.loc 1 1095 5 discriminator 2 view .LVU952
 3841              		.loc 1 1095 13 is_stmt 0 discriminator 2 view .LVU953
 3842 0056 059A     		ldr	r2, [sp, #20]
 3843 0058 1378     		ldrb	r3, [r2]	@ zero_extendqisi2
 3844              		.loc 1 1095 5 discriminator 2 view .LVU954
 3845 005a 683B     		subs	r3, r3, #104
ARM GAS  C:\Users\Mxuan\AppData\Local\Temp\ccSEBS4R.s 			page 93


 3846 005c 122B     		cmp	r3, #18
 3847 005e 79D8     		bhi	.L283
 3848 0060 DFE813F0 		tbh	[pc, r3, lsl #1]
 3849              	.L285:
 3850 0064 5F00     		.2byte	(.L289-.L285)/2
 3851 0066 7800     		.2byte	(.L283-.L285)/2
 3852 0068 D500     		.2byte	(.L288-.L285)/2
 3853 006a 7800     		.2byte	(.L283-.L285)/2
 3854 006c 4D00     		.2byte	(.L287-.L285)/2
 3855 006e 7800     		.2byte	(.L283-.L285)/2
 3856 0070 7800     		.2byte	(.L283-.L285)/2
 3857 0072 7800     		.2byte	(.L283-.L285)/2
 3858 0074 7800     		.2byte	(.L283-.L285)/2
 3859 0076 7800     		.2byte	(.L283-.L285)/2
 3860 0078 7800     		.2byte	(.L283-.L285)/2
 3861 007a 7800     		.2byte	(.L283-.L285)/2
 3862 007c 7100     		.2byte	(.L286-.L285)/2
 3863 007e 7800     		.2byte	(.L283-.L285)/2
 3864 0080 7800     		.2byte	(.L283-.L285)/2
 3865 0082 7800     		.2byte	(.L283-.L285)/2
 3866 0084 7800     		.2byte	(.L283-.L285)/2
 3867 0086 7800     		.2byte	(.L283-.L285)/2
 3868 0088 DD00     		.2byte	(.L284-.L285)/2
 3869              	.LVL376:
 3870              		.p2align 1
 3871              	.L361:
1065:Libraries/ctrl_sdk/src/lib_printf.c ****     }
 3872              		.loc 1 1065 7 is_stmt 1 view .LVU955
1065:Libraries/ctrl_sdk/src/lib_printf.c ****     }
 3873              		.loc 1 1065 31 is_stmt 0 view .LVU956
 3874 008a 05A8     		add	r0, sp, #20
 3875              	.LVL377:
1065:Libraries/ctrl_sdk/src/lib_printf.c ****     }
 3876              		.loc 1 1065 31 view .LVU957
 3877 008c FFF7FEFF 		bl	atou_
 3878              	.LVL378:
 3879 0090 0746     		mov	r7, r0
 3880              	.LVL379:
1065:Libraries/ctrl_sdk/src/lib_printf.c ****     }
 3881              		.loc 1 1065 31 view .LVU958
 3882 0092 DBE7     		b	.L278
 3883              	.LVL380:
 3884              	.L362:
 3885              	.LBB86:
1068:Libraries/ctrl_sdk/src/lib_printf.c ****       if (w < 0) {
 3886              		.loc 1 1068 7 is_stmt 1 view .LVU959
1068:Libraries/ctrl_sdk/src/lib_printf.c ****       if (w < 0) {
 3887              		.loc 1 1068 17 is_stmt 0 view .LVU960
 3888 0094 049B     		ldr	r3, [sp, #16]
 3889 0096 1A1D     		adds	r2, r3, #4
 3890 0098 0492     		str	r2, [sp, #16]
 3891 009a 1F68     		ldr	r7, [r3]
1069:Libraries/ctrl_sdk/src/lib_printf.c ****         flags |= FLAGS_LEFT;    // reverse padding
 3892              		.loc 1 1069 7 is_stmt 1 view .LVU961
1069:Libraries/ctrl_sdk/src/lib_printf.c ****         flags |= FLAGS_LEFT;    // reverse padding
 3893              		.loc 1 1069 10 is_stmt 0 view .LVU962
 3894 009c 002F     		cmp	r7, #0
ARM GAS  C:\Users\Mxuan\AppData\Local\Temp\ccSEBS4R.s 			page 94


 3895 009e 08DB     		blt	.L364
 3896              	.LVL381:
 3897              	.L280:
1076:Libraries/ctrl_sdk/src/lib_printf.c ****     }
 3898              		.loc 1 1076 7 is_stmt 1 view .LVU963
1076:Libraries/ctrl_sdk/src/lib_printf.c ****     }
 3899              		.loc 1 1076 7 view .LVU964
 3900 00a0 059B     		ldr	r3, [sp, #20]
 3901 00a2 5A1C     		adds	r2, r3, #1
 3902 00a4 0592     		str	r2, [sp, #20]
1076:Libraries/ctrl_sdk/src/lib_printf.c ****     }
 3903              		.loc 1 1076 7 view .LVU965
 3904 00a6 5B78     		ldrb	r3, [r3, #1]	@ zero_extendqisi2
 3905 00a8 002B     		cmp	r3, #0
 3906 00aa CFD1     		bne	.L278
 3907              	.LVL382:
 3908              	.L272:
1076:Libraries/ctrl_sdk/src/lib_printf.c ****     }
 3909              		.loc 1 1076 7 is_stmt 0 view .LVU966
 3910              	.LBE86:
 3911              	.LBE105:
1096:Libraries/ctrl_sdk/src/lib_printf.c **** #ifdef PRINTF_SUPPORT_MSVC_STYLE_INTEGER_SPECIFIERS
1097:Libraries/ctrl_sdk/src/lib_printf.c ****       case 'I' : {
1098:Libraries/ctrl_sdk/src/lib_printf.c ****         ADVANCE_IN_FORMAT_STRING(format);
1099:Libraries/ctrl_sdk/src/lib_printf.c ****         // Greedily parse for size in bits: 8, 16, 32 or 64
1100:Libraries/ctrl_sdk/src/lib_printf.c ****         switch(*format) {
1101:Libraries/ctrl_sdk/src/lib_printf.c ****           case '8':               flags |= FLAGS_INT8;
1102:Libraries/ctrl_sdk/src/lib_printf.c ****             ADVANCE_IN_FORMAT_STRING(format);
1103:Libraries/ctrl_sdk/src/lib_printf.c ****             break;
1104:Libraries/ctrl_sdk/src/lib_printf.c ****           case '1':
1105:Libraries/ctrl_sdk/src/lib_printf.c ****             ADVANCE_IN_FORMAT_STRING(format);
1106:Libraries/ctrl_sdk/src/lib_printf.c ****           if (*format == '6') { format++; flags |= FLAGS_INT16; }
1107:Libraries/ctrl_sdk/src/lib_printf.c ****             break;
1108:Libraries/ctrl_sdk/src/lib_printf.c ****           case '3':
1109:Libraries/ctrl_sdk/src/lib_printf.c ****             ADVANCE_IN_FORMAT_STRING(format);
1110:Libraries/ctrl_sdk/src/lib_printf.c ****             if (*format == '2') { ADVANCE_IN_FORMAT_STRING(format); flags |= FLAGS_INT32; }
1111:Libraries/ctrl_sdk/src/lib_printf.c ****             break;
1112:Libraries/ctrl_sdk/src/lib_printf.c ****           case '6':
1113:Libraries/ctrl_sdk/src/lib_printf.c ****             ADVANCE_IN_FORMAT_STRING(format);
1114:Libraries/ctrl_sdk/src/lib_printf.c ****             if (*format == '4') { ADVANCE_IN_FORMAT_STRING(format); flags |= FLAGS_INT64; }
1115:Libraries/ctrl_sdk/src/lib_printf.c ****             break;
1116:Libraries/ctrl_sdk/src/lib_printf.c ****           default: break;
1117:Libraries/ctrl_sdk/src/lib_printf.c ****         }
1118:Libraries/ctrl_sdk/src/lib_printf.c ****         break;
1119:Libraries/ctrl_sdk/src/lib_printf.c ****       }
1120:Libraries/ctrl_sdk/src/lib_printf.c **** #endif
1121:Libraries/ctrl_sdk/src/lib_printf.c ****       case 'l' :
1122:Libraries/ctrl_sdk/src/lib_printf.c ****         flags |= FLAGS_LONG;
1123:Libraries/ctrl_sdk/src/lib_printf.c ****         ADVANCE_IN_FORMAT_STRING(format);
1124:Libraries/ctrl_sdk/src/lib_printf.c ****         if (*format == 'l') {
1125:Libraries/ctrl_sdk/src/lib_printf.c ****           flags |= FLAGS_LONG_LONG;
1126:Libraries/ctrl_sdk/src/lib_printf.c ****           ADVANCE_IN_FORMAT_STRING(format);
1127:Libraries/ctrl_sdk/src/lib_printf.c ****         }
1128:Libraries/ctrl_sdk/src/lib_printf.c ****         break;
1129:Libraries/ctrl_sdk/src/lib_printf.c ****       case 'h' :
1130:Libraries/ctrl_sdk/src/lib_printf.c ****         flags |= FLAGS_SHORT;
1131:Libraries/ctrl_sdk/src/lib_printf.c ****         ADVANCE_IN_FORMAT_STRING(format);
ARM GAS  C:\Users\Mxuan\AppData\Local\Temp\ccSEBS4R.s 			page 95


1132:Libraries/ctrl_sdk/src/lib_printf.c ****         if (*format == 'h') {
1133:Libraries/ctrl_sdk/src/lib_printf.c ****           flags |= FLAGS_CHAR;
1134:Libraries/ctrl_sdk/src/lib_printf.c ****           ADVANCE_IN_FORMAT_STRING(format);
1135:Libraries/ctrl_sdk/src/lib_printf.c ****         }
1136:Libraries/ctrl_sdk/src/lib_printf.c ****         break;
1137:Libraries/ctrl_sdk/src/lib_printf.c ****       case 't' :
1138:Libraries/ctrl_sdk/src/lib_printf.c ****         flags |= (sizeof(ptrdiff_t) == sizeof(long) ? FLAGS_LONG : FLAGS_LONG_LONG);
1139:Libraries/ctrl_sdk/src/lib_printf.c ****         ADVANCE_IN_FORMAT_STRING(format);
1140:Libraries/ctrl_sdk/src/lib_printf.c ****         break;
1141:Libraries/ctrl_sdk/src/lib_printf.c ****       case 'j' :
1142:Libraries/ctrl_sdk/src/lib_printf.c ****         flags |= (sizeof(intmax_t) == sizeof(long) ? FLAGS_LONG : FLAGS_LONG_LONG);
1143:Libraries/ctrl_sdk/src/lib_printf.c ****         ADVANCE_IN_FORMAT_STRING(format);
1144:Libraries/ctrl_sdk/src/lib_printf.c ****         break;
1145:Libraries/ctrl_sdk/src/lib_printf.c ****       case 'z' :
1146:Libraries/ctrl_sdk/src/lib_printf.c ****         flags |= (sizeof(size_t) == sizeof(long) ? FLAGS_LONG : FLAGS_LONG_LONG);
1147:Libraries/ctrl_sdk/src/lib_printf.c ****         ADVANCE_IN_FORMAT_STRING(format);
1148:Libraries/ctrl_sdk/src/lib_printf.c ****         break;
1149:Libraries/ctrl_sdk/src/lib_printf.c ****       default:
1150:Libraries/ctrl_sdk/src/lib_printf.c ****         break;
1151:Libraries/ctrl_sdk/src/lib_printf.c ****     }
1152:Libraries/ctrl_sdk/src/lib_printf.c **** 
1153:Libraries/ctrl_sdk/src/lib_printf.c ****     // evaluate specifier
1154:Libraries/ctrl_sdk/src/lib_printf.c ****     switch (*format) {
1155:Libraries/ctrl_sdk/src/lib_printf.c ****       case 'd' :
1156:Libraries/ctrl_sdk/src/lib_printf.c ****       case 'i' :
1157:Libraries/ctrl_sdk/src/lib_printf.c ****       case 'u' :
1158:Libraries/ctrl_sdk/src/lib_printf.c ****       case 'x' :
1159:Libraries/ctrl_sdk/src/lib_printf.c ****       case 'X' :
1160:Libraries/ctrl_sdk/src/lib_printf.c ****       case 'o' :
1161:Libraries/ctrl_sdk/src/lib_printf.c ****       case 'b' : {
1162:Libraries/ctrl_sdk/src/lib_printf.c **** 
1163:Libraries/ctrl_sdk/src/lib_printf.c ****         if (*format == 'd' || *format == 'i') {
1164:Libraries/ctrl_sdk/src/lib_printf.c ****           flags |= FLAGS_SIGNED;
1165:Libraries/ctrl_sdk/src/lib_printf.c ****         }
1166:Libraries/ctrl_sdk/src/lib_printf.c **** 
1167:Libraries/ctrl_sdk/src/lib_printf.c ****         numeric_base_t base;
1168:Libraries/ctrl_sdk/src/lib_printf.c ****         if (*format == 'x' || *format == 'X') {
1169:Libraries/ctrl_sdk/src/lib_printf.c ****           base = BASE_HEX;
1170:Libraries/ctrl_sdk/src/lib_printf.c ****         }
1171:Libraries/ctrl_sdk/src/lib_printf.c ****         else if (*format == 'o') {
1172:Libraries/ctrl_sdk/src/lib_printf.c ****           base =  BASE_OCTAL;
1173:Libraries/ctrl_sdk/src/lib_printf.c ****         }
1174:Libraries/ctrl_sdk/src/lib_printf.c ****         else if (*format == 'b') {
1175:Libraries/ctrl_sdk/src/lib_printf.c ****           base =  BASE_BINARY;
1176:Libraries/ctrl_sdk/src/lib_printf.c ****         }
1177:Libraries/ctrl_sdk/src/lib_printf.c ****         else {
1178:Libraries/ctrl_sdk/src/lib_printf.c ****           base = BASE_DECIMAL;
1179:Libraries/ctrl_sdk/src/lib_printf.c ****           flags &= ~FLAGS_HASH; // decimal integers have no alternative presentation
1180:Libraries/ctrl_sdk/src/lib_printf.c ****         }
1181:Libraries/ctrl_sdk/src/lib_printf.c **** 
1182:Libraries/ctrl_sdk/src/lib_printf.c ****         if (*format == 'X') {
1183:Libraries/ctrl_sdk/src/lib_printf.c ****           flags |= FLAGS_UPPERCASE;
1184:Libraries/ctrl_sdk/src/lib_printf.c ****         }
1185:Libraries/ctrl_sdk/src/lib_printf.c **** 
1186:Libraries/ctrl_sdk/src/lib_printf.c ****         format++;
1187:Libraries/ctrl_sdk/src/lib_printf.c ****         // ignore '0' flag when precision is given
1188:Libraries/ctrl_sdk/src/lib_printf.c ****         if (flags & FLAGS_PRECISION) {
ARM GAS  C:\Users\Mxuan\AppData\Local\Temp\ccSEBS4R.s 			page 96


1189:Libraries/ctrl_sdk/src/lib_printf.c ****           flags &= ~FLAGS_ZEROPAD;
1190:Libraries/ctrl_sdk/src/lib_printf.c ****         }
1191:Libraries/ctrl_sdk/src/lib_printf.c **** 
1192:Libraries/ctrl_sdk/src/lib_printf.c ****         if (flags & FLAGS_SIGNED) {
1193:Libraries/ctrl_sdk/src/lib_printf.c ****           // A signed specifier: d, i or possibly I + bit size if enabled
1194:Libraries/ctrl_sdk/src/lib_printf.c **** 
1195:Libraries/ctrl_sdk/src/lib_printf.c ****           if (flags & FLAGS_LONG_LONG) {
1196:Libraries/ctrl_sdk/src/lib_printf.c **** #if PRINTF_SUPPORT_LONG_LONG
1197:Libraries/ctrl_sdk/src/lib_printf.c ****             const long long value = va_arg(args, long long);
1198:Libraries/ctrl_sdk/src/lib_printf.c ****             print_integer(output, ABS_FOR_PRINTING(value), value < 0, base, precision, width, flags
1199:Libraries/ctrl_sdk/src/lib_printf.c **** #endif
1200:Libraries/ctrl_sdk/src/lib_printf.c ****           }
1201:Libraries/ctrl_sdk/src/lib_printf.c ****           else if (flags & FLAGS_LONG) {
1202:Libraries/ctrl_sdk/src/lib_printf.c ****             const long value = va_arg(args, long);
1203:Libraries/ctrl_sdk/src/lib_printf.c ****             print_integer(output, ABS_FOR_PRINTING(value), value < 0, base, precision, width, flags
1204:Libraries/ctrl_sdk/src/lib_printf.c ****           }
1205:Libraries/ctrl_sdk/src/lib_printf.c ****           else {
1206:Libraries/ctrl_sdk/src/lib_printf.c ****             // We never try to interpret the argument as something potentially-smaller than int,
1207:Libraries/ctrl_sdk/src/lib_printf.c ****             // due to integer promotion rules: Even if the user passed a short int, short unsigned
1208:Libraries/ctrl_sdk/src/lib_printf.c ****             // etc. - these will come in after promotion, as int's (or unsigned for the case of
1209:Libraries/ctrl_sdk/src/lib_printf.c ****             // short unsigned when it has the same size as int)
1210:Libraries/ctrl_sdk/src/lib_printf.c ****             const int value =
1211:Libraries/ctrl_sdk/src/lib_printf.c ****               (flags & FLAGS_CHAR) ? (signed char) va_arg(args, int) :
1212:Libraries/ctrl_sdk/src/lib_printf.c ****               (flags & FLAGS_SHORT) ? (short int) va_arg(args, int) :
1213:Libraries/ctrl_sdk/src/lib_printf.c ****               va_arg(args, int);
1214:Libraries/ctrl_sdk/src/lib_printf.c ****             print_integer(output, ABS_FOR_PRINTING(value), value < 0, base, precision, width, flags
1215:Libraries/ctrl_sdk/src/lib_printf.c ****           }
1216:Libraries/ctrl_sdk/src/lib_printf.c ****         }
1217:Libraries/ctrl_sdk/src/lib_printf.c ****         else {
1218:Libraries/ctrl_sdk/src/lib_printf.c ****           // An unsigned specifier: u, x, X, o, b
1219:Libraries/ctrl_sdk/src/lib_printf.c **** 
1220:Libraries/ctrl_sdk/src/lib_printf.c ****           flags &= ~(FLAGS_PLUS | FLAGS_SPACE);
1221:Libraries/ctrl_sdk/src/lib_printf.c **** 
1222:Libraries/ctrl_sdk/src/lib_printf.c ****           if (flags & FLAGS_LONG_LONG) {
1223:Libraries/ctrl_sdk/src/lib_printf.c **** #if PRINTF_SUPPORT_LONG_LONG
1224:Libraries/ctrl_sdk/src/lib_printf.c ****             print_integer(output, (printf_unsigned_value_t) va_arg(args, unsigned long long), false
1225:Libraries/ctrl_sdk/src/lib_printf.c **** #endif
1226:Libraries/ctrl_sdk/src/lib_printf.c ****           }
1227:Libraries/ctrl_sdk/src/lib_printf.c ****           else if (flags & FLAGS_LONG) {
1228:Libraries/ctrl_sdk/src/lib_printf.c ****             print_integer(output, (printf_unsigned_value_t) va_arg(args, unsigned long), false, bas
1229:Libraries/ctrl_sdk/src/lib_printf.c ****           }
1230:Libraries/ctrl_sdk/src/lib_printf.c ****           else {
1231:Libraries/ctrl_sdk/src/lib_printf.c ****             const unsigned int value =
1232:Libraries/ctrl_sdk/src/lib_printf.c ****               (flags & FLAGS_CHAR) ? (unsigned char)va_arg(args, unsigned int) :
1233:Libraries/ctrl_sdk/src/lib_printf.c ****               (flags & FLAGS_SHORT) ? (unsigned short int)va_arg(args, unsigned int) :
1234:Libraries/ctrl_sdk/src/lib_printf.c ****               va_arg(args, unsigned int);
1235:Libraries/ctrl_sdk/src/lib_printf.c ****             print_integer(output, (printf_unsigned_value_t) value, false, base, precision, width, f
1236:Libraries/ctrl_sdk/src/lib_printf.c ****           }
1237:Libraries/ctrl_sdk/src/lib_printf.c ****         }
1238:Libraries/ctrl_sdk/src/lib_printf.c ****         break;
1239:Libraries/ctrl_sdk/src/lib_printf.c ****       }
1240:Libraries/ctrl_sdk/src/lib_printf.c **** #if PRINTF_SUPPORT_DECIMAL_SPECIFIERS
1241:Libraries/ctrl_sdk/src/lib_printf.c ****       case 'f' :
1242:Libraries/ctrl_sdk/src/lib_printf.c ****       case 'F' :
1243:Libraries/ctrl_sdk/src/lib_printf.c ****         if (*format == 'F') flags |= FLAGS_UPPERCASE;
1244:Libraries/ctrl_sdk/src/lib_printf.c ****         print_floating_point(output, va_arg(args, double), precision, width, flags, PRINTF_PREFER_D
1245:Libraries/ctrl_sdk/src/lib_printf.c ****         format++;
ARM GAS  C:\Users\Mxuan\AppData\Local\Temp\ccSEBS4R.s 			page 97


1246:Libraries/ctrl_sdk/src/lib_printf.c ****         break;
1247:Libraries/ctrl_sdk/src/lib_printf.c **** #endif
1248:Libraries/ctrl_sdk/src/lib_printf.c **** #if PRINTF_SUPPORT_EXPONENTIAL_SPECIFIERS
1249:Libraries/ctrl_sdk/src/lib_printf.c ****       case 'e':
1250:Libraries/ctrl_sdk/src/lib_printf.c ****       case 'E':
1251:Libraries/ctrl_sdk/src/lib_printf.c ****       case 'g':
1252:Libraries/ctrl_sdk/src/lib_printf.c ****       case 'G':
1253:Libraries/ctrl_sdk/src/lib_printf.c ****         if ((*format == 'g')||(*format == 'G')) flags |= FLAGS_ADAPT_EXP;
1254:Libraries/ctrl_sdk/src/lib_printf.c ****         if ((*format == 'E')||(*format == 'G')) flags |= FLAGS_UPPERCASE;
1255:Libraries/ctrl_sdk/src/lib_printf.c ****         print_floating_point(output, va_arg(args, double), precision, width, flags, PRINTF_PREFER_E
1256:Libraries/ctrl_sdk/src/lib_printf.c ****         format++;
1257:Libraries/ctrl_sdk/src/lib_printf.c ****         break;
1258:Libraries/ctrl_sdk/src/lib_printf.c **** #endif  // PRINTF_SUPPORT_EXPONENTIAL_SPECIFIERS
1259:Libraries/ctrl_sdk/src/lib_printf.c ****       case 'c' : {
1260:Libraries/ctrl_sdk/src/lib_printf.c ****         printf_size_t l = 1U;
1261:Libraries/ctrl_sdk/src/lib_printf.c ****         // pre padding
1262:Libraries/ctrl_sdk/src/lib_printf.c ****         if (!(flags & FLAGS_LEFT)) {
1263:Libraries/ctrl_sdk/src/lib_printf.c ****           while (l++ < width) {
1264:Libraries/ctrl_sdk/src/lib_printf.c ****             putchar_via_gadget(output, ' ');
1265:Libraries/ctrl_sdk/src/lib_printf.c ****           }
1266:Libraries/ctrl_sdk/src/lib_printf.c ****         }
1267:Libraries/ctrl_sdk/src/lib_printf.c ****         // char output
1268:Libraries/ctrl_sdk/src/lib_printf.c ****         putchar_via_gadget(output, (char) va_arg(args, int) );
1269:Libraries/ctrl_sdk/src/lib_printf.c ****         // post padding
1270:Libraries/ctrl_sdk/src/lib_printf.c ****         if (flags & FLAGS_LEFT) {
1271:Libraries/ctrl_sdk/src/lib_printf.c ****           while (l++ < width) {
1272:Libraries/ctrl_sdk/src/lib_printf.c ****             putchar_via_gadget(output, ' ');
1273:Libraries/ctrl_sdk/src/lib_printf.c ****           }
1274:Libraries/ctrl_sdk/src/lib_printf.c ****         }
1275:Libraries/ctrl_sdk/src/lib_printf.c ****         format++;
1276:Libraries/ctrl_sdk/src/lib_printf.c ****         break;
1277:Libraries/ctrl_sdk/src/lib_printf.c ****       }
1278:Libraries/ctrl_sdk/src/lib_printf.c **** 
1279:Libraries/ctrl_sdk/src/lib_printf.c ****       case 's' : {
1280:Libraries/ctrl_sdk/src/lib_printf.c ****         const char* p = va_arg(args, char*);
1281:Libraries/ctrl_sdk/src/lib_printf.c ****         if (p == NULL) {
1282:Libraries/ctrl_sdk/src/lib_printf.c ****           out_rev_(output, ")llun(", 6, width, flags);
1283:Libraries/ctrl_sdk/src/lib_printf.c ****         }
1284:Libraries/ctrl_sdk/src/lib_printf.c ****         else {
1285:Libraries/ctrl_sdk/src/lib_printf.c ****           printf_size_t l = strnlen_s_(p, precision ? precision : PRINTF_MAX_POSSIBLE_BUFFER_SIZE);
1286:Libraries/ctrl_sdk/src/lib_printf.c ****           // pre padding
1287:Libraries/ctrl_sdk/src/lib_printf.c ****           if (flags & FLAGS_PRECISION) {
1288:Libraries/ctrl_sdk/src/lib_printf.c ****             l = (l < precision ? l : precision);
1289:Libraries/ctrl_sdk/src/lib_printf.c ****           }
1290:Libraries/ctrl_sdk/src/lib_printf.c ****           if (!(flags & FLAGS_LEFT)) {
1291:Libraries/ctrl_sdk/src/lib_printf.c ****             while (l++ < width) {
1292:Libraries/ctrl_sdk/src/lib_printf.c ****               putchar_via_gadget(output, ' ');
1293:Libraries/ctrl_sdk/src/lib_printf.c ****             }
1294:Libraries/ctrl_sdk/src/lib_printf.c ****           }
1295:Libraries/ctrl_sdk/src/lib_printf.c ****           // string output
1296:Libraries/ctrl_sdk/src/lib_printf.c ****           while ((*p != 0) && (!(flags & FLAGS_PRECISION) || precision)) {
1297:Libraries/ctrl_sdk/src/lib_printf.c ****             putchar_via_gadget(output, *(p++));
1298:Libraries/ctrl_sdk/src/lib_printf.c ****             --precision;
1299:Libraries/ctrl_sdk/src/lib_printf.c ****           }
1300:Libraries/ctrl_sdk/src/lib_printf.c ****           // post padding
1301:Libraries/ctrl_sdk/src/lib_printf.c ****           if (flags & FLAGS_LEFT) {
1302:Libraries/ctrl_sdk/src/lib_printf.c ****             while (l++ < width) {
ARM GAS  C:\Users\Mxuan\AppData\Local\Temp\ccSEBS4R.s 			page 98


1303:Libraries/ctrl_sdk/src/lib_printf.c ****               putchar_via_gadget(output, ' ');
1304:Libraries/ctrl_sdk/src/lib_printf.c ****             }
1305:Libraries/ctrl_sdk/src/lib_printf.c ****           }
1306:Libraries/ctrl_sdk/src/lib_printf.c ****         }
1307:Libraries/ctrl_sdk/src/lib_printf.c ****         format++;
1308:Libraries/ctrl_sdk/src/lib_printf.c ****         break;
1309:Libraries/ctrl_sdk/src/lib_printf.c ****       }
1310:Libraries/ctrl_sdk/src/lib_printf.c **** 
1311:Libraries/ctrl_sdk/src/lib_printf.c ****       case 'p' : {
1312:Libraries/ctrl_sdk/src/lib_printf.c ****         width = sizeof(void*) * 2U + 2; // 2 hex chars per byte + the "0x" prefix
1313:Libraries/ctrl_sdk/src/lib_printf.c ****         flags |= FLAGS_ZEROPAD | FLAGS_POINTER;
1314:Libraries/ctrl_sdk/src/lib_printf.c ****         uintptr_t value = (uintptr_t)va_arg(args, void*);
1315:Libraries/ctrl_sdk/src/lib_printf.c ****         (value == (uintptr_t) NULL) ?
1316:Libraries/ctrl_sdk/src/lib_printf.c ****           out_rev_(output, ")lin(", 5, width, flags) :
1317:Libraries/ctrl_sdk/src/lib_printf.c ****           print_integer(output, (printf_unsigned_value_t) value, false, BASE_HEX, precision, width,
1318:Libraries/ctrl_sdk/src/lib_printf.c ****         format++;
1319:Libraries/ctrl_sdk/src/lib_printf.c ****         break;
1320:Libraries/ctrl_sdk/src/lib_printf.c ****       }
1321:Libraries/ctrl_sdk/src/lib_printf.c **** 
1322:Libraries/ctrl_sdk/src/lib_printf.c ****       case '%' :
1323:Libraries/ctrl_sdk/src/lib_printf.c ****         putchar_via_gadget(output, '%');
1324:Libraries/ctrl_sdk/src/lib_printf.c ****         format++;
1325:Libraries/ctrl_sdk/src/lib_printf.c ****         break;
1326:Libraries/ctrl_sdk/src/lib_printf.c **** 
1327:Libraries/ctrl_sdk/src/lib_printf.c ****       // Many people prefer to disable support for %n, as it lets the caller
1328:Libraries/ctrl_sdk/src/lib_printf.c ****       // engineer a write to an arbitrary location, of a value the caller
1329:Libraries/ctrl_sdk/src/lib_printf.c ****       // effectively controls - which could be a security concern in some cases.
1330:Libraries/ctrl_sdk/src/lib_printf.c **** #if PRINTF_SUPPORT_WRITEBACK_SPECIFIER
1331:Libraries/ctrl_sdk/src/lib_printf.c ****       case 'n' : {
1332:Libraries/ctrl_sdk/src/lib_printf.c ****         if       (flags & FLAGS_CHAR)      *(va_arg(args, char*))      = (char) output->pos;
1333:Libraries/ctrl_sdk/src/lib_printf.c ****         else if  (flags & FLAGS_SHORT)     *(va_arg(args, short*))     = (short) output->pos;
1334:Libraries/ctrl_sdk/src/lib_printf.c ****         else if  (flags & FLAGS_LONG)      *(va_arg(args, long*))      = (long) output->pos;
1335:Libraries/ctrl_sdk/src/lib_printf.c **** #if PRINTF_SUPPORT_LONG_LONG
1336:Libraries/ctrl_sdk/src/lib_printf.c ****         else if  (flags & FLAGS_LONG_LONG) *(va_arg(args, long long*)) = (long long int) output->po
1337:Libraries/ctrl_sdk/src/lib_printf.c **** #endif // PRINTF_SUPPORT_LONG_LONG
1338:Libraries/ctrl_sdk/src/lib_printf.c ****         else                               *(va_arg(args, int*))       = (int) output->pos;
1339:Libraries/ctrl_sdk/src/lib_printf.c ****         format++;
1340:Libraries/ctrl_sdk/src/lib_printf.c ****         break;
1341:Libraries/ctrl_sdk/src/lib_printf.c ****       }
1342:Libraries/ctrl_sdk/src/lib_printf.c **** #endif // PRINTF_SUPPORT_WRITEBACK_SPECIFIER
1343:Libraries/ctrl_sdk/src/lib_printf.c **** 
1344:Libraries/ctrl_sdk/src/lib_printf.c ****       default :
1345:Libraries/ctrl_sdk/src/lib_printf.c ****         putchar_via_gadget(output, *format);
1346:Libraries/ctrl_sdk/src/lib_printf.c ****         format++;
1347:Libraries/ctrl_sdk/src/lib_printf.c ****         break;
1348:Libraries/ctrl_sdk/src/lib_printf.c ****     }
1349:Libraries/ctrl_sdk/src/lib_printf.c ****   }
1350:Libraries/ctrl_sdk/src/lib_printf.c **** }
 3912              		.loc 1 1350 1 view .LVU967
 3913 00ac 07B0     		add	sp, sp, #28
 3914              	.LCFI60:
 3915              		.cfi_remember_state
 3916              		.cfi_def_cfa_offset 36
 3917              		@ sp needed
 3918 00ae BDE8F08F 		pop	{r4, r5, r6, r7, r8, r9, r10, fp, pc}
 3919              	.LVL383:
 3920              	.L364:
ARM GAS  C:\Users\Mxuan\AppData\Local\Temp\ccSEBS4R.s 			page 99


 3921              	.LCFI61:
 3922              		.cfi_restore_state
 3923              	.LBB106:
 3924              	.LBB87:
1070:Libraries/ctrl_sdk/src/lib_printf.c ****         width = (printf_size_t)-w;
 3925              		.loc 1 1070 9 is_stmt 1 view .LVU968
1070:Libraries/ctrl_sdk/src/lib_printf.c ****         width = (printf_size_t)-w;
 3926              		.loc 1 1070 15 is_stmt 0 view .LVU969
 3927 00b2 40F00204 		orr	r4, r0, #2
 3928              	.LVL384:
1071:Libraries/ctrl_sdk/src/lib_printf.c ****       }
 3929              		.loc 1 1071 9 is_stmt 1 view .LVU970
1071:Libraries/ctrl_sdk/src/lib_printf.c ****       }
 3930              		.loc 1 1071 32 is_stmt 0 view .LVU971
 3931 00b6 7F42     		rsbs	r7, r7, #0
 3932              	.LVL385:
1071:Libraries/ctrl_sdk/src/lib_printf.c ****       }
 3933              		.loc 1 1071 32 view .LVU972
 3934 00b8 F2E7     		b	.L280
 3935              	.LVL386:
 3936              	.L363:
1071:Libraries/ctrl_sdk/src/lib_printf.c ****       }
 3937              		.loc 1 1071 32 view .LVU973
 3938              	.LBE87:
1082:Libraries/ctrl_sdk/src/lib_printf.c ****       ADVANCE_IN_FORMAT_STRING(format);
 3939              		.loc 1 1082 7 is_stmt 1 view .LVU974
1082:Libraries/ctrl_sdk/src/lib_printf.c ****       ADVANCE_IN_FORMAT_STRING(format);
 3940              		.loc 1 1082 13 is_stmt 0 view .LVU975
 3941 00ba 44F40064 		orr	r4, r4, #2048
 3942              	.LVL387:
1083:Libraries/ctrl_sdk/src/lib_printf.c ****       if (is_digit_(*format)) {
 3943              		.loc 1 1083 7 is_stmt 1 view .LVU976
1083:Libraries/ctrl_sdk/src/lib_printf.c ****       if (is_digit_(*format)) {
 3944              		.loc 1 1083 7 view .LVU977
 3945 00be 5A1C     		adds	r2, r3, #1
 3946 00c0 0592     		str	r2, [sp, #20]
1083:Libraries/ctrl_sdk/src/lib_printf.c ****       if (is_digit_(*format)) {
 3947              		.loc 1 1083 7 view .LVU978
 3948 00c2 5A78     		ldrb	r2, [r3, #1]	@ zero_extendqisi2
 3949 00c4 002A     		cmp	r2, #0
 3950 00c6 F1D0     		beq	.L272
1083:Libraries/ctrl_sdk/src/lib_printf.c ****       if (is_digit_(*format)) {
 3951              		.loc 1 1083 7 discriminator 2 view .LVU979
1084:Libraries/ctrl_sdk/src/lib_printf.c ****         precision = (printf_size_t) atou_(&format);
 3952              		.loc 1 1084 7 discriminator 2 view .LVU980
 3953              	.LVL388:
 3954              	.LBB88:
 3955              	.LBI88:
 414:Libraries/ctrl_sdk/src/lib_printf.c **** {
 3956              		.loc 1 414 20 discriminator 2 view .LVU981
 3957              	.LBB89:
 416:Libraries/ctrl_sdk/src/lib_printf.c **** }
 3958              		.loc 1 416 3 discriminator 2 view .LVU982
 416:Libraries/ctrl_sdk/src/lib_printf.c **** }
 3959              		.loc 1 416 22 is_stmt 0 discriminator 2 view .LVU983
 3960 00c8 A2F13003 		sub	r3, r2, #48
 3961 00cc DBB2     		uxtb	r3, r3
ARM GAS  C:\Users\Mxuan\AppData\Local\Temp\ccSEBS4R.s 			page 100


 3962              	.LVL389:
 416:Libraries/ctrl_sdk/src/lib_printf.c **** }
 3963              		.loc 1 416 22 discriminator 2 view .LVU984
 3964              	.LBE89:
 3965              	.LBE88:
1084:Libraries/ctrl_sdk/src/lib_printf.c ****         precision = (printf_size_t) atou_(&format);
 3966              		.loc 1 1084 10 discriminator 2 view .LVU985
 3967 00ce 092B     		cmp	r3, #9
 3968 00d0 03D9     		bls	.L365
1087:Libraries/ctrl_sdk/src/lib_printf.c ****         const int precision_ = va_arg(args, int);
 3969              		.loc 1 1087 12 is_stmt 1 view .LVU986
1087:Libraries/ctrl_sdk/src/lib_printf.c ****         const int precision_ = va_arg(args, int);
 3970              		.loc 1 1087 15 is_stmt 0 view .LVU987
 3971 00d2 2A2A     		cmp	r2, #42
 3972 00d4 06D0     		beq	.L366
1080:Libraries/ctrl_sdk/src/lib_printf.c ****     if (*format == '.') {
 3973              		.loc 1 1080 19 view .LVU988
 3974 00d6 0026     		movs	r6, #0
 3975 00d8 BDE7     		b	.L281
 3976              	.L365:
1085:Libraries/ctrl_sdk/src/lib_printf.c ****       }
 3977              		.loc 1 1085 9 is_stmt 1 view .LVU989
1085:Libraries/ctrl_sdk/src/lib_printf.c ****       }
 3978              		.loc 1 1085 37 is_stmt 0 view .LVU990
 3979 00da 05A8     		add	r0, sp, #20
 3980 00dc FFF7FEFF 		bl	atou_
 3981              	.LVL390:
 3982 00e0 0646     		mov	r6, r0
 3983              	.LVL391:
1085:Libraries/ctrl_sdk/src/lib_printf.c ****       }
 3984              		.loc 1 1085 37 view .LVU991
 3985 00e2 B8E7     		b	.L281
 3986              	.LVL392:
 3987              	.L366:
 3988              	.LBB90:
1088:Libraries/ctrl_sdk/src/lib_printf.c ****         precision = precision_ > 0 ? (printf_size_t) precision_ : 0U;
 3989              		.loc 1 1088 9 is_stmt 1 view .LVU992
1088:Libraries/ctrl_sdk/src/lib_printf.c ****         precision = precision_ > 0 ? (printf_size_t) precision_ : 0U;
 3990              		.loc 1 1088 19 is_stmt 0 view .LVU993
 3991 00e4 049B     		ldr	r3, [sp, #16]
 3992 00e6 1A1D     		adds	r2, r3, #4
 3993 00e8 0492     		str	r2, [sp, #16]
 3994 00ea 1E68     		ldr	r6, [r3]
1089:Libraries/ctrl_sdk/src/lib_printf.c ****         ADVANCE_IN_FORMAT_STRING(format);
 3995              		.loc 1 1089 9 is_stmt 1 view .LVU994
1089:Libraries/ctrl_sdk/src/lib_printf.c ****         ADVANCE_IN_FORMAT_STRING(format);
 3996              		.loc 1 1089 65 is_stmt 0 view .LVU995
 3997 00ec 26EAE676 		bic	r6, r6, r6, asr #31
 3998              	.LVL393:
1090:Libraries/ctrl_sdk/src/lib_printf.c ****       }
 3999              		.loc 1 1090 9 is_stmt 1 view .LVU996
1090:Libraries/ctrl_sdk/src/lib_printf.c ****       }
 4000              		.loc 1 1090 9 view .LVU997
 4001 00f0 059B     		ldr	r3, [sp, #20]
 4002 00f2 5A1C     		adds	r2, r3, #1
 4003 00f4 0592     		str	r2, [sp, #20]
1090:Libraries/ctrl_sdk/src/lib_printf.c ****       }
ARM GAS  C:\Users\Mxuan\AppData\Local\Temp\ccSEBS4R.s 			page 101


 4004              		.loc 1 1090 9 view .LVU998
 4005 00f6 5B78     		ldrb	r3, [r3, #1]	@ zero_extendqisi2
 4006 00f8 002B     		cmp	r3, #0
 4007 00fa ACD1     		bne	.L281
 4008 00fc D6E7     		b	.L272
 4009              	.L287:
1090:Libraries/ctrl_sdk/src/lib_printf.c ****       }
 4010              		.loc 1 1090 9 is_stmt 0 view .LVU999
 4011              	.LBE90:
1122:Libraries/ctrl_sdk/src/lib_printf.c ****         ADVANCE_IN_FORMAT_STRING(format);
 4012              		.loc 1 1122 9 is_stmt 1 view .LVU1000
1122:Libraries/ctrl_sdk/src/lib_printf.c ****         ADVANCE_IN_FORMAT_STRING(format);
 4013              		.loc 1 1122 15 is_stmt 0 view .LVU1001
 4014 00fe 44F40071 		orr	r1, r4, #512
 4015              	.LVL394:
1123:Libraries/ctrl_sdk/src/lib_printf.c ****         if (*format == 'l') {
 4016              		.loc 1 1123 9 is_stmt 1 view .LVU1002
1123:Libraries/ctrl_sdk/src/lib_printf.c ****         if (*format == 'l') {
 4017              		.loc 1 1123 9 view .LVU1003
 4018 0102 531C     		adds	r3, r2, #1
 4019 0104 0593     		str	r3, [sp, #20]
1123:Libraries/ctrl_sdk/src/lib_printf.c ****         if (*format == 'l') {
 4020              		.loc 1 1123 9 view .LVU1004
 4021 0106 5378     		ldrb	r3, [r2, #1]	@ zero_extendqisi2
 4022 0108 002B     		cmp	r3, #0
 4023 010a CFD0     		beq	.L272
1123:Libraries/ctrl_sdk/src/lib_printf.c ****         if (*format == 'l') {
 4024              		.loc 1 1123 9 discriminator 2 view .LVU1005
1124:Libraries/ctrl_sdk/src/lib_printf.c ****           flags |= FLAGS_LONG_LONG;
 4025              		.loc 1 1124 9 discriminator 2 view .LVU1006
1124:Libraries/ctrl_sdk/src/lib_printf.c ****           flags |= FLAGS_LONG_LONG;
 4026              		.loc 1 1124 12 is_stmt 0 discriminator 2 view .LVU1007
 4027 010c 6C2B     		cmp	r3, #108
 4028 010e 01D0     		beq	.L367
1122:Libraries/ctrl_sdk/src/lib_printf.c ****         ADVANCE_IN_FORMAT_STRING(format);
 4029              		.loc 1 1122 15 view .LVU1008
 4030 0110 0C46     		mov	r4, r1
 4031 0112 1FE0     		b	.L283
 4032              	.L367:
1125:Libraries/ctrl_sdk/src/lib_printf.c ****           ADVANCE_IN_FORMAT_STRING(format);
 4033              		.loc 1 1125 11 is_stmt 1 view .LVU1009
1125:Libraries/ctrl_sdk/src/lib_printf.c ****           ADVANCE_IN_FORMAT_STRING(format);
 4034              		.loc 1 1125 17 is_stmt 0 view .LVU1010
 4035 0114 44F4C064 		orr	r4, r4, #1536
 4036              	.LVL395:
1126:Libraries/ctrl_sdk/src/lib_printf.c ****         }
 4037              		.loc 1 1126 11 is_stmt 1 view .LVU1011
1126:Libraries/ctrl_sdk/src/lib_printf.c ****         }
 4038              		.loc 1 1126 11 view .LVU1012
 4039 0118 931C     		adds	r3, r2, #2
 4040 011a 0593     		str	r3, [sp, #20]
1126:Libraries/ctrl_sdk/src/lib_printf.c ****         }
 4041              		.loc 1 1126 11 view .LVU1013
 4042 011c 9378     		ldrb	r3, [r2, #2]	@ zero_extendqisi2
 4043 011e CBB9     		cbnz	r3, .L283
 4044 0120 C4E7     		b	.L272
 4045              	.L289:
ARM GAS  C:\Users\Mxuan\AppData\Local\Temp\ccSEBS4R.s 			page 102


1130:Libraries/ctrl_sdk/src/lib_printf.c ****         ADVANCE_IN_FORMAT_STRING(format);
 4046              		.loc 1 1130 9 view .LVU1014
1130:Libraries/ctrl_sdk/src/lib_printf.c ****         ADVANCE_IN_FORMAT_STRING(format);
 4047              		.loc 1 1130 15 is_stmt 0 view .LVU1015
 4048 0122 44F08001 		orr	r1, r4, #128
 4049              	.LVL396:
1131:Libraries/ctrl_sdk/src/lib_printf.c ****         if (*format == 'h') {
 4050              		.loc 1 1131 9 is_stmt 1 view .LVU1016
1131:Libraries/ctrl_sdk/src/lib_printf.c ****         if (*format == 'h') {
 4051              		.loc 1 1131 9 view .LVU1017
 4052 0126 531C     		adds	r3, r2, #1
 4053 0128 0593     		str	r3, [sp, #20]
1131:Libraries/ctrl_sdk/src/lib_printf.c ****         if (*format == 'h') {
 4054              		.loc 1 1131 9 view .LVU1018
 4055 012a 5378     		ldrb	r3, [r2, #1]	@ zero_extendqisi2
 4056 012c 002B     		cmp	r3, #0
 4057 012e BDD0     		beq	.L272
1131:Libraries/ctrl_sdk/src/lib_printf.c ****         if (*format == 'h') {
 4058              		.loc 1 1131 9 discriminator 2 view .LVU1019
1132:Libraries/ctrl_sdk/src/lib_printf.c ****           flags |= FLAGS_CHAR;
 4059              		.loc 1 1132 9 discriminator 2 view .LVU1020
1132:Libraries/ctrl_sdk/src/lib_printf.c ****           flags |= FLAGS_CHAR;
 4060              		.loc 1 1132 12 is_stmt 0 discriminator 2 view .LVU1021
 4061 0130 682B     		cmp	r3, #104
 4062 0132 01D0     		beq	.L368
1130:Libraries/ctrl_sdk/src/lib_printf.c ****         ADVANCE_IN_FORMAT_STRING(format);
 4063              		.loc 1 1130 15 view .LVU1022
 4064 0134 0C46     		mov	r4, r1
 4065 0136 0DE0     		b	.L283
 4066              	.L368:
1133:Libraries/ctrl_sdk/src/lib_printf.c ****           ADVANCE_IN_FORMAT_STRING(format);
 4067              		.loc 1 1133 11 is_stmt 1 view .LVU1023
1133:Libraries/ctrl_sdk/src/lib_printf.c ****           ADVANCE_IN_FORMAT_STRING(format);
 4068              		.loc 1 1133 17 is_stmt 0 view .LVU1024
 4069 0138 44F0C004 		orr	r4, r4, #192
 4070              	.LVL397:
1134:Libraries/ctrl_sdk/src/lib_printf.c ****         }
 4071              		.loc 1 1134 11 is_stmt 1 view .LVU1025
1134:Libraries/ctrl_sdk/src/lib_printf.c ****         }
 4072              		.loc 1 1134 11 view .LVU1026
 4073 013c 931C     		adds	r3, r2, #2
 4074 013e 0593     		str	r3, [sp, #20]
1134:Libraries/ctrl_sdk/src/lib_printf.c ****         }
 4075              		.loc 1 1134 11 view .LVU1027
 4076 0140 9378     		ldrb	r3, [r2, #2]	@ zero_extendqisi2
 4077 0142 3BB9     		cbnz	r3, .L283
 4078 0144 B2E7     		b	.L272
 4079              	.L286:
1138:Libraries/ctrl_sdk/src/lib_printf.c ****         ADVANCE_IN_FORMAT_STRING(format);
 4080              		.loc 1 1138 9 view .LVU1028
1138:Libraries/ctrl_sdk/src/lib_printf.c ****         ADVANCE_IN_FORMAT_STRING(format);
 4081              		.loc 1 1138 15 is_stmt 0 view .LVU1029
 4082 0146 44F40074 		orr	r4, r4, #512
 4083              	.LVL398:
1139:Libraries/ctrl_sdk/src/lib_printf.c ****         break;
 4084              		.loc 1 1139 9 is_stmt 1 view .LVU1030
1139:Libraries/ctrl_sdk/src/lib_printf.c ****         break;
ARM GAS  C:\Users\Mxuan\AppData\Local\Temp\ccSEBS4R.s 			page 103


 4085              		.loc 1 1139 9 view .LVU1031
 4086 014a 531C     		adds	r3, r2, #1
 4087 014c 0593     		str	r3, [sp, #20]
1139:Libraries/ctrl_sdk/src/lib_printf.c ****         break;
 4088              		.loc 1 1139 9 view .LVU1032
 4089 014e 5378     		ldrb	r3, [r2, #1]	@ zero_extendqisi2
 4090 0150 002B     		cmp	r3, #0
 4091 0152 ABD0     		beq	.L272
 4092              	.L283:
1154:Libraries/ctrl_sdk/src/lib_printf.c ****       case 'd' :
 4093              		.loc 1 1154 5 view .LVU1033
1154:Libraries/ctrl_sdk/src/lib_printf.c ****       case 'd' :
 4094              		.loc 1 1154 13 is_stmt 0 view .LVU1034
 4095 0154 059A     		ldr	r2, [sp, #20]
 4096 0156 1178     		ldrb	r1, [r2]	@ zero_extendqisi2
1154:Libraries/ctrl_sdk/src/lib_printf.c ****       case 'd' :
 4097              		.loc 1 1154 5 view .LVU1035
 4098 0158 A1F12503 		sub	r3, r1, #37
 4099 015c 532B     		cmp	r3, #83
 4100 015e 00F2F681 		bhi	.L290
 4101 0162 DFE813F0 		tbh	[pc, r3, lsl #1]
 4102              	.L292:
 4103 0166 C301     		.2byte	(.L299-.L292)/2
 4104 0168 F401     		.2byte	(.L290-.L292)/2
 4105 016a F401     		.2byte	(.L290-.L292)/2
 4106 016c F401     		.2byte	(.L290-.L292)/2
 4107 016e F401     		.2byte	(.L290-.L292)/2
 4108 0170 F401     		.2byte	(.L290-.L292)/2
 4109 0172 F401     		.2byte	(.L290-.L292)/2
 4110 0174 F401     		.2byte	(.L290-.L292)/2
 4111 0176 F401     		.2byte	(.L290-.L292)/2
 4112 0178 F401     		.2byte	(.L290-.L292)/2
 4113 017a F401     		.2byte	(.L290-.L292)/2
 4114 017c F401     		.2byte	(.L290-.L292)/2
 4115 017e F401     		.2byte	(.L290-.L292)/2
 4116 0180 F401     		.2byte	(.L290-.L292)/2
 4117 0182 F401     		.2byte	(.L290-.L292)/2
 4118 0184 F401     		.2byte	(.L290-.L292)/2
 4119 0186 F401     		.2byte	(.L290-.L292)/2
 4120 0188 F401     		.2byte	(.L290-.L292)/2
 4121 018a F401     		.2byte	(.L290-.L292)/2
 4122 018c F401     		.2byte	(.L290-.L292)/2
 4123 018e F401     		.2byte	(.L290-.L292)/2
 4124 0190 F401     		.2byte	(.L290-.L292)/2
 4125 0192 F401     		.2byte	(.L290-.L292)/2
 4126 0194 F401     		.2byte	(.L290-.L292)/2
 4127 0196 F401     		.2byte	(.L290-.L292)/2
 4128 0198 F401     		.2byte	(.L290-.L292)/2
 4129 019a F401     		.2byte	(.L290-.L292)/2
 4130 019c F401     		.2byte	(.L290-.L292)/2
 4131 019e F401     		.2byte	(.L290-.L292)/2
 4132 01a0 F401     		.2byte	(.L290-.L292)/2
 4133 01a2 F401     		.2byte	(.L290-.L292)/2
 4134 01a4 F401     		.2byte	(.L290-.L292)/2
 4135 01a6 0E01     		.2byte	(.L296-.L292)/2
 4136 01a8 F400     		.2byte	(.L297-.L292)/2
 4137 01aa 0E01     		.2byte	(.L296-.L292)/2
ARM GAS  C:\Users\Mxuan\AppData\Local\Temp\ccSEBS4R.s 			page 104


 4138 01ac F401     		.2byte	(.L290-.L292)/2
 4139 01ae F401     		.2byte	(.L290-.L292)/2
 4140 01b0 F401     		.2byte	(.L290-.L292)/2
 4141 01b2 F401     		.2byte	(.L290-.L292)/2
 4142 01b4 F401     		.2byte	(.L290-.L292)/2
 4143 01b6 F401     		.2byte	(.L290-.L292)/2
 4144 01b8 F401     		.2byte	(.L290-.L292)/2
 4145 01ba F401     		.2byte	(.L290-.L292)/2
 4146 01bc F401     		.2byte	(.L290-.L292)/2
 4147 01be F401     		.2byte	(.L290-.L292)/2
 4148 01c0 F401     		.2byte	(.L290-.L292)/2
 4149 01c2 F401     		.2byte	(.L290-.L292)/2
 4150 01c4 F401     		.2byte	(.L290-.L292)/2
 4151 01c6 F401     		.2byte	(.L290-.L292)/2
 4152 01c8 F401     		.2byte	(.L290-.L292)/2
 4153 01ca F401     		.2byte	(.L290-.L292)/2
 4154 01cc 6400     		.2byte	(.L291-.L292)/2
 4155 01ce F401     		.2byte	(.L290-.L292)/2
 4156 01d0 F401     		.2byte	(.L290-.L292)/2
 4157 01d2 F401     		.2byte	(.L290-.L292)/2
 4158 01d4 F401     		.2byte	(.L290-.L292)/2
 4159 01d6 F401     		.2byte	(.L290-.L292)/2
 4160 01d8 F401     		.2byte	(.L290-.L292)/2
 4161 01da F401     		.2byte	(.L290-.L292)/2
 4162 01dc F401     		.2byte	(.L290-.L292)/2
 4163 01de F401     		.2byte	(.L290-.L292)/2
 4164 01e0 6400     		.2byte	(.L291-.L292)/2
 4165 01e2 2F01     		.2byte	(.L298-.L292)/2
 4166 01e4 6400     		.2byte	(.L291-.L292)/2
 4167 01e6 0E01     		.2byte	(.L296-.L292)/2
 4168 01e8 F400     		.2byte	(.L297-.L292)/2
 4169 01ea 0E01     		.2byte	(.L296-.L292)/2
 4170 01ec F401     		.2byte	(.L290-.L292)/2
 4171 01ee 6400     		.2byte	(.L291-.L292)/2
 4172 01f0 F401     		.2byte	(.L290-.L292)/2
 4173 01f2 F401     		.2byte	(.L290-.L292)/2
 4174 01f4 F401     		.2byte	(.L290-.L292)/2
 4175 01f6 F401     		.2byte	(.L290-.L292)/2
 4176 01f8 CB01     		.2byte	(.L295-.L292)/2
 4177 01fa 6400     		.2byte	(.L291-.L292)/2
 4178 01fc A501     		.2byte	(.L294-.L292)/2
 4179 01fe F401     		.2byte	(.L290-.L292)/2
 4180 0200 F401     		.2byte	(.L290-.L292)/2
 4181 0202 5301     		.2byte	(.L293-.L292)/2
 4182 0204 F401     		.2byte	(.L290-.L292)/2
 4183 0206 6400     		.2byte	(.L291-.L292)/2
 4184 0208 F401     		.2byte	(.L290-.L292)/2
 4185 020a F401     		.2byte	(.L290-.L292)/2
 4186 020c 6400     		.2byte	(.L291-.L292)/2
 4187              		.p2align 1
 4188              	.L288:
1142:Libraries/ctrl_sdk/src/lib_printf.c ****         ADVANCE_IN_FORMAT_STRING(format);
 4189              		.loc 1 1142 9 is_stmt 1 view .LVU1036
1142:Libraries/ctrl_sdk/src/lib_printf.c ****         ADVANCE_IN_FORMAT_STRING(format);
 4190              		.loc 1 1142 15 is_stmt 0 view .LVU1037
 4191 020e 44F48064 		orr	r4, r4, #1024
 4192              	.LVL399:
ARM GAS  C:\Users\Mxuan\AppData\Local\Temp\ccSEBS4R.s 			page 105


1143:Libraries/ctrl_sdk/src/lib_printf.c ****         break;
 4193              		.loc 1 1143 9 is_stmt 1 view .LVU1038
1143:Libraries/ctrl_sdk/src/lib_printf.c ****         break;
 4194              		.loc 1 1143 9 view .LVU1039
 4195 0212 531C     		adds	r3, r2, #1
 4196 0214 0593     		str	r3, [sp, #20]
1143:Libraries/ctrl_sdk/src/lib_printf.c ****         break;
 4197              		.loc 1 1143 9 view .LVU1040
 4198 0216 5378     		ldrb	r3, [r2, #1]	@ zero_extendqisi2
 4199 0218 002B     		cmp	r3, #0
 4200 021a 9BD1     		bne	.L283
 4201 021c 46E7     		b	.L272
 4202              	.L284:
1146:Libraries/ctrl_sdk/src/lib_printf.c ****         ADVANCE_IN_FORMAT_STRING(format);
 4203              		.loc 1 1146 9 view .LVU1041
1146:Libraries/ctrl_sdk/src/lib_printf.c ****         ADVANCE_IN_FORMAT_STRING(format);
 4204              		.loc 1 1146 15 is_stmt 0 view .LVU1042
 4205 021e 44F40074 		orr	r4, r4, #512
 4206              	.LVL400:
1147:Libraries/ctrl_sdk/src/lib_printf.c ****         break;
 4207              		.loc 1 1147 9 is_stmt 1 view .LVU1043
1147:Libraries/ctrl_sdk/src/lib_printf.c ****         break;
 4208              		.loc 1 1147 9 view .LVU1044
 4209 0222 531C     		adds	r3, r2, #1
 4210 0224 0593     		str	r3, [sp, #20]
1147:Libraries/ctrl_sdk/src/lib_printf.c ****         break;
 4211              		.loc 1 1147 9 view .LVU1045
 4212 0226 5378     		ldrb	r3, [r2, #1]	@ zero_extendqisi2
 4213 0228 002B     		cmp	r3, #0
 4214 022a 93D1     		bne	.L283
 4215 022c 3EE7     		b	.L272
 4216              	.L291:
 4217              	.LBB91:
1163:Libraries/ctrl_sdk/src/lib_printf.c ****           flags |= FLAGS_SIGNED;
 4218              		.loc 1 1163 9 view .LVU1046
1163:Libraries/ctrl_sdk/src/lib_printf.c ****           flags |= FLAGS_SIGNED;
 4219              		.loc 1 1163 12 is_stmt 0 view .LVU1047
 4220 022e 6429     		cmp	r1, #100
 4221 0230 01D0     		beq	.L300
1163:Libraries/ctrl_sdk/src/lib_printf.c ****           flags |= FLAGS_SIGNED;
 4222              		.loc 1 1163 28 discriminator 1 view .LVU1048
 4223 0232 6929     		cmp	r1, #105
 4224 0234 01D1     		bne	.L301
 4225              	.L300:
1164:Libraries/ctrl_sdk/src/lib_printf.c ****         }
 4226              		.loc 1 1164 11 is_stmt 1 view .LVU1049
1164:Libraries/ctrl_sdk/src/lib_printf.c ****         }
 4227              		.loc 1 1164 17 is_stmt 0 view .LVU1050
 4228 0236 44F48044 		orr	r4, r4, #16384
 4229              	.LVL401:
 4230              	.L301:
1167:Libraries/ctrl_sdk/src/lib_printf.c ****         if (*format == 'x' || *format == 'X') {
 4231              		.loc 1 1167 9 is_stmt 1 view .LVU1051
1168:Libraries/ctrl_sdk/src/lib_printf.c ****           base = BASE_HEX;
 4232              		.loc 1 1168 9 view .LVU1052
1168:Libraries/ctrl_sdk/src/lib_printf.c ****           base = BASE_HEX;
 4233              		.loc 1 1168 12 is_stmt 0 view .LVU1053
ARM GAS  C:\Users\Mxuan\AppData\Local\Temp\ccSEBS4R.s 			page 106


 4234 023a 7829     		cmp	r1, #120
 4235 023c 09D0     		beq	.L353
1168:Libraries/ctrl_sdk/src/lib_printf.c ****           base = BASE_HEX;
 4236              		.loc 1 1168 12 view .LVU1054
 4237 023e 6229     		cmp	r1, #98
 4238 0240 2ED0     		beq	.L354
 4239 0242 6F29     		cmp	r1, #111
 4240 0244 2ED0     		beq	.L355
 4241 0246 5829     		cmp	r1, #88
 4242 0248 2ED0     		beq	.L356
1178:Libraries/ctrl_sdk/src/lib_printf.c ****           flags &= ~FLAGS_HASH; // decimal integers have no alternative presentation
 4243              		.loc 1 1178 11 is_stmt 1 view .LVU1055
 4244              	.LVL402:
1179:Libraries/ctrl_sdk/src/lib_printf.c ****         }
 4245              		.loc 1 1179 11 view .LVU1056
1179:Libraries/ctrl_sdk/src/lib_printf.c ****         }
 4246              		.loc 1 1179 17 is_stmt 0 view .LVU1057
 4247 024a 24F01004 		bic	r4, r4, #16
 4248              	.LVL403:
1178:Libraries/ctrl_sdk/src/lib_printf.c ****           flags &= ~FLAGS_HASH; // decimal integers have no alternative presentation
 4249              		.loc 1 1178 16 view .LVU1058
 4250 024e 0A23     		movs	r3, #10
 4251 0250 00E0     		b	.L302
 4252              	.LVL404:
 4253              	.L353:
1169:Libraries/ctrl_sdk/src/lib_printf.c ****         }
 4254              		.loc 1 1169 16 view .LVU1059
 4255 0252 1023     		movs	r3, #16
 4256              	.L302:
 4257              	.LVL405:
1182:Libraries/ctrl_sdk/src/lib_printf.c ****           flags |= FLAGS_UPPERCASE;
 4258              		.loc 1 1182 9 is_stmt 1 view .LVU1060
1182:Libraries/ctrl_sdk/src/lib_printf.c ****           flags |= FLAGS_UPPERCASE;
 4259              		.loc 1 1182 12 is_stmt 0 view .LVU1061
 4260 0254 5829     		cmp	r1, #88
 4261 0256 29D0     		beq	.L369
 4262              	.L303:
1186:Libraries/ctrl_sdk/src/lib_printf.c ****         // ignore '0' flag when precision is given
 4263              		.loc 1 1186 9 is_stmt 1 view .LVU1062
1186:Libraries/ctrl_sdk/src/lib_printf.c ****         // ignore '0' flag when precision is given
 4264              		.loc 1 1186 15 is_stmt 0 view .LVU1063
 4265 0258 0132     		adds	r2, r2, #1
 4266 025a 0592     		str	r2, [sp, #20]
1188:Libraries/ctrl_sdk/src/lib_printf.c ****           flags &= ~FLAGS_ZEROPAD;
 4267              		.loc 1 1188 9 is_stmt 1 view .LVU1064
1188:Libraries/ctrl_sdk/src/lib_printf.c ****           flags &= ~FLAGS_ZEROPAD;
 4268              		.loc 1 1188 12 is_stmt 0 view .LVU1065
 4269 025c 14F4006F 		tst	r4, #2048
 4270 0260 01D0     		beq	.L304
1189:Libraries/ctrl_sdk/src/lib_printf.c ****         }
 4271              		.loc 1 1189 11 is_stmt 1 view .LVU1066
1189:Libraries/ctrl_sdk/src/lib_printf.c ****         }
 4272              		.loc 1 1189 17 is_stmt 0 view .LVU1067
 4273 0262 24F00104 		bic	r4, r4, #1
 4274              	.LVL406:
 4275              	.L304:
1192:Libraries/ctrl_sdk/src/lib_printf.c ****           // A signed specifier: d, i or possibly I + bit size if enabled
ARM GAS  C:\Users\Mxuan\AppData\Local\Temp\ccSEBS4R.s 			page 107


 4276              		.loc 1 1192 9 is_stmt 1 view .LVU1068
1192:Libraries/ctrl_sdk/src/lib_printf.c ****           // A signed specifier: d, i or possibly I + bit size if enabled
 4277              		.loc 1 1192 12 is_stmt 0 view .LVU1069
 4278 0266 14F4804F 		tst	r4, #16384
 4279 026a 3FD0     		beq	.L305
1195:Libraries/ctrl_sdk/src/lib_printf.c **** #if PRINTF_SUPPORT_LONG_LONG
 4280              		.loc 1 1195 11 is_stmt 1 view .LVU1070
1195:Libraries/ctrl_sdk/src/lib_printf.c **** #if PRINTF_SUPPORT_LONG_LONG
 4281              		.loc 1 1195 14 is_stmt 0 view .LVU1071
 4282 026c 14F4806F 		tst	r4, #1024
 4283 0270 7FF4D3AE 		bne	.L273
1201:Libraries/ctrl_sdk/src/lib_printf.c ****             const long value = va_arg(args, long);
 4284              		.loc 1 1201 16 is_stmt 1 view .LVU1072
1201:Libraries/ctrl_sdk/src/lib_printf.c ****             const long value = va_arg(args, long);
 4285              		.loc 1 1201 19 is_stmt 0 view .LVU1073
 4286 0274 14F4007F 		tst	r4, #512
 4287 0278 1BD1     		bne	.L370
 4288              	.LBB92:
1210:Libraries/ctrl_sdk/src/lib_printf.c ****               (flags & FLAGS_CHAR) ? (signed char) va_arg(args, int) :
 4289              		.loc 1 1210 13 is_stmt 1 view .LVU1074
1211:Libraries/ctrl_sdk/src/lib_printf.c ****               (flags & FLAGS_SHORT) ? (short int) va_arg(args, int) :
 4290              		.loc 1 1211 70 is_stmt 0 view .LVU1075
 4291 027a 14F0400F 		tst	r4, #64
 4292 027e 27D0     		beq	.L307
1211:Libraries/ctrl_sdk/src/lib_printf.c ****               (flags & FLAGS_SHORT) ? (short int) va_arg(args, int) :
 4293              		.loc 1 1211 52 view .LVU1076
 4294 0280 049A     		ldr	r2, [sp, #16]
 4295 0282 111D     		adds	r1, r2, #4
 4296 0284 0491     		str	r1, [sp, #16]
1211:Libraries/ctrl_sdk/src/lib_printf.c ****               (flags & FLAGS_SHORT) ? (short int) va_arg(args, int) :
 4297              		.loc 1 1211 38 view .LVU1077
 4298 0286 92F90010 		ldrsb	r1, [r2]
 4299              	.L308:
 4300              	.LVL407:
1214:Libraries/ctrl_sdk/src/lib_printf.c ****           }
 4301              		.loc 1 1214 13 is_stmt 1 view .LVU1078
 4302 028a 0294     		str	r4, [sp, #8]
 4303 028c 0197     		str	r7, [sp, #4]
 4304 028e 0096     		str	r6, [sp]
 4305 0290 CA0F     		lsrs	r2, r1, #31
 4306 0292 0029     		cmp	r1, #0
 4307 0294 B8BF     		it	lt
 4308 0296 4942     		rsblt	r1, r1, #0
 4309              	.LVL408:
1214:Libraries/ctrl_sdk/src/lib_printf.c ****           }
 4310              		.loc 1 1214 13 is_stmt 0 view .LVU1079
 4311 0298 2846     		mov	r0, r5
 4312 029a FFF7FEFF 		bl	print_integer
 4313              	.LVL409:
1214:Libraries/ctrl_sdk/src/lib_printf.c ****           }
 4314              		.loc 1 1214 13 view .LVU1080
 4315 029e BCE6     		b	.L273
 4316              	.LVL410:
 4317              	.L354:
1214:Libraries/ctrl_sdk/src/lib_printf.c ****           }
 4318              		.loc 1 1214 13 view .LVU1081
 4319              	.LBE92:
ARM GAS  C:\Users\Mxuan\AppData\Local\Temp\ccSEBS4R.s 			page 108


1168:Libraries/ctrl_sdk/src/lib_printf.c ****           base = BASE_HEX;
 4320              		.loc 1 1168 12 view .LVU1082
 4321 02a0 0223     		movs	r3, #2
 4322 02a2 D7E7     		b	.L302
 4323              	.L355:
 4324 02a4 0823     		movs	r3, #8
 4325 02a6 D5E7     		b	.L302
 4326              	.L356:
 4327 02a8 1023     		movs	r3, #16
 4328 02aa D3E7     		b	.L302
 4329              	.LVL411:
 4330              	.L369:
1183:Libraries/ctrl_sdk/src/lib_printf.c ****         }
 4331              		.loc 1 1183 11 is_stmt 1 view .LVU1083
1183:Libraries/ctrl_sdk/src/lib_printf.c ****         }
 4332              		.loc 1 1183 17 is_stmt 0 view .LVU1084
 4333 02ac 44F02004 		orr	r4, r4, #32
 4334              	.LVL412:
1183:Libraries/ctrl_sdk/src/lib_printf.c ****         }
 4335              		.loc 1 1183 17 view .LVU1085
 4336 02b0 D2E7     		b	.L303
 4337              	.L370:
 4338              	.LBB93:
1202:Libraries/ctrl_sdk/src/lib_printf.c ****             print_integer(output, ABS_FOR_PRINTING(value), value < 0, base, precision, width, flags
 4339              		.loc 1 1202 13 is_stmt 1 view .LVU1086
1202:Libraries/ctrl_sdk/src/lib_printf.c ****             print_integer(output, ABS_FOR_PRINTING(value), value < 0, base, precision, width, flags
 4340              		.loc 1 1202 24 is_stmt 0 view .LVU1087
 4341 02b2 049A     		ldr	r2, [sp, #16]
 4342 02b4 111D     		adds	r1, r2, #4
 4343 02b6 0491     		str	r1, [sp, #16]
 4344 02b8 1168     		ldr	r1, [r2]
1203:Libraries/ctrl_sdk/src/lib_printf.c ****           }
 4345              		.loc 1 1203 13 is_stmt 1 view .LVU1088
 4346 02ba 0294     		str	r4, [sp, #8]
 4347 02bc 0197     		str	r7, [sp, #4]
 4348 02be 0096     		str	r6, [sp]
 4349 02c0 CA0F     		lsrs	r2, r1, #31
 4350 02c2 0029     		cmp	r1, #0
 4351 02c4 B8BF     		it	lt
 4352 02c6 4942     		rsblt	r1, r1, #0
 4353 02c8 2846     		mov	r0, r5
 4354 02ca FFF7FEFF 		bl	print_integer
 4355              	.LVL413:
1203:Libraries/ctrl_sdk/src/lib_printf.c ****           }
 4356              		.loc 1 1203 13 is_stmt 0 view .LVU1089
 4357              	.LBE93:
 4358 02ce A4E6     		b	.L273
 4359              	.LVL414:
 4360              	.L307:
 4361              	.LBB94:
1212:Libraries/ctrl_sdk/src/lib_printf.c ****               va_arg(args, int);
 4362              		.loc 1 1212 69 view .LVU1090
 4363 02d0 14F0800F 		tst	r4, #128
 4364 02d4 05D0     		beq	.L309
1212:Libraries/ctrl_sdk/src/lib_printf.c ****               va_arg(args, int);
 4365              		.loc 1 1212 51 view .LVU1091
 4366 02d6 049A     		ldr	r2, [sp, #16]
ARM GAS  C:\Users\Mxuan\AppData\Local\Temp\ccSEBS4R.s 			page 109


 4367 02d8 111D     		adds	r1, r2, #4
 4368 02da 0491     		str	r1, [sp, #16]
1212:Libraries/ctrl_sdk/src/lib_printf.c ****               va_arg(args, int);
 4369              		.loc 1 1212 39 view .LVU1092
 4370 02dc B2F90010 		ldrsh	r1, [r2]
 4371 02e0 D3E7     		b	.L308
 4372              	.L309:
1212:Libraries/ctrl_sdk/src/lib_printf.c ****               va_arg(args, int);
 4373              		.loc 1 1212 69 view .LVU1093
 4374 02e2 049A     		ldr	r2, [sp, #16]
 4375 02e4 111D     		adds	r1, r2, #4
 4376 02e6 0491     		str	r1, [sp, #16]
 4377 02e8 1168     		ldr	r1, [r2]
 4378 02ea CEE7     		b	.L308
 4379              	.L305:
1212:Libraries/ctrl_sdk/src/lib_printf.c ****               va_arg(args, int);
 4380              		.loc 1 1212 69 view .LVU1094
 4381              	.LBE94:
1220:Libraries/ctrl_sdk/src/lib_printf.c **** 
 4382              		.loc 1 1220 11 is_stmt 1 view .LVU1095
1220:Libraries/ctrl_sdk/src/lib_printf.c **** 
 4383              		.loc 1 1220 17 is_stmt 0 view .LVU1096
 4384 02ec 24F00C02 		bic	r2, r4, #12
 4385              	.LVL415:
1222:Libraries/ctrl_sdk/src/lib_printf.c **** #if PRINTF_SUPPORT_LONG_LONG
 4386              		.loc 1 1222 11 is_stmt 1 view .LVU1097
1222:Libraries/ctrl_sdk/src/lib_printf.c **** #if PRINTF_SUPPORT_LONG_LONG
 4387              		.loc 1 1222 14 is_stmt 0 view .LVU1098
 4388 02f0 14F4806F 		tst	r4, #1024
 4389 02f4 7FF491AE 		bne	.L273
1227:Libraries/ctrl_sdk/src/lib_printf.c ****             print_integer(output, (printf_unsigned_value_t) va_arg(args, unsigned long), false, bas
 4390              		.loc 1 1227 16 is_stmt 1 view .LVU1099
1227:Libraries/ctrl_sdk/src/lib_printf.c ****             print_integer(output, (printf_unsigned_value_t) va_arg(args, unsigned long), false, bas
 4391              		.loc 1 1227 19 is_stmt 0 view .LVU1100
 4392 02f8 14F4007F 		tst	r4, #512
 4393 02fc 0ED1     		bne	.L371
 4394              	.LBB95:
1231:Libraries/ctrl_sdk/src/lib_printf.c ****               (flags & FLAGS_CHAR) ? (unsigned char)va_arg(args, unsigned int) :
 4395              		.loc 1 1231 13 is_stmt 1 view .LVU1101
1232:Libraries/ctrl_sdk/src/lib_printf.c ****               (flags & FLAGS_SHORT) ? (unsigned short int)va_arg(args, unsigned int) :
 4396              		.loc 1 1232 80 is_stmt 0 view .LVU1102
 4397 02fe 14F0400F 		tst	r4, #64
 4398 0302 17D0     		beq	.L311
1232:Libraries/ctrl_sdk/src/lib_printf.c ****               (flags & FLAGS_SHORT) ? (unsigned short int)va_arg(args, unsigned int) :
 4399              		.loc 1 1232 53 view .LVU1103
 4400 0304 0499     		ldr	r1, [sp, #16]
 4401 0306 081D     		adds	r0, r1, #4
 4402 0308 0490     		str	r0, [sp, #16]
 4403 030a 0978     		ldrb	r1, [r1]	@ zero_extendqisi2
 4404              	.L312:
 4405              	.LVL416:
1235:Libraries/ctrl_sdk/src/lib_printf.c ****           }
 4406              		.loc 1 1235 13 is_stmt 1 view .LVU1104
 4407 030c 0292     		str	r2, [sp, #8]
 4408 030e 0197     		str	r7, [sp, #4]
 4409 0310 0096     		str	r6, [sp]
 4410 0312 0022     		movs	r2, #0
ARM GAS  C:\Users\Mxuan\AppData\Local\Temp\ccSEBS4R.s 			page 110


 4411              	.LVL417:
1235:Libraries/ctrl_sdk/src/lib_printf.c ****           }
 4412              		.loc 1 1235 13 is_stmt 0 view .LVU1105
 4413 0314 2846     		mov	r0, r5
 4414 0316 FFF7FEFF 		bl	print_integer
 4415              	.LVL418:
1235:Libraries/ctrl_sdk/src/lib_printf.c ****           }
 4416              		.loc 1 1235 13 view .LVU1106
 4417 031a 7EE6     		b	.L273
 4418              	.LVL419:
 4419              	.L371:
1235:Libraries/ctrl_sdk/src/lib_printf.c ****           }
 4420              		.loc 1 1235 13 view .LVU1107
 4421              	.LBE95:
1228:Libraries/ctrl_sdk/src/lib_printf.c ****           }
 4422              		.loc 1 1228 13 is_stmt 1 view .LVU1108
 4423 031c 0499     		ldr	r1, [sp, #16]
 4424 031e 081D     		adds	r0, r1, #4
 4425 0320 0490     		str	r0, [sp, #16]
 4426 0322 0968     		ldr	r1, [r1]
 4427 0324 0292     		str	r2, [sp, #8]
 4428 0326 0197     		str	r7, [sp, #4]
 4429 0328 0096     		str	r6, [sp]
 4430 032a 0022     		movs	r2, #0
 4431              	.LVL420:
1228:Libraries/ctrl_sdk/src/lib_printf.c ****           }
 4432              		.loc 1 1228 13 is_stmt 0 view .LVU1109
 4433 032c 2846     		mov	r0, r5
 4434 032e FFF7FEFF 		bl	print_integer
 4435              	.LVL421:
1228:Libraries/ctrl_sdk/src/lib_printf.c ****           }
 4436              		.loc 1 1228 13 view .LVU1110
 4437 0332 72E6     		b	.L273
 4438              	.LVL422:
 4439              	.L311:
 4440              	.LBB96:
1233:Libraries/ctrl_sdk/src/lib_printf.c ****               va_arg(args, unsigned int);
 4441              		.loc 1 1233 86 view .LVU1111
 4442 0334 14F0800F 		tst	r4, #128
 4443 0338 04D0     		beq	.L313
1233:Libraries/ctrl_sdk/src/lib_printf.c ****               va_arg(args, unsigned int);
 4444              		.loc 1 1233 59 view .LVU1112
 4445 033a 0499     		ldr	r1, [sp, #16]
 4446 033c 081D     		adds	r0, r1, #4
 4447 033e 0490     		str	r0, [sp, #16]
 4448 0340 0988     		ldrh	r1, [r1]
 4449 0342 E3E7     		b	.L312
 4450              	.L313:
1233:Libraries/ctrl_sdk/src/lib_printf.c ****               va_arg(args, unsigned int);
 4451              		.loc 1 1233 86 view .LVU1113
 4452 0344 0499     		ldr	r1, [sp, #16]
 4453 0346 081D     		adds	r0, r1, #4
 4454 0348 0490     		str	r0, [sp, #16]
 4455 034a 0968     		ldr	r1, [r1]
 4456 034c DEE7     		b	.L312
 4457              	.LVL423:
 4458              	.L297:
ARM GAS  C:\Users\Mxuan\AppData\Local\Temp\ccSEBS4R.s 			page 111


1233:Libraries/ctrl_sdk/src/lib_printf.c ****               va_arg(args, unsigned int);
 4459              		.loc 1 1233 86 view .LVU1114
 4460              	.LBE96:
 4461              	.LBE91:
1243:Libraries/ctrl_sdk/src/lib_printf.c ****         print_floating_point(output, va_arg(args, double), precision, width, flags, PRINTF_PREFER_D
 4462              		.loc 1 1243 9 is_stmt 1 view .LVU1115
1243:Libraries/ctrl_sdk/src/lib_printf.c ****         print_floating_point(output, va_arg(args, double), precision, width, flags, PRINTF_PREFER_D
 4463              		.loc 1 1243 12 is_stmt 0 view .LVU1116
 4464 034e 4629     		cmp	r1, #70
 4465 0350 14D0     		beq	.L372
 4466              	.L314:
1244:Libraries/ctrl_sdk/src/lib_printf.c ****         format++;
 4467              		.loc 1 1244 9 is_stmt 1 view .LVU1117
 4468 0352 049B     		ldr	r3, [sp, #16]
 4469 0354 0733     		adds	r3, r3, #7
 4470 0356 23F00703 		bic	r3, r3, #7
 4471 035a 03F10802 		add	r2, r3, #8
 4472 035e 0492     		str	r2, [sp, #16]
 4473 0360 D3E90023 		ldrd	r2, [r3]
 4474 0364 0021     		movs	r1, #0
 4475 0366 0391     		str	r1, [sp, #12]
 4476 0368 0294     		str	r4, [sp, #8]
 4477 036a 0197     		str	r7, [sp, #4]
 4478 036c 0096     		str	r6, [sp]
 4479 036e 2846     		mov	r0, r5
 4480 0370 FFF7FEFF 		bl	print_floating_point
 4481              	.LVL424:
1245:Libraries/ctrl_sdk/src/lib_printf.c ****         break;
 4482              		.loc 1 1245 9 view .LVU1118
1245:Libraries/ctrl_sdk/src/lib_printf.c ****         break;
 4483              		.loc 1 1245 15 is_stmt 0 view .LVU1119
 4484 0374 059B     		ldr	r3, [sp, #20]
 4485 0376 0133     		adds	r3, r3, #1
 4486 0378 0593     		str	r3, [sp, #20]
1246:Libraries/ctrl_sdk/src/lib_printf.c **** #endif
 4487              		.loc 1 1246 9 is_stmt 1 view .LVU1120
 4488 037a 4EE6     		b	.L273
 4489              	.L372:
1243:Libraries/ctrl_sdk/src/lib_printf.c ****         print_floating_point(output, va_arg(args, double), precision, width, flags, PRINTF_PREFER_D
 4490              		.loc 1 1243 29 discriminator 1 view .LVU1121
1243:Libraries/ctrl_sdk/src/lib_printf.c ****         print_floating_point(output, va_arg(args, double), precision, width, flags, PRINTF_PREFER_D
 4491              		.loc 1 1243 35 is_stmt 0 discriminator 1 view .LVU1122
 4492 037c 44F02004 		orr	r4, r4, #32
 4493              	.LVL425:
1243:Libraries/ctrl_sdk/src/lib_printf.c ****         print_floating_point(output, va_arg(args, double), precision, width, flags, PRINTF_PREFER_D
 4494              		.loc 1 1243 35 discriminator 1 view .LVU1123
 4495 0380 E7E7     		b	.L314
 4496              	.L296:
1253:Libraries/ctrl_sdk/src/lib_printf.c ****         if ((*format == 'E')||(*format == 'G')) flags |= FLAGS_UPPERCASE;
 4497              		.loc 1 1253 9 is_stmt 1 view .LVU1124
1253:Libraries/ctrl_sdk/src/lib_printf.c ****         if ((*format == 'E')||(*format == 'G')) flags |= FLAGS_UPPERCASE;
 4498              		.loc 1 1253 12 is_stmt 0 view .LVU1125
 4499 0382 6729     		cmp	r1, #103
 4500 0384 01D0     		beq	.L315
1253:Libraries/ctrl_sdk/src/lib_printf.c ****         if ((*format == 'E')||(*format == 'G')) flags |= FLAGS_UPPERCASE;
 4501              		.loc 1 1253 29 discriminator 2 view .LVU1126
 4502 0386 4729     		cmp	r1, #71
ARM GAS  C:\Users\Mxuan\AppData\Local\Temp\ccSEBS4R.s 			page 112


 4503 0388 01D1     		bne	.L316
 4504              	.L315:
1253:Libraries/ctrl_sdk/src/lib_printf.c ****         if ((*format == 'E')||(*format == 'G')) flags |= FLAGS_UPPERCASE;
 4505              		.loc 1 1253 49 is_stmt 1 discriminator 3 view .LVU1127
1253:Libraries/ctrl_sdk/src/lib_printf.c ****         if ((*format == 'E')||(*format == 'G')) flags |= FLAGS_UPPERCASE;
 4506              		.loc 1 1253 55 is_stmt 0 discriminator 3 view .LVU1128
 4507 038a 44F48054 		orr	r4, r4, #4096
 4508              	.LVL426:
 4509              	.L316:
1254:Libraries/ctrl_sdk/src/lib_printf.c ****         print_floating_point(output, va_arg(args, double), precision, width, flags, PRINTF_PREFER_E
 4510              		.loc 1 1254 9 is_stmt 1 view .LVU1129
1254:Libraries/ctrl_sdk/src/lib_printf.c ****         print_floating_point(output, va_arg(args, double), precision, width, flags, PRINTF_PREFER_E
 4511              		.loc 1 1254 12 is_stmt 0 view .LVU1130
 4512 038e 4529     		cmp	r1, #69
 4513 0390 01D0     		beq	.L317
1254:Libraries/ctrl_sdk/src/lib_printf.c ****         print_floating_point(output, va_arg(args, double), precision, width, flags, PRINTF_PREFER_E
 4514              		.loc 1 1254 29 discriminator 2 view .LVU1131
 4515 0392 4729     		cmp	r1, #71
 4516 0394 01D1     		bne	.L318
 4517              	.L317:
1254:Libraries/ctrl_sdk/src/lib_printf.c ****         print_floating_point(output, va_arg(args, double), precision, width, flags, PRINTF_PREFER_E
 4518              		.loc 1 1254 49 is_stmt 1 discriminator 3 view .LVU1132
1254:Libraries/ctrl_sdk/src/lib_printf.c ****         print_floating_point(output, va_arg(args, double), precision, width, flags, PRINTF_PREFER_E
 4519              		.loc 1 1254 55 is_stmt 0 discriminator 3 view .LVU1133
 4520 0396 44F02004 		orr	r4, r4, #32
 4521              	.LVL427:
 4522              	.L318:
1255:Libraries/ctrl_sdk/src/lib_printf.c ****         format++;
 4523              		.loc 1 1255 9 is_stmt 1 view .LVU1134
 4524 039a 049B     		ldr	r3, [sp, #16]
 4525 039c 0733     		adds	r3, r3, #7
 4526 039e 23F00703 		bic	r3, r3, #7
 4527 03a2 03F10802 		add	r2, r3, #8
 4528 03a6 0492     		str	r2, [sp, #16]
 4529 03a8 D3E90023 		ldrd	r2, [r3]
 4530 03ac 0121     		movs	r1, #1
 4531 03ae 0391     		str	r1, [sp, #12]
 4532 03b0 0294     		str	r4, [sp, #8]
 4533 03b2 0197     		str	r7, [sp, #4]
 4534 03b4 0096     		str	r6, [sp]
 4535 03b6 2846     		mov	r0, r5
 4536 03b8 FFF7FEFF 		bl	print_floating_point
 4537              	.LVL428:
1256:Libraries/ctrl_sdk/src/lib_printf.c ****         break;
 4538              		.loc 1 1256 9 view .LVU1135
1256:Libraries/ctrl_sdk/src/lib_printf.c ****         break;
 4539              		.loc 1 1256 15 is_stmt 0 view .LVU1136
 4540 03bc 059B     		ldr	r3, [sp, #20]
 4541 03be 0133     		adds	r3, r3, #1
 4542 03c0 0593     		str	r3, [sp, #20]
1257:Libraries/ctrl_sdk/src/lib_printf.c **** #endif  // PRINTF_SUPPORT_EXPONENTIAL_SPECIFIERS
 4543              		.loc 1 1257 9 is_stmt 1 view .LVU1137
 4544 03c2 2AE6     		b	.L273
 4545              	.L298:
 4546              	.LBB97:
1260:Libraries/ctrl_sdk/src/lib_printf.c ****         // pre padding
 4547              		.loc 1 1260 9 view .LVU1138
ARM GAS  C:\Users\Mxuan\AppData\Local\Temp\ccSEBS4R.s 			page 113


 4548              	.LVL429:
1262:Libraries/ctrl_sdk/src/lib_printf.c ****           while (l++ < width) {
 4549              		.loc 1 1262 9 view .LVU1139
1262:Libraries/ctrl_sdk/src/lib_printf.c ****           while (l++ < width) {
 4550              		.loc 1 1262 12 is_stmt 0 view .LVU1140
 4551 03c4 14F00204 		ands	r4, r4, #2
 4552              	.LVL430:
1262:Libraries/ctrl_sdk/src/lib_printf.c ****           while (l++ < width) {
 4553              		.loc 1 1262 12 view .LVU1141
 4554 03c8 15D0     		beq	.L357
1260:Libraries/ctrl_sdk/src/lib_printf.c ****         // pre padding
 4555              		.loc 1 1260 23 view .LVU1142
 4556 03ca 0126     		movs	r6, #1
 4557              	.LVL431:
 4558              	.L320:
1268:Libraries/ctrl_sdk/src/lib_printf.c ****         // post padding
 4559              		.loc 1 1268 9 is_stmt 1 view .LVU1143
1268:Libraries/ctrl_sdk/src/lib_printf.c ****         // post padding
 4560              		.loc 1 1268 43 is_stmt 0 view .LVU1144
 4561 03cc 049B     		ldr	r3, [sp, #16]
 4562 03ce 1A1D     		adds	r2, r3, #4
 4563 03d0 0492     		str	r2, [sp, #16]
1268:Libraries/ctrl_sdk/src/lib_printf.c ****         // post padding
 4564              		.loc 1 1268 9 view .LVU1145
 4565 03d2 1978     		ldrb	r1, [r3]	@ zero_extendqisi2
 4566 03d4 2846     		mov	r0, r5
 4567 03d6 FFF7FEFF 		bl	putchar_via_gadget
 4568              	.LVL432:
1270:Libraries/ctrl_sdk/src/lib_printf.c ****           while (l++ < width) {
 4569              		.loc 1 1270 9 is_stmt 1 view .LVU1146
1270:Libraries/ctrl_sdk/src/lib_printf.c ****           while (l++ < width) {
 4570              		.loc 1 1270 12 is_stmt 0 view .LVU1147
 4571 03da 9CB9     		cbnz	r4, .L322
 4572              	.LVL433:
 4573              	.L323:
1275:Libraries/ctrl_sdk/src/lib_printf.c ****         break;
 4574              		.loc 1 1275 9 is_stmt 1 view .LVU1148
1275:Libraries/ctrl_sdk/src/lib_printf.c ****         break;
 4575              		.loc 1 1275 15 is_stmt 0 view .LVU1149
 4576 03dc 059B     		ldr	r3, [sp, #20]
 4577 03de 0133     		adds	r3, r3, #1
 4578 03e0 0593     		str	r3, [sp, #20]
1276:Libraries/ctrl_sdk/src/lib_printf.c ****       }
 4579              		.loc 1 1276 9 is_stmt 1 view .LVU1150
 4580 03e2 1AE6     		b	.L273
 4581              	.LVL434:
 4582              	.L321:
1264:Libraries/ctrl_sdk/src/lib_printf.c ****           }
 4583              		.loc 1 1264 13 view .LVU1151
 4584 03e4 2021     		movs	r1, #32
 4585 03e6 2846     		mov	r0, r5
 4586 03e8 FFF7FEFF 		bl	putchar_via_gadget
 4587              	.LVL435:
1263:Libraries/ctrl_sdk/src/lib_printf.c ****             putchar_via_gadget(output, ' ');
 4588              		.loc 1 1263 19 is_stmt 0 view .LVU1152
 4589 03ec 3346     		mov	r3, r6
 4590              	.LVL436:
ARM GAS  C:\Users\Mxuan\AppData\Local\Temp\ccSEBS4R.s 			page 114


 4591              	.L319:
1263:Libraries/ctrl_sdk/src/lib_printf.c ****             putchar_via_gadget(output, ' ');
 4592              		.loc 1 1263 22 is_stmt 1 view .LVU1153
1263:Libraries/ctrl_sdk/src/lib_printf.c ****             putchar_via_gadget(output, ' ');
 4593              		.loc 1 1263 19 is_stmt 0 view .LVU1154
 4594 03ee 5E1C     		adds	r6, r3, #1
 4595              	.LVL437:
1263:Libraries/ctrl_sdk/src/lib_printf.c ****             putchar_via_gadget(output, ' ');
 4596              		.loc 1 1263 22 view .LVU1155
 4597 03f0 9F42     		cmp	r7, r3
 4598 03f2 F7D8     		bhi	.L321
 4599 03f4 EAE7     		b	.L320
 4600              	.LVL438:
 4601              	.L357:
1260:Libraries/ctrl_sdk/src/lib_printf.c ****         // pre padding
 4602              		.loc 1 1260 23 view .LVU1156
 4603 03f6 0123     		movs	r3, #1
 4604 03f8 F9E7     		b	.L319
 4605              	.LVL439:
 4606              	.L324:
1272:Libraries/ctrl_sdk/src/lib_printf.c ****           }
 4607              		.loc 1 1272 13 is_stmt 1 view .LVU1157
 4608 03fa 2021     		movs	r1, #32
 4609 03fc 2846     		mov	r0, r5
 4610 03fe FFF7FEFF 		bl	putchar_via_gadget
 4611              	.LVL440:
1271:Libraries/ctrl_sdk/src/lib_printf.c ****             putchar_via_gadget(output, ' ');
 4612              		.loc 1 1271 19 is_stmt 0 view .LVU1158
 4613 0402 2646     		mov	r6, r4
 4614              	.LVL441:
 4615              	.L322:
1271:Libraries/ctrl_sdk/src/lib_printf.c ****             putchar_via_gadget(output, ' ');
 4616              		.loc 1 1271 22 is_stmt 1 view .LVU1159
1271:Libraries/ctrl_sdk/src/lib_printf.c ****             putchar_via_gadget(output, ' ');
 4617              		.loc 1 1271 19 is_stmt 0 view .LVU1160
 4618 0404 741C     		adds	r4, r6, #1
 4619              	.LVL442:
1271:Libraries/ctrl_sdk/src/lib_printf.c ****             putchar_via_gadget(output, ' ');
 4620              		.loc 1 1271 22 view .LVU1161
 4621 0406 B742     		cmp	r7, r6
 4622 0408 F7D8     		bhi	.L324
 4623 040a E7E7     		b	.L323
 4624              	.LVL443:
 4625              	.L293:
1271:Libraries/ctrl_sdk/src/lib_printf.c ****             putchar_via_gadget(output, ' ');
 4626              		.loc 1 1271 22 view .LVU1162
 4627              	.LBE97:
 4628              	.LBB98:
1280:Libraries/ctrl_sdk/src/lib_printf.c ****         if (p == NULL) {
 4629              		.loc 1 1280 9 is_stmt 1 view .LVU1163
1280:Libraries/ctrl_sdk/src/lib_printf.c ****         if (p == NULL) {
 4630              		.loc 1 1280 21 is_stmt 0 view .LVU1164
 4631 040c 049B     		ldr	r3, [sp, #16]
 4632 040e 1A1D     		adds	r2, r3, #4
 4633 0410 0492     		str	r2, [sp, #16]
 4634 0412 D3F80090 		ldr	r9, [r3]
1281:Libraries/ctrl_sdk/src/lib_printf.c ****           out_rev_(output, ")llun(", 6, width, flags);
ARM GAS  C:\Users\Mxuan\AppData\Local\Temp\ccSEBS4R.s 			page 115


 4635              		.loc 1 1281 9 is_stmt 1 view .LVU1165
1281:Libraries/ctrl_sdk/src/lib_printf.c ****           out_rev_(output, ")llun(", 6, width, flags);
 4636              		.loc 1 1281 12 is_stmt 0 view .LVU1166
 4637 0416 B9F1000F 		cmp	r9, #0
 4638 041a 04D0     		beq	.L373
 4639              	.LBB99:
1285:Libraries/ctrl_sdk/src/lib_printf.c ****           // pre padding
 4640              		.loc 1 1285 11 is_stmt 1 view .LVU1167
1285:Libraries/ctrl_sdk/src/lib_printf.c ****           // pre padding
 4641              		.loc 1 1285 29 is_stmt 0 view .LVU1168
 4642 041c F6B9     		cbnz	r6, .L327
 4643 041e 6FF00042 		mvn	r2, #-2147483648
 4644              	.L328:
 4645 0422 4B46     		mov	r3, r9
 4646 0424 09E0     		b	.L329
 4647              	.L373:
 4648              	.LBE99:
1282:Libraries/ctrl_sdk/src/lib_printf.c ****         }
 4649              		.loc 1 1282 11 is_stmt 1 view .LVU1169
 4650 0426 0094     		str	r4, [sp]
 4651 0428 3B46     		mov	r3, r7
 4652 042a 0622     		movs	r2, #6
 4653 042c 4B49     		ldr	r1, .L375
 4654 042e 2846     		mov	r0, r5
 4655 0430 FFF7FEFF 		bl	out_rev_
 4656              	.LVL444:
 4657 0434 2EE0     		b	.L326
 4658              	.LVL445:
 4659              	.L331:
 4660              	.LBB102:
 4661              	.LBB100:
 4662              	.LBB101:
 407:Libraries/ctrl_sdk/src/lib_printf.c ****   return (printf_size_t)(s - str);
 4663              		.loc 1 407 34 view .LVU1170
 4664 0436 0133     		adds	r3, r3, #1
 4665              	.LVL446:
 407:Libraries/ctrl_sdk/src/lib_printf.c ****   return (printf_size_t)(s - str);
 4666              		.loc 1 407 30 is_stmt 0 view .LVU1171
 4667 0438 0A46     		mov	r2, r1
 4668              	.LVL447:
 4669              	.L329:
 407:Libraries/ctrl_sdk/src/lib_printf.c ****   return (printf_size_t)(s - str);
 4670              		.loc 1 407 20 is_stmt 1 view .LVU1172
 407:Libraries/ctrl_sdk/src/lib_printf.c ****   return (printf_size_t)(s - str);
 4671              		.loc 1 407 17 is_stmt 0 view .LVU1173
 4672 043a 1978     		ldrb	r1, [r3]	@ zero_extendqisi2
 407:Libraries/ctrl_sdk/src/lib_printf.c ****   return (printf_size_t)(s - str);
 4673              		.loc 1 407 20 view .LVU1174
 4674 043c 11B1     		cbz	r1, .L330
 407:Libraries/ctrl_sdk/src/lib_printf.c ****   return (printf_size_t)(s - str);
 4675              		.loc 1 407 30 view .LVU1175
 4676 043e 511E     		subs	r1, r2, #1
 4677              	.LVL448:
 407:Libraries/ctrl_sdk/src/lib_printf.c ****   return (printf_size_t)(s - str);
 4678              		.loc 1 407 20 view .LVU1176
 4679 0440 002A     		cmp	r2, #0
 4680 0442 F8D1     		bne	.L331
ARM GAS  C:\Users\Mxuan\AppData\Local\Temp\ccSEBS4R.s 			page 116


 4681              	.LVL449:
 4682              	.L330:
 408:Libraries/ctrl_sdk/src/lib_printf.c **** }
 4683              		.loc 1 408 3 is_stmt 1 view .LVU1177
 408:Libraries/ctrl_sdk/src/lib_printf.c **** }
 4684              		.loc 1 408 28 is_stmt 0 view .LVU1178
 4685 0444 A3EB0908 		sub	r8, r3, r9
 4686              	.LVL450:
 408:Libraries/ctrl_sdk/src/lib_printf.c **** }
 4687              		.loc 1 408 28 view .LVU1179
 4688              	.LBE101:
 4689              	.LBE100:
1287:Libraries/ctrl_sdk/src/lib_printf.c ****             l = (l < precision ? l : precision);
 4690              		.loc 1 1287 11 is_stmt 1 view .LVU1180
1287:Libraries/ctrl_sdk/src/lib_printf.c ****             l = (l < precision ? l : precision);
 4691              		.loc 1 1287 14 is_stmt 0 view .LVU1181
 4692 0448 14F4006A 		ands	r10, r4, #2048
 4693 044c 02D0     		beq	.L332
1288:Libraries/ctrl_sdk/src/lib_printf.c ****           }
 4694              		.loc 1 1288 13 is_stmt 1 view .LVU1182
1288:Libraries/ctrl_sdk/src/lib_printf.c ****           }
 4695              		.loc 1 1288 15 is_stmt 0 view .LVU1183
 4696 044e B045     		cmp	r8, r6
 4697 0450 28BF     		it	cs
 4698 0452 B046     		movcs	r8, r6
 4699              	.LVL451:
 4700              	.L332:
1290:Libraries/ctrl_sdk/src/lib_printf.c ****             while (l++ < width) {
 4701              		.loc 1 1290 11 is_stmt 1 view .LVU1184
1290:Libraries/ctrl_sdk/src/lib_printf.c ****             while (l++ < width) {
 4702              		.loc 1 1290 14 is_stmt 0 view .LVU1185
 4703 0454 14F00204 		ands	r4, r4, #2
 4704              	.LVL452:
1290:Libraries/ctrl_sdk/src/lib_printf.c ****             while (l++ < width) {
 4705              		.loc 1 1290 14 view .LVU1186
 4706 0458 13D1     		bne	.L336
1290:Libraries/ctrl_sdk/src/lib_printf.c ****             while (l++ < width) {
 4707              		.loc 1 1290 14 view .LVU1187
 4708 045a 06E0     		b	.L333
 4709              	.LVL453:
 4710              	.L327:
1285:Libraries/ctrl_sdk/src/lib_printf.c ****           // pre padding
 4711              		.loc 1 1285 29 view .LVU1188
 4712 045c 3246     		mov	r2, r6
 4713 045e E0E7     		b	.L328
 4714              	.LVL454:
 4715              	.L335:
1292:Libraries/ctrl_sdk/src/lib_printf.c ****             }
 4716              		.loc 1 1292 15 is_stmt 1 view .LVU1189
 4717 0460 2021     		movs	r1, #32
 4718 0462 2846     		mov	r0, r5
 4719 0464 FFF7FEFF 		bl	putchar_via_gadget
 4720              	.LVL455:
1291:Libraries/ctrl_sdk/src/lib_printf.c ****               putchar_via_gadget(output, ' ');
 4721              		.loc 1 1291 21 is_stmt 0 view .LVU1190
 4722 0468 D846     		mov	r8, fp
 4723              	.LVL456:
ARM GAS  C:\Users\Mxuan\AppData\Local\Temp\ccSEBS4R.s 			page 117


 4724              	.L333:
1291:Libraries/ctrl_sdk/src/lib_printf.c ****               putchar_via_gadget(output, ' ');
 4725              		.loc 1 1291 24 is_stmt 1 view .LVU1191
1291:Libraries/ctrl_sdk/src/lib_printf.c ****               putchar_via_gadget(output, ' ');
 4726              		.loc 1 1291 21 is_stmt 0 view .LVU1192
 4727 046a 08F1010B 		add	fp, r8, #1
 4728              	.LVL457:
1291:Libraries/ctrl_sdk/src/lib_printf.c ****               putchar_via_gadget(output, ' ');
 4729              		.loc 1 1291 24 view .LVU1193
 4730 046e 4745     		cmp	r7, r8
 4731 0470 F6D8     		bhi	.L335
1291:Libraries/ctrl_sdk/src/lib_printf.c ****               putchar_via_gadget(output, ' ');
 4732              		.loc 1 1291 21 view .LVU1194
 4733 0472 D846     		mov	r8, fp
 4734 0474 05E0     		b	.L336
 4735              	.LVL458:
 4736              	.L338:
1297:Libraries/ctrl_sdk/src/lib_printf.c ****             --precision;
 4737              		.loc 1 1297 13 is_stmt 1 view .LVU1195
1297:Libraries/ctrl_sdk/src/lib_printf.c ****             --precision;
 4738              		.loc 1 1297 43 is_stmt 0 view .LVU1196
 4739 0476 09F10109 		add	r9, r9, #1
 4740              	.LVL459:
1297:Libraries/ctrl_sdk/src/lib_printf.c ****             --precision;
 4741              		.loc 1 1297 13 view .LVU1197
 4742 047a 2846     		mov	r0, r5
 4743 047c FFF7FEFF 		bl	putchar_via_gadget
 4744              	.LVL460:
1298:Libraries/ctrl_sdk/src/lib_printf.c ****           }
 4745              		.loc 1 1298 13 is_stmt 1 view .LVU1198
 4746 0480 013E     		subs	r6, r6, #1
 4747              	.LVL461:
 4748              	.L336:
1296:Libraries/ctrl_sdk/src/lib_printf.c ****             putchar_via_gadget(output, *(p++));
 4749              		.loc 1 1296 28 view .LVU1199
1296:Libraries/ctrl_sdk/src/lib_printf.c ****             putchar_via_gadget(output, *(p++));
 4750              		.loc 1 1296 19 is_stmt 0 view .LVU1200
 4751 0482 99F80010 		ldrb	r1, [r9]	@ zero_extendqisi2
1296:Libraries/ctrl_sdk/src/lib_printf.c ****             putchar_via_gadget(output, *(p++));
 4752              		.loc 1 1296 28 view .LVU1201
 4753 0486 21B1     		cbz	r1, .L337
1296:Libraries/ctrl_sdk/src/lib_printf.c ****             putchar_via_gadget(output, *(p++));
 4754              		.loc 1 1296 28 discriminator 1 view .LVU1202
 4755 0488 BAF1000F 		cmp	r10, #0
 4756 048c F3D0     		beq	.L338
1296:Libraries/ctrl_sdk/src/lib_printf.c ****             putchar_via_gadget(output, *(p++));
 4757              		.loc 1 1296 59 discriminator 2 view .LVU1203
 4758 048e 002E     		cmp	r6, #0
 4759 0490 F1D1     		bne	.L338
 4760              	.L337:
1301:Libraries/ctrl_sdk/src/lib_printf.c ****             while (l++ < width) {
 4761              		.loc 1 1301 11 is_stmt 1 view .LVU1204
1301:Libraries/ctrl_sdk/src/lib_printf.c ****             while (l++ < width) {
 4762              		.loc 1 1301 14 is_stmt 0 view .LVU1205
 4763 0492 44B9     		cbnz	r4, .L339
 4764              	.LVL462:
 4765              	.L326:
ARM GAS  C:\Users\Mxuan\AppData\Local\Temp\ccSEBS4R.s 			page 118


1301:Libraries/ctrl_sdk/src/lib_printf.c ****             while (l++ < width) {
 4766              		.loc 1 1301 14 view .LVU1206
 4767              	.LBE102:
1307:Libraries/ctrl_sdk/src/lib_printf.c ****         break;
 4768              		.loc 1 1307 9 is_stmt 1 view .LVU1207
1307:Libraries/ctrl_sdk/src/lib_printf.c ****         break;
 4769              		.loc 1 1307 15 is_stmt 0 view .LVU1208
 4770 0494 059B     		ldr	r3, [sp, #20]
 4771 0496 0133     		adds	r3, r3, #1
 4772 0498 0593     		str	r3, [sp, #20]
1308:Libraries/ctrl_sdk/src/lib_printf.c ****       }
 4773              		.loc 1 1308 9 is_stmt 1 view .LVU1209
 4774 049a BEE5     		b	.L273
 4775              	.LVL463:
 4776              	.L340:
 4777              	.LBB103:
1303:Libraries/ctrl_sdk/src/lib_printf.c ****             }
 4778              		.loc 1 1303 15 view .LVU1210
 4779 049c 2021     		movs	r1, #32
 4780 049e 2846     		mov	r0, r5
 4781 04a0 FFF7FEFF 		bl	putchar_via_gadget
 4782              	.LVL464:
1302:Libraries/ctrl_sdk/src/lib_printf.c ****               putchar_via_gadget(output, ' ');
 4783              		.loc 1 1302 21 is_stmt 0 view .LVU1211
 4784 04a4 A046     		mov	r8, r4
 4785              	.LVL465:
 4786              	.L339:
1302:Libraries/ctrl_sdk/src/lib_printf.c ****               putchar_via_gadget(output, ' ');
 4787              		.loc 1 1302 24 is_stmt 1 view .LVU1212
1302:Libraries/ctrl_sdk/src/lib_printf.c ****               putchar_via_gadget(output, ' ');
 4788              		.loc 1 1302 21 is_stmt 0 view .LVU1213
 4789 04a6 08F10104 		add	r4, r8, #1
 4790              	.LVL466:
1302:Libraries/ctrl_sdk/src/lib_printf.c ****               putchar_via_gadget(output, ' ');
 4791              		.loc 1 1302 24 view .LVU1214
 4792 04aa 4745     		cmp	r7, r8
 4793 04ac F6D8     		bhi	.L340
 4794 04ae F1E7     		b	.L326
 4795              	.LVL467:
 4796              	.L294:
1302:Libraries/ctrl_sdk/src/lib_printf.c ****               putchar_via_gadget(output, ' ');
 4797              		.loc 1 1302 24 view .LVU1215
 4798              	.LBE103:
 4799              	.LBE98:
 4800              	.LBB104:
1312:Libraries/ctrl_sdk/src/lib_printf.c ****         flags |= FLAGS_ZEROPAD | FLAGS_POINTER;
 4801              		.loc 1 1312 9 is_stmt 1 view .LVU1216
1313:Libraries/ctrl_sdk/src/lib_printf.c ****         uintptr_t value = (uintptr_t)va_arg(args, void*);
 4802              		.loc 1 1313 9 view .LVU1217
1313:Libraries/ctrl_sdk/src/lib_printf.c ****         uintptr_t value = (uintptr_t)va_arg(args, void*);
 4803              		.loc 1 1313 15 is_stmt 0 view .LVU1218
 4804 04b0 44F40054 		orr	r4, r4, #8192
 4805              	.LVL468:
1313:Libraries/ctrl_sdk/src/lib_printf.c ****         uintptr_t value = (uintptr_t)va_arg(args, void*);
 4806              		.loc 1 1313 15 view .LVU1219
 4807 04b4 44F00104 		orr	r4, r4, #1
 4808              	.LVL469:
ARM GAS  C:\Users\Mxuan\AppData\Local\Temp\ccSEBS4R.s 			page 119


1314:Libraries/ctrl_sdk/src/lib_printf.c ****         (value == (uintptr_t) NULL) ?
 4809              		.loc 1 1314 9 is_stmt 1 view .LVU1220
1314:Libraries/ctrl_sdk/src/lib_printf.c ****         (value == (uintptr_t) NULL) ?
 4810              		.loc 1 1314 38 is_stmt 0 view .LVU1221
 4811 04b8 049B     		ldr	r3, [sp, #16]
 4812 04ba 1A1D     		adds	r2, r3, #4
 4813 04bc 0492     		str	r2, [sp, #16]
 4814 04be 1968     		ldr	r1, [r3]
 4815              	.LVL470:
1315:Libraries/ctrl_sdk/src/lib_printf.c ****           out_rev_(output, ")lin(", 5, width, flags) :
 4816              		.loc 1 1315 9 is_stmt 1 view .LVU1222
1316:Libraries/ctrl_sdk/src/lib_printf.c ****           print_integer(output, (printf_unsigned_value_t) value, false, BASE_HEX, precision, width,
 4817              		.loc 1 1316 54 is_stmt 0 view .LVU1223
 4818 04c0 61B1     		cbz	r1, .L374
1317:Libraries/ctrl_sdk/src/lib_printf.c ****         format++;
 4819              		.loc 1 1317 11 view .LVU1224
 4820 04c2 0294     		str	r4, [sp, #8]
 4821 04c4 0A23     		movs	r3, #10
 4822 04c6 0193     		str	r3, [sp, #4]
 4823 04c8 0096     		str	r6, [sp]
 4824 04ca 1023     		movs	r3, #16
 4825 04cc 0022     		movs	r2, #0
 4826 04ce 2846     		mov	r0, r5
 4827 04d0 FFF7FEFF 		bl	print_integer
 4828              	.LVL471:
 4829              	.L342:
1318:Libraries/ctrl_sdk/src/lib_printf.c ****         break;
 4830              		.loc 1 1318 9 is_stmt 1 view .LVU1225
1318:Libraries/ctrl_sdk/src/lib_printf.c ****         break;
 4831              		.loc 1 1318 15 is_stmt 0 view .LVU1226
 4832 04d4 059B     		ldr	r3, [sp, #20]
 4833 04d6 0133     		adds	r3, r3, #1
 4834 04d8 0593     		str	r3, [sp, #20]
1319:Libraries/ctrl_sdk/src/lib_printf.c ****       }
 4835              		.loc 1 1319 9 is_stmt 1 view .LVU1227
 4836 04da 9EE5     		b	.L273
 4837              	.LVL472:
 4838              	.L374:
1316:Libraries/ctrl_sdk/src/lib_printf.c ****           print_integer(output, (printf_unsigned_value_t) value, false, BASE_HEX, precision, width,
 4839              		.loc 1 1316 11 is_stmt 0 discriminator 1 view .LVU1228
 4840 04dc 0094     		str	r4, [sp]
 4841 04de 0A23     		movs	r3, #10
 4842 04e0 0522     		movs	r2, #5
 4843 04e2 1F49     		ldr	r1, .L375+4
 4844              	.LVL473:
1316:Libraries/ctrl_sdk/src/lib_printf.c ****           print_integer(output, (printf_unsigned_value_t) value, false, BASE_HEX, precision, width,
 4845              		.loc 1 1316 11 discriminator 1 view .LVU1229
 4846 04e4 2846     		mov	r0, r5
 4847 04e6 FFF7FEFF 		bl	out_rev_
 4848              	.LVL474:
 4849 04ea F3E7     		b	.L342
 4850              	.LVL475:
 4851              	.L299:
1316:Libraries/ctrl_sdk/src/lib_printf.c ****           print_integer(output, (printf_unsigned_value_t) value, false, BASE_HEX, precision, width,
 4852              		.loc 1 1316 11 discriminator 1 view .LVU1230
 4853              	.LBE104:
1323:Libraries/ctrl_sdk/src/lib_printf.c ****         format++;
ARM GAS  C:\Users\Mxuan\AppData\Local\Temp\ccSEBS4R.s 			page 120


 4854              		.loc 1 1323 9 is_stmt 1 view .LVU1231
 4855 04ec 2521     		movs	r1, #37
 4856 04ee 2846     		mov	r0, r5
 4857 04f0 FFF7FEFF 		bl	putchar_via_gadget
 4858              	.LVL476:
1324:Libraries/ctrl_sdk/src/lib_printf.c ****         break;
 4859              		.loc 1 1324 9 view .LVU1232
1324:Libraries/ctrl_sdk/src/lib_printf.c ****         break;
 4860              		.loc 1 1324 15 is_stmt 0 view .LVU1233
 4861 04f4 059B     		ldr	r3, [sp, #20]
 4862 04f6 0133     		adds	r3, r3, #1
 4863 04f8 0593     		str	r3, [sp, #20]
1325:Libraries/ctrl_sdk/src/lib_printf.c **** 
 4864              		.loc 1 1325 9 is_stmt 1 view .LVU1234
 4865 04fa 8EE5     		b	.L273
 4866              	.L295:
1332:Libraries/ctrl_sdk/src/lib_printf.c ****         else if  (flags & FLAGS_SHORT)     *(va_arg(args, short*))     = (short) output->pos;
 4867              		.loc 1 1332 9 view .LVU1235
1332:Libraries/ctrl_sdk/src/lib_printf.c ****         else if  (flags & FLAGS_SHORT)     *(va_arg(args, short*))     = (short) output->pos;
 4868              		.loc 1 1332 18 is_stmt 0 view .LVU1236
 4869 04fc 14F0400F 		tst	r4, #64
 4870 0500 09D0     		beq	.L343
1332:Libraries/ctrl_sdk/src/lib_printf.c ****         else if  (flags & FLAGS_SHORT)     *(va_arg(args, short*))     = (short) output->pos;
 4871              		.loc 1 1332 44 is_stmt 1 discriminator 1 view .LVU1237
1332:Libraries/ctrl_sdk/src/lib_printf.c ****         else if  (flags & FLAGS_SHORT)     *(va_arg(args, short*))     = (short) output->pos;
 4872              		.loc 1 1332 46 is_stmt 0 discriminator 1 view .LVU1238
 4873 0502 049B     		ldr	r3, [sp, #16]
 4874 0504 1A1D     		adds	r2, r3, #4
 4875 0506 0492     		str	r2, [sp, #16]
 4876 0508 1B68     		ldr	r3, [r3]
1332:Libraries/ctrl_sdk/src/lib_printf.c ****         else if  (flags & FLAGS_SHORT)     *(va_arg(args, short*))     = (short) output->pos;
 4877              		.loc 1 1332 74 discriminator 1 view .LVU1239
 4878 050a 2A7B     		ldrb	r2, [r5, #12]	@ zero_extendqisi2
1332:Libraries/ctrl_sdk/src/lib_printf.c ****         else if  (flags & FLAGS_SHORT)     *(va_arg(args, short*))     = (short) output->pos;
 4879              		.loc 1 1332 72 discriminator 1 view .LVU1240
 4880 050c 1A70     		strb	r2, [r3]
 4881              	.L344:
1339:Libraries/ctrl_sdk/src/lib_printf.c ****         break;
 4882              		.loc 1 1339 9 is_stmt 1 view .LVU1241
1339:Libraries/ctrl_sdk/src/lib_printf.c ****         break;
 4883              		.loc 1 1339 15 is_stmt 0 view .LVU1242
 4884 050e 059B     		ldr	r3, [sp, #20]
 4885 0510 0133     		adds	r3, r3, #1
 4886 0512 0593     		str	r3, [sp, #20]
1340:Libraries/ctrl_sdk/src/lib_printf.c ****       }
 4887              		.loc 1 1340 9 is_stmt 1 view .LVU1243
 4888 0514 81E5     		b	.L273
 4889              	.L343:
1333:Libraries/ctrl_sdk/src/lib_printf.c ****         else if  (flags & FLAGS_LONG)      *(va_arg(args, long*))      = (long) output->pos;
 4890              		.loc 1 1333 14 view .LVU1244
1333:Libraries/ctrl_sdk/src/lib_printf.c ****         else if  (flags & FLAGS_LONG)      *(va_arg(args, long*))      = (long) output->pos;
 4891              		.loc 1 1333 18 is_stmt 0 view .LVU1245
 4892 0516 14F0800F 		tst	r4, #128
 4893 051a 07D0     		beq	.L345
1333:Libraries/ctrl_sdk/src/lib_printf.c ****         else if  (flags & FLAGS_LONG)      *(va_arg(args, long*))      = (long) output->pos;
 4894              		.loc 1 1333 44 is_stmt 1 discriminator 1 view .LVU1246
1333:Libraries/ctrl_sdk/src/lib_printf.c ****         else if  (flags & FLAGS_LONG)      *(va_arg(args, long*))      = (long) output->pos;
ARM GAS  C:\Users\Mxuan\AppData\Local\Temp\ccSEBS4R.s 			page 121


 4895              		.loc 1 1333 46 is_stmt 0 discriminator 1 view .LVU1247
 4896 051c 049B     		ldr	r3, [sp, #16]
 4897 051e 1A1D     		adds	r2, r3, #4
 4898 0520 0492     		str	r2, [sp, #16]
 4899 0522 1B68     		ldr	r3, [r3]
1333:Libraries/ctrl_sdk/src/lib_printf.c ****         else if  (flags & FLAGS_LONG)      *(va_arg(args, long*))      = (long) output->pos;
 4900              		.loc 1 1333 74 discriminator 1 view .LVU1248
 4901 0524 B5F90C20 		ldrsh	r2, [r5, #12]
1333:Libraries/ctrl_sdk/src/lib_printf.c ****         else if  (flags & FLAGS_LONG)      *(va_arg(args, long*))      = (long) output->pos;
 4902              		.loc 1 1333 72 discriminator 1 view .LVU1249
 4903 0528 1A80     		strh	r2, [r3]	@ movhi
 4904 052a F0E7     		b	.L344
 4905              	.L345:
1334:Libraries/ctrl_sdk/src/lib_printf.c **** #if PRINTF_SUPPORT_LONG_LONG
 4906              		.loc 1 1334 14 is_stmt 1 view .LVU1250
1334:Libraries/ctrl_sdk/src/lib_printf.c **** #if PRINTF_SUPPORT_LONG_LONG
 4907              		.loc 1 1334 18 is_stmt 0 view .LVU1251
 4908 052c 14F4007F 		tst	r4, #512
 4909 0530 06D0     		beq	.L346
1334:Libraries/ctrl_sdk/src/lib_printf.c **** #if PRINTF_SUPPORT_LONG_LONG
 4910              		.loc 1 1334 44 is_stmt 1 discriminator 1 view .LVU1252
1334:Libraries/ctrl_sdk/src/lib_printf.c **** #if PRINTF_SUPPORT_LONG_LONG
 4911              		.loc 1 1334 87 is_stmt 0 discriminator 1 view .LVU1253
 4912 0532 EA68     		ldr	r2, [r5, #12]
1334:Libraries/ctrl_sdk/src/lib_printf.c **** #if PRINTF_SUPPORT_LONG_LONG
 4913              		.loc 1 1334 46 discriminator 1 view .LVU1254
 4914 0534 049B     		ldr	r3, [sp, #16]
 4915 0536 191D     		adds	r1, r3, #4
 4916 0538 0491     		str	r1, [sp, #16]
 4917 053a 1B68     		ldr	r3, [r3]
1334:Libraries/ctrl_sdk/src/lib_printf.c **** #if PRINTF_SUPPORT_LONG_LONG
 4918              		.loc 1 1334 72 discriminator 1 view .LVU1255
 4919 053c 1A60     		str	r2, [r3]
 4920 053e E6E7     		b	.L344
 4921              	.L346:
1338:Libraries/ctrl_sdk/src/lib_printf.c ****         format++;
 4922              		.loc 1 1338 44 is_stmt 1 view .LVU1256
1338:Libraries/ctrl_sdk/src/lib_printf.c ****         format++;
 4923              		.loc 1 1338 86 is_stmt 0 view .LVU1257
 4924 0540 EA68     		ldr	r2, [r5, #12]
1338:Libraries/ctrl_sdk/src/lib_printf.c ****         format++;
 4925              		.loc 1 1338 46 view .LVU1258
 4926 0542 049B     		ldr	r3, [sp, #16]
 4927 0544 191D     		adds	r1, r3, #4
 4928 0546 0491     		str	r1, [sp, #16]
 4929 0548 1B68     		ldr	r3, [r3]
1338:Libraries/ctrl_sdk/src/lib_printf.c ****         format++;
 4930              		.loc 1 1338 72 view .LVU1259
 4931 054a 1A60     		str	r2, [r3]
 4932 054c DFE7     		b	.L344
 4933              	.L290:
1345:Libraries/ctrl_sdk/src/lib_printf.c ****         format++;
 4934              		.loc 1 1345 9 is_stmt 1 view .LVU1260
 4935 054e 2846     		mov	r0, r5
 4936 0550 FFF7FEFF 		bl	putchar_via_gadget
 4937              	.LVL477:
1346:Libraries/ctrl_sdk/src/lib_printf.c ****         break;
ARM GAS  C:\Users\Mxuan\AppData\Local\Temp\ccSEBS4R.s 			page 122


 4938              		.loc 1 1346 9 view .LVU1261
1346:Libraries/ctrl_sdk/src/lib_printf.c ****         break;
 4939              		.loc 1 1346 15 is_stmt 0 view .LVU1262
 4940 0554 059B     		ldr	r3, [sp, #20]
 4941 0556 0133     		adds	r3, r3, #1
 4942 0558 0593     		str	r3, [sp, #20]
1347:Libraries/ctrl_sdk/src/lib_printf.c ****     }
 4943              		.loc 1 1347 9 is_stmt 1 view .LVU1263
 4944 055a 5EE5     		b	.L273
 4945              	.L376:
 4946              		.align	2
 4947              	.L375:
 4948 055c 00000000 		.word	.LC4
 4949 0560 08000000 		.word	.LC5
 4950              	.LBE106:
 4951              		.cfi_endproc
 4952              	.LFE29:
 4954              		.section	.text.vsnprintf_impl,"ax",%progbits
 4955              		.align	1
 4956              		.syntax unified
 4957              		.thumb
 4958              		.thumb_func
 4960              	vsnprintf_impl:
 4961              	.LVL478:
 4962              	.LFB30:
1351:Libraries/ctrl_sdk/src/lib_printf.c **** 
1352:Libraries/ctrl_sdk/src/lib_printf.c **** // internal vsnprintf - used for implementing _all library functions
1353:Libraries/ctrl_sdk/src/lib_printf.c **** static int vsnprintf_impl(output_gadget_t* output, const char* format, va_list args)
1354:Libraries/ctrl_sdk/src/lib_printf.c **** {
 4963              		.loc 1 1354 1 view -0
 4964              		.cfi_startproc
 4965              		@ args = 0, pretend = 0, frame = 0
 4966              		@ frame_needed = 0, uses_anonymous_args = 0
 4967              		.loc 1 1354 1 is_stmt 0 view .LVU1265
 4968 0000 10B5     		push	{r4, lr}
 4969              	.LCFI62:
 4970              		.cfi_def_cfa_offset 8
 4971              		.cfi_offset 4, -8
 4972              		.cfi_offset 14, -4
 4973 0002 0446     		mov	r4, r0
1355:Libraries/ctrl_sdk/src/lib_printf.c ****   // Note: The library only calls vsnprintf_impl() with output->pos being 0. However, it is
1356:Libraries/ctrl_sdk/src/lib_printf.c ****   // possible to call this function with a non-zero pos value for some "remedial printing".
1357:Libraries/ctrl_sdk/src/lib_printf.c ****   format_string_loop(output, format, args);
 4974              		.loc 1 1357 3 is_stmt 1 view .LVU1266
 4975 0004 FFF7FEFF 		bl	format_string_loop
 4976              	.LVL479:
1358:Libraries/ctrl_sdk/src/lib_printf.c **** 
1359:Libraries/ctrl_sdk/src/lib_printf.c ****   // termination
1360:Libraries/ctrl_sdk/src/lib_printf.c ****   append_termination_with_gadget(output);
 4977              		.loc 1 1360 3 view .LVU1267
 4978 0008 2046     		mov	r0, r4
 4979 000a FFF7FEFF 		bl	append_termination_with_gadget
 4980              	.LVL480:
1361:Libraries/ctrl_sdk/src/lib_printf.c **** 
1362:Libraries/ctrl_sdk/src/lib_printf.c ****   // return written chars without terminating \0
1363:Libraries/ctrl_sdk/src/lib_printf.c ****   return (int)output->pos;
 4981              		.loc 1 1363 3 view .LVU1268
ARM GAS  C:\Users\Mxuan\AppData\Local\Temp\ccSEBS4R.s 			page 123


1364:Libraries/ctrl_sdk/src/lib_printf.c **** }
 4982              		.loc 1 1364 1 is_stmt 0 view .LVU1269
 4983 000e E068     		ldr	r0, [r4, #12]
 4984 0010 10BD     		pop	{r4, pc}
 4985              		.loc 1 1364 1 view .LVU1270
 4986              		.cfi_endproc
 4987              	.LFE30:
 4989              		.section	.text.putchar_wrapper,"ax",%progbits
 4990              		.align	1
 4991              		.syntax unified
 4992              		.thumb
 4993              		.thumb_func
 4995              	putchar_wrapper:
 4996              	.LVL481:
 4997              	.LFB5:
 358:Libraries/ctrl_sdk/src/lib_printf.c ****   (void) unused;
 4998              		.loc 1 358 1 is_stmt 1 view -0
 4999              		.cfi_startproc
 5000              		@ args = 0, pretend = 0, frame = 0
 5001              		@ frame_needed = 0, uses_anonymous_args = 0
 358:Libraries/ctrl_sdk/src/lib_printf.c ****   (void) unused;
 5002              		.loc 1 358 1 is_stmt 0 view .LVU1272
 5003 0000 08B5     		push	{r3, lr}
 5004              	.LCFI63:
 5005              		.cfi_def_cfa_offset 8
 5006              		.cfi_offset 3, -8
 5007              		.cfi_offset 14, -4
 359:Libraries/ctrl_sdk/src/lib_printf.c ****   putchar_(c);
 5008              		.loc 1 359 3 is_stmt 1 view .LVU1273
 360:Libraries/ctrl_sdk/src/lib_printf.c **** }
 5009              		.loc 1 360 3 view .LVU1274
 5010 0002 FFF7FEFF 		bl	putchar_
 5011              	.LVL482:
 361:Libraries/ctrl_sdk/src/lib_printf.c **** 
 5012              		.loc 1 361 1 is_stmt 0 view .LVU1275
 5013 0006 08BD     		pop	{r3, pc}
 5014              		.cfi_endproc
 5015              	.LFE5:
 5017              		.section	.text.lib_vprintf,"ax",%progbits
 5018              		.align	1
 5019              		.global	lib_vprintf
 5020              		.syntax unified
 5021              		.thumb
 5022              		.thumb_func
 5024              	lib_vprintf:
 5025              	.LVL483:
 5026              	.LFB31:
1365:Libraries/ctrl_sdk/src/lib_printf.c **** 
1366:Libraries/ctrl_sdk/src/lib_printf.c **** ///////////////////////////////////////////////////////////////////////////////
1367:Libraries/ctrl_sdk/src/lib_printf.c **** 
1368:Libraries/ctrl_sdk/src/lib_printf.c **** int vprintf_(const char* format, va_list arg)
1369:Libraries/ctrl_sdk/src/lib_printf.c **** {
 5027              		.loc 1 1369 1 is_stmt 1 view -0
 5028              		.cfi_startproc
 5029              		@ args = 0, pretend = 0, frame = 24
 5030              		@ frame_needed = 0, uses_anonymous_args = 0
 5031              		.loc 1 1369 1 is_stmt 0 view .LVU1277
ARM GAS  C:\Users\Mxuan\AppData\Local\Temp\ccSEBS4R.s 			page 124


 5032 0000 30B5     		push	{r4, r5, lr}
 5033              	.LCFI64:
 5034              		.cfi_def_cfa_offset 12
 5035              		.cfi_offset 4, -12
 5036              		.cfi_offset 5, -8
 5037              		.cfi_offset 14, -4
 5038 0002 87B0     		sub	sp, sp, #28
 5039              	.LCFI65:
 5040              		.cfi_def_cfa_offset 40
 5041 0004 0446     		mov	r4, r0
 5042 0006 0D46     		mov	r5, r1
 5043              	.LVL484:
1370:Libraries/ctrl_sdk/src/lib_printf.c ****   output_gadget_t gadget = extern_putchar_gadget();
 5044              		.loc 1 1370 3 is_stmt 1 view .LVU1278
 5045              	.LBB107:
 5046              	.LBI107:
 395:Libraries/ctrl_sdk/src/lib_printf.c **** {
 5047              		.loc 1 395 31 view .LVU1279
 5048              	.LBB108:
 397:Libraries/ctrl_sdk/src/lib_printf.c **** }
 5049              		.loc 1 397 3 view .LVU1280
 397:Libraries/ctrl_sdk/src/lib_printf.c **** }
 5050              		.loc 1 397 10 is_stmt 0 view .LVU1281
 5051 0008 0022     		movs	r2, #0
 5052 000a 0549     		ldr	r1, .L383
 5053 000c 01A8     		add	r0, sp, #4
 5054              	.LVL485:
 397:Libraries/ctrl_sdk/src/lib_printf.c **** }
 5055              		.loc 1 397 10 view .LVU1282
 5056 000e FFF7FEFF 		bl	function_gadget
 5057              	.LVL486:
 5058              	.LBE108:
 5059              	.LBE107:
1371:Libraries/ctrl_sdk/src/lib_printf.c ****   return vsnprintf_impl(&gadget, format, arg);
 5060              		.loc 1 1371 3 is_stmt 1 view .LVU1283
 5061              		.loc 1 1371 10 is_stmt 0 view .LVU1284
 5062 0012 2A46     		mov	r2, r5
 5063 0014 2146     		mov	r1, r4
 5064 0016 01A8     		add	r0, sp, #4
 5065 0018 FFF7FEFF 		bl	vsnprintf_impl
 5066              	.LVL487:
1372:Libraries/ctrl_sdk/src/lib_printf.c **** }
 5067              		.loc 1 1372 1 view .LVU1285
 5068 001c 07B0     		add	sp, sp, #28
 5069              	.LCFI66:
 5070              		.cfi_def_cfa_offset 12
 5071              		@ sp needed
 5072 001e 30BD     		pop	{r4, r5, pc}
 5073              	.LVL488:
 5074              	.L384:
 5075              		.loc 1 1372 1 view .LVU1286
 5076              		.align	2
 5077              	.L383:
 5078 0020 00000000 		.word	putchar_wrapper
 5079              		.cfi_endproc
 5080              	.LFE31:
 5082              		.section	.text.lib_vsnprintf,"ax",%progbits
ARM GAS  C:\Users\Mxuan\AppData\Local\Temp\ccSEBS4R.s 			page 125


 5083              		.align	1
 5084              		.global	lib_vsnprintf
 5085              		.syntax unified
 5086              		.thumb
 5087              		.thumb_func
 5089              	lib_vsnprintf:
 5090              	.LVL489:
 5091              	.LFB32:
1373:Libraries/ctrl_sdk/src/lib_printf.c **** 
1374:Libraries/ctrl_sdk/src/lib_printf.c **** int vsnprintf_(char* s, size_t n, const char* format, va_list arg)
1375:Libraries/ctrl_sdk/src/lib_printf.c **** {
 5092              		.loc 1 1375 1 is_stmt 1 view -0
 5093              		.cfi_startproc
 5094              		@ args = 0, pretend = 0, frame = 24
 5095              		@ frame_needed = 0, uses_anonymous_args = 0
 5096              		.loc 1 1375 1 is_stmt 0 view .LVU1288
 5097 0000 30B5     		push	{r4, r5, lr}
 5098              	.LCFI67:
 5099              		.cfi_def_cfa_offset 12
 5100              		.cfi_offset 4, -12
 5101              		.cfi_offset 5, -8
 5102              		.cfi_offset 14, -4
 5103 0002 87B0     		sub	sp, sp, #28
 5104              	.LCFI68:
 5105              		.cfi_def_cfa_offset 40
 5106 0004 1446     		mov	r4, r2
 5107 0006 1D46     		mov	r5, r3
 5108              	.LVL490:
1376:Libraries/ctrl_sdk/src/lib_printf.c ****   output_gadget_t gadget = buffer_gadget(s, n);
 5109              		.loc 1 1376 3 is_stmt 1 view .LVU1289
 5110              		.loc 1 1376 28 is_stmt 0 view .LVU1290
 5111 0008 0A46     		mov	r2, r1
 5112              	.LVL491:
 5113              		.loc 1 1376 28 view .LVU1291
 5114 000a 0146     		mov	r1, r0
 5115              	.LVL492:
 5116              		.loc 1 1376 28 view .LVU1292
 5117 000c 01A8     		add	r0, sp, #4
 5118              	.LVL493:
 5119              		.loc 1 1376 28 view .LVU1293
 5120 000e FFF7FEFF 		bl	buffer_gadget
 5121              	.LVL494:
1377:Libraries/ctrl_sdk/src/lib_printf.c ****   return vsnprintf_impl(&gadget, format, arg);
 5122              		.loc 1 1377 3 is_stmt 1 view .LVU1294
 5123              		.loc 1 1377 10 is_stmt 0 view .LVU1295
 5124 0012 2A46     		mov	r2, r5
 5125 0014 2146     		mov	r1, r4
 5126 0016 01A8     		add	r0, sp, #4
 5127 0018 FFF7FEFF 		bl	vsnprintf_impl
 5128              	.LVL495:
1378:Libraries/ctrl_sdk/src/lib_printf.c **** }
 5129              		.loc 1 1378 1 view .LVU1296
 5130 001c 07B0     		add	sp, sp, #28
 5131              	.LCFI69:
 5132              		.cfi_def_cfa_offset 12
 5133              		@ sp needed
 5134 001e 30BD     		pop	{r4, r5, pc}
ARM GAS  C:\Users\Mxuan\AppData\Local\Temp\ccSEBS4R.s 			page 126


 5135              		.loc 1 1378 1 view .LVU1297
 5136              		.cfi_endproc
 5137              	.LFE32:
 5139              		.section	.text.lib_vsprintf,"ax",%progbits
 5140              		.align	1
 5141              		.global	lib_vsprintf
 5142              		.syntax unified
 5143              		.thumb
 5144              		.thumb_func
 5146              	lib_vsprintf:
 5147              	.LVL496:
 5148              	.LFB33:
1379:Libraries/ctrl_sdk/src/lib_printf.c **** 
1380:Libraries/ctrl_sdk/src/lib_printf.c **** int vsprintf_(char* s, const char* format, va_list arg)
1381:Libraries/ctrl_sdk/src/lib_printf.c **** {
 5149              		.loc 1 1381 1 is_stmt 1 view -0
 5150              		.cfi_startproc
 5151              		@ args = 0, pretend = 0, frame = 0
 5152              		@ frame_needed = 0, uses_anonymous_args = 0
 5153              		.loc 1 1381 1 is_stmt 0 view .LVU1299
 5154 0000 08B5     		push	{r3, lr}
 5155              	.LCFI70:
 5156              		.cfi_def_cfa_offset 8
 5157              		.cfi_offset 3, -8
 5158              		.cfi_offset 14, -4
 5159 0002 1346     		mov	r3, r2
1382:Libraries/ctrl_sdk/src/lib_printf.c ****   return vsnprintf_(s, PRINTF_MAX_POSSIBLE_BUFFER_SIZE, format, arg);
 5160              		.loc 1 1382 3 is_stmt 1 view .LVU1300
 5161              		.loc 1 1382 10 is_stmt 0 view .LVU1301
 5162 0004 0A46     		mov	r2, r1
 5163              	.LVL497:
 5164              		.loc 1 1382 10 view .LVU1302
 5165 0006 6FF00041 		mvn	r1, #-2147483648
 5166              	.LVL498:
 5167              		.loc 1 1382 10 view .LVU1303
 5168 000a FFF7FEFF 		bl	lib_vsnprintf
 5169              	.LVL499:
1383:Libraries/ctrl_sdk/src/lib_printf.c **** }
 5170              		.loc 1 1383 1 view .LVU1304
 5171 000e 08BD     		pop	{r3, pc}
 5172              		.cfi_endproc
 5173              	.LFE33:
 5175              		.section	.text.vfctprintf,"ax",%progbits
 5176              		.align	1
 5177              		.global	vfctprintf
 5178              		.syntax unified
 5179              		.thumb
 5180              		.thumb_func
 5182              	vfctprintf:
 5183              	.LVL500:
 5184              	.LFB34:
1384:Libraries/ctrl_sdk/src/lib_printf.c **** 
1385:Libraries/ctrl_sdk/src/lib_printf.c **** int vfctprintf(void (*out)(char c, void* extra_arg), void* extra_arg, const char* format, va_list a
1386:Libraries/ctrl_sdk/src/lib_printf.c **** {
 5185              		.loc 1 1386 1 is_stmt 1 view -0
 5186              		.cfi_startproc
 5187              		@ args = 0, pretend = 0, frame = 24
ARM GAS  C:\Users\Mxuan\AppData\Local\Temp\ccSEBS4R.s 			page 127


 5188              		@ frame_needed = 0, uses_anonymous_args = 0
 5189              		.loc 1 1386 1 is_stmt 0 view .LVU1306
 5190 0000 30B5     		push	{r4, r5, lr}
 5191              	.LCFI71:
 5192              		.cfi_def_cfa_offset 12
 5193              		.cfi_offset 4, -12
 5194              		.cfi_offset 5, -8
 5195              		.cfi_offset 14, -4
 5196 0002 87B0     		sub	sp, sp, #28
 5197              	.LCFI72:
 5198              		.cfi_def_cfa_offset 40
 5199 0004 1446     		mov	r4, r2
 5200 0006 1D46     		mov	r5, r3
 5201              	.LVL501:
1387:Libraries/ctrl_sdk/src/lib_printf.c ****   output_gadget_t gadget = function_gadget(out, extra_arg);
 5202              		.loc 1 1387 3 is_stmt 1 view .LVU1307
 5203              		.loc 1 1387 28 is_stmt 0 view .LVU1308
 5204 0008 0A46     		mov	r2, r1
 5205              	.LVL502:
 5206              		.loc 1 1387 28 view .LVU1309
 5207 000a 0146     		mov	r1, r0
 5208              	.LVL503:
 5209              		.loc 1 1387 28 view .LVU1310
 5210 000c 01A8     		add	r0, sp, #4
 5211              	.LVL504:
 5212              		.loc 1 1387 28 view .LVU1311
 5213 000e FFF7FEFF 		bl	function_gadget
 5214              	.LVL505:
1388:Libraries/ctrl_sdk/src/lib_printf.c ****   return vsnprintf_impl(&gadget, format, arg);
 5215              		.loc 1 1388 3 is_stmt 1 view .LVU1312
 5216              		.loc 1 1388 10 is_stmt 0 view .LVU1313
 5217 0012 2A46     		mov	r2, r5
 5218 0014 2146     		mov	r1, r4
 5219 0016 01A8     		add	r0, sp, #4
 5220 0018 FFF7FEFF 		bl	vsnprintf_impl
 5221              	.LVL506:
1389:Libraries/ctrl_sdk/src/lib_printf.c **** }
 5222              		.loc 1 1389 1 view .LVU1314
 5223 001c 07B0     		add	sp, sp, #28
 5224              	.LCFI73:
 5225              		.cfi_def_cfa_offset 12
 5226              		@ sp needed
 5227 001e 30BD     		pop	{r4, r5, pc}
 5228              		.loc 1 1389 1 view .LVU1315
 5229              		.cfi_endproc
 5230              	.LFE34:
 5232              		.section	.text.lib_printf,"ax",%progbits
 5233              		.align	1
 5234              		.global	lib_printf
 5235              		.syntax unified
 5236              		.thumb
 5237              		.thumb_func
 5239              	lib_printf:
 5240              	.LVL507:
 5241              	.LFB35:
1390:Libraries/ctrl_sdk/src/lib_printf.c **** 
1391:Libraries/ctrl_sdk/src/lib_printf.c **** int printf_(const char* format, ...)
ARM GAS  C:\Users\Mxuan\AppData\Local\Temp\ccSEBS4R.s 			page 128


1392:Libraries/ctrl_sdk/src/lib_printf.c **** {
 5242              		.loc 1 1392 1 is_stmt 1 view -0
 5243              		.cfi_startproc
 5244              		@ args = 4, pretend = 16, frame = 8
 5245              		@ frame_needed = 0, uses_anonymous_args = 1
 5246              		.loc 1 1392 1 is_stmt 0 view .LVU1317
 5247 0000 0FB4     		push	{r0, r1, r2, r3}
 5248              	.LCFI74:
 5249              		.cfi_def_cfa_offset 16
 5250              		.cfi_offset 0, -16
 5251              		.cfi_offset 1, -12
 5252              		.cfi_offset 2, -8
 5253              		.cfi_offset 3, -4
 5254 0002 00B5     		push	{lr}
 5255              	.LCFI75:
 5256              		.cfi_def_cfa_offset 20
 5257              		.cfi_offset 14, -20
 5258 0004 83B0     		sub	sp, sp, #12
 5259              	.LCFI76:
 5260              		.cfi_def_cfa_offset 32
 5261 0006 04A9     		add	r1, sp, #16
 5262 0008 51F8040B 		ldr	r0, [r1], #4
1393:Libraries/ctrl_sdk/src/lib_printf.c ****   va_list args;
 5263              		.loc 1 1393 3 is_stmt 1 view .LVU1318
1394:Libraries/ctrl_sdk/src/lib_printf.c ****   va_start(args, format);
 5264              		.loc 1 1394 3 view .LVU1319
 5265 000c 0191     		str	r1, [sp, #4]
1395:Libraries/ctrl_sdk/src/lib_printf.c ****   const int ret = vprintf_(format, args);
 5266              		.loc 1 1395 3 view .LVU1320
 5267              		.loc 1 1395 19 is_stmt 0 view .LVU1321
 5268 000e FFF7FEFF 		bl	lib_vprintf
 5269              	.LVL508:
1396:Libraries/ctrl_sdk/src/lib_printf.c ****   va_end(args);
 5270              		.loc 1 1396 3 is_stmt 1 view .LVU1322
1397:Libraries/ctrl_sdk/src/lib_printf.c ****   return ret;
 5271              		.loc 1 1397 3 view .LVU1323
1398:Libraries/ctrl_sdk/src/lib_printf.c **** }
 5272              		.loc 1 1398 1 is_stmt 0 view .LVU1324
 5273 0012 03B0     		add	sp, sp, #12
 5274              	.LCFI77:
 5275              		.cfi_def_cfa_offset 20
 5276              		@ sp needed
 5277 0014 5DF804EB 		ldr	lr, [sp], #4
 5278              	.LCFI78:
 5279              		.cfi_restore 14
 5280              		.cfi_def_cfa_offset 16
 5281 0018 04B0     		add	sp, sp, #16
 5282              	.LCFI79:
 5283              		.cfi_restore 3
 5284              		.cfi_restore 2
 5285              		.cfi_restore 1
 5286              		.cfi_restore 0
 5287              		.cfi_def_cfa_offset 0
 5288 001a 7047     		bx	lr
 5289              		.cfi_endproc
 5290              	.LFE35:
 5292              		.section	.text.lib_sprintf,"ax",%progbits
ARM GAS  C:\Users\Mxuan\AppData\Local\Temp\ccSEBS4R.s 			page 129


 5293              		.align	1
 5294              		.global	lib_sprintf
 5295              		.syntax unified
 5296              		.thumb
 5297              		.thumb_func
 5299              	lib_sprintf:
 5300              	.LVL509:
 5301              	.LFB36:
1399:Libraries/ctrl_sdk/src/lib_printf.c **** 
1400:Libraries/ctrl_sdk/src/lib_printf.c **** int sprintf_(char* s, const char* format, ...)
1401:Libraries/ctrl_sdk/src/lib_printf.c **** {
 5302              		.loc 1 1401 1 is_stmt 1 view -0
 5303              		.cfi_startproc
 5304              		@ args = 4, pretend = 12, frame = 8
 5305              		@ frame_needed = 0, uses_anonymous_args = 1
 5306              		.loc 1 1401 1 is_stmt 0 view .LVU1326
 5307 0000 0EB4     		push	{r1, r2, r3}
 5308              	.LCFI80:
 5309              		.cfi_def_cfa_offset 12
 5310              		.cfi_offset 1, -12
 5311              		.cfi_offset 2, -8
 5312              		.cfi_offset 3, -4
 5313 0002 00B5     		push	{lr}
 5314              	.LCFI81:
 5315              		.cfi_def_cfa_offset 16
 5316              		.cfi_offset 14, -16
 5317 0004 82B0     		sub	sp, sp, #8
 5318              	.LCFI82:
 5319              		.cfi_def_cfa_offset 24
 5320 0006 03AA     		add	r2, sp, #12
 5321 0008 52F8041B 		ldr	r1, [r2], #4
1402:Libraries/ctrl_sdk/src/lib_printf.c ****   va_list args;
 5322              		.loc 1 1402 3 is_stmt 1 view .LVU1327
1403:Libraries/ctrl_sdk/src/lib_printf.c ****   va_start(args, format);
 5323              		.loc 1 1403 3 view .LVU1328
 5324 000c 0192     		str	r2, [sp, #4]
1404:Libraries/ctrl_sdk/src/lib_printf.c ****   const int ret = vsprintf_(s, format, args);
 5325              		.loc 1 1404 3 view .LVU1329
 5326              		.loc 1 1404 19 is_stmt 0 view .LVU1330
 5327 000e FFF7FEFF 		bl	lib_vsprintf
 5328              	.LVL510:
1405:Libraries/ctrl_sdk/src/lib_printf.c ****   va_end(args);
 5329              		.loc 1 1405 3 is_stmt 1 view .LVU1331
1406:Libraries/ctrl_sdk/src/lib_printf.c ****   return ret;
 5330              		.loc 1 1406 3 view .LVU1332
1407:Libraries/ctrl_sdk/src/lib_printf.c **** }
 5331              		.loc 1 1407 1 is_stmt 0 view .LVU1333
 5332 0012 02B0     		add	sp, sp, #8
 5333              	.LCFI83:
 5334              		.cfi_def_cfa_offset 16
 5335              		@ sp needed
 5336 0014 5DF804EB 		ldr	lr, [sp], #4
 5337              	.LCFI84:
 5338              		.cfi_restore 14
 5339              		.cfi_def_cfa_offset 12
 5340 0018 03B0     		add	sp, sp, #12
 5341              	.LCFI85:
ARM GAS  C:\Users\Mxuan\AppData\Local\Temp\ccSEBS4R.s 			page 130


 5342              		.cfi_restore 3
 5343              		.cfi_restore 2
 5344              		.cfi_restore 1
 5345              		.cfi_def_cfa_offset 0
 5346 001a 7047     		bx	lr
 5347              		.cfi_endproc
 5348              	.LFE36:
 5350              		.section	.text.lib_snprintf,"ax",%progbits
 5351              		.align	1
 5352              		.global	lib_snprintf
 5353              		.syntax unified
 5354              		.thumb
 5355              		.thumb_func
 5357              	lib_snprintf:
 5358              	.LVL511:
 5359              	.LFB37:
1408:Libraries/ctrl_sdk/src/lib_printf.c **** 
1409:Libraries/ctrl_sdk/src/lib_printf.c **** int snprintf_(char* s, size_t n, const char* format, ...)
1410:Libraries/ctrl_sdk/src/lib_printf.c **** {
 5360              		.loc 1 1410 1 is_stmt 1 view -0
 5361              		.cfi_startproc
 5362              		@ args = 4, pretend = 8, frame = 8
 5363              		@ frame_needed = 0, uses_anonymous_args = 1
 5364              		.loc 1 1410 1 is_stmt 0 view .LVU1335
 5365 0000 0CB4     		push	{r2, r3}
 5366              	.LCFI86:
 5367              		.cfi_def_cfa_offset 8
 5368              		.cfi_offset 2, -8
 5369              		.cfi_offset 3, -4
 5370 0002 00B5     		push	{lr}
 5371              	.LCFI87:
 5372              		.cfi_def_cfa_offset 12
 5373              		.cfi_offset 14, -12
 5374 0004 83B0     		sub	sp, sp, #12
 5375              	.LCFI88:
 5376              		.cfi_def_cfa_offset 24
 5377 0006 04AB     		add	r3, sp, #16
 5378 0008 53F8042B 		ldr	r2, [r3], #4
1411:Libraries/ctrl_sdk/src/lib_printf.c ****   va_list args;
 5379              		.loc 1 1411 3 is_stmt 1 view .LVU1336
1412:Libraries/ctrl_sdk/src/lib_printf.c ****   va_start(args, format);
 5380              		.loc 1 1412 3 view .LVU1337
 5381 000c 0193     		str	r3, [sp, #4]
1413:Libraries/ctrl_sdk/src/lib_printf.c ****   const int ret = vsnprintf_(s, n, format, args);
 5382              		.loc 1 1413 3 view .LVU1338
 5383              		.loc 1 1413 19 is_stmt 0 view .LVU1339
 5384 000e FFF7FEFF 		bl	lib_vsnprintf
 5385              	.LVL512:
1414:Libraries/ctrl_sdk/src/lib_printf.c ****   va_end(args);
 5386              		.loc 1 1414 3 is_stmt 1 view .LVU1340
1415:Libraries/ctrl_sdk/src/lib_printf.c ****   return ret;
 5387              		.loc 1 1415 3 view .LVU1341
1416:Libraries/ctrl_sdk/src/lib_printf.c **** }
 5388              		.loc 1 1416 1 is_stmt 0 view .LVU1342
 5389 0012 03B0     		add	sp, sp, #12
 5390              	.LCFI89:
 5391              		.cfi_def_cfa_offset 12
ARM GAS  C:\Users\Mxuan\AppData\Local\Temp\ccSEBS4R.s 			page 131


 5392              		@ sp needed
 5393 0014 5DF804EB 		ldr	lr, [sp], #4
 5394              	.LCFI90:
 5395              		.cfi_restore 14
 5396              		.cfi_def_cfa_offset 8
 5397 0018 02B0     		add	sp, sp, #8
 5398              	.LCFI91:
 5399              		.cfi_restore 3
 5400              		.cfi_restore 2
 5401              		.cfi_def_cfa_offset 0
 5402 001a 7047     		bx	lr
 5403              		.cfi_endproc
 5404              	.LFE37:
 5406              		.section	.text.fctprintf,"ax",%progbits
 5407              		.align	1
 5408              		.global	fctprintf
 5409              		.syntax unified
 5410              		.thumb
 5411              		.thumb_func
 5413              	fctprintf:
 5414              	.LVL513:
 5415              	.LFB38:
1417:Libraries/ctrl_sdk/src/lib_printf.c **** 
1418:Libraries/ctrl_sdk/src/lib_printf.c **** int fctprintf(void (*out)(char c, void* extra_arg), void* extra_arg, const char* format, ...)
1419:Libraries/ctrl_sdk/src/lib_printf.c **** {
 5416              		.loc 1 1419 1 is_stmt 1 view -0
 5417              		.cfi_startproc
 5418              		@ args = 4, pretend = 8, frame = 8
 5419              		@ frame_needed = 0, uses_anonymous_args = 1
 5420              		.loc 1 1419 1 is_stmt 0 view .LVU1344
 5421 0000 0CB4     		push	{r2, r3}
 5422              	.LCFI92:
 5423              		.cfi_def_cfa_offset 8
 5424              		.cfi_offset 2, -8
 5425              		.cfi_offset 3, -4
 5426 0002 00B5     		push	{lr}
 5427              	.LCFI93:
 5428              		.cfi_def_cfa_offset 12
 5429              		.cfi_offset 14, -12
 5430 0004 83B0     		sub	sp, sp, #12
 5431              	.LCFI94:
 5432              		.cfi_def_cfa_offset 24
 5433 0006 04AB     		add	r3, sp, #16
 5434 0008 53F8042B 		ldr	r2, [r3], #4
1420:Libraries/ctrl_sdk/src/lib_printf.c ****   va_list args;
 5435              		.loc 1 1420 3 is_stmt 1 view .LVU1345
1421:Libraries/ctrl_sdk/src/lib_printf.c ****   va_start(args, format);
 5436              		.loc 1 1421 3 view .LVU1346
 5437 000c 0193     		str	r3, [sp, #4]
1422:Libraries/ctrl_sdk/src/lib_printf.c ****   const int ret = vfctprintf(out, extra_arg, format, args);
 5438              		.loc 1 1422 3 view .LVU1347
 5439              		.loc 1 1422 19 is_stmt 0 view .LVU1348
 5440 000e FFF7FEFF 		bl	vfctprintf
 5441              	.LVL514:
1423:Libraries/ctrl_sdk/src/lib_printf.c ****   va_end(args);
 5442              		.loc 1 1423 3 is_stmt 1 view .LVU1349
1424:Libraries/ctrl_sdk/src/lib_printf.c ****   return ret;
ARM GAS  C:\Users\Mxuan\AppData\Local\Temp\ccSEBS4R.s 			page 132


 5443              		.loc 1 1424 3 view .LVU1350
1425:Libraries/ctrl_sdk/src/lib_printf.c **** }
 5444              		.loc 1 1425 1 is_stmt 0 view .LVU1351
 5445 0012 03B0     		add	sp, sp, #12
 5446              	.LCFI95:
 5447              		.cfi_def_cfa_offset 12
 5448              		@ sp needed
 5449 0014 5DF804EB 		ldr	lr, [sp], #4
 5450              	.LCFI96:
 5451              		.cfi_restore 14
 5452              		.cfi_def_cfa_offset 8
 5453 0018 02B0     		add	sp, sp, #8
 5454              	.LCFI97:
 5455              		.cfi_restore 3
 5456              		.cfi_restore 2
 5457              		.cfi_def_cfa_offset 0
 5458 001a 7047     		bx	lr
 5459              		.cfi_endproc
 5460              	.LFE38:
 5462              		.section	.rodata.powers_of_10,"a"
 5463              		.align	3
 5466              	powers_of_10:
 5467 0000 00000000 		.word	0
 5468 0004 0000F03F 		.word	1072693248
 5469 0008 00000000 		.word	0
 5470 000c 00002440 		.word	1076101120
 5471 0010 00000000 		.word	0
 5472 0014 00005940 		.word	1079574528
 5473 0018 00000000 		.word	0
 5474 001c 00408F40 		.word	1083129856
 5475 0020 00000000 		.word	0
 5476 0024 0088C340 		.word	1086556160
 5477 0028 00000000 		.word	0
 5478 002c 006AF840 		.word	1090021888
 5479 0030 00000000 		.word	0
 5480 0034 80842E41 		.word	1093567616
 5481 0038 00000000 		.word	0
 5482 003c D0126341 		.word	1097011920
 5483 0040 00000000 		.word	0
 5484 0044 84D79741 		.word	1100470148
 5485 0048 00000000 		.word	0
 5486 004c 65CDCD41 		.word	1104006501
 5487 0050 00000020 		.word	536870912
 5488 0054 5FA00242 		.word	1107468383
 5489 0058 000000E8 		.word	-402653184
 5490 005c 76483742 		.word	1110919286
 5491 0060 000000A2 		.word	-1577058304
 5492 0064 941A6D42 		.word	1114446484
 5493 0068 000040E5 		.word	-448790528
 5494 006c 9C30A242 		.word	1117925532
 5495 0070 0000901E 		.word	512753664
 5496 0074 C4BCD642 		.word	1121369284
 5497 0078 00003426 		.word	640942080
 5498 007c F56B0C43 		.word	1124887541
 5499 0080 0080E037 		.word	937459712
 5500 0084 79C34143 		.word	1128383353
 5501 0088 00A0D885 		.word	-2049400832
ARM GAS  C:\Users\Mxuan\AppData\Local\Temp\ccSEBS4R.s 			page 133


 5502 008c 57347643 		.word	1131820119
 5503              		.text
 5504              	.Letext0:
 5505              		.file 2 "d:\\_environment\\arm-gnu-toolchain\\lib\\gcc\\arm-none-eabi\\12.3.1\\include\\stdarg.h"
 5506              		.file 3 "d:\\_environment\\arm-gnu-toolchain\\lib\\gcc\\arm-none-eabi\\12.3.1\\include\\stddef.h"
 5507              		.file 4 "d:\\_environment\\arm-gnu-toolchain\\arm-none-eabi\\include\\machine\\_default_types.h"
 5508              		.file 5 "d:\\_environment\\arm-gnu-toolchain\\arm-none-eabi\\include\\sys\\_stdint.h"
 5509              		.file 6 "d:\\_environment\\arm-gnu-toolchain\\arm-none-eabi\\include\\stdint.h"
 5510              		.file 7 "<built-in>"
 5511              		.file 8 "Libraries/ctrl_sdk/inc/lib_printf.h"
ARM GAS  C:\Users\Mxuan\AppData\Local\Temp\ccSEBS4R.s 			page 134


DEFINED SYMBOLS
                            *ABS*:00000000 lib_printf.c
C:\Users\Mxuan\AppData\Local\Temp\ccSEBS4R.s:19     .text.putchar_via_gadget:00000000 $t
C:\Users\Mxuan\AppData\Local\Temp\ccSEBS4R.s:24     .text.putchar_via_gadget:00000000 putchar_via_gadget
C:\Users\Mxuan\AppData\Local\Temp\ccSEBS4R.s:89     .text.append_termination_with_gadget:00000000 $t
C:\Users\Mxuan\AppData\Local\Temp\ccSEBS4R.s:94     .text.append_termination_with_gadget:00000000 append_termination_with_gadget
C:\Users\Mxuan\AppData\Local\Temp\ccSEBS4R.s:141    .text.discarding_gadget:00000000 $t
C:\Users\Mxuan\AppData\Local\Temp\ccSEBS4R.s:146    .text.discarding_gadget:00000000 discarding_gadget
C:\Users\Mxuan\AppData\Local\Temp\ccSEBS4R.s:178    .text.buffer_gadget:00000000 $t
C:\Users\Mxuan\AppData\Local\Temp\ccSEBS4R.s:183    .text.buffer_gadget:00000000 buffer_gadget
C:\Users\Mxuan\AppData\Local\Temp\ccSEBS4R.s:236    .text.function_gadget:00000000 $t
C:\Users\Mxuan\AppData\Local\Temp\ccSEBS4R.s:241    .text.function_gadget:00000000 function_gadget
C:\Users\Mxuan\AppData\Local\Temp\ccSEBS4R.s:282    .text.atou_:00000000 $t
C:\Users\Mxuan\AppData\Local\Temp\ccSEBS4R.s:287    .text.atou_:00000000 atou_
C:\Users\Mxuan\AppData\Local\Temp\ccSEBS4R.s:350    .text.out_rev_:00000000 $t
C:\Users\Mxuan\AppData\Local\Temp\ccSEBS4R.s:355    .text.out_rev_:00000000 out_rev_
C:\Users\Mxuan\AppData\Local\Temp\ccSEBS4R.s:448    .text.print_integer_finalization:00000000 $t
C:\Users\Mxuan\AppData\Local\Temp\ccSEBS4R.s:453    .text.print_integer_finalization:00000000 print_integer_finalization
C:\Users\Mxuan\AppData\Local\Temp\ccSEBS4R.s:745    .text.print_integer:00000000 $t
C:\Users\Mxuan\AppData\Local\Temp\ccSEBS4R.s:750    .text.print_integer:00000000 print_integer
C:\Users\Mxuan\AppData\Local\Temp\ccSEBS4R.s:932    .text.get_components:00000000 $t
C:\Users\Mxuan\AppData\Local\Temp\ccSEBS4R.s:937    .text.get_components:00000000 get_components
C:\Users\Mxuan\AppData\Local\Temp\ccSEBS4R.s:1186   .text.get_components:00000130 $d
C:\Users\Mxuan\AppData\Local\Temp\ccSEBS4R.s:5466   .rodata.powers_of_10:00000000 powers_of_10
C:\Users\Mxuan\AppData\Local\Temp\ccSEBS4R.s:1193   .text.apply_scaling:00000000 $t
C:\Users\Mxuan\AppData\Local\Temp\ccSEBS4R.s:1198   .text.apply_scaling:00000000 apply_scaling
C:\Users\Mxuan\AppData\Local\Temp\ccSEBS4R.s:1255   .text.unapply_scaling:00000000 $t
C:\Users\Mxuan\AppData\Local\Temp\ccSEBS4R.s:1260   .text.unapply_scaling:00000000 unapply_scaling
C:\Users\Mxuan\AppData\Local\Temp\ccSEBS4R.s:1316   .text.update_normalization:00000000 $t
C:\Users\Mxuan\AppData\Local\Temp\ccSEBS4R.s:1321   .text.update_normalization:00000000 update_normalization
C:\Users\Mxuan\AppData\Local\Temp\ccSEBS4R.s:1490   .text.get_normalized_components:00000000 $t
C:\Users\Mxuan\AppData\Local\Temp\ccSEBS4R.s:1495   .text.get_normalized_components:00000000 get_normalized_components
C:\Users\Mxuan\AppData\Local\Temp\ccSEBS4R.s:1741   .text.get_normalized_components:00000158 $d
C:\Users\Mxuan\AppData\Local\Temp\ccSEBS4R.s:1747   .text.print_broken_up_decimal:00000000 $t
C:\Users\Mxuan\AppData\Local\Temp\ccSEBS4R.s:1752   .text.print_broken_up_decimal:00000000 print_broken_up_decimal
C:\Users\Mxuan\AppData\Local\Temp\ccSEBS4R.s:2320   .text.print_broken_up_decimal:000003c0 $d
C:\Users\Mxuan\AppData\Local\Temp\ccSEBS4R.s:2325   .text.print_decimal_number:00000000 $t
C:\Users\Mxuan\AppData\Local\Temp\ccSEBS4R.s:2330   .text.print_decimal_number:00000000 print_decimal_number
C:\Users\Mxuan\AppData\Local\Temp\ccSEBS4R.s:2389   .text.bastardized_floor:00000000 $t
C:\Users\Mxuan\AppData\Local\Temp\ccSEBS4R.s:2394   .text.bastardized_floor:00000000 bastardized_floor
C:\Users\Mxuan\AppData\Local\Temp\ccSEBS4R.s:2460   .text.log10_of_positive:00000000 $t
C:\Users\Mxuan\AppData\Local\Temp\ccSEBS4R.s:2465   .text.log10_of_positive:00000000 log10_of_positive
C:\Users\Mxuan\AppData\Local\Temp\ccSEBS4R.s:2607   .text.log10_of_positive:000000b0 $d
C:\Users\Mxuan\AppData\Local\Temp\ccSEBS4R.s:2622   .text.pow10_of_int:00000000 $t
C:\Users\Mxuan\AppData\Local\Temp\ccSEBS4R.s:2627   .text.pow10_of_int:00000000 pow10_of_int
C:\Users\Mxuan\AppData\Local\Temp\ccSEBS4R.s:2824   .text.pow10_of_int:00000100 $d
C:\Users\Mxuan\AppData\Local\Temp\ccSEBS4R.s:2841   .text.print_exponential_number:00000000 $t
C:\Users\Mxuan\AppData\Local\Temp\ccSEBS4R.s:2846   .text.print_exponential_number:00000000 print_exponential_number
C:\Users\Mxuan\AppData\Local\Temp\ccSEBS4R.s:3320   .text.print_exponential_number:00000238 $d
C:\Users\Mxuan\AppData\Local\Temp\ccSEBS4R.s:3326   .rodata.print_floating_point.str1.4:00000000 $d
C:\Users\Mxuan\AppData\Local\Temp\ccSEBS4R.s:3339   .text.print_floating_point:00000000 $t
C:\Users\Mxuan\AppData\Local\Temp\ccSEBS4R.s:3344   .text.print_floating_point:00000000 print_floating_point
C:\Users\Mxuan\AppData\Local\Temp\ccSEBS4R.s:3584   .text.print_floating_point:00000140 $d
C:\Users\Mxuan\AppData\Local\Temp\ccSEBS4R.s:3597   .text.parse_flags:00000000 $t
C:\Users\Mxuan\AppData\Local\Temp\ccSEBS4R.s:3602   .text.parse_flags:00000000 parse_flags
C:\Users\Mxuan\AppData\Local\Temp\ccSEBS4R.s:3630   .text.parse_flags:00000012 $d
C:\Users\Mxuan\AppData\Local\Temp\ccSEBS4R.s:3710   .rodata.format_string_loop.str1.4:00000000 $d
ARM GAS  C:\Users\Mxuan\AppData\Local\Temp\ccSEBS4R.s 			page 135


C:\Users\Mxuan\AppData\Local\Temp\ccSEBS4R.s:3717   .text.format_string_loop:00000000 $t
C:\Users\Mxuan\AppData\Local\Temp\ccSEBS4R.s:3722   .text.format_string_loop:00000000 format_string_loop
C:\Users\Mxuan\AppData\Local\Temp\ccSEBS4R.s:3850   .text.format_string_loop:00000064 $d
C:\Users\Mxuan\AppData\Local\Temp\ccSEBS4R.s:3870   .text.format_string_loop:0000008a $t
C:\Users\Mxuan\AppData\Local\Temp\ccSEBS4R.s:4103   .text.format_string_loop:00000166 $d
C:\Users\Mxuan\AppData\Local\Temp\ccSEBS4R.s:4187   .text.format_string_loop:0000020e $t
C:\Users\Mxuan\AppData\Local\Temp\ccSEBS4R.s:4948   .text.format_string_loop:0000055c $d
C:\Users\Mxuan\AppData\Local\Temp\ccSEBS4R.s:4955   .text.vsnprintf_impl:00000000 $t
C:\Users\Mxuan\AppData\Local\Temp\ccSEBS4R.s:4960   .text.vsnprintf_impl:00000000 vsnprintf_impl
C:\Users\Mxuan\AppData\Local\Temp\ccSEBS4R.s:4990   .text.putchar_wrapper:00000000 $t
C:\Users\Mxuan\AppData\Local\Temp\ccSEBS4R.s:4995   .text.putchar_wrapper:00000000 putchar_wrapper
C:\Users\Mxuan\AppData\Local\Temp\ccSEBS4R.s:5018   .text.lib_vprintf:00000000 $t
C:\Users\Mxuan\AppData\Local\Temp\ccSEBS4R.s:5024   .text.lib_vprintf:00000000 lib_vprintf
C:\Users\Mxuan\AppData\Local\Temp\ccSEBS4R.s:5078   .text.lib_vprintf:00000020 $d
C:\Users\Mxuan\AppData\Local\Temp\ccSEBS4R.s:5083   .text.lib_vsnprintf:00000000 $t
C:\Users\Mxuan\AppData\Local\Temp\ccSEBS4R.s:5089   .text.lib_vsnprintf:00000000 lib_vsnprintf
C:\Users\Mxuan\AppData\Local\Temp\ccSEBS4R.s:5140   .text.lib_vsprintf:00000000 $t
C:\Users\Mxuan\AppData\Local\Temp\ccSEBS4R.s:5146   .text.lib_vsprintf:00000000 lib_vsprintf
C:\Users\Mxuan\AppData\Local\Temp\ccSEBS4R.s:5176   .text.vfctprintf:00000000 $t
C:\Users\Mxuan\AppData\Local\Temp\ccSEBS4R.s:5182   .text.vfctprintf:00000000 vfctprintf
C:\Users\Mxuan\AppData\Local\Temp\ccSEBS4R.s:5233   .text.lib_printf:00000000 $t
C:\Users\Mxuan\AppData\Local\Temp\ccSEBS4R.s:5239   .text.lib_printf:00000000 lib_printf
C:\Users\Mxuan\AppData\Local\Temp\ccSEBS4R.s:5293   .text.lib_sprintf:00000000 $t
C:\Users\Mxuan\AppData\Local\Temp\ccSEBS4R.s:5299   .text.lib_sprintf:00000000 lib_sprintf
C:\Users\Mxuan\AppData\Local\Temp\ccSEBS4R.s:5351   .text.lib_snprintf:00000000 $t
C:\Users\Mxuan\AppData\Local\Temp\ccSEBS4R.s:5357   .text.lib_snprintf:00000000 lib_snprintf
C:\Users\Mxuan\AppData\Local\Temp\ccSEBS4R.s:5407   .text.fctprintf:00000000 $t
C:\Users\Mxuan\AppData\Local\Temp\ccSEBS4R.s:5413   .text.fctprintf:00000000 fctprintf
C:\Users\Mxuan\AppData\Local\Temp\ccSEBS4R.s:5463   .rodata.powers_of_10:00000000 $d
C:\Users\Mxuan\AppData\Local\Temp\ccSEBS4R.s:3647   .text.parse_flags:00000023 $d
C:\Users\Mxuan\AppData\Local\Temp\ccSEBS4R.s:3647   .text.parse_flags:00000024 $t

UNDEFINED SYMBOLS
__aeabi_d2lz
__aeabi_l2d
__aeabi_dsub
__aeabi_dmul
__aeabi_dcmpgt
__aeabi_dcmple
__aeabi_dcmpeq
__aeabi_dcmplt
__aeabi_ddiv
__aeabi_dcmpge
__aeabi_d2iz
__aeabi_i2d
__aeabi_dadd
putchar_
