ARM GAS  C:\Users\Mxuan\AppData\Local\Temp\ccCIb4EQ.s 			page 1


   1              		.cpu cortex-m4
   2              		.arch armv7e-m
   3              		.fpu softvfp
   4              		.eabi_attribute 20, 1
   5              		.eabi_attribute 21, 1
   6              		.eabi_attribute 23, 3
   7              		.eabi_attribute 24, 1
   8              		.eabi_attribute 25, 1
   9              		.eabi_attribute 26, 1
  10              		.eabi_attribute 30, 1
  11              		.eabi_attribute 34, 1
  12              		.eabi_attribute 18, 4
  13              		.file	"lib_stack.c"
  14              		.text
  15              	.Ltext0:
  16              		.cfi_sections	.debug_frame
  17              		.file 1 "Libraries/ctrl_sdk/src/lib_stack.c"
  18              		.section	.text.lib_stack_static_init,"ax",%progbits
  19              		.align	1
  20              		.global	lib_stack_static_init
  21              		.syntax unified
  22              		.thumb
  23              		.thumb_func
  25              	lib_stack_static_init:
  26              	.LVL0:
  27              	.LFB0:
   1:Libraries/ctrl_sdk/src/lib_stack.c **** /* Includes ------------------------------------------------------------------*/
   2:Libraries/ctrl_sdk/src/lib_stack.c **** #include <stdlib.h>
   3:Libraries/ctrl_sdk/src/lib_stack.c **** #include <string.h>
   4:Libraries/ctrl_sdk/src/lib_stack.c **** #include "lib_cfg.h"
   5:Libraries/ctrl_sdk/src/lib_stack.c **** #include "lib_stack.h"
   6:Libraries/ctrl_sdk/src/lib_stack.c **** /* Private define ------------------------------------------------------------*/
   7:Libraries/ctrl_sdk/src/lib_stack.c **** /* Private macro -------------------------------------------------------------*/
   8:Libraries/ctrl_sdk/src/lib_stack.c **** 
   9:Libraries/ctrl_sdk/src/lib_stack.c **** #if LIB_MALLOC
  10:Libraries/ctrl_sdk/src/lib_stack.c **** #define STACK_MALLOC(x) LIB_MALLOC(x)
  11:Libraries/ctrl_sdk/src/lib_stack.c **** #else
  12:Libraries/ctrl_sdk/src/lib_stack.c **** #define STACK_MALLOC(x) malloc(x)
  13:Libraries/ctrl_sdk/src/lib_stack.c **** #endif
  14:Libraries/ctrl_sdk/src/lib_stack.c **** 
  15:Libraries/ctrl_sdk/src/lib_stack.c **** #if LIB_FREE
  16:Libraries/ctrl_sdk/src/lib_stack.c **** #define STACK_FREE(x) LIB_FREE(x)
  17:Libraries/ctrl_sdk/src/lib_stack.c **** #else
  18:Libraries/ctrl_sdk/src/lib_stack.c **** #define STACK_FREE(x) free(x)
  19:Libraries/ctrl_sdk/src/lib_stack.c **** #endif
  20:Libraries/ctrl_sdk/src/lib_stack.c **** 
  21:Libraries/ctrl_sdk/src/lib_stack.c **** #if LIB_INIT_EMPTY
  22:Libraries/ctrl_sdk/src/lib_stack.c **** #define STACK_INIT_EMPTY LIB_INIT_EMPTY
  23:Libraries/ctrl_sdk/src/lib_stack.c **** #else
  24:Libraries/ctrl_sdk/src/lib_stack.c **** #define STACK_INIT_EMPTY 1
  25:Libraries/ctrl_sdk/src/lib_stack.c **** #endif
  26:Libraries/ctrl_sdk/src/lib_stack.c **** /* Private typedef -----------------------------------------------------------*/
  27:Libraries/ctrl_sdk/src/lib_stack.c **** /* Private variables ---------------------------------------------------------*/
  28:Libraries/ctrl_sdk/src/lib_stack.c **** /* Private function prototypes -----------------------------------------------*/
  29:Libraries/ctrl_sdk/src/lib_stack.c **** /* Private functions ---------------------------------------------------------*/
  30:Libraries/ctrl_sdk/src/lib_stack.c **** 
  31:Libraries/ctrl_sdk/src/lib_stack.c **** lib_stack_status lib_stack_static_init(lib_stack_static_t *stack, void *members,
ARM GAS  C:\Users\Mxuan\AppData\Local\Temp\ccCIb4EQ.s 			page 2


  32:Libraries/ctrl_sdk/src/lib_stack.c **** 				       size_t mem_size, int32_t size)
  33:Libraries/ctrl_sdk/src/lib_stack.c **** {
  28              		.loc 1 33 1 view -0
  29              		.cfi_startproc
  30              		@ args = 0, pretend = 0, frame = 0
  31              		@ frame_needed = 0, uses_anonymous_args = 0
  32              		@ link register save eliminated.
  34:Libraries/ctrl_sdk/src/lib_stack.c **** 	if (stack == NULL || members == NULL) {
  33              		.loc 1 34 2 view .LVU1
  34              		.loc 1 34 5 is_stmt 0 view .LVU2
  35 0000 8446     		mov	ip, r0
  36 0002 88B1     		cbz	r0, .L3
  37              		.loc 1 34 20 discriminator 1 view .LVU3
  38 0004 91B1     		cbz	r1, .L4
  35:Libraries/ctrl_sdk/src/lib_stack.c **** 		return LIB_STACK_ERROR;
  36:Libraries/ctrl_sdk/src/lib_stack.c **** 	}
  37:Libraries/ctrl_sdk/src/lib_stack.c **** 	if (size > LIB_STACK_STATIC_SIZE_MAX || size <= 0) {
  39              		.loc 1 37 2 is_stmt 1 view .LVU4
  40              		.loc 1 37 39 is_stmt 0 view .LVU5
  41 0006 581E     		subs	r0, r3, #1
  42              	.LVL1:
  43              		.loc 1 37 5 view .LVU6
  44 0008 C728     		cmp	r0, #199
  45 000a 11D8     		bhi	.L5
  38:Libraries/ctrl_sdk/src/lib_stack.c **** 		return LIB_STACK_ERROR;
  39:Libraries/ctrl_sdk/src/lib_stack.c **** 	}
  40:Libraries/ctrl_sdk/src/lib_stack.c **** 	if (stack->mem_addr != NULL) {
  46              		.loc 1 40 2 is_stmt 1 view .LVU7
  47              		.loc 1 40 11 is_stmt 0 view .LVU8
  48 000c DCF80000 		ldr	r0, [ip]
  49              		.loc 1 40 5 view .LVU9
  50 0010 80B9     		cbnz	r0, .L6
  41:Libraries/ctrl_sdk/src/lib_stack.c **** 		return LIB_STACK_ALREADY_INIT;
  42:Libraries/ctrl_sdk/src/lib_stack.c **** 	}
  43:Libraries/ctrl_sdk/src/lib_stack.c **** 	stack->mem_addr = members;
  51              		.loc 1 43 2 is_stmt 1 view .LVU10
  52              		.loc 1 43 18 is_stmt 0 view .LVU11
  53 0012 CCF80010 		str	r1, [ip]
  44:Libraries/ctrl_sdk/src/lib_stack.c **** 	stack->mem_size = mem_size;
  54              		.loc 1 44 2 is_stmt 1 view .LVU12
  55              		.loc 1 44 18 is_stmt 0 view .LVU13
  56 0016 CCF80420 		str	r2, [ip, #4]
  45:Libraries/ctrl_sdk/src/lib_stack.c **** 	stack->size_max = size;
  57              		.loc 1 45 2 is_stmt 1 view .LVU14
  58              		.loc 1 45 18 is_stmt 0 view .LVU15
  59 001a CCF80830 		str	r3, [ip, #8]
  46:Libraries/ctrl_sdk/src/lib_stack.c **** 	stack->top = -1;
  60              		.loc 1 46 2 is_stmt 1 view .LVU16
  61              		.loc 1 46 13 is_stmt 0 view .LVU17
  62 001e 4FF0FF33 		mov	r3, #-1
  63              	.LVL2:
  64              		.loc 1 46 13 view .LVU18
  65 0022 CCF80C30 		str	r3, [ip, #12]
  47:Libraries/ctrl_sdk/src/lib_stack.c **** 	return LIB_STACK_OK;
  66              		.loc 1 47 2 is_stmt 1 view .LVU19
  67              		.loc 1 47 9 is_stmt 0 view .LVU20
  68 0026 7047     		bx	lr
ARM GAS  C:\Users\Mxuan\AppData\Local\Temp\ccCIb4EQ.s 			page 3


  69              	.LVL3:
  70              	.L3:
  35:Libraries/ctrl_sdk/src/lib_stack.c **** 	}
  71              		.loc 1 35 10 view .LVU21
  72 0028 0120     		movs	r0, #1
  73              	.LVL4:
  35:Libraries/ctrl_sdk/src/lib_stack.c **** 	}
  74              		.loc 1 35 10 view .LVU22
  75 002a 7047     		bx	lr
  76              	.LVL5:
  77              	.L4:
  35:Libraries/ctrl_sdk/src/lib_stack.c **** 	}
  78              		.loc 1 35 10 view .LVU23
  79 002c 0120     		movs	r0, #1
  80              	.LVL6:
  35:Libraries/ctrl_sdk/src/lib_stack.c **** 	}
  81              		.loc 1 35 10 view .LVU24
  82 002e 7047     		bx	lr
  83              	.L5:
  38:Libraries/ctrl_sdk/src/lib_stack.c **** 	}
  84              		.loc 1 38 10 view .LVU25
  85 0030 0120     		movs	r0, #1
  86 0032 7047     		bx	lr
  87              	.L6:
  41:Libraries/ctrl_sdk/src/lib_stack.c **** 	}
  88              		.loc 1 41 10 view .LVU26
  89 0034 0320     		movs	r0, #3
  48:Libraries/ctrl_sdk/src/lib_stack.c **** }
  90              		.loc 1 48 1 view .LVU27
  91 0036 7047     		bx	lr
  92              		.cfi_endproc
  93              	.LFE0:
  95              		.section	.text.lib_stack_static_empty,"ax",%progbits
  96              		.align	1
  97              		.global	lib_stack_static_empty
  98              		.syntax unified
  99              		.thumb
 100              		.thumb_func
 102              	lib_stack_static_empty:
 103              	.LVL7:
 104              	.LFB1:
  49:Libraries/ctrl_sdk/src/lib_stack.c **** 
  50:Libraries/ctrl_sdk/src/lib_stack.c **** inline _Bool lib_stack_static_empty(lib_stack_static_t *stack)
  51:Libraries/ctrl_sdk/src/lib_stack.c **** {
 105              		.loc 1 51 1 is_stmt 1 view -0
 106              		.cfi_startproc
 107              		@ args = 0, pretend = 0, frame = 0
 108              		@ frame_needed = 0, uses_anonymous_args = 0
 109              		@ link register save eliminated.
  52:Libraries/ctrl_sdk/src/lib_stack.c **** 	if (stack == NULL) {
 110              		.loc 1 52 2 view .LVU29
 111              		.loc 1 52 5 is_stmt 0 view .LVU30
 112 0000 30B1     		cbz	r0, .L9
  53:Libraries/ctrl_sdk/src/lib_stack.c **** 		return 0;
  54:Libraries/ctrl_sdk/src/lib_stack.c **** 	}
  55:Libraries/ctrl_sdk/src/lib_stack.c **** 	return lib_stack_static_size(stack) <= 0 ? LIB_STACK_IS_EMPTY :
 113              		.loc 1 55 2 is_stmt 1 view .LVU31
ARM GAS  C:\Users\Mxuan\AppData\Local\Temp\ccCIb4EQ.s 			page 4


 114              	.LVL8:
 115              	.LBB42:
 116              	.LBI42:
  56:Libraries/ctrl_sdk/src/lib_stack.c **** 						   LIB_STACK_IS_NOT_EMPTY;
  57:Libraries/ctrl_sdk/src/lib_stack.c **** }
  58:Libraries/ctrl_sdk/src/lib_stack.c **** 
  59:Libraries/ctrl_sdk/src/lib_stack.c **** inline _Bool lib_stack_static_full(lib_stack_static_t *stack)
  60:Libraries/ctrl_sdk/src/lib_stack.c **** {
  61:Libraries/ctrl_sdk/src/lib_stack.c **** 	if (stack == NULL) {
  62:Libraries/ctrl_sdk/src/lib_stack.c **** 		return 0;
  63:Libraries/ctrl_sdk/src/lib_stack.c **** 	}
  64:Libraries/ctrl_sdk/src/lib_stack.c **** 	return lib_stack_static_size(stack) >= stack->size_max ?
  65:Libraries/ctrl_sdk/src/lib_stack.c **** 		       LIB_STACK_IS_FULL :
  66:Libraries/ctrl_sdk/src/lib_stack.c **** 		       LIB_STACK_IS_NOT_FULL;
  67:Libraries/ctrl_sdk/src/lib_stack.c **** }
  68:Libraries/ctrl_sdk/src/lib_stack.c **** 
  69:Libraries/ctrl_sdk/src/lib_stack.c **** lib_stack_status lib_stack_static_push(lib_stack_static_t *stack, void *val)
  70:Libraries/ctrl_sdk/src/lib_stack.c **** {
  71:Libraries/ctrl_sdk/src/lib_stack.c **** 	if (stack == NULL || val == NULL) {
  72:Libraries/ctrl_sdk/src/lib_stack.c **** 		return LIB_STACK_ERROR;
  73:Libraries/ctrl_sdk/src/lib_stack.c **** 	}
  74:Libraries/ctrl_sdk/src/lib_stack.c **** 	if (stack->mem_size == 0 || stack->mem_addr == NULL) {
  75:Libraries/ctrl_sdk/src/lib_stack.c **** 		return LIB_STACK_NOT_INIT;
  76:Libraries/ctrl_sdk/src/lib_stack.c **** 	}
  77:Libraries/ctrl_sdk/src/lib_stack.c **** 	if (lib_stack_static_full(stack) == LIB_STACK_IS_FULL) {
  78:Libraries/ctrl_sdk/src/lib_stack.c **** 		return LIB_STACK_FULL;
  79:Libraries/ctrl_sdk/src/lib_stack.c **** 	}
  80:Libraries/ctrl_sdk/src/lib_stack.c **** 	++stack->top;
  81:Libraries/ctrl_sdk/src/lib_stack.c **** 	memcpy((char *)stack->mem_addr + (stack->mem_size * stack->top),
  82:Libraries/ctrl_sdk/src/lib_stack.c **** 	       val, stack->mem_size);
  83:Libraries/ctrl_sdk/src/lib_stack.c **** 	return LIB_STACK_OK;
  84:Libraries/ctrl_sdk/src/lib_stack.c **** }
  85:Libraries/ctrl_sdk/src/lib_stack.c **** 
  86:Libraries/ctrl_sdk/src/lib_stack.c **** lib_stack_status lib_stack_static_pop(lib_stack_static_t *stack, void *val)
  87:Libraries/ctrl_sdk/src/lib_stack.c **** {
  88:Libraries/ctrl_sdk/src/lib_stack.c **** 	if (stack == NULL) {
  89:Libraries/ctrl_sdk/src/lib_stack.c **** 		return LIB_STACK_ERROR;
  90:Libraries/ctrl_sdk/src/lib_stack.c **** 	}
  91:Libraries/ctrl_sdk/src/lib_stack.c **** 	if (stack->mem_size == 0 || stack->mem_addr == NULL) {
  92:Libraries/ctrl_sdk/src/lib_stack.c **** 		return LIB_STACK_NOT_INIT;
  93:Libraries/ctrl_sdk/src/lib_stack.c **** 	}
  94:Libraries/ctrl_sdk/src/lib_stack.c **** 	if (lib_stack_static_empty(stack) == LIB_STACK_IS_EMPTY) {
  95:Libraries/ctrl_sdk/src/lib_stack.c **** 		return LIB_STACK_EMPTY;
  96:Libraries/ctrl_sdk/src/lib_stack.c **** 	}
  97:Libraries/ctrl_sdk/src/lib_stack.c **** 	if (val != NULL) {
  98:Libraries/ctrl_sdk/src/lib_stack.c **** 		memcpy(val,
  99:Libraries/ctrl_sdk/src/lib_stack.c **** 		       (char *)stack->mem_addr +
 100:Libraries/ctrl_sdk/src/lib_stack.c **** 			       (stack->mem_size * stack->top),
 101:Libraries/ctrl_sdk/src/lib_stack.c **** 		       stack->mem_size);
 102:Libraries/ctrl_sdk/src/lib_stack.c **** 	}
 103:Libraries/ctrl_sdk/src/lib_stack.c **** 	--stack->top;
 104:Libraries/ctrl_sdk/src/lib_stack.c **** 	return LIB_STACK_OK;
 105:Libraries/ctrl_sdk/src/lib_stack.c **** }
 106:Libraries/ctrl_sdk/src/lib_stack.c **** 
 107:Libraries/ctrl_sdk/src/lib_stack.c **** lib_stack_status lib_stack_static_top(lib_stack_static_t *stack, void *val)
 108:Libraries/ctrl_sdk/src/lib_stack.c **** {
 109:Libraries/ctrl_sdk/src/lib_stack.c **** 	if (stack == NULL || val == NULL) {
ARM GAS  C:\Users\Mxuan\AppData\Local\Temp\ccCIb4EQ.s 			page 5


 110:Libraries/ctrl_sdk/src/lib_stack.c **** 		return LIB_STACK_ERROR;
 111:Libraries/ctrl_sdk/src/lib_stack.c **** 	}
 112:Libraries/ctrl_sdk/src/lib_stack.c **** 	if (stack->mem_size == 0 || stack->mem_addr == NULL) {
 113:Libraries/ctrl_sdk/src/lib_stack.c **** 		return LIB_STACK_NOT_INIT;
 114:Libraries/ctrl_sdk/src/lib_stack.c **** 	}
 115:Libraries/ctrl_sdk/src/lib_stack.c **** 	if (lib_stack_static_empty(stack) == LIB_STACK_IS_EMPTY) {
 116:Libraries/ctrl_sdk/src/lib_stack.c **** 		return LIB_STACK_EMPTY;
 117:Libraries/ctrl_sdk/src/lib_stack.c **** 	}
 118:Libraries/ctrl_sdk/src/lib_stack.c **** 	memcpy(val,
 119:Libraries/ctrl_sdk/src/lib_stack.c **** 	       (char *)stack->mem_addr + (stack->mem_size * stack->top),
 120:Libraries/ctrl_sdk/src/lib_stack.c **** 	       stack->mem_size);
 121:Libraries/ctrl_sdk/src/lib_stack.c **** 	return LIB_STACK_OK;
 122:Libraries/ctrl_sdk/src/lib_stack.c **** }
 123:Libraries/ctrl_sdk/src/lib_stack.c **** 
 124:Libraries/ctrl_sdk/src/lib_stack.c **** inline int32_t lib_stack_static_size(lib_stack_static_t *stack)
 117              		.loc 1 124 16 view .LVU32
 118              	.LBB43:
 125:Libraries/ctrl_sdk/src/lib_stack.c **** {
 126:Libraries/ctrl_sdk/src/lib_stack.c **** 	if (stack == NULL) {
 119              		.loc 1 126 2 view .LVU33
 127:Libraries/ctrl_sdk/src/lib_stack.c **** 		return -1;
 128:Libraries/ctrl_sdk/src/lib_stack.c **** 	}
 129:Libraries/ctrl_sdk/src/lib_stack.c **** 	return stack->top + 1;
 120              		.loc 1 129 2 view .LVU34
 121              		.loc 1 129 14 is_stmt 0 view .LVU35
 122 0002 C068     		ldr	r0, [r0, #12]
 123              	.LVL9:
 124              		.loc 1 129 20 view .LVU36
 125 0004 0130     		adds	r0, r0, #1
 126              	.LVL10:
 127              		.loc 1 129 20 view .LVU37
 128              	.LBE43:
 129              	.LBE42:
  55:Libraries/ctrl_sdk/src/lib_stack.c **** 						   LIB_STACK_IS_NOT_EMPTY;
 130              		.loc 1 55 64 view .LVU38
 131 0006 0028     		cmp	r0, #0
 132 0008 CCBF     		ite	gt
 133 000a 0020     		movgt	r0, #0
 134 000c 0120     		movle	r0, #1
 135 000e 7047     		bx	lr
 136              	.LVL11:
 137              	.L9:
  53:Libraries/ctrl_sdk/src/lib_stack.c **** 	}
 138              		.loc 1 53 10 view .LVU39
 139 0010 0020     		movs	r0, #0
 140              	.LVL12:
  57:Libraries/ctrl_sdk/src/lib_stack.c **** 
 141              		.loc 1 57 1 view .LVU40
 142 0012 7047     		bx	lr
 143              		.cfi_endproc
 144              	.LFE1:
 146              		.section	.text.lib_stack_static_full,"ax",%progbits
 147              		.align	1
 148              		.global	lib_stack_static_full
 149              		.syntax unified
 150              		.thumb
 151              		.thumb_func
ARM GAS  C:\Users\Mxuan\AppData\Local\Temp\ccCIb4EQ.s 			page 6


 153              	lib_stack_static_full:
 154              	.LVL13:
 155              	.LFB2:
  60:Libraries/ctrl_sdk/src/lib_stack.c **** 	if (stack == NULL) {
 156              		.loc 1 60 1 is_stmt 1 view -0
 157              		.cfi_startproc
 158              		@ args = 0, pretend = 0, frame = 0
 159              		@ frame_needed = 0, uses_anonymous_args = 0
 160              		@ link register save eliminated.
  61:Libraries/ctrl_sdk/src/lib_stack.c **** 		return 0;
 161              		.loc 1 61 2 view .LVU42
  61:Libraries/ctrl_sdk/src/lib_stack.c **** 		return 0;
 162              		.loc 1 61 5 is_stmt 0 view .LVU43
 163 0000 38B1     		cbz	r0, .L12
  64:Libraries/ctrl_sdk/src/lib_stack.c **** 		       LIB_STACK_IS_FULL :
 164              		.loc 1 64 2 is_stmt 1 view .LVU44
 165              	.LVL14:
 166              	.LBB44:
 167              	.LBI44:
 124:Libraries/ctrl_sdk/src/lib_stack.c **** {
 168              		.loc 1 124 16 view .LVU45
 169              	.LBB45:
 126:Libraries/ctrl_sdk/src/lib_stack.c **** 		return -1;
 170              		.loc 1 126 2 view .LVU46
 171              		.loc 1 129 2 view .LVU47
 172              		.loc 1 129 14 is_stmt 0 view .LVU48
 173 0002 C368     		ldr	r3, [r0, #12]
 174              		.loc 1 129 20 view .LVU49
 175 0004 0133     		adds	r3, r3, #1
 176              	.LVL15:
 177              		.loc 1 129 20 view .LVU50
 178              	.LBE45:
 179              	.LBE44:
  64:Libraries/ctrl_sdk/src/lib_stack.c **** 		       LIB_STACK_IS_FULL :
 180              		.loc 1 64 46 view .LVU51
 181 0006 8068     		ldr	r0, [r0, #8]
 182              	.LVL16:
  65:Libraries/ctrl_sdk/src/lib_stack.c **** 		       LIB_STACK_IS_NOT_FULL;
 183              		.loc 1 65 28 view .LVU52
 184 0008 9842     		cmp	r0, r3
 185 000a CCBF     		ite	gt
 186 000c 0020     		movgt	r0, #0
 187 000e 0120     		movle	r0, #1
 188 0010 7047     		bx	lr
 189              	.LVL17:
 190              	.L12:
  62:Libraries/ctrl_sdk/src/lib_stack.c **** 	}
 191              		.loc 1 62 10 view .LVU53
 192 0012 0020     		movs	r0, #0
 193              	.LVL18:
  67:Libraries/ctrl_sdk/src/lib_stack.c **** 
 194              		.loc 1 67 1 view .LVU54
 195 0014 7047     		bx	lr
 196              		.cfi_endproc
 197              	.LFE2:
 199              		.section	.text.lib_stack_static_push,"ax",%progbits
 200              		.align	1
ARM GAS  C:\Users\Mxuan\AppData\Local\Temp\ccCIb4EQ.s 			page 7


 201              		.global	lib_stack_static_push
 202              		.syntax unified
 203              		.thumb
 204              		.thumb_func
 206              	lib_stack_static_push:
 207              	.LVL19:
 208              	.LFB3:
  70:Libraries/ctrl_sdk/src/lib_stack.c **** 	if (stack == NULL || val == NULL) {
 209              		.loc 1 70 1 is_stmt 1 view -0
 210              		.cfi_startproc
 211              		@ args = 0, pretend = 0, frame = 0
 212              		@ frame_needed = 0, uses_anonymous_args = 0
  71:Libraries/ctrl_sdk/src/lib_stack.c **** 		return LIB_STACK_ERROR;
 213              		.loc 1 71 2 view .LVU56
  71:Libraries/ctrl_sdk/src/lib_stack.c **** 		return LIB_STACK_ERROR;
 214              		.loc 1 71 5 is_stmt 0 view .LVU57
 215 0000 98B1     		cbz	r0, .L15
 216 0002 0346     		mov	r3, r0
  71:Libraries/ctrl_sdk/src/lib_stack.c **** 		return LIB_STACK_ERROR;
 217              		.loc 1 71 20 discriminator 1 view .LVU58
 218 0004 99B1     		cbz	r1, .L16
  74:Libraries/ctrl_sdk/src/lib_stack.c **** 		return LIB_STACK_NOT_INIT;
 219              		.loc 1 74 2 is_stmt 1 view .LVU59
  74:Libraries/ctrl_sdk/src/lib_stack.c **** 		return LIB_STACK_NOT_INIT;
 220              		.loc 1 74 11 is_stmt 0 view .LVU60
 221 0006 4268     		ldr	r2, [r0, #4]
  74:Libraries/ctrl_sdk/src/lib_stack.c **** 		return LIB_STACK_NOT_INIT;
 222              		.loc 1 74 5 view .LVU61
 223 0008 9AB1     		cbz	r2, .L17
  74:Libraries/ctrl_sdk/src/lib_stack.c **** 		return LIB_STACK_NOT_INIT;
 224              		.loc 1 74 35 discriminator 1 view .LVU62
 225 000a 0068     		ldr	r0, [r0]
 226              	.LVL20:
  74:Libraries/ctrl_sdk/src/lib_stack.c **** 		return LIB_STACK_NOT_INIT;
 227              		.loc 1 74 27 discriminator 1 view .LVU63
 228 000c 98B1     		cbz	r0, .L18
  70:Libraries/ctrl_sdk/src/lib_stack.c **** 	if (stack == NULL || val == NULL) {
 229              		.loc 1 70 1 view .LVU64
 230 000e 10B5     		push	{r4, lr}
 231              	.LCFI0:
 232              		.cfi_def_cfa_offset 8
 233              		.cfi_offset 4, -8
 234              		.cfi_offset 14, -4
  77:Libraries/ctrl_sdk/src/lib_stack.c **** 		return LIB_STACK_FULL;
 235              		.loc 1 77 2 is_stmt 1 view .LVU65
 236              	.LVL21:
 237              	.LBB46:
 238              	.LBI46:
  59:Libraries/ctrl_sdk/src/lib_stack.c **** {
 239              		.loc 1 59 14 view .LVU66
 240              	.LBB47:
  61:Libraries/ctrl_sdk/src/lib_stack.c **** 		return 0;
 241              		.loc 1 61 2 view .LVU67
  64:Libraries/ctrl_sdk/src/lib_stack.c **** 		       LIB_STACK_IS_FULL :
 242              		.loc 1 64 2 view .LVU68
 243              	.LBB48:
 244              	.LBI48:
ARM GAS  C:\Users\Mxuan\AppData\Local\Temp\ccCIb4EQ.s 			page 8


 124:Libraries/ctrl_sdk/src/lib_stack.c **** {
 245              		.loc 1 124 16 view .LVU69
 246              	.LBB49:
 126:Libraries/ctrl_sdk/src/lib_stack.c **** 		return -1;
 247              		.loc 1 126 2 view .LVU70
 248              		.loc 1 129 2 view .LVU71
 249              		.loc 1 129 14 is_stmt 0 view .LVU72
 250 0010 DC68     		ldr	r4, [r3, #12]
 251              		.loc 1 129 20 view .LVU73
 252 0012 0134     		adds	r4, r4, #1
 253              	.LVL22:
 254              		.loc 1 129 20 view .LVU74
 255              	.LBE49:
 256              	.LBE48:
 257              	.LBE47:
 258              	.LBE46:
  77:Libraries/ctrl_sdk/src/lib_stack.c **** 		return LIB_STACK_FULL;
 259              		.loc 1 77 5 view .LVU75
 260 0014 D3F808C0 		ldr	ip, [r3, #8]
 261 0018 6445     		cmp	r4, ip
 262 001a 0EDA     		bge	.L19
  80:Libraries/ctrl_sdk/src/lib_stack.c **** 	memcpy((char *)stack->mem_addr + (stack->mem_size * stack->top),
 263              		.loc 1 80 2 is_stmt 1 view .LVU76
 264 001c DC60     		str	r4, [r3, #12]
  81:Libraries/ctrl_sdk/src/lib_stack.c **** 	       val, stack->mem_size);
 265              		.loc 1 81 2 view .LVU77
 266 001e 04FB0200 		mla	r0, r4, r2, r0
 267 0022 FFF7FEFF 		bl	memcpy
 268              	.LVL23:
  83:Libraries/ctrl_sdk/src/lib_stack.c **** }
 269              		.loc 1 83 2 view .LVU78
  83:Libraries/ctrl_sdk/src/lib_stack.c **** }
 270              		.loc 1 83 9 is_stmt 0 view .LVU79
 271 0026 0020     		movs	r0, #0
 272              	.L14:
  84:Libraries/ctrl_sdk/src/lib_stack.c **** 
 273              		.loc 1 84 1 view .LVU80
 274 0028 10BD     		pop	{r4, pc}
 275              	.LVL24:
 276              	.L15:
 277              	.LCFI1:
 278              		.cfi_def_cfa_offset 0
 279              		.cfi_restore 4
 280              		.cfi_restore 14
  72:Libraries/ctrl_sdk/src/lib_stack.c **** 	}
 281              		.loc 1 72 10 view .LVU81
 282 002a 0120     		movs	r0, #1
 283              	.LVL25:
  72:Libraries/ctrl_sdk/src/lib_stack.c **** 	}
 284              		.loc 1 72 10 view .LVU82
 285 002c 7047     		bx	lr
 286              	.LVL26:
 287              	.L16:
  72:Libraries/ctrl_sdk/src/lib_stack.c **** 	}
 288              		.loc 1 72 10 view .LVU83
 289 002e 0120     		movs	r0, #1
 290              	.LVL27:
ARM GAS  C:\Users\Mxuan\AppData\Local\Temp\ccCIb4EQ.s 			page 9


  72:Libraries/ctrl_sdk/src/lib_stack.c **** 	}
 291              		.loc 1 72 10 view .LVU84
 292 0030 7047     		bx	lr
 293              	.LVL28:
 294              	.L17:
  75:Libraries/ctrl_sdk/src/lib_stack.c **** 	}
 295              		.loc 1 75 10 view .LVU85
 296 0032 0220     		movs	r0, #2
 297              	.LVL29:
  75:Libraries/ctrl_sdk/src/lib_stack.c **** 	}
 298              		.loc 1 75 10 view .LVU86
 299 0034 7047     		bx	lr
 300              	.L18:
 301 0036 0220     		movs	r0, #2
  84:Libraries/ctrl_sdk/src/lib_stack.c **** 
 302              		.loc 1 84 1 view .LVU87
 303 0038 7047     		bx	lr
 304              	.L19:
 305              	.LCFI2:
 306              		.cfi_def_cfa_offset 8
 307              		.cfi_offset 4, -8
 308              		.cfi_offset 14, -4
  78:Libraries/ctrl_sdk/src/lib_stack.c **** 	}
 309              		.loc 1 78 10 view .LVU88
 310 003a 0420     		movs	r0, #4
 311 003c F4E7     		b	.L14
 312              		.cfi_endproc
 313              	.LFE3:
 315              		.section	.text.lib_stack_static_pop,"ax",%progbits
 316              		.align	1
 317              		.global	lib_stack_static_pop
 318              		.syntax unified
 319              		.thumb
 320              		.thumb_func
 322              	lib_stack_static_pop:
 323              	.LVL30:
 324              	.LFB4:
  87:Libraries/ctrl_sdk/src/lib_stack.c **** 	if (stack == NULL) {
 325              		.loc 1 87 1 is_stmt 1 view -0
 326              		.cfi_startproc
 327              		@ args = 0, pretend = 0, frame = 0
 328              		@ frame_needed = 0, uses_anonymous_args = 0
  88:Libraries/ctrl_sdk/src/lib_stack.c **** 		return LIB_STACK_ERROR;
 329              		.loc 1 88 2 view .LVU90
  88:Libraries/ctrl_sdk/src/lib_stack.c **** 		return LIB_STACK_ERROR;
 330              		.loc 1 88 5 is_stmt 0 view .LVU91
 331 0000 A0B1     		cbz	r0, .L27
  87:Libraries/ctrl_sdk/src/lib_stack.c **** 	if (stack == NULL) {
 332              		.loc 1 87 1 view .LVU92
 333 0002 10B5     		push	{r4, lr}
 334              	.LCFI3:
 335              		.cfi_def_cfa_offset 8
 336              		.cfi_offset 4, -8
 337              		.cfi_offset 14, -4
 338 0004 0B46     		mov	r3, r1
 339 0006 0446     		mov	r4, r0
  91:Libraries/ctrl_sdk/src/lib_stack.c **** 		return LIB_STACK_NOT_INIT;
ARM GAS  C:\Users\Mxuan\AppData\Local\Temp\ccCIb4EQ.s 			page 10


 340              		.loc 1 91 2 is_stmt 1 view .LVU93
  91:Libraries/ctrl_sdk/src/lib_stack.c **** 		return LIB_STACK_NOT_INIT;
 341              		.loc 1 91 11 is_stmt 0 view .LVU94
 342 0008 4268     		ldr	r2, [r0, #4]
  91:Libraries/ctrl_sdk/src/lib_stack.c **** 		return LIB_STACK_NOT_INIT;
 343              		.loc 1 91 5 view .LVU95
 344 000a 8AB1     		cbz	r2, .L28
  91:Libraries/ctrl_sdk/src/lib_stack.c **** 		return LIB_STACK_NOT_INIT;
 345              		.loc 1 91 35 discriminator 1 view .LVU96
 346 000c 0168     		ldr	r1, [r0]
 347              	.LVL31:
  91:Libraries/ctrl_sdk/src/lib_stack.c **** 		return LIB_STACK_NOT_INIT;
 348              		.loc 1 91 27 discriminator 1 view .LVU97
 349 000e 89B1     		cbz	r1, .L29
  94:Libraries/ctrl_sdk/src/lib_stack.c **** 		return LIB_STACK_EMPTY;
 350              		.loc 1 94 2 is_stmt 1 view .LVU98
 351              	.LVL32:
 352              	.LBB50:
 353              	.LBI50:
  50:Libraries/ctrl_sdk/src/lib_stack.c **** {
 354              		.loc 1 50 14 view .LVU99
 355              	.LBB51:
  52:Libraries/ctrl_sdk/src/lib_stack.c **** 		return 0;
 356              		.loc 1 52 2 view .LVU100
  55:Libraries/ctrl_sdk/src/lib_stack.c **** 						   LIB_STACK_IS_NOT_EMPTY;
 357              		.loc 1 55 2 view .LVU101
 358              	.LBB52:
 359              	.LBI52:
 124:Libraries/ctrl_sdk/src/lib_stack.c **** {
 360              		.loc 1 124 16 view .LVU102
 361              	.LBB53:
 126:Libraries/ctrl_sdk/src/lib_stack.c **** 		return -1;
 362              		.loc 1 126 2 view .LVU103
 363              		.loc 1 129 2 view .LVU104
 364              		.loc 1 129 14 is_stmt 0 view .LVU105
 365 0010 C068     		ldr	r0, [r0, #12]
 366              	.LVL33:
 367              		.loc 1 129 14 view .LVU106
 368              	.LBE53:
 369              	.LBE52:
 370              	.LBE51:
 371              	.LBE50:
  94:Libraries/ctrl_sdk/src/lib_stack.c **** 		return LIB_STACK_EMPTY;
 372              		.loc 1 94 5 view .LVU107
 373 0012 0028     		cmp	r0, #0
 374 0014 10DB     		blt	.L30
  97:Libraries/ctrl_sdk/src/lib_stack.c **** 		memcpy(val,
 375              		.loc 1 97 2 is_stmt 1 view .LVU108
  97:Libraries/ctrl_sdk/src/lib_stack.c **** 		memcpy(val,
 376              		.loc 1 97 5 is_stmt 0 view .LVU109
 377 0016 23B1     		cbz	r3, .L26
  98:Libraries/ctrl_sdk/src/lib_stack.c **** 		       (char *)stack->mem_addr +
 378              		.loc 1 98 3 is_stmt 1 view .LVU110
 379 0018 00FB0211 		mla	r1, r0, r2, r1
 380 001c 1846     		mov	r0, r3
 381 001e FFF7FEFF 		bl	memcpy
 382              	.LVL34:
ARM GAS  C:\Users\Mxuan\AppData\Local\Temp\ccCIb4EQ.s 			page 11


 383              	.L26:
 103:Libraries/ctrl_sdk/src/lib_stack.c **** 	return LIB_STACK_OK;
 384              		.loc 1 103 2 view .LVU111
 103:Libraries/ctrl_sdk/src/lib_stack.c **** 	return LIB_STACK_OK;
 385              		.loc 1 103 9 is_stmt 0 view .LVU112
 386 0022 E368     		ldr	r3, [r4, #12]
 103:Libraries/ctrl_sdk/src/lib_stack.c **** 	return LIB_STACK_OK;
 387              		.loc 1 103 2 view .LVU113
 388 0024 013B     		subs	r3, r3, #1
 389 0026 E360     		str	r3, [r4, #12]
 104:Libraries/ctrl_sdk/src/lib_stack.c **** }
 390              		.loc 1 104 2 is_stmt 1 view .LVU114
 104:Libraries/ctrl_sdk/src/lib_stack.c **** }
 391              		.loc 1 104 9 is_stmt 0 view .LVU115
 392 0028 0020     		movs	r0, #0
 393              	.L25:
 105:Libraries/ctrl_sdk/src/lib_stack.c **** 
 394              		.loc 1 105 1 view .LVU116
 395 002a 10BD     		pop	{r4, pc}
 396              	.LVL35:
 397              	.L27:
 398              	.LCFI4:
 399              		.cfi_def_cfa_offset 0
 400              		.cfi_restore 4
 401              		.cfi_restore 14
  89:Libraries/ctrl_sdk/src/lib_stack.c **** 	}
 402              		.loc 1 89 10 view .LVU117
 403 002c 0120     		movs	r0, #1
 404              	.LVL36:
 105:Libraries/ctrl_sdk/src/lib_stack.c **** 
 405              		.loc 1 105 1 view .LVU118
 406 002e 7047     		bx	lr
 407              	.LVL37:
 408              	.L28:
 409              	.LCFI5:
 410              		.cfi_def_cfa_offset 8
 411              		.cfi_offset 4, -8
 412              		.cfi_offset 14, -4
  92:Libraries/ctrl_sdk/src/lib_stack.c **** 	}
 413              		.loc 1 92 10 view .LVU119
 414 0030 0220     		movs	r0, #2
 415              	.LVL38:
  92:Libraries/ctrl_sdk/src/lib_stack.c **** 	}
 416              		.loc 1 92 10 view .LVU120
 417 0032 FAE7     		b	.L25
 418              	.LVL39:
 419              	.L29:
  92:Libraries/ctrl_sdk/src/lib_stack.c **** 	}
 420              		.loc 1 92 10 view .LVU121
 421 0034 0220     		movs	r0, #2
 422              	.LVL40:
  92:Libraries/ctrl_sdk/src/lib_stack.c **** 	}
 423              		.loc 1 92 10 view .LVU122
 424 0036 F8E7     		b	.L25
 425              	.L30:
  95:Libraries/ctrl_sdk/src/lib_stack.c **** 	}
 426              		.loc 1 95 10 view .LVU123
ARM GAS  C:\Users\Mxuan\AppData\Local\Temp\ccCIb4EQ.s 			page 12


 427 0038 0520     		movs	r0, #5
 428 003a F6E7     		b	.L25
 429              		.cfi_endproc
 430              	.LFE4:
 432              		.section	.text.lib_stack_static_top,"ax",%progbits
 433              		.align	1
 434              		.global	lib_stack_static_top
 435              		.syntax unified
 436              		.thumb
 437              		.thumb_func
 439              	lib_stack_static_top:
 440              	.LVL41:
 441              	.LFB5:
 108:Libraries/ctrl_sdk/src/lib_stack.c **** 	if (stack == NULL || val == NULL) {
 442              		.loc 1 108 1 is_stmt 1 view -0
 443              		.cfi_startproc
 444              		@ args = 0, pretend = 0, frame = 0
 445              		@ frame_needed = 0, uses_anonymous_args = 0
 109:Libraries/ctrl_sdk/src/lib_stack.c **** 		return LIB_STACK_ERROR;
 446              		.loc 1 109 2 view .LVU125
 109:Libraries/ctrl_sdk/src/lib_stack.c **** 		return LIB_STACK_ERROR;
 447              		.loc 1 109 5 is_stmt 0 view .LVU126
 448 0000 80B1     		cbz	r0, .L37
 108:Libraries/ctrl_sdk/src/lib_stack.c **** 	if (stack == NULL || val == NULL) {
 449              		.loc 1 108 1 discriminator 1 view .LVU127
 450 0002 08B5     		push	{r3, lr}
 451              	.LCFI6:
 452              		.cfi_def_cfa_offset 8
 453              		.cfi_offset 3, -8
 454              		.cfi_offset 14, -4
 455 0004 0B46     		mov	r3, r1
 109:Libraries/ctrl_sdk/src/lib_stack.c **** 		return LIB_STACK_ERROR;
 456              		.loc 1 109 20 discriminator 1 view .LVU128
 457 0006 79B1     		cbz	r1, .L38
 112:Libraries/ctrl_sdk/src/lib_stack.c **** 		return LIB_STACK_NOT_INIT;
 458              		.loc 1 112 2 is_stmt 1 view .LVU129
 112:Libraries/ctrl_sdk/src/lib_stack.c **** 		return LIB_STACK_NOT_INIT;
 459              		.loc 1 112 11 is_stmt 0 view .LVU130
 460 0008 4268     		ldr	r2, [r0, #4]
 112:Libraries/ctrl_sdk/src/lib_stack.c **** 		return LIB_STACK_NOT_INIT;
 461              		.loc 1 112 5 view .LVU131
 462 000a 7AB1     		cbz	r2, .L39
 112:Libraries/ctrl_sdk/src/lib_stack.c **** 		return LIB_STACK_NOT_INIT;
 463              		.loc 1 112 35 discriminator 1 view .LVU132
 464 000c 0168     		ldr	r1, [r0]
 465              	.LVL42:
 112:Libraries/ctrl_sdk/src/lib_stack.c **** 		return LIB_STACK_NOT_INIT;
 466              		.loc 1 112 27 discriminator 1 view .LVU133
 467 000e 79B1     		cbz	r1, .L40
 115:Libraries/ctrl_sdk/src/lib_stack.c **** 		return LIB_STACK_EMPTY;
 468              		.loc 1 115 2 is_stmt 1 view .LVU134
 469              	.LVL43:
 470              	.LBB54:
 471              	.LBI54:
  50:Libraries/ctrl_sdk/src/lib_stack.c **** {
 472              		.loc 1 50 14 view .LVU135
 473              	.LBB55:
ARM GAS  C:\Users\Mxuan\AppData\Local\Temp\ccCIb4EQ.s 			page 13


  52:Libraries/ctrl_sdk/src/lib_stack.c **** 		return 0;
 474              		.loc 1 52 2 view .LVU136
  55:Libraries/ctrl_sdk/src/lib_stack.c **** 						   LIB_STACK_IS_NOT_EMPTY;
 475              		.loc 1 55 2 view .LVU137
 476              	.LBB56:
 477              	.LBI56:
 124:Libraries/ctrl_sdk/src/lib_stack.c **** {
 478              		.loc 1 124 16 view .LVU138
 479              	.LBB57:
 126:Libraries/ctrl_sdk/src/lib_stack.c **** 		return -1;
 480              		.loc 1 126 2 view .LVU139
 481              		.loc 1 129 2 view .LVU140
 482              		.loc 1 129 14 is_stmt 0 view .LVU141
 483 0010 C068     		ldr	r0, [r0, #12]
 484              	.LVL44:
 485              		.loc 1 129 14 view .LVU142
 486              	.LBE57:
 487              	.LBE56:
 488              	.LBE55:
 489              	.LBE54:
 115:Libraries/ctrl_sdk/src/lib_stack.c **** 		return LIB_STACK_EMPTY;
 490              		.loc 1 115 5 view .LVU143
 491 0012 0028     		cmp	r0, #0
 492 0014 0EDB     		blt	.L41
 118:Libraries/ctrl_sdk/src/lib_stack.c **** 	       (char *)stack->mem_addr + (stack->mem_size * stack->top),
 493              		.loc 1 118 2 is_stmt 1 view .LVU144
 494 0016 00FB0211 		mla	r1, r0, r2, r1
 495 001a 1846     		mov	r0, r3
 496 001c FFF7FEFF 		bl	memcpy
 497              	.LVL45:
 121:Libraries/ctrl_sdk/src/lib_stack.c **** }
 498              		.loc 1 121 2 view .LVU145
 121:Libraries/ctrl_sdk/src/lib_stack.c **** }
 499              		.loc 1 121 9 is_stmt 0 view .LVU146
 500 0020 0020     		movs	r0, #0
 501              	.L36:
 122:Libraries/ctrl_sdk/src/lib_stack.c **** 
 502              		.loc 1 122 1 view .LVU147
 503 0022 08BD     		pop	{r3, pc}
 504              	.LVL46:
 505              	.L37:
 506              	.LCFI7:
 507              		.cfi_def_cfa_offset 0
 508              		.cfi_restore 3
 509              		.cfi_restore 14
 110:Libraries/ctrl_sdk/src/lib_stack.c **** 	}
 510              		.loc 1 110 10 view .LVU148
 511 0024 0120     		movs	r0, #1
 512              	.LVL47:
 122:Libraries/ctrl_sdk/src/lib_stack.c **** 
 513              		.loc 1 122 1 view .LVU149
 514 0026 7047     		bx	lr
 515              	.LVL48:
 516              	.L38:
 517              	.LCFI8:
 518              		.cfi_def_cfa_offset 8
 519              		.cfi_offset 3, -8
ARM GAS  C:\Users\Mxuan\AppData\Local\Temp\ccCIb4EQ.s 			page 14


 520              		.cfi_offset 14, -4
 110:Libraries/ctrl_sdk/src/lib_stack.c **** 	}
 521              		.loc 1 110 10 view .LVU150
 522 0028 0120     		movs	r0, #1
 523              	.LVL49:
 110:Libraries/ctrl_sdk/src/lib_stack.c **** 	}
 524              		.loc 1 110 10 view .LVU151
 525 002a FAE7     		b	.L36
 526              	.LVL50:
 527              	.L39:
 113:Libraries/ctrl_sdk/src/lib_stack.c **** 	}
 528              		.loc 1 113 10 view .LVU152
 529 002c 0220     		movs	r0, #2
 530              	.LVL51:
 113:Libraries/ctrl_sdk/src/lib_stack.c **** 	}
 531              		.loc 1 113 10 view .LVU153
 532 002e F8E7     		b	.L36
 533              	.LVL52:
 534              	.L40:
 113:Libraries/ctrl_sdk/src/lib_stack.c **** 	}
 535              		.loc 1 113 10 view .LVU154
 536 0030 0220     		movs	r0, #2
 537              	.LVL53:
 113:Libraries/ctrl_sdk/src/lib_stack.c **** 	}
 538              		.loc 1 113 10 view .LVU155
 539 0032 F6E7     		b	.L36
 540              	.L41:
 116:Libraries/ctrl_sdk/src/lib_stack.c **** 	}
 541              		.loc 1 116 10 view .LVU156
 542 0034 0520     		movs	r0, #5
 543 0036 F4E7     		b	.L36
 544              		.cfi_endproc
 545              	.LFE5:
 547              		.section	.text.lib_stack_static_size,"ax",%progbits
 548              		.align	1
 549              		.global	lib_stack_static_size
 550              		.syntax unified
 551              		.thumb
 552              		.thumb_func
 554              	lib_stack_static_size:
 555              	.LVL54:
 556              	.LFB6:
 125:Libraries/ctrl_sdk/src/lib_stack.c **** 	if (stack == NULL) {
 557              		.loc 1 125 1 is_stmt 1 view -0
 558              		.cfi_startproc
 559              		@ args = 0, pretend = 0, frame = 0
 560              		@ frame_needed = 0, uses_anonymous_args = 0
 561              		@ link register save eliminated.
 126:Libraries/ctrl_sdk/src/lib_stack.c **** 		return -1;
 562              		.loc 1 126 2 view .LVU158
 126:Libraries/ctrl_sdk/src/lib_stack.c **** 		return -1;
 563              		.loc 1 126 5 is_stmt 0 view .LVU159
 564 0000 10B1     		cbz	r0, .L48
 565              		.loc 1 129 2 is_stmt 1 view .LVU160
 566              		.loc 1 129 14 is_stmt 0 view .LVU161
 567 0002 C068     		ldr	r0, [r0, #12]
 568              	.LVL55:
ARM GAS  C:\Users\Mxuan\AppData\Local\Temp\ccCIb4EQ.s 			page 15


 569              		.loc 1 129 20 view .LVU162
 570 0004 0130     		adds	r0, r0, #1
 571 0006 7047     		bx	lr
 572              	.LVL56:
 573              	.L48:
 127:Libraries/ctrl_sdk/src/lib_stack.c **** 	}
 574              		.loc 1 127 10 view .LVU163
 575 0008 4FF0FF30 		mov	r0, #-1
 576              	.LVL57:
 130:Libraries/ctrl_sdk/src/lib_stack.c **** }
 577              		.loc 1 130 1 view .LVU164
 578 000c 7047     		bx	lr
 579              		.cfi_endproc
 580              	.LFE6:
 582              		.section	.text.lib_stack_static_clear,"ax",%progbits
 583              		.align	1
 584              		.global	lib_stack_static_clear
 585              		.syntax unified
 586              		.thumb
 587              		.thumb_func
 589              	lib_stack_static_clear:
 590              	.LVL58:
 591              	.LFB7:
 131:Libraries/ctrl_sdk/src/lib_stack.c **** 
 132:Libraries/ctrl_sdk/src/lib_stack.c **** void lib_stack_static_clear(lib_stack_static_t *stack)
 133:Libraries/ctrl_sdk/src/lib_stack.c **** {
 592              		.loc 1 133 1 is_stmt 1 view -0
 593              		.cfi_startproc
 594              		@ args = 0, pretend = 0, frame = 0
 595              		@ frame_needed = 0, uses_anonymous_args = 0
 596              		@ link register save eliminated.
 134:Libraries/ctrl_sdk/src/lib_stack.c **** 	if (stack == NULL) {
 597              		.loc 1 134 2 view .LVU166
 598              		.loc 1 134 5 is_stmt 0 view .LVU167
 599 0000 10B1     		cbz	r0, .L49
 135:Libraries/ctrl_sdk/src/lib_stack.c **** 		return;
 136:Libraries/ctrl_sdk/src/lib_stack.c **** 	}
 137:Libraries/ctrl_sdk/src/lib_stack.c **** 	stack->top = -1;
 600              		.loc 1 137 2 is_stmt 1 view .LVU168
 601              		.loc 1 137 13 is_stmt 0 view .LVU169
 602 0002 4FF0FF32 		mov	r2, #-1
 603 0006 C260     		str	r2, [r0, #12]
 604              	.L49:
 138:Libraries/ctrl_sdk/src/lib_stack.c **** }
 605              		.loc 1 138 1 view .LVU170
 606 0008 7047     		bx	lr
 607              		.cfi_endproc
 608              	.LFE7:
 610              		.section	.text.lib_stack_init,"ax",%progbits
 611              		.align	1
 612              		.global	lib_stack_init
 613              		.syntax unified
 614              		.thumb
 615              		.thumb_func
 617              	lib_stack_init:
 618              	.LVL59:
 619              	.LFB8:
ARM GAS  C:\Users\Mxuan\AppData\Local\Temp\ccCIb4EQ.s 			page 16


 139:Libraries/ctrl_sdk/src/lib_stack.c **** 
 140:Libraries/ctrl_sdk/src/lib_stack.c **** lib_stack_status lib_stack_init(lib_stack_t *stack, size_t mem_size,
 141:Libraries/ctrl_sdk/src/lib_stack.c **** 				int32_t size)
 142:Libraries/ctrl_sdk/src/lib_stack.c **** {
 620              		.loc 1 142 1 is_stmt 1 view -0
 621              		.cfi_startproc
 622              		@ args = 0, pretend = 0, frame = 0
 623              		@ frame_needed = 0, uses_anonymous_args = 0
 143:Libraries/ctrl_sdk/src/lib_stack.c **** 	if (stack == NULL) {
 624              		.loc 1 143 2 view .LVU172
 625              		.loc 1 143 5 is_stmt 0 view .LVU173
 626 0000 B8B1     		cbz	r0, .L53
 142:Libraries/ctrl_sdk/src/lib_stack.c **** 	if (stack == NULL) {
 627              		.loc 1 142 1 view .LVU174
 628 0002 70B5     		push	{r4, r5, r6, lr}
 629              	.LCFI9:
 630              		.cfi_def_cfa_offset 16
 631              		.cfi_offset 4, -16
 632              		.cfi_offset 5, -12
 633              		.cfi_offset 6, -8
 634              		.cfi_offset 14, -4
 635 0004 0E46     		mov	r6, r1
 636 0006 1446     		mov	r4, r2
 637 0008 0546     		mov	r5, r0
 144:Libraries/ctrl_sdk/src/lib_stack.c **** 		return LIB_STACK_ERROR;
 145:Libraries/ctrl_sdk/src/lib_stack.c **** 	}
 146:Libraries/ctrl_sdk/src/lib_stack.c **** 	if (size > LIB_STACK_STATIC_SIZE_MAX || size <= 0) {
 638              		.loc 1 146 2 is_stmt 1 view .LVU175
 639              		.loc 1 146 39 is_stmt 0 view .LVU176
 640 000a 531E     		subs	r3, r2, #1
 641              		.loc 1 146 5 view .LVU177
 642 000c C72B     		cmp	r3, #199
 643 000e 12D8     		bhi	.L54
 147:Libraries/ctrl_sdk/src/lib_stack.c **** 		return LIB_STACK_ERROR;
 148:Libraries/ctrl_sdk/src/lib_stack.c **** 	}
 149:Libraries/ctrl_sdk/src/lib_stack.c **** 	if (stack->mem_addr != NULL) {
 644              		.loc 1 149 2 is_stmt 1 view .LVU178
 645              		.loc 1 149 11 is_stmt 0 view .LVU179
 646 0010 0368     		ldr	r3, [r0]
 647              		.loc 1 149 5 view .LVU180
 648 0012 0BB1     		cbz	r3, .L61
 150:Libraries/ctrl_sdk/src/lib_stack.c **** 		return LIB_STACK_ALREADY_INIT;
 649              		.loc 1 150 10 view .LVU181
 650 0014 0320     		movs	r0, #3
 651              	.LVL60:
 652              	.L52:
 151:Libraries/ctrl_sdk/src/lib_stack.c **** 	}
 152:Libraries/ctrl_sdk/src/lib_stack.c **** 	void *members = STACK_MALLOC(mem_size * size);
 153:Libraries/ctrl_sdk/src/lib_stack.c **** 	if (members == NULL) {
 154:Libraries/ctrl_sdk/src/lib_stack.c **** 		return LIB_STACK_ERROR;
 155:Libraries/ctrl_sdk/src/lib_stack.c **** 	}
 156:Libraries/ctrl_sdk/src/lib_stack.c **** 	stack->mem_addr = members;
 157:Libraries/ctrl_sdk/src/lib_stack.c **** 	stack->mem_size = mem_size;
 158:Libraries/ctrl_sdk/src/lib_stack.c **** 	stack->size_max = size;
 159:Libraries/ctrl_sdk/src/lib_stack.c **** 	stack->top = -1;
 160:Libraries/ctrl_sdk/src/lib_stack.c **** 	return LIB_STACK_OK;
 161:Libraries/ctrl_sdk/src/lib_stack.c **** }
ARM GAS  C:\Users\Mxuan\AppData\Local\Temp\ccCIb4EQ.s 			page 17


 653              		.loc 1 161 1 view .LVU182
 654 0016 70BD     		pop	{r4, r5, r6, pc}
 655              	.LVL61:
 656              	.L61:
 152:Libraries/ctrl_sdk/src/lib_stack.c **** 	if (members == NULL) {
 657              		.loc 1 152 2 is_stmt 1 view .LVU183
 152:Libraries/ctrl_sdk/src/lib_stack.c **** 	if (members == NULL) {
 658              		.loc 1 152 18 is_stmt 0 view .LVU184
 659 0018 01FB02F0 		mul	r0, r1, r2
 660              	.LVL62:
 152:Libraries/ctrl_sdk/src/lib_stack.c **** 	if (members == NULL) {
 661              		.loc 1 152 18 view .LVU185
 662 001c FFF7FEFF 		bl	malloc
 663              	.LVL63:
 153:Libraries/ctrl_sdk/src/lib_stack.c **** 		return LIB_STACK_ERROR;
 664              		.loc 1 153 2 is_stmt 1 view .LVU186
 153:Libraries/ctrl_sdk/src/lib_stack.c **** 		return LIB_STACK_ERROR;
 665              		.loc 1 153 5 is_stmt 0 view .LVU187
 666 0020 58B1     		cbz	r0, .L56
 156:Libraries/ctrl_sdk/src/lib_stack.c **** 	stack->mem_size = mem_size;
 667              		.loc 1 156 2 is_stmt 1 view .LVU188
 156:Libraries/ctrl_sdk/src/lib_stack.c **** 	stack->mem_size = mem_size;
 668              		.loc 1 156 18 is_stmt 0 view .LVU189
 669 0022 2860     		str	r0, [r5]
 157:Libraries/ctrl_sdk/src/lib_stack.c **** 	stack->size_max = size;
 670              		.loc 1 157 2 is_stmt 1 view .LVU190
 157:Libraries/ctrl_sdk/src/lib_stack.c **** 	stack->size_max = size;
 671              		.loc 1 157 18 is_stmt 0 view .LVU191
 672 0024 6E60     		str	r6, [r5, #4]
 158:Libraries/ctrl_sdk/src/lib_stack.c **** 	stack->top = -1;
 673              		.loc 1 158 2 is_stmt 1 view .LVU192
 158:Libraries/ctrl_sdk/src/lib_stack.c **** 	stack->top = -1;
 674              		.loc 1 158 18 is_stmt 0 view .LVU193
 675 0026 AC60     		str	r4, [r5, #8]
 159:Libraries/ctrl_sdk/src/lib_stack.c **** 	return LIB_STACK_OK;
 676              		.loc 1 159 2 is_stmt 1 view .LVU194
 159:Libraries/ctrl_sdk/src/lib_stack.c **** 	return LIB_STACK_OK;
 677              		.loc 1 159 13 is_stmt 0 view .LVU195
 678 0028 4FF0FF33 		mov	r3, #-1
 679 002c EB60     		str	r3, [r5, #12]
 160:Libraries/ctrl_sdk/src/lib_stack.c **** }
 680              		.loc 1 160 2 is_stmt 1 view .LVU196
 160:Libraries/ctrl_sdk/src/lib_stack.c **** }
 681              		.loc 1 160 9 is_stmt 0 view .LVU197
 682 002e 0020     		movs	r0, #0
 683              	.LVL64:
 160:Libraries/ctrl_sdk/src/lib_stack.c **** }
 684              		.loc 1 160 9 view .LVU198
 685 0030 F1E7     		b	.L52
 686              	.LVL65:
 687              	.L53:
 688              	.LCFI10:
 689              		.cfi_def_cfa_offset 0
 690              		.cfi_restore 4
 691              		.cfi_restore 5
 692              		.cfi_restore 6
 693              		.cfi_restore 14
ARM GAS  C:\Users\Mxuan\AppData\Local\Temp\ccCIb4EQ.s 			page 18


 144:Libraries/ctrl_sdk/src/lib_stack.c **** 	}
 694              		.loc 1 144 10 view .LVU199
 695 0032 0120     		movs	r0, #1
 696              	.LVL66:
 697              		.loc 1 161 1 view .LVU200
 698 0034 7047     		bx	lr
 699              	.LVL67:
 700              	.L54:
 701              	.LCFI11:
 702              		.cfi_def_cfa_offset 16
 703              		.cfi_offset 4, -16
 704              		.cfi_offset 5, -12
 705              		.cfi_offset 6, -8
 706              		.cfi_offset 14, -4
 147:Libraries/ctrl_sdk/src/lib_stack.c **** 	}
 707              		.loc 1 147 10 view .LVU201
 708 0036 0120     		movs	r0, #1
 709              	.LVL68:
 147:Libraries/ctrl_sdk/src/lib_stack.c **** 	}
 710              		.loc 1 147 10 view .LVU202
 711 0038 EDE7     		b	.L52
 712              	.LVL69:
 713              	.L56:
 154:Libraries/ctrl_sdk/src/lib_stack.c **** 	}
 714              		.loc 1 154 10 view .LVU203
 715 003a 0120     		movs	r0, #1
 716              	.LVL70:
 154:Libraries/ctrl_sdk/src/lib_stack.c **** 	}
 717              		.loc 1 154 10 view .LVU204
 718 003c EBE7     		b	.L52
 719              		.cfi_endproc
 720              	.LFE8:
 722              		.section	.text.lib_stack_empty,"ax",%progbits
 723              		.align	1
 724              		.global	lib_stack_empty
 725              		.syntax unified
 726              		.thumb
 727              		.thumb_func
 729              	lib_stack_empty:
 730              	.LVL71:
 731              	.LFB9:
 162:Libraries/ctrl_sdk/src/lib_stack.c **** 
 163:Libraries/ctrl_sdk/src/lib_stack.c **** inline _Bool lib_stack_empty(lib_stack_t *stack)
 164:Libraries/ctrl_sdk/src/lib_stack.c **** {
 732              		.loc 1 164 1 is_stmt 1 view -0
 733              		.cfi_startproc
 734              		@ args = 0, pretend = 0, frame = 0
 735              		@ frame_needed = 0, uses_anonymous_args = 0
 736              		@ link register save eliminated.
 165:Libraries/ctrl_sdk/src/lib_stack.c **** 	if (stack == NULL) {
 737              		.loc 1 165 2 view .LVU206
 738              		.loc 1 165 5 is_stmt 0 view .LVU207
 739 0000 30B1     		cbz	r0, .L64
 166:Libraries/ctrl_sdk/src/lib_stack.c **** 		return 0;
 167:Libraries/ctrl_sdk/src/lib_stack.c **** 	}
 168:Libraries/ctrl_sdk/src/lib_stack.c **** 	return lib_stack_size(stack) <= 0 ? LIB_STACK_IS_EMPTY :
 740              		.loc 1 168 2 is_stmt 1 view .LVU208
ARM GAS  C:\Users\Mxuan\AppData\Local\Temp\ccCIb4EQ.s 			page 19


 741              	.LVL72:
 742              	.LBB58:
 743              	.LBI58:
 169:Libraries/ctrl_sdk/src/lib_stack.c **** 					    LIB_STACK_IS_NOT_EMPTY;
 170:Libraries/ctrl_sdk/src/lib_stack.c **** }
 171:Libraries/ctrl_sdk/src/lib_stack.c **** 
 172:Libraries/ctrl_sdk/src/lib_stack.c **** inline _Bool lib_stack_full(lib_stack_t *stack)
 173:Libraries/ctrl_sdk/src/lib_stack.c **** {
 174:Libraries/ctrl_sdk/src/lib_stack.c **** 	if (stack == NULL) {
 175:Libraries/ctrl_sdk/src/lib_stack.c **** 		return 0;
 176:Libraries/ctrl_sdk/src/lib_stack.c **** 	}
 177:Libraries/ctrl_sdk/src/lib_stack.c **** 	return lib_stack_size(stack) >= stack->size_max ? LIB_STACK_IS_FULL :
 178:Libraries/ctrl_sdk/src/lib_stack.c **** 							  LIB_STACK_IS_NOT_FULL;
 179:Libraries/ctrl_sdk/src/lib_stack.c **** }
 180:Libraries/ctrl_sdk/src/lib_stack.c **** 
 181:Libraries/ctrl_sdk/src/lib_stack.c **** lib_stack_status lib_stack_push(lib_stack_t *stack, void *val)
 182:Libraries/ctrl_sdk/src/lib_stack.c **** {
 183:Libraries/ctrl_sdk/src/lib_stack.c **** 	if (stack == NULL || val == NULL) {
 184:Libraries/ctrl_sdk/src/lib_stack.c **** 		return LIB_STACK_ERROR;
 185:Libraries/ctrl_sdk/src/lib_stack.c **** 	}
 186:Libraries/ctrl_sdk/src/lib_stack.c **** 	if (stack->mem_size == 0 || stack->mem_addr == NULL) {
 187:Libraries/ctrl_sdk/src/lib_stack.c **** 		return LIB_STACK_NOT_INIT;
 188:Libraries/ctrl_sdk/src/lib_stack.c **** 	}
 189:Libraries/ctrl_sdk/src/lib_stack.c **** 	if (lib_stack_full(stack) == LIB_STACK_IS_FULL) {
 190:Libraries/ctrl_sdk/src/lib_stack.c **** 		return LIB_STACK_FULL;
 191:Libraries/ctrl_sdk/src/lib_stack.c **** 	}
 192:Libraries/ctrl_sdk/src/lib_stack.c **** 	++stack->top;
 193:Libraries/ctrl_sdk/src/lib_stack.c **** 	memcpy((char *)stack->mem_addr + (stack->mem_size * stack->top),
 194:Libraries/ctrl_sdk/src/lib_stack.c **** 	       val, stack->mem_size);
 195:Libraries/ctrl_sdk/src/lib_stack.c **** 	return LIB_STACK_OK;
 196:Libraries/ctrl_sdk/src/lib_stack.c **** }
 197:Libraries/ctrl_sdk/src/lib_stack.c **** 
 198:Libraries/ctrl_sdk/src/lib_stack.c **** lib_stack_status lib_stack_pop(lib_stack_t *stack, void *val)
 199:Libraries/ctrl_sdk/src/lib_stack.c **** {
 200:Libraries/ctrl_sdk/src/lib_stack.c **** 	if (stack == NULL) {
 201:Libraries/ctrl_sdk/src/lib_stack.c **** 		return LIB_STACK_ERROR;
 202:Libraries/ctrl_sdk/src/lib_stack.c **** 	}
 203:Libraries/ctrl_sdk/src/lib_stack.c **** 	if (stack->mem_size == 0 || stack->mem_addr == NULL) {
 204:Libraries/ctrl_sdk/src/lib_stack.c **** 		return LIB_STACK_NOT_INIT;
 205:Libraries/ctrl_sdk/src/lib_stack.c **** 	}
 206:Libraries/ctrl_sdk/src/lib_stack.c **** 	if (lib_stack_empty(stack) == LIB_STACK_IS_EMPTY) {
 207:Libraries/ctrl_sdk/src/lib_stack.c **** 		return LIB_STACK_EMPTY;
 208:Libraries/ctrl_sdk/src/lib_stack.c **** 	}
 209:Libraries/ctrl_sdk/src/lib_stack.c **** 	if (val != NULL) {
 210:Libraries/ctrl_sdk/src/lib_stack.c **** 		memcpy(val,
 211:Libraries/ctrl_sdk/src/lib_stack.c **** 		       (char *)stack->mem_addr +
 212:Libraries/ctrl_sdk/src/lib_stack.c **** 			       (stack->mem_size * stack->top),
 213:Libraries/ctrl_sdk/src/lib_stack.c **** 		       stack->mem_size);
 214:Libraries/ctrl_sdk/src/lib_stack.c **** 	}
 215:Libraries/ctrl_sdk/src/lib_stack.c **** 	--stack->top;
 216:Libraries/ctrl_sdk/src/lib_stack.c **** 	return LIB_STACK_OK;
 217:Libraries/ctrl_sdk/src/lib_stack.c **** }
 218:Libraries/ctrl_sdk/src/lib_stack.c **** 
 219:Libraries/ctrl_sdk/src/lib_stack.c **** lib_stack_status lib_stack_top(lib_stack_t *stack, void *val)
 220:Libraries/ctrl_sdk/src/lib_stack.c **** {
 221:Libraries/ctrl_sdk/src/lib_stack.c **** 	if (stack == NULL || val == NULL) {
 222:Libraries/ctrl_sdk/src/lib_stack.c **** 		return LIB_STACK_ERROR;
ARM GAS  C:\Users\Mxuan\AppData\Local\Temp\ccCIb4EQ.s 			page 20


 223:Libraries/ctrl_sdk/src/lib_stack.c **** 	}
 224:Libraries/ctrl_sdk/src/lib_stack.c **** 	if (stack->mem_size == 0 || stack->mem_addr == NULL) {
 225:Libraries/ctrl_sdk/src/lib_stack.c **** 		return LIB_STACK_NOT_INIT;
 226:Libraries/ctrl_sdk/src/lib_stack.c **** 	}
 227:Libraries/ctrl_sdk/src/lib_stack.c **** 	if (lib_stack_empty(stack) == LIB_STACK_IS_EMPTY) {
 228:Libraries/ctrl_sdk/src/lib_stack.c **** 		return LIB_STACK_EMPTY;
 229:Libraries/ctrl_sdk/src/lib_stack.c **** 	}
 230:Libraries/ctrl_sdk/src/lib_stack.c **** 	memcpy(val,
 231:Libraries/ctrl_sdk/src/lib_stack.c **** 	       (char *)stack->mem_addr + (stack->mem_size * stack->top),
 232:Libraries/ctrl_sdk/src/lib_stack.c **** 	       stack->mem_size);
 233:Libraries/ctrl_sdk/src/lib_stack.c **** 	return LIB_STACK_OK;
 234:Libraries/ctrl_sdk/src/lib_stack.c **** }
 235:Libraries/ctrl_sdk/src/lib_stack.c **** 
 236:Libraries/ctrl_sdk/src/lib_stack.c **** inline int32_t lib_stack_size(lib_stack_t *stack)
 744              		.loc 1 236 16 view .LVU209
 745              	.LBB59:
 237:Libraries/ctrl_sdk/src/lib_stack.c **** {
 238:Libraries/ctrl_sdk/src/lib_stack.c **** 	if (stack == NULL) {
 746              		.loc 1 238 2 view .LVU210
 239:Libraries/ctrl_sdk/src/lib_stack.c **** 		return -1;
 240:Libraries/ctrl_sdk/src/lib_stack.c **** 	}
 241:Libraries/ctrl_sdk/src/lib_stack.c **** 	return stack->top + 1;
 747              		.loc 1 241 2 view .LVU211
 748              		.loc 1 241 14 is_stmt 0 view .LVU212
 749 0002 C068     		ldr	r0, [r0, #12]
 750              	.LVL73:
 751              		.loc 1 241 20 view .LVU213
 752 0004 0130     		adds	r0, r0, #1
 753              	.LVL74:
 754              		.loc 1 241 20 view .LVU214
 755              	.LBE59:
 756              	.LBE58:
 168:Libraries/ctrl_sdk/src/lib_stack.c **** 					    LIB_STACK_IS_NOT_EMPTY;
 757              		.loc 1 168 57 view .LVU215
 758 0006 0028     		cmp	r0, #0
 759 0008 CCBF     		ite	gt
 760 000a 0020     		movgt	r0, #0
 761 000c 0120     		movle	r0, #1
 762 000e 7047     		bx	lr
 763              	.LVL75:
 764              	.L64:
 166:Libraries/ctrl_sdk/src/lib_stack.c **** 	}
 765              		.loc 1 166 10 view .LVU216
 766 0010 0020     		movs	r0, #0
 767              	.LVL76:
 170:Libraries/ctrl_sdk/src/lib_stack.c **** 
 768              		.loc 1 170 1 view .LVU217
 769 0012 7047     		bx	lr
 770              		.cfi_endproc
 771              	.LFE9:
 773              		.section	.text.lib_stack_full,"ax",%progbits
 774              		.align	1
 775              		.global	lib_stack_full
 776              		.syntax unified
 777              		.thumb
 778              		.thumb_func
 780              	lib_stack_full:
ARM GAS  C:\Users\Mxuan\AppData\Local\Temp\ccCIb4EQ.s 			page 21


 781              	.LVL77:
 782              	.LFB10:
 173:Libraries/ctrl_sdk/src/lib_stack.c **** 	if (stack == NULL) {
 783              		.loc 1 173 1 is_stmt 1 view -0
 784              		.cfi_startproc
 785              		@ args = 0, pretend = 0, frame = 0
 786              		@ frame_needed = 0, uses_anonymous_args = 0
 787              		@ link register save eliminated.
 174:Libraries/ctrl_sdk/src/lib_stack.c **** 		return 0;
 788              		.loc 1 174 2 view .LVU219
 174:Libraries/ctrl_sdk/src/lib_stack.c **** 		return 0;
 789              		.loc 1 174 5 is_stmt 0 view .LVU220
 790 0000 38B1     		cbz	r0, .L67
 177:Libraries/ctrl_sdk/src/lib_stack.c **** 							  LIB_STACK_IS_NOT_FULL;
 791              		.loc 1 177 2 is_stmt 1 view .LVU221
 792              	.LVL78:
 793              	.LBB60:
 794              	.LBI60:
 236:Libraries/ctrl_sdk/src/lib_stack.c **** {
 795              		.loc 1 236 16 view .LVU222
 796              	.LBB61:
 238:Libraries/ctrl_sdk/src/lib_stack.c **** 		return -1;
 797              		.loc 1 238 2 view .LVU223
 798              		.loc 1 241 2 view .LVU224
 799              		.loc 1 241 14 is_stmt 0 view .LVU225
 800 0002 C368     		ldr	r3, [r0, #12]
 801              		.loc 1 241 20 view .LVU226
 802 0004 0133     		adds	r3, r3, #1
 803              	.LVL79:
 804              		.loc 1 241 20 view .LVU227
 805              	.LBE61:
 806              	.LBE60:
 177:Libraries/ctrl_sdk/src/lib_stack.c **** 							  LIB_STACK_IS_NOT_FULL;
 807              		.loc 1 177 39 view .LVU228
 808 0006 8068     		ldr	r0, [r0, #8]
 809              	.LVL80:
 177:Libraries/ctrl_sdk/src/lib_stack.c **** 							  LIB_STACK_IS_NOT_FULL;
 810              		.loc 1 177 70 view .LVU229
 811 0008 9842     		cmp	r0, r3
 812 000a CCBF     		ite	gt
 813 000c 0020     		movgt	r0, #0
 814 000e 0120     		movle	r0, #1
 815 0010 7047     		bx	lr
 816              	.LVL81:
 817              	.L67:
 175:Libraries/ctrl_sdk/src/lib_stack.c **** 	}
 818              		.loc 1 175 10 view .LVU230
 819 0012 0020     		movs	r0, #0
 820              	.LVL82:
 179:Libraries/ctrl_sdk/src/lib_stack.c **** 
 821              		.loc 1 179 1 view .LVU231
 822 0014 7047     		bx	lr
 823              		.cfi_endproc
 824              	.LFE10:
 826              		.section	.text.lib_stack_push,"ax",%progbits
 827              		.align	1
 828              		.global	lib_stack_push
ARM GAS  C:\Users\Mxuan\AppData\Local\Temp\ccCIb4EQ.s 			page 22


 829              		.syntax unified
 830              		.thumb
 831              		.thumb_func
 833              	lib_stack_push:
 834              	.LVL83:
 835              	.LFB11:
 182:Libraries/ctrl_sdk/src/lib_stack.c **** 	if (stack == NULL || val == NULL) {
 836              		.loc 1 182 1 is_stmt 1 view -0
 837              		.cfi_startproc
 838              		@ args = 0, pretend = 0, frame = 0
 839              		@ frame_needed = 0, uses_anonymous_args = 0
 183:Libraries/ctrl_sdk/src/lib_stack.c **** 		return LIB_STACK_ERROR;
 840              		.loc 1 183 2 view .LVU233
 183:Libraries/ctrl_sdk/src/lib_stack.c **** 		return LIB_STACK_ERROR;
 841              		.loc 1 183 5 is_stmt 0 view .LVU234
 842 0000 98B1     		cbz	r0, .L70
 843 0002 0346     		mov	r3, r0
 183:Libraries/ctrl_sdk/src/lib_stack.c **** 		return LIB_STACK_ERROR;
 844              		.loc 1 183 20 discriminator 1 view .LVU235
 845 0004 99B1     		cbz	r1, .L71
 186:Libraries/ctrl_sdk/src/lib_stack.c **** 		return LIB_STACK_NOT_INIT;
 846              		.loc 1 186 2 is_stmt 1 view .LVU236
 186:Libraries/ctrl_sdk/src/lib_stack.c **** 		return LIB_STACK_NOT_INIT;
 847              		.loc 1 186 11 is_stmt 0 view .LVU237
 848 0006 4268     		ldr	r2, [r0, #4]
 186:Libraries/ctrl_sdk/src/lib_stack.c **** 		return LIB_STACK_NOT_INIT;
 849              		.loc 1 186 5 view .LVU238
 850 0008 9AB1     		cbz	r2, .L72
 186:Libraries/ctrl_sdk/src/lib_stack.c **** 		return LIB_STACK_NOT_INIT;
 851              		.loc 1 186 35 discriminator 1 view .LVU239
 852 000a 0068     		ldr	r0, [r0]
 853              	.LVL84:
 186:Libraries/ctrl_sdk/src/lib_stack.c **** 		return LIB_STACK_NOT_INIT;
 854              		.loc 1 186 27 discriminator 1 view .LVU240
 855 000c 98B1     		cbz	r0, .L73
 182:Libraries/ctrl_sdk/src/lib_stack.c **** 	if (stack == NULL || val == NULL) {
 856              		.loc 1 182 1 view .LVU241
 857 000e 10B5     		push	{r4, lr}
 858              	.LCFI12:
 859              		.cfi_def_cfa_offset 8
 860              		.cfi_offset 4, -8
 861              		.cfi_offset 14, -4
 189:Libraries/ctrl_sdk/src/lib_stack.c **** 		return LIB_STACK_FULL;
 862              		.loc 1 189 2 is_stmt 1 view .LVU242
 863              	.LVL85:
 864              	.LBB62:
 865              	.LBI62:
 172:Libraries/ctrl_sdk/src/lib_stack.c **** {
 866              		.loc 1 172 14 view .LVU243
 867              	.LBB63:
 174:Libraries/ctrl_sdk/src/lib_stack.c **** 		return 0;
 868              		.loc 1 174 2 view .LVU244
 177:Libraries/ctrl_sdk/src/lib_stack.c **** 							  LIB_STACK_IS_NOT_FULL;
 869              		.loc 1 177 2 view .LVU245
 870              	.LBB64:
 871              	.LBI64:
 236:Libraries/ctrl_sdk/src/lib_stack.c **** {
ARM GAS  C:\Users\Mxuan\AppData\Local\Temp\ccCIb4EQ.s 			page 23


 872              		.loc 1 236 16 view .LVU246
 873              	.LBB65:
 238:Libraries/ctrl_sdk/src/lib_stack.c **** 		return -1;
 874              		.loc 1 238 2 view .LVU247
 875              		.loc 1 241 2 view .LVU248
 876              		.loc 1 241 14 is_stmt 0 view .LVU249
 877 0010 DC68     		ldr	r4, [r3, #12]
 878              		.loc 1 241 20 view .LVU250
 879 0012 0134     		adds	r4, r4, #1
 880              	.LVL86:
 881              		.loc 1 241 20 view .LVU251
 882              	.LBE65:
 883              	.LBE64:
 884              	.LBE63:
 885              	.LBE62:
 189:Libraries/ctrl_sdk/src/lib_stack.c **** 		return LIB_STACK_FULL;
 886              		.loc 1 189 5 view .LVU252
 887 0014 D3F808C0 		ldr	ip, [r3, #8]
 888 0018 6445     		cmp	r4, ip
 889 001a 0EDA     		bge	.L74
 192:Libraries/ctrl_sdk/src/lib_stack.c **** 	memcpy((char *)stack->mem_addr + (stack->mem_size * stack->top),
 890              		.loc 1 192 2 is_stmt 1 view .LVU253
 891 001c DC60     		str	r4, [r3, #12]
 193:Libraries/ctrl_sdk/src/lib_stack.c **** 	       val, stack->mem_size);
 892              		.loc 1 193 2 view .LVU254
 893 001e 04FB0200 		mla	r0, r4, r2, r0
 894 0022 FFF7FEFF 		bl	memcpy
 895              	.LVL87:
 195:Libraries/ctrl_sdk/src/lib_stack.c **** }
 896              		.loc 1 195 2 view .LVU255
 195:Libraries/ctrl_sdk/src/lib_stack.c **** }
 897              		.loc 1 195 9 is_stmt 0 view .LVU256
 898 0026 0020     		movs	r0, #0
 899              	.L69:
 196:Libraries/ctrl_sdk/src/lib_stack.c **** 
 900              		.loc 1 196 1 view .LVU257
 901 0028 10BD     		pop	{r4, pc}
 902              	.LVL88:
 903              	.L70:
 904              	.LCFI13:
 905              		.cfi_def_cfa_offset 0
 906              		.cfi_restore 4
 907              		.cfi_restore 14
 184:Libraries/ctrl_sdk/src/lib_stack.c **** 	}
 908              		.loc 1 184 10 view .LVU258
 909 002a 0120     		movs	r0, #1
 910              	.LVL89:
 184:Libraries/ctrl_sdk/src/lib_stack.c **** 	}
 911              		.loc 1 184 10 view .LVU259
 912 002c 7047     		bx	lr
 913              	.LVL90:
 914              	.L71:
 184:Libraries/ctrl_sdk/src/lib_stack.c **** 	}
 915              		.loc 1 184 10 view .LVU260
 916 002e 0120     		movs	r0, #1
 917              	.LVL91:
 184:Libraries/ctrl_sdk/src/lib_stack.c **** 	}
ARM GAS  C:\Users\Mxuan\AppData\Local\Temp\ccCIb4EQ.s 			page 24


 918              		.loc 1 184 10 view .LVU261
 919 0030 7047     		bx	lr
 920              	.LVL92:
 921              	.L72:
 187:Libraries/ctrl_sdk/src/lib_stack.c **** 	}
 922              		.loc 1 187 10 view .LVU262
 923 0032 0220     		movs	r0, #2
 924              	.LVL93:
 187:Libraries/ctrl_sdk/src/lib_stack.c **** 	}
 925              		.loc 1 187 10 view .LVU263
 926 0034 7047     		bx	lr
 927              	.L73:
 928 0036 0220     		movs	r0, #2
 196:Libraries/ctrl_sdk/src/lib_stack.c **** 
 929              		.loc 1 196 1 view .LVU264
 930 0038 7047     		bx	lr
 931              	.L74:
 932              	.LCFI14:
 933              		.cfi_def_cfa_offset 8
 934              		.cfi_offset 4, -8
 935              		.cfi_offset 14, -4
 190:Libraries/ctrl_sdk/src/lib_stack.c **** 	}
 936              		.loc 1 190 10 view .LVU265
 937 003a 0420     		movs	r0, #4
 938 003c F4E7     		b	.L69
 939              		.cfi_endproc
 940              	.LFE11:
 942              		.section	.text.lib_stack_pop,"ax",%progbits
 943              		.align	1
 944              		.global	lib_stack_pop
 945              		.syntax unified
 946              		.thumb
 947              		.thumb_func
 949              	lib_stack_pop:
 950              	.LVL94:
 951              	.LFB12:
 199:Libraries/ctrl_sdk/src/lib_stack.c **** 	if (stack == NULL) {
 952              		.loc 1 199 1 is_stmt 1 view -0
 953              		.cfi_startproc
 954              		@ args = 0, pretend = 0, frame = 0
 955              		@ frame_needed = 0, uses_anonymous_args = 0
 200:Libraries/ctrl_sdk/src/lib_stack.c **** 		return LIB_STACK_ERROR;
 956              		.loc 1 200 2 view .LVU267
 200:Libraries/ctrl_sdk/src/lib_stack.c **** 		return LIB_STACK_ERROR;
 957              		.loc 1 200 5 is_stmt 0 view .LVU268
 958 0000 A0B1     		cbz	r0, .L82
 199:Libraries/ctrl_sdk/src/lib_stack.c **** 	if (stack == NULL) {
 959              		.loc 1 199 1 view .LVU269
 960 0002 10B5     		push	{r4, lr}
 961              	.LCFI15:
 962              		.cfi_def_cfa_offset 8
 963              		.cfi_offset 4, -8
 964              		.cfi_offset 14, -4
 965 0004 0B46     		mov	r3, r1
 966 0006 0446     		mov	r4, r0
 203:Libraries/ctrl_sdk/src/lib_stack.c **** 		return LIB_STACK_NOT_INIT;
 967              		.loc 1 203 2 is_stmt 1 view .LVU270
ARM GAS  C:\Users\Mxuan\AppData\Local\Temp\ccCIb4EQ.s 			page 25


 203:Libraries/ctrl_sdk/src/lib_stack.c **** 		return LIB_STACK_NOT_INIT;
 968              		.loc 1 203 11 is_stmt 0 view .LVU271
 969 0008 4268     		ldr	r2, [r0, #4]
 203:Libraries/ctrl_sdk/src/lib_stack.c **** 		return LIB_STACK_NOT_INIT;
 970              		.loc 1 203 5 view .LVU272
 971 000a 8AB1     		cbz	r2, .L83
 203:Libraries/ctrl_sdk/src/lib_stack.c **** 		return LIB_STACK_NOT_INIT;
 972              		.loc 1 203 35 discriminator 1 view .LVU273
 973 000c 0168     		ldr	r1, [r0]
 974              	.LVL95:
 203:Libraries/ctrl_sdk/src/lib_stack.c **** 		return LIB_STACK_NOT_INIT;
 975              		.loc 1 203 27 discriminator 1 view .LVU274
 976 000e 89B1     		cbz	r1, .L84
 206:Libraries/ctrl_sdk/src/lib_stack.c **** 		return LIB_STACK_EMPTY;
 977              		.loc 1 206 2 is_stmt 1 view .LVU275
 978              	.LVL96:
 979              	.LBB66:
 980              	.LBI66:
 163:Libraries/ctrl_sdk/src/lib_stack.c **** {
 981              		.loc 1 163 14 view .LVU276
 982              	.LBB67:
 165:Libraries/ctrl_sdk/src/lib_stack.c **** 		return 0;
 983              		.loc 1 165 2 view .LVU277
 168:Libraries/ctrl_sdk/src/lib_stack.c **** 					    LIB_STACK_IS_NOT_EMPTY;
 984              		.loc 1 168 2 view .LVU278
 985              	.LBB68:
 986              	.LBI68:
 236:Libraries/ctrl_sdk/src/lib_stack.c **** {
 987              		.loc 1 236 16 view .LVU279
 988              	.LBB69:
 238:Libraries/ctrl_sdk/src/lib_stack.c **** 		return -1;
 989              		.loc 1 238 2 view .LVU280
 990              		.loc 1 241 2 view .LVU281
 991              		.loc 1 241 14 is_stmt 0 view .LVU282
 992 0010 C068     		ldr	r0, [r0, #12]
 993              	.LVL97:
 994              		.loc 1 241 14 view .LVU283
 995              	.LBE69:
 996              	.LBE68:
 997              	.LBE67:
 998              	.LBE66:
 206:Libraries/ctrl_sdk/src/lib_stack.c **** 		return LIB_STACK_EMPTY;
 999              		.loc 1 206 5 view .LVU284
 1000 0012 0028     		cmp	r0, #0
 1001 0014 10DB     		blt	.L85
 209:Libraries/ctrl_sdk/src/lib_stack.c **** 		memcpy(val,
 1002              		.loc 1 209 2 is_stmt 1 view .LVU285
 209:Libraries/ctrl_sdk/src/lib_stack.c **** 		memcpy(val,
 1003              		.loc 1 209 5 is_stmt 0 view .LVU286
 1004 0016 23B1     		cbz	r3, .L81
 210:Libraries/ctrl_sdk/src/lib_stack.c **** 		       (char *)stack->mem_addr +
 1005              		.loc 1 210 3 is_stmt 1 view .LVU287
 1006 0018 00FB0211 		mla	r1, r0, r2, r1
 1007 001c 1846     		mov	r0, r3
 1008 001e FFF7FEFF 		bl	memcpy
 1009              	.LVL98:
 1010              	.L81:
ARM GAS  C:\Users\Mxuan\AppData\Local\Temp\ccCIb4EQ.s 			page 26


 215:Libraries/ctrl_sdk/src/lib_stack.c **** 	return LIB_STACK_OK;
 1011              		.loc 1 215 2 view .LVU288
 215:Libraries/ctrl_sdk/src/lib_stack.c **** 	return LIB_STACK_OK;
 1012              		.loc 1 215 9 is_stmt 0 view .LVU289
 1013 0022 E368     		ldr	r3, [r4, #12]
 215:Libraries/ctrl_sdk/src/lib_stack.c **** 	return LIB_STACK_OK;
 1014              		.loc 1 215 2 view .LVU290
 1015 0024 013B     		subs	r3, r3, #1
 1016 0026 E360     		str	r3, [r4, #12]
 216:Libraries/ctrl_sdk/src/lib_stack.c **** }
 1017              		.loc 1 216 2 is_stmt 1 view .LVU291
 216:Libraries/ctrl_sdk/src/lib_stack.c **** }
 1018              		.loc 1 216 9 is_stmt 0 view .LVU292
 1019 0028 0020     		movs	r0, #0
 1020              	.L80:
 217:Libraries/ctrl_sdk/src/lib_stack.c **** 
 1021              		.loc 1 217 1 view .LVU293
 1022 002a 10BD     		pop	{r4, pc}
 1023              	.LVL99:
 1024              	.L82:
 1025              	.LCFI16:
 1026              		.cfi_def_cfa_offset 0
 1027              		.cfi_restore 4
 1028              		.cfi_restore 14
 201:Libraries/ctrl_sdk/src/lib_stack.c **** 	}
 1029              		.loc 1 201 10 view .LVU294
 1030 002c 0120     		movs	r0, #1
 1031              	.LVL100:
 217:Libraries/ctrl_sdk/src/lib_stack.c **** 
 1032              		.loc 1 217 1 view .LVU295
 1033 002e 7047     		bx	lr
 1034              	.LVL101:
 1035              	.L83:
 1036              	.LCFI17:
 1037              		.cfi_def_cfa_offset 8
 1038              		.cfi_offset 4, -8
 1039              		.cfi_offset 14, -4
 204:Libraries/ctrl_sdk/src/lib_stack.c **** 	}
 1040              		.loc 1 204 10 view .LVU296
 1041 0030 0220     		movs	r0, #2
 1042              	.LVL102:
 204:Libraries/ctrl_sdk/src/lib_stack.c **** 	}
 1043              		.loc 1 204 10 view .LVU297
 1044 0032 FAE7     		b	.L80
 1045              	.LVL103:
 1046              	.L84:
 204:Libraries/ctrl_sdk/src/lib_stack.c **** 	}
 1047              		.loc 1 204 10 view .LVU298
 1048 0034 0220     		movs	r0, #2
 1049              	.LVL104:
 204:Libraries/ctrl_sdk/src/lib_stack.c **** 	}
 1050              		.loc 1 204 10 view .LVU299
 1051 0036 F8E7     		b	.L80
 1052              	.L85:
 207:Libraries/ctrl_sdk/src/lib_stack.c **** 	}
 1053              		.loc 1 207 10 view .LVU300
 1054 0038 0520     		movs	r0, #5
ARM GAS  C:\Users\Mxuan\AppData\Local\Temp\ccCIb4EQ.s 			page 27


 1055 003a F6E7     		b	.L80
 1056              		.cfi_endproc
 1057              	.LFE12:
 1059              		.section	.text.lib_stack_top,"ax",%progbits
 1060              		.align	1
 1061              		.global	lib_stack_top
 1062              		.syntax unified
 1063              		.thumb
 1064              		.thumb_func
 1066              	lib_stack_top:
 1067              	.LVL105:
 1068              	.LFB13:
 220:Libraries/ctrl_sdk/src/lib_stack.c **** 	if (stack == NULL || val == NULL) {
 1069              		.loc 1 220 1 is_stmt 1 view -0
 1070              		.cfi_startproc
 1071              		@ args = 0, pretend = 0, frame = 0
 1072              		@ frame_needed = 0, uses_anonymous_args = 0
 221:Libraries/ctrl_sdk/src/lib_stack.c **** 		return LIB_STACK_ERROR;
 1073              		.loc 1 221 2 view .LVU302
 221:Libraries/ctrl_sdk/src/lib_stack.c **** 		return LIB_STACK_ERROR;
 1074              		.loc 1 221 5 is_stmt 0 view .LVU303
 1075 0000 80B1     		cbz	r0, .L92
 220:Libraries/ctrl_sdk/src/lib_stack.c **** 	if (stack == NULL || val == NULL) {
 1076              		.loc 1 220 1 discriminator 1 view .LVU304
 1077 0002 08B5     		push	{r3, lr}
 1078              	.LCFI18:
 1079              		.cfi_def_cfa_offset 8
 1080              		.cfi_offset 3, -8
 1081              		.cfi_offset 14, -4
 1082 0004 0B46     		mov	r3, r1
 221:Libraries/ctrl_sdk/src/lib_stack.c **** 		return LIB_STACK_ERROR;
 1083              		.loc 1 221 20 discriminator 1 view .LVU305
 1084 0006 79B1     		cbz	r1, .L93
 224:Libraries/ctrl_sdk/src/lib_stack.c **** 		return LIB_STACK_NOT_INIT;
 1085              		.loc 1 224 2 is_stmt 1 view .LVU306
 224:Libraries/ctrl_sdk/src/lib_stack.c **** 		return LIB_STACK_NOT_INIT;
 1086              		.loc 1 224 11 is_stmt 0 view .LVU307
 1087 0008 4268     		ldr	r2, [r0, #4]
 224:Libraries/ctrl_sdk/src/lib_stack.c **** 		return LIB_STACK_NOT_INIT;
 1088              		.loc 1 224 5 view .LVU308
 1089 000a 7AB1     		cbz	r2, .L94
 224:Libraries/ctrl_sdk/src/lib_stack.c **** 		return LIB_STACK_NOT_INIT;
 1090              		.loc 1 224 35 discriminator 1 view .LVU309
 1091 000c 0168     		ldr	r1, [r0]
 1092              	.LVL106:
 224:Libraries/ctrl_sdk/src/lib_stack.c **** 		return LIB_STACK_NOT_INIT;
 1093              		.loc 1 224 27 discriminator 1 view .LVU310
 1094 000e 79B1     		cbz	r1, .L95
 227:Libraries/ctrl_sdk/src/lib_stack.c **** 		return LIB_STACK_EMPTY;
 1095              		.loc 1 227 2 is_stmt 1 view .LVU311
 1096              	.LVL107:
 1097              	.LBB70:
 1098              	.LBI70:
 163:Libraries/ctrl_sdk/src/lib_stack.c **** {
 1099              		.loc 1 163 14 view .LVU312
 1100              	.LBB71:
 165:Libraries/ctrl_sdk/src/lib_stack.c **** 		return 0;
ARM GAS  C:\Users\Mxuan\AppData\Local\Temp\ccCIb4EQ.s 			page 28


 1101              		.loc 1 165 2 view .LVU313
 168:Libraries/ctrl_sdk/src/lib_stack.c **** 					    LIB_STACK_IS_NOT_EMPTY;
 1102              		.loc 1 168 2 view .LVU314
 1103              	.LBB72:
 1104              	.LBI72:
 236:Libraries/ctrl_sdk/src/lib_stack.c **** {
 1105              		.loc 1 236 16 view .LVU315
 1106              	.LBB73:
 238:Libraries/ctrl_sdk/src/lib_stack.c **** 		return -1;
 1107              		.loc 1 238 2 view .LVU316
 1108              		.loc 1 241 2 view .LVU317
 1109              		.loc 1 241 14 is_stmt 0 view .LVU318
 1110 0010 C068     		ldr	r0, [r0, #12]
 1111              	.LVL108:
 1112              		.loc 1 241 14 view .LVU319
 1113              	.LBE73:
 1114              	.LBE72:
 1115              	.LBE71:
 1116              	.LBE70:
 227:Libraries/ctrl_sdk/src/lib_stack.c **** 		return LIB_STACK_EMPTY;
 1117              		.loc 1 227 5 view .LVU320
 1118 0012 0028     		cmp	r0, #0
 1119 0014 0EDB     		blt	.L96
 230:Libraries/ctrl_sdk/src/lib_stack.c **** 	       (char *)stack->mem_addr + (stack->mem_size * stack->top),
 1120              		.loc 1 230 2 is_stmt 1 view .LVU321
 1121 0016 00FB0211 		mla	r1, r0, r2, r1
 1122 001a 1846     		mov	r0, r3
 1123 001c FFF7FEFF 		bl	memcpy
 1124              	.LVL109:
 233:Libraries/ctrl_sdk/src/lib_stack.c **** }
 1125              		.loc 1 233 2 view .LVU322
 233:Libraries/ctrl_sdk/src/lib_stack.c **** }
 1126              		.loc 1 233 9 is_stmt 0 view .LVU323
 1127 0020 0020     		movs	r0, #0
 1128              	.L91:
 234:Libraries/ctrl_sdk/src/lib_stack.c **** 
 1129              		.loc 1 234 1 view .LVU324
 1130 0022 08BD     		pop	{r3, pc}
 1131              	.LVL110:
 1132              	.L92:
 1133              	.LCFI19:
 1134              		.cfi_def_cfa_offset 0
 1135              		.cfi_restore 3
 1136              		.cfi_restore 14
 222:Libraries/ctrl_sdk/src/lib_stack.c **** 	}
 1137              		.loc 1 222 10 view .LVU325
 1138 0024 0120     		movs	r0, #1
 1139              	.LVL111:
 234:Libraries/ctrl_sdk/src/lib_stack.c **** 
 1140              		.loc 1 234 1 view .LVU326
 1141 0026 7047     		bx	lr
 1142              	.LVL112:
 1143              	.L93:
 1144              	.LCFI20:
 1145              		.cfi_def_cfa_offset 8
 1146              		.cfi_offset 3, -8
 1147              		.cfi_offset 14, -4
ARM GAS  C:\Users\Mxuan\AppData\Local\Temp\ccCIb4EQ.s 			page 29


 222:Libraries/ctrl_sdk/src/lib_stack.c **** 	}
 1148              		.loc 1 222 10 view .LVU327
 1149 0028 0120     		movs	r0, #1
 1150              	.LVL113:
 222:Libraries/ctrl_sdk/src/lib_stack.c **** 	}
 1151              		.loc 1 222 10 view .LVU328
 1152 002a FAE7     		b	.L91
 1153              	.LVL114:
 1154              	.L94:
 225:Libraries/ctrl_sdk/src/lib_stack.c **** 	}
 1155              		.loc 1 225 10 view .LVU329
 1156 002c 0220     		movs	r0, #2
 1157              	.LVL115:
 225:Libraries/ctrl_sdk/src/lib_stack.c **** 	}
 1158              		.loc 1 225 10 view .LVU330
 1159 002e F8E7     		b	.L91
 1160              	.LVL116:
 1161              	.L95:
 225:Libraries/ctrl_sdk/src/lib_stack.c **** 	}
 1162              		.loc 1 225 10 view .LVU331
 1163 0030 0220     		movs	r0, #2
 1164              	.LVL117:
 225:Libraries/ctrl_sdk/src/lib_stack.c **** 	}
 1165              		.loc 1 225 10 view .LVU332
 1166 0032 F6E7     		b	.L91
 1167              	.L96:
 228:Libraries/ctrl_sdk/src/lib_stack.c **** 	}
 1168              		.loc 1 228 10 view .LVU333
 1169 0034 0520     		movs	r0, #5
 1170 0036 F4E7     		b	.L91
 1171              		.cfi_endproc
 1172              	.LFE13:
 1174              		.section	.text.lib_stack_size,"ax",%progbits
 1175              		.align	1
 1176              		.global	lib_stack_size
 1177              		.syntax unified
 1178              		.thumb
 1179              		.thumb_func
 1181              	lib_stack_size:
 1182              	.LVL118:
 1183              	.LFB14:
 237:Libraries/ctrl_sdk/src/lib_stack.c **** 	if (stack == NULL) {
 1184              		.loc 1 237 1 is_stmt 1 view -0
 1185              		.cfi_startproc
 1186              		@ args = 0, pretend = 0, frame = 0
 1187              		@ frame_needed = 0, uses_anonymous_args = 0
 1188              		@ link register save eliminated.
 238:Libraries/ctrl_sdk/src/lib_stack.c **** 		return -1;
 1189              		.loc 1 238 2 view .LVU335
 238:Libraries/ctrl_sdk/src/lib_stack.c **** 		return -1;
 1190              		.loc 1 238 5 is_stmt 0 view .LVU336
 1191 0000 10B1     		cbz	r0, .L103
 1192              		.loc 1 241 2 is_stmt 1 view .LVU337
 1193              		.loc 1 241 14 is_stmt 0 view .LVU338
 1194 0002 C068     		ldr	r0, [r0, #12]
 1195              	.LVL119:
 1196              		.loc 1 241 20 view .LVU339
ARM GAS  C:\Users\Mxuan\AppData\Local\Temp\ccCIb4EQ.s 			page 30


 1197 0004 0130     		adds	r0, r0, #1
 1198 0006 7047     		bx	lr
 1199              	.LVL120:
 1200              	.L103:
 239:Libraries/ctrl_sdk/src/lib_stack.c **** 	}
 1201              		.loc 1 239 10 view .LVU340
 1202 0008 4FF0FF30 		mov	r0, #-1
 1203              	.LVL121:
 242:Libraries/ctrl_sdk/src/lib_stack.c **** }
 1204              		.loc 1 242 1 view .LVU341
 1205 000c 7047     		bx	lr
 1206              		.cfi_endproc
 1207              	.LFE14:
 1209              		.section	.text.lib_stack_clear,"ax",%progbits
 1210              		.align	1
 1211              		.global	lib_stack_clear
 1212              		.syntax unified
 1213              		.thumb
 1214              		.thumb_func
 1216              	lib_stack_clear:
 1217              	.LVL122:
 1218              	.LFB15:
 243:Libraries/ctrl_sdk/src/lib_stack.c **** 
 244:Libraries/ctrl_sdk/src/lib_stack.c **** void lib_stack_clear(lib_stack_t *stack)
 245:Libraries/ctrl_sdk/src/lib_stack.c **** {
 1219              		.loc 1 245 1 is_stmt 1 view -0
 1220              		.cfi_startproc
 1221              		@ args = 0, pretend = 0, frame = 0
 1222              		@ frame_needed = 0, uses_anonymous_args = 0
 1223              		@ link register save eliminated.
 246:Libraries/ctrl_sdk/src/lib_stack.c **** 	if (stack == NULL) {
 1224              		.loc 1 246 2 view .LVU343
 1225              		.loc 1 246 5 is_stmt 0 view .LVU344
 1226 0000 10B1     		cbz	r0, .L104
 247:Libraries/ctrl_sdk/src/lib_stack.c **** 		return;
 248:Libraries/ctrl_sdk/src/lib_stack.c **** 	}
 249:Libraries/ctrl_sdk/src/lib_stack.c **** 	stack->top = -1;
 1227              		.loc 1 249 2 is_stmt 1 view .LVU345
 1228              		.loc 1 249 13 is_stmt 0 view .LVU346
 1229 0002 4FF0FF32 		mov	r2, #-1
 1230 0006 C260     		str	r2, [r0, #12]
 1231              	.L104:
 250:Libraries/ctrl_sdk/src/lib_stack.c **** }
 1232              		.loc 1 250 1 view .LVU347
 1233 0008 7047     		bx	lr
 1234              		.cfi_endproc
 1235              	.LFE15:
 1237              		.section	.text.lib_stack_delete,"ax",%progbits
 1238              		.align	1
 1239              		.global	lib_stack_delete
 1240              		.syntax unified
 1241              		.thumb
 1242              		.thumb_func
 1244              	lib_stack_delete:
 1245              	.LVL123:
 1246              	.LFB16:
 251:Libraries/ctrl_sdk/src/lib_stack.c **** 
ARM GAS  C:\Users\Mxuan\AppData\Local\Temp\ccCIb4EQ.s 			page 31


 252:Libraries/ctrl_sdk/src/lib_stack.c **** void lib_stack_delete(lib_stack_t *stack)
 253:Libraries/ctrl_sdk/src/lib_stack.c **** {
 1247              		.loc 1 253 1 is_stmt 1 view -0
 1248              		.cfi_startproc
 1249              		@ args = 0, pretend = 0, frame = 0
 1250              		@ frame_needed = 0, uses_anonymous_args = 0
 254:Libraries/ctrl_sdk/src/lib_stack.c **** 	if (stack == NULL) {
 1251              		.loc 1 254 2 view .LVU349
 1252              		.loc 1 254 5 is_stmt 0 view .LVU350
 1253 0000 38B1     		cbz	r0, .L109
 253:Libraries/ctrl_sdk/src/lib_stack.c **** 	if (stack == NULL) {
 1254              		.loc 1 253 1 view .LVU351
 1255 0002 10B5     		push	{r4, lr}
 1256              	.LCFI21:
 1257              		.cfi_def_cfa_offset 8
 1258              		.cfi_offset 4, -8
 1259              		.cfi_offset 14, -4
 1260 0004 0446     		mov	r4, r0
 255:Libraries/ctrl_sdk/src/lib_stack.c **** 		return;
 256:Libraries/ctrl_sdk/src/lib_stack.c **** 	}
 257:Libraries/ctrl_sdk/src/lib_stack.c **** 	STACK_FREE(stack->mem_addr);
 1261              		.loc 1 257 2 is_stmt 1 view .LVU352
 1262 0006 0068     		ldr	r0, [r0]
 1263              	.LVL124:
 1264              		.loc 1 257 2 is_stmt 0 view .LVU353
 1265 0008 FFF7FEFF 		bl	free
 1266              	.LVL125:
 258:Libraries/ctrl_sdk/src/lib_stack.c **** 	stack->mem_addr = NULL;
 1267              		.loc 1 258 2 is_stmt 1 view .LVU354
 1268              		.loc 1 258 18 is_stmt 0 view .LVU355
 1269 000c 0023     		movs	r3, #0
 1270 000e 2360     		str	r3, [r4]
 259:Libraries/ctrl_sdk/src/lib_stack.c **** }
 1271              		.loc 1 259 1 view .LVU356
 1272 0010 10BD     		pop	{r4, pc}
 1273              	.LVL126:
 1274              	.L109:
 1275              	.LCFI22:
 1276              		.cfi_def_cfa_offset 0
 1277              		.cfi_restore 4
 1278              		.cfi_restore 14
 1279              		.loc 1 259 1 view .LVU357
 1280 0012 7047     		bx	lr
 1281              		.cfi_endproc
 1282              	.LFE16:
 1284              		.section	.text.Lib_StackList_Init,"ax",%progbits
 1285              		.align	1
 1286              		.global	Lib_StackList_Init
 1287              		.syntax unified
 1288              		.thumb
 1289              		.thumb_func
 1291              	Lib_StackList_Init:
 1292              	.LVL127:
 1293              	.LFB17:
 260:Libraries/ctrl_sdk/src/lib_stack.c **** 
 261:Libraries/ctrl_sdk/src/lib_stack.c **** lib_stack_status Lib_StackList_Init(Lib_StackList_t *stack, size_t mem_size)
 262:Libraries/ctrl_sdk/src/lib_stack.c **** {
ARM GAS  C:\Users\Mxuan\AppData\Local\Temp\ccCIb4EQ.s 			page 32


 1294              		.loc 1 262 1 is_stmt 1 view -0
 1295              		.cfi_startproc
 1296              		@ args = 0, pretend = 0, frame = 0
 1297              		@ frame_needed = 0, uses_anonymous_args = 0
 1298              		@ link register save eliminated.
 263:Libraries/ctrl_sdk/src/lib_stack.c **** 	if (stack == NULL) {
 1299              		.loc 1 263 2 view .LVU359
 1300              		.loc 1 263 5 is_stmt 0 view .LVU360
 1301 0000 38B1     		cbz	r0, .L114
 264:Libraries/ctrl_sdk/src/lib_stack.c **** 		return LIB_STACK_ERROR;
 265:Libraries/ctrl_sdk/src/lib_stack.c **** 	}
 266:Libraries/ctrl_sdk/src/lib_stack.c **** 	if (stack->top_member != NULL) {
 1302              		.loc 1 266 2 is_stmt 1 view .LVU361
 1303              		.loc 1 266 11 is_stmt 0 view .LVU362
 1304 0002 0268     		ldr	r2, [r0]
 1305              		.loc 1 266 5 view .LVU363
 1306 0004 3AB9     		cbnz	r2, .L115
 267:Libraries/ctrl_sdk/src/lib_stack.c **** 		return LIB_STACK_ALREADY_INIT;
 268:Libraries/ctrl_sdk/src/lib_stack.c **** 	}
 269:Libraries/ctrl_sdk/src/lib_stack.c **** 	stack->mem_size = mem_size;
 1307              		.loc 1 269 2 is_stmt 1 view .LVU364
 1308              		.loc 1 269 18 is_stmt 0 view .LVU365
 1309 0006 4160     		str	r1, [r0, #4]
 270:Libraries/ctrl_sdk/src/lib_stack.c **** 	stack->top = -1;
 1310              		.loc 1 270 2 is_stmt 1 view .LVU366
 1311              		.loc 1 270 13 is_stmt 0 view .LVU367
 1312 0008 4FF0FF32 		mov	r2, #-1
 1313 000c 8260     		str	r2, [r0, #8]
 271:Libraries/ctrl_sdk/src/lib_stack.c **** 	return LIB_STACK_OK;
 1314              		.loc 1 271 2 is_stmt 1 view .LVU368
 1315              		.loc 1 271 9 is_stmt 0 view .LVU369
 1316 000e 0020     		movs	r0, #0
 1317              	.LVL128:
 1318              		.loc 1 271 9 view .LVU370
 1319 0010 7047     		bx	lr
 1320              	.LVL129:
 1321              	.L114:
 264:Libraries/ctrl_sdk/src/lib_stack.c **** 	}
 1322              		.loc 1 264 10 view .LVU371
 1323 0012 0120     		movs	r0, #1
 1324              	.LVL130:
 264:Libraries/ctrl_sdk/src/lib_stack.c **** 	}
 1325              		.loc 1 264 10 view .LVU372
 1326 0014 7047     		bx	lr
 1327              	.LVL131:
 1328              	.L115:
 267:Libraries/ctrl_sdk/src/lib_stack.c **** 	}
 1329              		.loc 1 267 10 view .LVU373
 1330 0016 0320     		movs	r0, #3
 1331              	.LVL132:
 272:Libraries/ctrl_sdk/src/lib_stack.c **** }
 1332              		.loc 1 272 1 view .LVU374
 1333 0018 7047     		bx	lr
 1334              		.cfi_endproc
 1335              	.LFE17:
 1337              		.section	.text.Lib_StackList_Size,"ax",%progbits
 1338              		.align	1
ARM GAS  C:\Users\Mxuan\AppData\Local\Temp\ccCIb4EQ.s 			page 33


 1339              		.global	Lib_StackList_Size
 1340              		.syntax unified
 1341              		.thumb
 1342              		.thumb_func
 1344              	Lib_StackList_Size:
 1345              	.LVL133:
 1346              	.LFB23:
 273:Libraries/ctrl_sdk/src/lib_stack.c **** 
 274:Libraries/ctrl_sdk/src/lib_stack.c **** _Bool Lib_StackList_Empty(Lib_StackList_t *stack, _Bool i)
 275:Libraries/ctrl_sdk/src/lib_stack.c **** {
 276:Libraries/ctrl_sdk/src/lib_stack.c **** 	if (stack == NULL) {
 277:Libraries/ctrl_sdk/src/lib_stack.c **** 		return 0;
 278:Libraries/ctrl_sdk/src/lib_stack.c **** 	}
 279:Libraries/ctrl_sdk/src/lib_stack.c **** 	return Lib_StackList_Size(stack, i) - 1 >= 0 ? LIB_STACK_IS_NOT_EMPTY :
 280:Libraries/ctrl_sdk/src/lib_stack.c **** 						       LIB_STACK_IS_EMPTY;
 281:Libraries/ctrl_sdk/src/lib_stack.c **** }
 282:Libraries/ctrl_sdk/src/lib_stack.c **** 
 283:Libraries/ctrl_sdk/src/lib_stack.c **** _Bool Lib_StackList_Full(Lib_StackList_t *stack, _Bool i)
 284:Libraries/ctrl_sdk/src/lib_stack.c **** {
 285:Libraries/ctrl_sdk/src/lib_stack.c **** 	if (stack == NULL) {
 286:Libraries/ctrl_sdk/src/lib_stack.c **** 		return 0;
 287:Libraries/ctrl_sdk/src/lib_stack.c **** 	}
 288:Libraries/ctrl_sdk/src/lib_stack.c **** 	return Lib_StackList_Size(stack, i) >= INT32_MAX ?
 289:Libraries/ctrl_sdk/src/lib_stack.c **** 		       LIB_STACK_IS_FULL :
 290:Libraries/ctrl_sdk/src/lib_stack.c **** 		       LIB_STACK_IS_NOT_FULL;
 291:Libraries/ctrl_sdk/src/lib_stack.c **** }
 292:Libraries/ctrl_sdk/src/lib_stack.c **** 
 293:Libraries/ctrl_sdk/src/lib_stack.c **** lib_stack_status Lib_StackList_Push(Lib_StackList_t *stack, void *val)
 294:Libraries/ctrl_sdk/src/lib_stack.c **** {
 295:Libraries/ctrl_sdk/src/lib_stack.c **** 	if (stack == NULL || val == NULL) {
 296:Libraries/ctrl_sdk/src/lib_stack.c **** 		return LIB_STACK_ERROR;
 297:Libraries/ctrl_sdk/src/lib_stack.c **** 	}
 298:Libraries/ctrl_sdk/src/lib_stack.c **** 	if (stack->mem_size == 0) {
 299:Libraries/ctrl_sdk/src/lib_stack.c **** 		return LIB_STACK_NOT_INIT;
 300:Libraries/ctrl_sdk/src/lib_stack.c **** 	}
 301:Libraries/ctrl_sdk/src/lib_stack.c **** 	if (Lib_StackList_Full(stack, 0) == LIB_STACK_IS_FULL) {
 302:Libraries/ctrl_sdk/src/lib_stack.c **** 		return LIB_STACK_FULL;
 303:Libraries/ctrl_sdk/src/lib_stack.c **** 	}
 304:Libraries/ctrl_sdk/src/lib_stack.c **** 
 305:Libraries/ctrl_sdk/src/lib_stack.c **** 	lib_stack_member_t *member =
 306:Libraries/ctrl_sdk/src/lib_stack.c **** 		(lib_stack_member_t *)STACK_MALLOC(LIB_STACK_MEMBER_SIZE);
 307:Libraries/ctrl_sdk/src/lib_stack.c **** 	if (member == NULL) {
 308:Libraries/ctrl_sdk/src/lib_stack.c **** 		return LIB_STACK_ERROR;
 309:Libraries/ctrl_sdk/src/lib_stack.c **** 	}
 310:Libraries/ctrl_sdk/src/lib_stack.c **** #if DEF_LIB_STACK_INIT_EMPTY == 1
 311:Libraries/ctrl_sdk/src/lib_stack.c **** 	memset(member, 0, LIB_STACK_MEMBER_SIZE);
 312:Libraries/ctrl_sdk/src/lib_stack.c **** #endif
 313:Libraries/ctrl_sdk/src/lib_stack.c **** 
 314:Libraries/ctrl_sdk/src/lib_stack.c **** 	void *value = STACK_MALLOC(stack->mem_size);
 315:Libraries/ctrl_sdk/src/lib_stack.c **** 	if (value == NULL) {
 316:Libraries/ctrl_sdk/src/lib_stack.c **** 		STACK_FREE(member);
 317:Libraries/ctrl_sdk/src/lib_stack.c **** 		STACK_FREE(value);
 318:Libraries/ctrl_sdk/src/lib_stack.c **** 		return LIB_STACK_ERROR;
 319:Libraries/ctrl_sdk/src/lib_stack.c **** 	}
 320:Libraries/ctrl_sdk/src/lib_stack.c **** 	memcpy(value, val, stack->mem_size);
 321:Libraries/ctrl_sdk/src/lib_stack.c **** 
 322:Libraries/ctrl_sdk/src/lib_stack.c **** 	if (stack->top_member == NULL) {
ARM GAS  C:\Users\Mxuan\AppData\Local\Temp\ccCIb4EQ.s 			page 34


 323:Libraries/ctrl_sdk/src/lib_stack.c **** 		member->val = value;
 324:Libraries/ctrl_sdk/src/lib_stack.c **** 		stack->top_member = member;
 325:Libraries/ctrl_sdk/src/lib_stack.c **** 	} else {
 326:Libraries/ctrl_sdk/src/lib_stack.c **** 		lib_stack_member_t *prev_member = stack->top_member;
 327:Libraries/ctrl_sdk/src/lib_stack.c **** 		member->prev = prev_member;
 328:Libraries/ctrl_sdk/src/lib_stack.c **** 		member->val = value;
 329:Libraries/ctrl_sdk/src/lib_stack.c **** 		stack->top_member = member;
 330:Libraries/ctrl_sdk/src/lib_stack.c **** 	}
 331:Libraries/ctrl_sdk/src/lib_stack.c **** 	++stack->top;
 332:Libraries/ctrl_sdk/src/lib_stack.c **** 	return LIB_STACK_OK;
 333:Libraries/ctrl_sdk/src/lib_stack.c **** }
 334:Libraries/ctrl_sdk/src/lib_stack.c **** 
 335:Libraries/ctrl_sdk/src/lib_stack.c **** lib_stack_status Lib_StackList_Pop(Lib_StackList_t *stack, void *val)
 336:Libraries/ctrl_sdk/src/lib_stack.c **** {
 337:Libraries/ctrl_sdk/src/lib_stack.c **** 	if (stack == NULL) {
 338:Libraries/ctrl_sdk/src/lib_stack.c **** 		return LIB_STACK_ERROR;
 339:Libraries/ctrl_sdk/src/lib_stack.c **** 	}
 340:Libraries/ctrl_sdk/src/lib_stack.c **** 	if (stack->mem_size == 0) {
 341:Libraries/ctrl_sdk/src/lib_stack.c **** 		return LIB_STACK_NOT_INIT;
 342:Libraries/ctrl_sdk/src/lib_stack.c **** 	}
 343:Libraries/ctrl_sdk/src/lib_stack.c **** 	if (Lib_StackList_Empty(stack, 0) == LIB_STACK_IS_EMPTY) {
 344:Libraries/ctrl_sdk/src/lib_stack.c **** 		return LIB_STACK_EMPTY;
 345:Libraries/ctrl_sdk/src/lib_stack.c **** 	}
 346:Libraries/ctrl_sdk/src/lib_stack.c **** 
 347:Libraries/ctrl_sdk/src/lib_stack.c **** 	lib_stack_member_t *top_member = stack->top_member;
 348:Libraries/ctrl_sdk/src/lib_stack.c **** 	if (val != NULL) {
 349:Libraries/ctrl_sdk/src/lib_stack.c **** 		memcpy(val, top_member->val, stack->mem_size);
 350:Libraries/ctrl_sdk/src/lib_stack.c **** 	}
 351:Libraries/ctrl_sdk/src/lib_stack.c **** 	stack->top_member = top_member->prev;
 352:Libraries/ctrl_sdk/src/lib_stack.c **** 	STACK_FREE(top_member->val);
 353:Libraries/ctrl_sdk/src/lib_stack.c **** 	STACK_FREE(top_member);
 354:Libraries/ctrl_sdk/src/lib_stack.c **** 	--stack->top;
 355:Libraries/ctrl_sdk/src/lib_stack.c **** 	return LIB_STACK_OK;
 356:Libraries/ctrl_sdk/src/lib_stack.c **** }
 357:Libraries/ctrl_sdk/src/lib_stack.c **** 
 358:Libraries/ctrl_sdk/src/lib_stack.c **** lib_stack_status Lib_StackList_Top(Lib_StackList_t *stack, void *val)
 359:Libraries/ctrl_sdk/src/lib_stack.c **** {
 360:Libraries/ctrl_sdk/src/lib_stack.c **** 	if (stack == NULL || val == NULL) {
 361:Libraries/ctrl_sdk/src/lib_stack.c **** 		return LIB_STACK_ERROR;
 362:Libraries/ctrl_sdk/src/lib_stack.c **** 	}
 363:Libraries/ctrl_sdk/src/lib_stack.c **** 	if (stack->mem_size == 0) {
 364:Libraries/ctrl_sdk/src/lib_stack.c **** 		return LIB_STACK_NOT_INIT;
 365:Libraries/ctrl_sdk/src/lib_stack.c **** 	}
 366:Libraries/ctrl_sdk/src/lib_stack.c **** 	if (Lib_StackList_Empty(stack, 0) == LIB_STACK_IS_EMPTY) {
 367:Libraries/ctrl_sdk/src/lib_stack.c **** 		return LIB_STACK_EMPTY;
 368:Libraries/ctrl_sdk/src/lib_stack.c **** 	}
 369:Libraries/ctrl_sdk/src/lib_stack.c **** 
 370:Libraries/ctrl_sdk/src/lib_stack.c **** 	lib_stack_member_t *top_member = stack->top_member;
 371:Libraries/ctrl_sdk/src/lib_stack.c **** 	memcpy(val, top_member->val, stack->mem_size);
 372:Libraries/ctrl_sdk/src/lib_stack.c **** 	return LIB_STACK_OK;
 373:Libraries/ctrl_sdk/src/lib_stack.c **** }
 374:Libraries/ctrl_sdk/src/lib_stack.c **** 
 375:Libraries/ctrl_sdk/src/lib_stack.c **** inline int32_t Lib_StackList_Size(Lib_StackList_t *stack, _Bool mod)
 376:Libraries/ctrl_sdk/src/lib_stack.c **** {
 1347              		.loc 1 376 1 is_stmt 1 view -0
 1348              		.cfi_startproc
 1349              		@ args = 0, pretend = 0, frame = 0
ARM GAS  C:\Users\Mxuan\AppData\Local\Temp\ccCIb4EQ.s 			page 35


 1350              		@ frame_needed = 0, uses_anonymous_args = 0
 1351              		@ link register save eliminated.
 377:Libraries/ctrl_sdk/src/lib_stack.c **** 	if (stack == NULL) {
 1352              		.loc 1 377 2 view .LVU376
 1353              		.loc 1 377 5 is_stmt 0 view .LVU377
 1354 0000 68B1     		cbz	r0, .L121
 378:Libraries/ctrl_sdk/src/lib_stack.c **** 		return -1;
 379:Libraries/ctrl_sdk/src/lib_stack.c **** 	}
 380:Libraries/ctrl_sdk/src/lib_stack.c **** 	if (mod == 1) {
 1355              		.loc 1 380 2 is_stmt 1 view .LVU378
 1356              		.loc 1 380 5 is_stmt 0 view .LVU379
 1357 0002 49B1     		cbz	r1, .L118
 1358              	.LBB74:
 381:Libraries/ctrl_sdk/src/lib_stack.c **** 		int32_t num = -1;
 1359              		.loc 1 381 3 is_stmt 1 view .LVU380
 1360              	.LVL134:
 382:Libraries/ctrl_sdk/src/lib_stack.c **** 		for (lib_stack_member_t *member = stack->top_member;
 1361              		.loc 1 382 3 view .LVU381
 1362              	.LBB75:
 1363              		.loc 1 382 8 view .LVU382
 1364              		.loc 1 382 28 is_stmt 0 view .LVU383
 1365 0004 0368     		ldr	r3, [r0]
 1366              	.LVL135:
 1367              		.loc 1 382 28 view .LVU384
 1368              	.LBE75:
 381:Libraries/ctrl_sdk/src/lib_stack.c **** 		int32_t num = -1;
 1369              		.loc 1 381 11 view .LVU385
 1370 0006 4FF0FF30 		mov	r0, #-1
 1371              	.LVL136:
 1372              	.LBB76:
 1373              		.loc 1 382 3 view .LVU386
 1374 000a 01E0     		b	.L119
 1375              	.LVL137:
 1376              	.L120:
 383:Libraries/ctrl_sdk/src/lib_stack.c **** 		     member != NULL; member = member->prev) {
 384:Libraries/ctrl_sdk/src/lib_stack.c **** 			++num;
 1377              		.loc 1 384 4 is_stmt 1 discriminator 2 view .LVU387
 1378 000c 0130     		adds	r0, r0, #1
 1379              	.LVL138:
 383:Libraries/ctrl_sdk/src/lib_stack.c **** 		     member != NULL; member = member->prev) {
 1380              		.loc 1 383 31 discriminator 2 view .LVU388
 1381 000e 1B68     		ldr	r3, [r3]
 1382              	.LVL139:
 1383              	.L119:
 383:Libraries/ctrl_sdk/src/lib_stack.c **** 		     member != NULL; member = member->prev) {
 1384              		.loc 1 383 15 discriminator 1 view .LVU389
 1385 0010 002B     		cmp	r3, #0
 1386 0012 FBD1     		bne	.L120
 383:Libraries/ctrl_sdk/src/lib_stack.c **** 		     member != NULL; member = member->prev) {
 1387              		.loc 1 383 15 is_stmt 0 discriminator 1 view .LVU390
 1388              	.LBE76:
 385:Libraries/ctrl_sdk/src/lib_stack.c **** 		}
 386:Libraries/ctrl_sdk/src/lib_stack.c **** 		return num + 1;
 1389              		.loc 1 386 3 is_stmt 1 view .LVU391
 1390              		.loc 1 386 14 is_stmt 0 view .LVU392
 1391 0014 0130     		adds	r0, r0, #1
 1392              	.LVL140:
ARM GAS  C:\Users\Mxuan\AppData\Local\Temp\ccCIb4EQ.s 			page 36


 1393              		.loc 1 386 14 view .LVU393
 1394 0016 7047     		bx	lr
 1395              	.LVL141:
 1396              	.L118:
 1397              		.loc 1 386 14 view .LVU394
 1398              	.LBE74:
 387:Libraries/ctrl_sdk/src/lib_stack.c **** 	} else {
 388:Libraries/ctrl_sdk/src/lib_stack.c **** 		return stack->top + 1;
 1399              		.loc 1 388 3 is_stmt 1 view .LVU395
 1400              		.loc 1 388 15 is_stmt 0 view .LVU396
 1401 0018 8068     		ldr	r0, [r0, #8]
 1402              	.LVL142:
 1403              		.loc 1 388 21 view .LVU397
 1404 001a 0130     		adds	r0, r0, #1
 1405 001c 7047     		bx	lr
 1406              	.LVL143:
 1407              	.L121:
 378:Libraries/ctrl_sdk/src/lib_stack.c **** 	}
 1408              		.loc 1 378 10 view .LVU398
 1409 001e 4FF0FF30 		mov	r0, #-1
 1410              	.LVL144:
 389:Libraries/ctrl_sdk/src/lib_stack.c **** 	}
 390:Libraries/ctrl_sdk/src/lib_stack.c **** }
 1411              		.loc 1 390 1 view .LVU399
 1412 0022 7047     		bx	lr
 1413              		.cfi_endproc
 1414              	.LFE23:
 1416              		.section	.text.Lib_StackList_Empty,"ax",%progbits
 1417              		.align	1
 1418              		.global	Lib_StackList_Empty
 1419              		.syntax unified
 1420              		.thumb
 1421              		.thumb_func
 1423              	Lib_StackList_Empty:
 1424              	.LVL145:
 1425              	.LFB18:
 275:Libraries/ctrl_sdk/src/lib_stack.c **** 	if (stack == NULL) {
 1426              		.loc 1 275 1 is_stmt 1 view -0
 1427              		.cfi_startproc
 1428              		@ args = 0, pretend = 0, frame = 0
 1429              		@ frame_needed = 0, uses_anonymous_args = 0
 276:Libraries/ctrl_sdk/src/lib_stack.c **** 		return 0;
 1430              		.loc 1 276 2 view .LVU401
 276:Libraries/ctrl_sdk/src/lib_stack.c **** 		return 0;
 1431              		.loc 1 276 5 is_stmt 0 view .LVU402
 1432 0000 38B1     		cbz	r0, .L124
 275:Libraries/ctrl_sdk/src/lib_stack.c **** 	if (stack == NULL) {
 1433              		.loc 1 275 1 view .LVU403
 1434 0002 08B5     		push	{r3, lr}
 1435              	.LCFI23:
 1436              		.cfi_def_cfa_offset 8
 1437              		.cfi_offset 3, -8
 1438              		.cfi_offset 14, -4
 279:Libraries/ctrl_sdk/src/lib_stack.c **** 						       LIB_STACK_IS_EMPTY;
 1439              		.loc 1 279 2 is_stmt 1 view .LVU404
 279:Libraries/ctrl_sdk/src/lib_stack.c **** 						       LIB_STACK_IS_EMPTY;
 1440              		.loc 1 279 9 is_stmt 0 view .LVU405
ARM GAS  C:\Users\Mxuan\AppData\Local\Temp\ccCIb4EQ.s 			page 37


 1441 0004 FFF7FEFF 		bl	Lib_StackList_Size
 1442              	.LVL146:
 279:Libraries/ctrl_sdk/src/lib_stack.c **** 						       LIB_STACK_IS_EMPTY;
 1443              		.loc 1 279 72 view .LVU406
 1444 0008 0028     		cmp	r0, #0
 1445 000a CCBF     		ite	gt
 1446 000c 0020     		movgt	r0, #0
 1447 000e 0120     		movle	r0, #1
 281:Libraries/ctrl_sdk/src/lib_stack.c **** 
 1448              		.loc 1 281 1 view .LVU407
 1449 0010 08BD     		pop	{r3, pc}
 1450              	.LVL147:
 1451              	.L124:
 1452              	.LCFI24:
 1453              		.cfi_def_cfa_offset 0
 1454              		.cfi_restore 3
 1455              		.cfi_restore 14
 277:Libraries/ctrl_sdk/src/lib_stack.c **** 	}
 1456              		.loc 1 277 10 view .LVU408
 1457 0012 0020     		movs	r0, #0
 1458              	.LVL148:
 281:Libraries/ctrl_sdk/src/lib_stack.c **** 
 1459              		.loc 1 281 1 view .LVU409
 1460 0014 7047     		bx	lr
 1461              		.cfi_endproc
 1462              	.LFE18:
 1464              		.section	.text.Lib_StackList_Pop,"ax",%progbits
 1465              		.align	1
 1466              		.global	Lib_StackList_Pop
 1467              		.syntax unified
 1468              		.thumb
 1469              		.thumb_func
 1471              	Lib_StackList_Pop:
 1472              	.LVL149:
 1473              	.LFB21:
 336:Libraries/ctrl_sdk/src/lib_stack.c **** 	if (stack == NULL) {
 1474              		.loc 1 336 1 is_stmt 1 view -0
 1475              		.cfi_startproc
 1476              		@ args = 0, pretend = 0, frame = 0
 1477              		@ frame_needed = 0, uses_anonymous_args = 0
 337:Libraries/ctrl_sdk/src/lib_stack.c **** 		return LIB_STACK_ERROR;
 1478              		.loc 1 337 2 view .LVU411
 337:Libraries/ctrl_sdk/src/lib_stack.c **** 		return LIB_STACK_ERROR;
 1479              		.loc 1 337 5 is_stmt 0 view .LVU412
 1480 0000 E0B1     		cbz	r0, .L132
 336:Libraries/ctrl_sdk/src/lib_stack.c **** 	if (stack == NULL) {
 1481              		.loc 1 336 1 view .LVU413
 1482 0002 F8B5     		push	{r3, r4, r5, r6, r7, lr}
 1483              	.LCFI25:
 1484              		.cfi_def_cfa_offset 24
 1485              		.cfi_offset 3, -24
 1486              		.cfi_offset 4, -20
 1487              		.cfi_offset 5, -16
 1488              		.cfi_offset 6, -12
 1489              		.cfi_offset 7, -8
 1490              		.cfi_offset 14, -4
 1491 0004 0D46     		mov	r5, r1
ARM GAS  C:\Users\Mxuan\AppData\Local\Temp\ccCIb4EQ.s 			page 38


 1492 0006 0446     		mov	r4, r0
 340:Libraries/ctrl_sdk/src/lib_stack.c **** 		return LIB_STACK_NOT_INIT;
 1493              		.loc 1 340 2 is_stmt 1 view .LVU414
 340:Libraries/ctrl_sdk/src/lib_stack.c **** 		return LIB_STACK_NOT_INIT;
 1494              		.loc 1 340 11 is_stmt 0 view .LVU415
 1495 0008 4768     		ldr	r7, [r0, #4]
 340:Libraries/ctrl_sdk/src/lib_stack.c **** 		return LIB_STACK_NOT_INIT;
 1496              		.loc 1 340 5 view .LVU416
 1497 000a CFB1     		cbz	r7, .L133
 343:Libraries/ctrl_sdk/src/lib_stack.c **** 		return LIB_STACK_EMPTY;
 1498              		.loc 1 343 2 is_stmt 1 view .LVU417
 343:Libraries/ctrl_sdk/src/lib_stack.c **** 		return LIB_STACK_EMPTY;
 1499              		.loc 1 343 6 is_stmt 0 view .LVU418
 1500 000c 0021     		movs	r1, #0
 1501              	.LVL150:
 343:Libraries/ctrl_sdk/src/lib_stack.c **** 		return LIB_STACK_EMPTY;
 1502              		.loc 1 343 6 view .LVU419
 1503 000e FFF7FEFF 		bl	Lib_StackList_Empty
 1504              	.LVL151:
 343:Libraries/ctrl_sdk/src/lib_stack.c **** 		return LIB_STACK_EMPTY;
 1505              		.loc 1 343 5 view .LVU420
 1506 0012 B8B9     		cbnz	r0, .L134
 347:Libraries/ctrl_sdk/src/lib_stack.c **** 	if (val != NULL) {
 1507              		.loc 1 347 2 is_stmt 1 view .LVU421
 347:Libraries/ctrl_sdk/src/lib_stack.c **** 	if (val != NULL) {
 1508              		.loc 1 347 22 is_stmt 0 view .LVU422
 1509 0014 2668     		ldr	r6, [r4]
 1510              	.LVL152:
 348:Libraries/ctrl_sdk/src/lib_stack.c **** 		memcpy(val, top_member->val, stack->mem_size);
 1511              		.loc 1 348 2 is_stmt 1 view .LVU423
 348:Libraries/ctrl_sdk/src/lib_stack.c **** 		memcpy(val, top_member->val, stack->mem_size);
 1512              		.loc 1 348 5 is_stmt 0 view .LVU424
 1513 0016 25B1     		cbz	r5, .L131
 349:Libraries/ctrl_sdk/src/lib_stack.c **** 	}
 1514              		.loc 1 349 3 is_stmt 1 view .LVU425
 1515 0018 3A46     		mov	r2, r7
 1516 001a 7168     		ldr	r1, [r6, #4]
 1517 001c 2846     		mov	r0, r5
 1518 001e FFF7FEFF 		bl	memcpy
 1519              	.LVL153:
 1520              	.L131:
 351:Libraries/ctrl_sdk/src/lib_stack.c **** 	STACK_FREE(top_member->val);
 1521              		.loc 1 351 2 view .LVU426
 351:Libraries/ctrl_sdk/src/lib_stack.c **** 	STACK_FREE(top_member->val);
 1522              		.loc 1 351 32 is_stmt 0 view .LVU427
 1523 0022 3368     		ldr	r3, [r6]
 351:Libraries/ctrl_sdk/src/lib_stack.c **** 	STACK_FREE(top_member->val);
 1524              		.loc 1 351 20 view .LVU428
 1525 0024 2360     		str	r3, [r4]
 352:Libraries/ctrl_sdk/src/lib_stack.c **** 	STACK_FREE(top_member);
 1526              		.loc 1 352 2 is_stmt 1 view .LVU429
 1527 0026 7068     		ldr	r0, [r6, #4]
 1528 0028 FFF7FEFF 		bl	free
 1529              	.LVL154:
 353:Libraries/ctrl_sdk/src/lib_stack.c **** 	--stack->top;
 1530              		.loc 1 353 2 view .LVU430
 1531 002c 3046     		mov	r0, r6
ARM GAS  C:\Users\Mxuan\AppData\Local\Temp\ccCIb4EQ.s 			page 39


 1532 002e FFF7FEFF 		bl	free
 1533              	.LVL155:
 354:Libraries/ctrl_sdk/src/lib_stack.c **** 	return LIB_STACK_OK;
 1534              		.loc 1 354 2 view .LVU431
 354:Libraries/ctrl_sdk/src/lib_stack.c **** 	return LIB_STACK_OK;
 1535              		.loc 1 354 9 is_stmt 0 view .LVU432
 1536 0032 A368     		ldr	r3, [r4, #8]
 354:Libraries/ctrl_sdk/src/lib_stack.c **** 	return LIB_STACK_OK;
 1537              		.loc 1 354 2 view .LVU433
 1538 0034 013B     		subs	r3, r3, #1
 1539 0036 A360     		str	r3, [r4, #8]
 355:Libraries/ctrl_sdk/src/lib_stack.c **** }
 1540              		.loc 1 355 2 is_stmt 1 view .LVU434
 355:Libraries/ctrl_sdk/src/lib_stack.c **** }
 1541              		.loc 1 355 9 is_stmt 0 view .LVU435
 1542 0038 0020     		movs	r0, #0
 1543              	.LVL156:
 1544              	.L130:
 356:Libraries/ctrl_sdk/src/lib_stack.c **** 
 1545              		.loc 1 356 1 view .LVU436
 1546 003a F8BD     		pop	{r3, r4, r5, r6, r7, pc}
 1547              	.LVL157:
 1548              	.L132:
 1549              	.LCFI26:
 1550              		.cfi_def_cfa_offset 0
 1551              		.cfi_restore 3
 1552              		.cfi_restore 4
 1553              		.cfi_restore 5
 1554              		.cfi_restore 6
 1555              		.cfi_restore 7
 1556              		.cfi_restore 14
 338:Libraries/ctrl_sdk/src/lib_stack.c **** 	}
 1557              		.loc 1 338 10 view .LVU437
 1558 003c 0120     		movs	r0, #1
 1559              	.LVL158:
 356:Libraries/ctrl_sdk/src/lib_stack.c **** 
 1560              		.loc 1 356 1 view .LVU438
 1561 003e 7047     		bx	lr
 1562              	.LVL159:
 1563              	.L133:
 1564              	.LCFI27:
 1565              		.cfi_def_cfa_offset 24
 1566              		.cfi_offset 3, -24
 1567              		.cfi_offset 4, -20
 1568              		.cfi_offset 5, -16
 1569              		.cfi_offset 6, -12
 1570              		.cfi_offset 7, -8
 1571              		.cfi_offset 14, -4
 341:Libraries/ctrl_sdk/src/lib_stack.c **** 	}
 1572              		.loc 1 341 10 view .LVU439
 1573 0040 0220     		movs	r0, #2
 1574              	.LVL160:
 341:Libraries/ctrl_sdk/src/lib_stack.c **** 	}
 1575              		.loc 1 341 10 view .LVU440
 1576 0042 FAE7     		b	.L130
 1577              	.LVL161:
 1578              	.L134:
ARM GAS  C:\Users\Mxuan\AppData\Local\Temp\ccCIb4EQ.s 			page 40


 344:Libraries/ctrl_sdk/src/lib_stack.c **** 	}
 1579              		.loc 1 344 10 view .LVU441
 1580 0044 0520     		movs	r0, #5
 1581 0046 F8E7     		b	.L130
 1582              		.cfi_endproc
 1583              	.LFE21:
 1585              		.section	.text.Lib_StackList_Top,"ax",%progbits
 1586              		.align	1
 1587              		.global	Lib_StackList_Top
 1588              		.syntax unified
 1589              		.thumb
 1590              		.thumb_func
 1592              	Lib_StackList_Top:
 1593              	.LVL162:
 1594              	.LFB22:
 359:Libraries/ctrl_sdk/src/lib_stack.c **** 	if (stack == NULL || val == NULL) {
 1595              		.loc 1 359 1 is_stmt 1 view -0
 1596              		.cfi_startproc
 1597              		@ args = 0, pretend = 0, frame = 0
 1598              		@ frame_needed = 0, uses_anonymous_args = 0
 360:Libraries/ctrl_sdk/src/lib_stack.c **** 		return LIB_STACK_ERROR;
 1599              		.loc 1 360 2 view .LVU443
 360:Libraries/ctrl_sdk/src/lib_stack.c **** 		return LIB_STACK_ERROR;
 1600              		.loc 1 360 5 is_stmt 0 view .LVU444
 1601 0000 88B1     		cbz	r0, .L141
 359:Libraries/ctrl_sdk/src/lib_stack.c **** 	if (stack == NULL || val == NULL) {
 1602              		.loc 1 359 1 discriminator 1 view .LVU445
 1603 0002 70B5     		push	{r4, r5, r6, lr}
 1604              	.LCFI28:
 1605              		.cfi_def_cfa_offset 16
 1606              		.cfi_offset 4, -16
 1607              		.cfi_offset 5, -12
 1608              		.cfi_offset 6, -8
 1609              		.cfi_offset 14, -4
 1610 0004 0C46     		mov	r4, r1
 1611 0006 0546     		mov	r5, r0
 360:Libraries/ctrl_sdk/src/lib_stack.c **** 		return LIB_STACK_ERROR;
 1612              		.loc 1 360 20 discriminator 1 view .LVU446
 1613 0008 79B1     		cbz	r1, .L142
 363:Libraries/ctrl_sdk/src/lib_stack.c **** 		return LIB_STACK_NOT_INIT;
 1614              		.loc 1 363 2 is_stmt 1 view .LVU447
 363:Libraries/ctrl_sdk/src/lib_stack.c **** 		return LIB_STACK_NOT_INIT;
 1615              		.loc 1 363 11 is_stmt 0 view .LVU448
 1616 000a 4668     		ldr	r6, [r0, #4]
 363:Libraries/ctrl_sdk/src/lib_stack.c **** 		return LIB_STACK_NOT_INIT;
 1617              		.loc 1 363 5 view .LVU449
 1618 000c 7EB1     		cbz	r6, .L143
 366:Libraries/ctrl_sdk/src/lib_stack.c **** 		return LIB_STACK_EMPTY;
 1619              		.loc 1 366 2 is_stmt 1 view .LVU450
 366:Libraries/ctrl_sdk/src/lib_stack.c **** 		return LIB_STACK_EMPTY;
 1620              		.loc 1 366 6 is_stmt 0 view .LVU451
 1621 000e 0021     		movs	r1, #0
 1622              	.LVL163:
 366:Libraries/ctrl_sdk/src/lib_stack.c **** 		return LIB_STACK_EMPTY;
 1623              		.loc 1 366 6 view .LVU452
 1624 0010 FFF7FEFF 		bl	Lib_StackList_Empty
 1625              	.LVL164:
ARM GAS  C:\Users\Mxuan\AppData\Local\Temp\ccCIb4EQ.s 			page 41


 366:Libraries/ctrl_sdk/src/lib_stack.c **** 		return LIB_STACK_EMPTY;
 1626              		.loc 1 366 5 view .LVU453
 1627 0014 68B9     		cbnz	r0, .L144
 370:Libraries/ctrl_sdk/src/lib_stack.c **** 	memcpy(val, top_member->val, stack->mem_size);
 1628              		.loc 1 370 2 is_stmt 1 view .LVU454
 370:Libraries/ctrl_sdk/src/lib_stack.c **** 	memcpy(val, top_member->val, stack->mem_size);
 1629              		.loc 1 370 22 is_stmt 0 view .LVU455
 1630 0016 2B68     		ldr	r3, [r5]
 1631              	.LVL165:
 371:Libraries/ctrl_sdk/src/lib_stack.c **** 	return LIB_STACK_OK;
 1632              		.loc 1 371 2 is_stmt 1 view .LVU456
 1633 0018 3246     		mov	r2, r6
 1634 001a 5968     		ldr	r1, [r3, #4]
 1635 001c 2046     		mov	r0, r4
 1636 001e FFF7FEFF 		bl	memcpy
 1637              	.LVL166:
 372:Libraries/ctrl_sdk/src/lib_stack.c **** }
 1638              		.loc 1 372 2 view .LVU457
 372:Libraries/ctrl_sdk/src/lib_stack.c **** }
 1639              		.loc 1 372 9 is_stmt 0 view .LVU458
 1640 0022 0020     		movs	r0, #0
 1641              	.LVL167:
 1642              	.L140:
 373:Libraries/ctrl_sdk/src/lib_stack.c **** 
 1643              		.loc 1 373 1 view .LVU459
 1644 0024 70BD     		pop	{r4, r5, r6, pc}
 1645              	.LVL168:
 1646              	.L141:
 1647              	.LCFI29:
 1648              		.cfi_def_cfa_offset 0
 1649              		.cfi_restore 4
 1650              		.cfi_restore 5
 1651              		.cfi_restore 6
 1652              		.cfi_restore 14
 361:Libraries/ctrl_sdk/src/lib_stack.c **** 	}
 1653              		.loc 1 361 10 view .LVU460
 1654 0026 0120     		movs	r0, #1
 1655              	.LVL169:
 373:Libraries/ctrl_sdk/src/lib_stack.c **** 
 1656              		.loc 1 373 1 view .LVU461
 1657 0028 7047     		bx	lr
 1658              	.LVL170:
 1659              	.L142:
 1660              	.LCFI30:
 1661              		.cfi_def_cfa_offset 16
 1662              		.cfi_offset 4, -16
 1663              		.cfi_offset 5, -12
 1664              		.cfi_offset 6, -8
 1665              		.cfi_offset 14, -4
 361:Libraries/ctrl_sdk/src/lib_stack.c **** 	}
 1666              		.loc 1 361 10 view .LVU462
 1667 002a 0120     		movs	r0, #1
 1668              	.LVL171:
 361:Libraries/ctrl_sdk/src/lib_stack.c **** 	}
 1669              		.loc 1 361 10 view .LVU463
 1670 002c FAE7     		b	.L140
 1671              	.LVL172:
ARM GAS  C:\Users\Mxuan\AppData\Local\Temp\ccCIb4EQ.s 			page 42


 1672              	.L143:
 364:Libraries/ctrl_sdk/src/lib_stack.c **** 	}
 1673              		.loc 1 364 10 view .LVU464
 1674 002e 0220     		movs	r0, #2
 1675              	.LVL173:
 364:Libraries/ctrl_sdk/src/lib_stack.c **** 	}
 1676              		.loc 1 364 10 view .LVU465
 1677 0030 F8E7     		b	.L140
 1678              	.LVL174:
 1679              	.L144:
 367:Libraries/ctrl_sdk/src/lib_stack.c **** 	}
 1680              		.loc 1 367 10 view .LVU466
 1681 0032 0520     		movs	r0, #5
 1682 0034 F6E7     		b	.L140
 1683              		.cfi_endproc
 1684              	.LFE22:
 1686              		.section	.text.Lib_StackList_Full,"ax",%progbits
 1687              		.align	1
 1688              		.global	Lib_StackList_Full
 1689              		.syntax unified
 1690              		.thumb
 1691              		.thumb_func
 1693              	Lib_StackList_Full:
 1694              	.LVL175:
 1695              	.LFB19:
 284:Libraries/ctrl_sdk/src/lib_stack.c **** 	if (stack == NULL) {
 1696              		.loc 1 284 1 is_stmt 1 view -0
 1697              		.cfi_startproc
 1698              		@ args = 0, pretend = 0, frame = 0
 1699              		@ frame_needed = 0, uses_anonymous_args = 0
 285:Libraries/ctrl_sdk/src/lib_stack.c **** 		return 0;
 1700              		.loc 1 285 2 view .LVU468
 285:Libraries/ctrl_sdk/src/lib_stack.c **** 		return 0;
 1701              		.loc 1 285 5 is_stmt 0 view .LVU469
 1702 0000 48B1     		cbz	r0, .L151
 284:Libraries/ctrl_sdk/src/lib_stack.c **** 	if (stack == NULL) {
 1703              		.loc 1 284 1 view .LVU470
 1704 0002 08B5     		push	{r3, lr}
 1705              	.LCFI31:
 1706              		.cfi_def_cfa_offset 8
 1707              		.cfi_offset 3, -8
 1708              		.cfi_offset 14, -4
 288:Libraries/ctrl_sdk/src/lib_stack.c **** 		       LIB_STACK_IS_FULL :
 1709              		.loc 1 288 2 is_stmt 1 view .LVU471
 288:Libraries/ctrl_sdk/src/lib_stack.c **** 		       LIB_STACK_IS_FULL :
 1710              		.loc 1 288 9 is_stmt 0 view .LVU472
 1711 0004 FFF7FEFF 		bl	Lib_StackList_Size
 1712              	.LVL176:
 289:Libraries/ctrl_sdk/src/lib_stack.c **** 		       LIB_STACK_IS_NOT_FULL;
 1713              		.loc 1 289 28 view .LVU473
 1714 0008 6FF00043 		mvn	r3, #-2147483648
 1715 000c 9842     		cmp	r0, r3
 1716 000e 14BF     		ite	ne
 1717 0010 0020     		movne	r0, #0
 1718 0012 0120     		moveq	r0, #1
 291:Libraries/ctrl_sdk/src/lib_stack.c **** 
 1719              		.loc 1 291 1 view .LVU474
ARM GAS  C:\Users\Mxuan\AppData\Local\Temp\ccCIb4EQ.s 			page 43


 1720 0014 08BD     		pop	{r3, pc}
 1721              	.LVL177:
 1722              	.L151:
 1723              	.LCFI32:
 1724              		.cfi_def_cfa_offset 0
 1725              		.cfi_restore 3
 1726              		.cfi_restore 14
 286:Libraries/ctrl_sdk/src/lib_stack.c **** 	}
 1727              		.loc 1 286 10 view .LVU475
 1728 0016 0020     		movs	r0, #0
 1729              	.LVL178:
 291:Libraries/ctrl_sdk/src/lib_stack.c **** 
 1730              		.loc 1 291 1 view .LVU476
 1731 0018 7047     		bx	lr
 1732              		.cfi_endproc
 1733              	.LFE19:
 1735              		.section	.text.Lib_StackList_Push,"ax",%progbits
 1736              		.align	1
 1737              		.global	Lib_StackList_Push
 1738              		.syntax unified
 1739              		.thumb
 1740              		.thumb_func
 1742              	Lib_StackList_Push:
 1743              	.LVL179:
 1744              	.LFB20:
 294:Libraries/ctrl_sdk/src/lib_stack.c **** 	if (stack == NULL || val == NULL) {
 1745              		.loc 1 294 1 is_stmt 1 view -0
 1746              		.cfi_startproc
 1747              		@ args = 0, pretend = 0, frame = 0
 1748              		@ frame_needed = 0, uses_anonymous_args = 0
 295:Libraries/ctrl_sdk/src/lib_stack.c **** 		return LIB_STACK_ERROR;
 1749              		.loc 1 295 2 view .LVU478
 295:Libraries/ctrl_sdk/src/lib_stack.c **** 		return LIB_STACK_ERROR;
 1750              		.loc 1 295 5 is_stmt 0 view .LVU479
 1751 0000 80B3     		cbz	r0, .L161
 294:Libraries/ctrl_sdk/src/lib_stack.c **** 	if (stack == NULL || val == NULL) {
 1752              		.loc 1 294 1 discriminator 1 view .LVU480
 1753 0002 2DE9F041 		push	{r4, r5, r6, r7, r8, lr}
 1754              	.LCFI33:
 1755              		.cfi_def_cfa_offset 24
 1756              		.cfi_offset 4, -24
 1757              		.cfi_offset 5, -20
 1758              		.cfi_offset 6, -16
 1759              		.cfi_offset 7, -12
 1760              		.cfi_offset 8, -8
 1761              		.cfi_offset 14, -4
 1762 0006 0C46     		mov	r4, r1
 1763 0008 0646     		mov	r6, r0
 295:Libraries/ctrl_sdk/src/lib_stack.c **** 		return LIB_STACK_ERROR;
 1764              		.loc 1 295 20 discriminator 1 view .LVU481
 1765 000a 69B3     		cbz	r1, .L162
 298:Libraries/ctrl_sdk/src/lib_stack.c **** 		return LIB_STACK_NOT_INIT;
 1766              		.loc 1 298 2 is_stmt 1 view .LVU482
 298:Libraries/ctrl_sdk/src/lib_stack.c **** 		return LIB_STACK_NOT_INIT;
 1767              		.loc 1 298 11 is_stmt 0 view .LVU483
 1768 000c 4568     		ldr	r5, [r0, #4]
 298:Libraries/ctrl_sdk/src/lib_stack.c **** 		return LIB_STACK_NOT_INIT;
ARM GAS  C:\Users\Mxuan\AppData\Local\Temp\ccCIb4EQ.s 			page 44


 1769              		.loc 1 298 5 view .LVU484
 1770 000e 6DB3     		cbz	r5, .L163
 301:Libraries/ctrl_sdk/src/lib_stack.c **** 		return LIB_STACK_FULL;
 1771              		.loc 1 301 2 is_stmt 1 view .LVU485
 301:Libraries/ctrl_sdk/src/lib_stack.c **** 		return LIB_STACK_FULL;
 1772              		.loc 1 301 6 is_stmt 0 view .LVU486
 1773 0010 0021     		movs	r1, #0
 1774              	.LVL180:
 301:Libraries/ctrl_sdk/src/lib_stack.c **** 		return LIB_STACK_FULL;
 1775              		.loc 1 301 6 view .LVU487
 1776 0012 FFF7FEFF 		bl	Lib_StackList_Full
 1777              	.LVL181:
 301:Libraries/ctrl_sdk/src/lib_stack.c **** 		return LIB_STACK_FULL;
 1778              		.loc 1 301 5 view .LVU488
 1779 0016 58BB     		cbnz	r0, .L164
 305:Libraries/ctrl_sdk/src/lib_stack.c **** 		(lib_stack_member_t *)STACK_MALLOC(LIB_STACK_MEMBER_SIZE);
 1780              		.loc 1 305 2 is_stmt 1 view .LVU489
 306:Libraries/ctrl_sdk/src/lib_stack.c **** 	if (member == NULL) {
 1781              		.loc 1 306 25 is_stmt 0 view .LVU490
 1782 0018 0820     		movs	r0, #8
 1783 001a FFF7FEFF 		bl	malloc
 1784              	.LVL182:
 307:Libraries/ctrl_sdk/src/lib_stack.c **** 		return LIB_STACK_ERROR;
 1785              		.loc 1 307 2 is_stmt 1 view .LVU491
 307:Libraries/ctrl_sdk/src/lib_stack.c **** 		return LIB_STACK_ERROR;
 1786              		.loc 1 307 5 is_stmt 0 view .LVU492
 1787 001e 0746     		mov	r7, r0
 1788 0020 40B3     		cbz	r0, .L165
 314:Libraries/ctrl_sdk/src/lib_stack.c **** 	if (value == NULL) {
 1789              		.loc 1 314 2 is_stmt 1 view .LVU493
 314:Libraries/ctrl_sdk/src/lib_stack.c **** 	if (value == NULL) {
 1790              		.loc 1 314 16 is_stmt 0 view .LVU494
 1791 0022 2846     		mov	r0, r5
 1792              	.LVL183:
 314:Libraries/ctrl_sdk/src/lib_stack.c **** 	if (value == NULL) {
 1793              		.loc 1 314 16 view .LVU495
 1794 0024 FFF7FEFF 		bl	malloc
 1795              	.LVL184:
 315:Libraries/ctrl_sdk/src/lib_stack.c **** 		STACK_FREE(member);
 1796              		.loc 1 315 2 is_stmt 1 view .LVU496
 315:Libraries/ctrl_sdk/src/lib_stack.c **** 		STACK_FREE(member);
 1797              		.loc 1 315 5 is_stmt 0 view .LVU497
 1798 0028 8046     		mov	r8, r0
 1799 002a 78B1     		cbz	r0, .L170
 320:Libraries/ctrl_sdk/src/lib_stack.c **** 
 1800              		.loc 1 320 2 is_stmt 1 view .LVU498
 1801 002c 2A46     		mov	r2, r5
 1802 002e 2146     		mov	r1, r4
 1803 0030 FFF7FEFF 		bl	memcpy
 1804              	.LVL185:
 322:Libraries/ctrl_sdk/src/lib_stack.c **** 		member->val = value;
 1805              		.loc 1 322 2 view .LVU499
 322:Libraries/ctrl_sdk/src/lib_stack.c **** 		member->val = value;
 1806              		.loc 1 322 11 is_stmt 0 view .LVU500
 1807 0034 3368     		ldr	r3, [r6]
 322:Libraries/ctrl_sdk/src/lib_stack.c **** 		member->val = value;
 1808              		.loc 1 322 5 view .LVU501
ARM GAS  C:\Users\Mxuan\AppData\Local\Temp\ccCIb4EQ.s 			page 45


 1809 0036 8BB1     		cbz	r3, .L171
 1810              	.LBB77:
 326:Libraries/ctrl_sdk/src/lib_stack.c **** 		member->prev = prev_member;
 1811              		.loc 1 326 3 is_stmt 1 view .LVU502
 1812              	.LVL186:
 327:Libraries/ctrl_sdk/src/lib_stack.c **** 		member->val = value;
 1813              		.loc 1 327 3 view .LVU503
 327:Libraries/ctrl_sdk/src/lib_stack.c **** 		member->val = value;
 1814              		.loc 1 327 16 is_stmt 0 view .LVU504
 1815 0038 3B60     		str	r3, [r7]
 328:Libraries/ctrl_sdk/src/lib_stack.c **** 		stack->top_member = member;
 1816              		.loc 1 328 3 is_stmt 1 view .LVU505
 328:Libraries/ctrl_sdk/src/lib_stack.c **** 		stack->top_member = member;
 1817              		.loc 1 328 15 is_stmt 0 view .LVU506
 1818 003a C7F80480 		str	r8, [r7, #4]
 329:Libraries/ctrl_sdk/src/lib_stack.c **** 	}
 1819              		.loc 1 329 3 is_stmt 1 view .LVU507
 329:Libraries/ctrl_sdk/src/lib_stack.c **** 	}
 1820              		.loc 1 329 21 is_stmt 0 view .LVU508
 1821 003e 3760     		str	r7, [r6]
 1822              	.LVL187:
 1823              	.L160:
 329:Libraries/ctrl_sdk/src/lib_stack.c **** 	}
 1824              		.loc 1 329 21 view .LVU509
 1825              	.LBE77:
 331:Libraries/ctrl_sdk/src/lib_stack.c **** 	return LIB_STACK_OK;
 1826              		.loc 1 331 2 is_stmt 1 view .LVU510
 331:Libraries/ctrl_sdk/src/lib_stack.c **** 	return LIB_STACK_OK;
 1827              		.loc 1 331 9 is_stmt 0 view .LVU511
 1828 0040 B368     		ldr	r3, [r6, #8]
 331:Libraries/ctrl_sdk/src/lib_stack.c **** 	return LIB_STACK_OK;
 1829              		.loc 1 331 2 view .LVU512
 1830 0042 0133     		adds	r3, r3, #1
 1831 0044 B360     		str	r3, [r6, #8]
 332:Libraries/ctrl_sdk/src/lib_stack.c **** }
 1832              		.loc 1 332 2 is_stmt 1 view .LVU513
 332:Libraries/ctrl_sdk/src/lib_stack.c **** }
 1833              		.loc 1 332 9 is_stmt 0 view .LVU514
 1834 0046 0020     		movs	r0, #0
 1835              	.LVL188:
 1836              	.L157:
 333:Libraries/ctrl_sdk/src/lib_stack.c **** 
 1837              		.loc 1 333 1 view .LVU515
 1838 0048 BDE8F081 		pop	{r4, r5, r6, r7, r8, pc}
 1839              	.LVL189:
 1840              	.L170:
 316:Libraries/ctrl_sdk/src/lib_stack.c **** 		STACK_FREE(value);
 1841              		.loc 1 316 3 is_stmt 1 view .LVU516
 1842 004c 3846     		mov	r0, r7
 1843              	.LVL190:
 316:Libraries/ctrl_sdk/src/lib_stack.c **** 		STACK_FREE(value);
 1844              		.loc 1 316 3 is_stmt 0 view .LVU517
 1845 004e FFF7FEFF 		bl	free
 1846              	.LVL191:
 317:Libraries/ctrl_sdk/src/lib_stack.c **** 		return LIB_STACK_ERROR;
 1847              		.loc 1 317 3 is_stmt 1 view .LVU518
 1848 0052 4046     		mov	r0, r8
ARM GAS  C:\Users\Mxuan\AppData\Local\Temp\ccCIb4EQ.s 			page 46


 1849 0054 FFF7FEFF 		bl	free
 1850              	.LVL192:
 318:Libraries/ctrl_sdk/src/lib_stack.c **** 	}
 1851              		.loc 1 318 3 view .LVU519
 318:Libraries/ctrl_sdk/src/lib_stack.c **** 	}
 1852              		.loc 1 318 10 is_stmt 0 view .LVU520
 1853 0058 0120     		movs	r0, #1
 1854 005a F5E7     		b	.L157
 1855              	.L171:
 323:Libraries/ctrl_sdk/src/lib_stack.c **** 		stack->top_member = member;
 1856              		.loc 1 323 3 is_stmt 1 view .LVU521
 323:Libraries/ctrl_sdk/src/lib_stack.c **** 		stack->top_member = member;
 1857              		.loc 1 323 15 is_stmt 0 view .LVU522
 1858 005c C7F80480 		str	r8, [r7, #4]
 324:Libraries/ctrl_sdk/src/lib_stack.c **** 	} else {
 1859              		.loc 1 324 3 is_stmt 1 view .LVU523
 324:Libraries/ctrl_sdk/src/lib_stack.c **** 	} else {
 1860              		.loc 1 324 21 is_stmt 0 view .LVU524
 1861 0060 3760     		str	r7, [r6]
 1862 0062 EDE7     		b	.L160
 1863              	.LVL193:
 1864              	.L161:
 1865              	.LCFI34:
 1866              		.cfi_def_cfa_offset 0
 1867              		.cfi_restore 4
 1868              		.cfi_restore 5
 1869              		.cfi_restore 6
 1870              		.cfi_restore 7
 1871              		.cfi_restore 8
 1872              		.cfi_restore 14
 296:Libraries/ctrl_sdk/src/lib_stack.c **** 	}
 1873              		.loc 1 296 10 view .LVU525
 1874 0064 0120     		movs	r0, #1
 1875              	.LVL194:
 333:Libraries/ctrl_sdk/src/lib_stack.c **** 
 1876              		.loc 1 333 1 view .LVU526
 1877 0066 7047     		bx	lr
 1878              	.LVL195:
 1879              	.L162:
 1880              	.LCFI35:
 1881              		.cfi_def_cfa_offset 24
 1882              		.cfi_offset 4, -24
 1883              		.cfi_offset 5, -20
 1884              		.cfi_offset 6, -16
 1885              		.cfi_offset 7, -12
 1886              		.cfi_offset 8, -8
 1887              		.cfi_offset 14, -4
 296:Libraries/ctrl_sdk/src/lib_stack.c **** 	}
 1888              		.loc 1 296 10 view .LVU527
 1889 0068 0120     		movs	r0, #1
 1890              	.LVL196:
 296:Libraries/ctrl_sdk/src/lib_stack.c **** 	}
 1891              		.loc 1 296 10 view .LVU528
 1892 006a EDE7     		b	.L157
 1893              	.LVL197:
 1894              	.L163:
 299:Libraries/ctrl_sdk/src/lib_stack.c **** 	}
ARM GAS  C:\Users\Mxuan\AppData\Local\Temp\ccCIb4EQ.s 			page 47


 1895              		.loc 1 299 10 view .LVU529
 1896 006c 0220     		movs	r0, #2
 1897              	.LVL198:
 299:Libraries/ctrl_sdk/src/lib_stack.c **** 	}
 1898              		.loc 1 299 10 view .LVU530
 1899 006e EBE7     		b	.L157
 1900              	.LVL199:
 1901              	.L164:
 302:Libraries/ctrl_sdk/src/lib_stack.c **** 	}
 1902              		.loc 1 302 10 view .LVU531
 1903 0070 0420     		movs	r0, #4
 1904 0072 E9E7     		b	.L157
 1905              	.LVL200:
 1906              	.L165:
 308:Libraries/ctrl_sdk/src/lib_stack.c **** 	}
 1907              		.loc 1 308 10 view .LVU532
 1908 0074 0120     		movs	r0, #1
 1909              	.LVL201:
 308:Libraries/ctrl_sdk/src/lib_stack.c **** 	}
 1910              		.loc 1 308 10 view .LVU533
 1911 0076 E7E7     		b	.L157
 1912              		.cfi_endproc
 1913              	.LFE20:
 1915              		.section	.text.Lib_StackList_Clear,"ax",%progbits
 1916              		.align	1
 1917              		.global	Lib_StackList_Clear
 1918              		.syntax unified
 1919              		.thumb
 1920              		.thumb_func
 1922              	Lib_StackList_Clear:
 1923              	.LVL202:
 1924              	.LFB24:
 391:Libraries/ctrl_sdk/src/lib_stack.c **** 
 392:Libraries/ctrl_sdk/src/lib_stack.c **** void Lib_StackList_Clear(Lib_StackList_t *stack)
 393:Libraries/ctrl_sdk/src/lib_stack.c **** {
 1925              		.loc 1 393 1 is_stmt 1 view -0
 1926              		.cfi_startproc
 1927              		@ args = 0, pretend = 0, frame = 0
 1928              		@ frame_needed = 0, uses_anonymous_args = 0
 1929              		.loc 1 393 1 is_stmt 0 view .LVU535
 1930 0000 10B5     		push	{r4, lr}
 1931              	.LCFI36:
 1932              		.cfi_def_cfa_offset 8
 1933              		.cfi_offset 4, -8
 1934              		.cfi_offset 14, -4
 394:Libraries/ctrl_sdk/src/lib_stack.c **** 	if (stack == NULL) {
 1935              		.loc 1 394 2 is_stmt 1 view .LVU536
 1936              		.loc 1 394 5 is_stmt 0 view .LVU537
 1937 0002 0446     		mov	r4, r0
 1938 0004 20B9     		cbnz	r0, .L174
 1939 0006 07E0     		b	.L172
 1940              	.LVL203:
 1941              	.L175:
 395:Libraries/ctrl_sdk/src/lib_stack.c **** 		return;
 396:Libraries/ctrl_sdk/src/lib_stack.c **** 	}
 397:Libraries/ctrl_sdk/src/lib_stack.c **** 	while (Lib_StackList_Size(stack, 0) > 0) {
 398:Libraries/ctrl_sdk/src/lib_stack.c **** 		Lib_StackList_Pop(stack, NULL);
ARM GAS  C:\Users\Mxuan\AppData\Local\Temp\ccCIb4EQ.s 			page 48


 1942              		.loc 1 398 3 is_stmt 1 view .LVU538
 1943 0008 0021     		movs	r1, #0
 1944 000a 2046     		mov	r0, r4
 1945 000c FFF7FEFF 		bl	Lib_StackList_Pop
 1946              	.LVL204:
 1947              	.L174:
 397:Libraries/ctrl_sdk/src/lib_stack.c **** 		Lib_StackList_Pop(stack, NULL);
 1948              		.loc 1 397 38 view .LVU539
 1949              	.LBB78:
 1950              	.LBI78:
 375:Libraries/ctrl_sdk/src/lib_stack.c **** {
 1951              		.loc 1 375 16 view .LVU540
 1952              	.LBB79:
 377:Libraries/ctrl_sdk/src/lib_stack.c **** 		return -1;
 1953              		.loc 1 377 2 view .LVU541
 380:Libraries/ctrl_sdk/src/lib_stack.c **** 		int32_t num = -1;
 1954              		.loc 1 380 2 view .LVU542
 388:Libraries/ctrl_sdk/src/lib_stack.c **** 	}
 1955              		.loc 1 388 3 view .LVU543
 388:Libraries/ctrl_sdk/src/lib_stack.c **** 	}
 1956              		.loc 1 388 15 is_stmt 0 view .LVU544
 1957 0010 A368     		ldr	r3, [r4, #8]
 388:Libraries/ctrl_sdk/src/lib_stack.c **** 	}
 1958              		.loc 1 388 21 view .LVU545
 1959 0012 0133     		adds	r3, r3, #1
 1960              	.LVL205:
 388:Libraries/ctrl_sdk/src/lib_stack.c **** 	}
 1961              		.loc 1 388 21 view .LVU546
 1962              	.LBE79:
 1963              	.LBE78:
 397:Libraries/ctrl_sdk/src/lib_stack.c **** 		Lib_StackList_Pop(stack, NULL);
 1964              		.loc 1 397 38 view .LVU547
 1965 0014 002B     		cmp	r3, #0
 1966 0016 F7DC     		bgt	.L175
 1967              	.L172:
 399:Libraries/ctrl_sdk/src/lib_stack.c **** 	}
 400:Libraries/ctrl_sdk/src/lib_stack.c **** }
 1968              		.loc 1 400 1 view .LVU548
 1969 0018 10BD     		pop	{r4, pc}
 1970              		.loc 1 400 1 view .LVU549
 1971              		.cfi_endproc
 1972              	.LFE24:
 1974              		.section	.text.Lib_StackList_Delete,"ax",%progbits
 1975              		.align	1
 1976              		.global	Lib_StackList_Delete
 1977              		.syntax unified
 1978              		.thumb
 1979              		.thumb_func
 1981              	Lib_StackList_Delete:
 1982              	.LVL206:
 1983              	.LFB25:
 401:Libraries/ctrl_sdk/src/lib_stack.c **** 
 402:Libraries/ctrl_sdk/src/lib_stack.c **** void Lib_StackList_Delete(Lib_StackList_t *stack)
 403:Libraries/ctrl_sdk/src/lib_stack.c **** {
 1984              		.loc 1 403 1 is_stmt 1 view -0
 1985              		.cfi_startproc
 1986              		@ args = 0, pretend = 0, frame = 0
ARM GAS  C:\Users\Mxuan\AppData\Local\Temp\ccCIb4EQ.s 			page 49


 1987              		@ frame_needed = 0, uses_anonymous_args = 0
 1988              		.loc 1 403 1 is_stmt 0 view .LVU551
 1989 0000 10B5     		push	{r4, lr}
 1990              	.LCFI37:
 1991              		.cfi_def_cfa_offset 8
 1992              		.cfi_offset 4, -8
 1993              		.cfi_offset 14, -4
 404:Libraries/ctrl_sdk/src/lib_stack.c **** 	if (stack == NULL) {
 1994              		.loc 1 404 2 is_stmt 1 view .LVU552
 1995              		.loc 1 404 5 is_stmt 0 view .LVU553
 1996 0002 0446     		mov	r4, r0
 1997 0004 20B9     		cbnz	r0, .L179
 1998 0006 07E0     		b	.L177
 1999              	.LVL207:
 2000              	.L180:
 405:Libraries/ctrl_sdk/src/lib_stack.c **** 		return;
 406:Libraries/ctrl_sdk/src/lib_stack.c **** 	}
 407:Libraries/ctrl_sdk/src/lib_stack.c **** 	while (Lib_StackList_Size(stack, 0) > 0) {
 408:Libraries/ctrl_sdk/src/lib_stack.c **** 		Lib_StackList_Pop(stack, NULL);
 2001              		.loc 1 408 3 is_stmt 1 view .LVU554
 2002 0008 0021     		movs	r1, #0
 2003 000a 2046     		mov	r0, r4
 2004 000c FFF7FEFF 		bl	Lib_StackList_Pop
 2005              	.LVL208:
 2006              	.L179:
 407:Libraries/ctrl_sdk/src/lib_stack.c **** 		Lib_StackList_Pop(stack, NULL);
 2007              		.loc 1 407 38 view .LVU555
 2008              	.LBB80:
 2009              	.LBI80:
 375:Libraries/ctrl_sdk/src/lib_stack.c **** {
 2010              		.loc 1 375 16 view .LVU556
 2011              	.LBB81:
 377:Libraries/ctrl_sdk/src/lib_stack.c **** 		return -1;
 2012              		.loc 1 377 2 view .LVU557
 380:Libraries/ctrl_sdk/src/lib_stack.c **** 		int32_t num = -1;
 2013              		.loc 1 380 2 view .LVU558
 388:Libraries/ctrl_sdk/src/lib_stack.c **** 	}
 2014              		.loc 1 388 3 view .LVU559
 388:Libraries/ctrl_sdk/src/lib_stack.c **** 	}
 2015              		.loc 1 388 15 is_stmt 0 view .LVU560
 2016 0010 A368     		ldr	r3, [r4, #8]
 388:Libraries/ctrl_sdk/src/lib_stack.c **** 	}
 2017              		.loc 1 388 21 view .LVU561
 2018 0012 0133     		adds	r3, r3, #1
 2019              	.LVL209:
 388:Libraries/ctrl_sdk/src/lib_stack.c **** 	}
 2020              		.loc 1 388 21 view .LVU562
 2021              	.LBE81:
 2022              	.LBE80:
 407:Libraries/ctrl_sdk/src/lib_stack.c **** 		Lib_StackList_Pop(stack, NULL);
 2023              		.loc 1 407 38 view .LVU563
 2024 0014 002B     		cmp	r3, #0
 2025 0016 F7DC     		bgt	.L180
 2026              	.L177:
 409:Libraries/ctrl_sdk/src/lib_stack.c **** 	}
 410:Libraries/ctrl_sdk/src/lib_stack.c **** }
 2027              		.loc 1 410 1 view .LVU564
ARM GAS  C:\Users\Mxuan\AppData\Local\Temp\ccCIb4EQ.s 			page 50


 2028 0018 10BD     		pop	{r4, pc}
 2029              		.loc 1 410 1 view .LVU565
 2030              		.cfi_endproc
 2031              	.LFE25:
 2033              		.text
 2034              	.Letext0:
 2035              		.file 2 "d:\\_environment\\arm-gnu-toolchain\\lib\\gcc\\arm-none-eabi\\12.3.1\\include\\stddef.h"
 2036              		.file 3 "d:\\_environment\\arm-gnu-toolchain\\arm-none-eabi\\include\\machine\\_default_types.h"
 2037              		.file 4 "d:\\_environment\\arm-gnu-toolchain\\arm-none-eabi\\include\\sys\\_stdint.h"
 2038              		.file 5 "Libraries/ctrl_sdk/inc/lib_stack.h"
 2039              		.file 6 "d:\\_environment\\arm-gnu-toolchain\\arm-none-eabi\\include\\stdlib.h"
 2040              		.file 7 "d:\\_environment\\arm-gnu-toolchain\\arm-none-eabi\\include\\string.h"
 2041              		.file 8 "<built-in>"
ARM GAS  C:\Users\Mxuan\AppData\Local\Temp\ccCIb4EQ.s 			page 51

