ARM GAS  C:\Users\Mxuan\AppData\Local\Temp\ccO4EUdW.s 			page 1


   1              		.cpu cortex-m4
   2              		.arch armv7e-m
   3              		.fpu softvfp
   4              		.eabi_attribute 20, 1
   5              		.eabi_attribute 21, 1
   6              		.eabi_attribute 23, 3
   7              		.eabi_attribute 24, 1
   8              		.eabi_attribute 25, 1
   9              		.eabi_attribute 26, 1
  10              		.eabi_attribute 30, 1
  11              		.eabi_attribute 34, 1
  12              		.eabi_attribute 18, 4
  13              		.file	"lib_tick.c"
  14              		.text
  15              	.Ltext0:
  16              		.cfi_sections	.debug_frame
  17              		.file 1 "Libraries/ctrl_sdk/src/lib_tick.c"
  18              		.section	.text.lib_update_clock,"ax",%progbits
  19              		.align	1
  20              		.global	lib_update_clock
  21              		.syntax unified
  22              		.thumb
  23              		.thumb_func
  25              	lib_update_clock:
  26              	.LVL0:
  27              	.LFB0:
   1:Libraries/ctrl_sdk/src/lib_tick.c **** /* Includes ------------------------------------------------------------------*/
   2:Libraries/ctrl_sdk/src/lib_tick.c **** #include "lib_tick.h"
   3:Libraries/ctrl_sdk/src/lib_tick.c **** /* Private define ------------------------------------------------------------*/
   4:Libraries/ctrl_sdk/src/lib_tick.c **** /* Private macro -------------------------------------------------------------*/
   5:Libraries/ctrl_sdk/src/lib_tick.c **** /* Private typedef -----------------------------------------------------------*/
   6:Libraries/ctrl_sdk/src/lib_tick.c **** /* Private variables ---------------------------------------------------------*/
   7:Libraries/ctrl_sdk/src/lib_tick.c **** static uint32_t lib_millis = 0;
   8:Libraries/ctrl_sdk/src/lib_tick.c **** /* Private function prototypes -----------------------------------------------*/
   9:Libraries/ctrl_sdk/src/lib_tick.c **** /* Private functions ---------------------------------------------------------*/
  10:Libraries/ctrl_sdk/src/lib_tick.c **** void lib_update_clock(uint32_t ms)
  11:Libraries/ctrl_sdk/src/lib_tick.c **** {
  28              		.loc 1 11 1 view -0
  29              		.cfi_startproc
  30              		@ args = 0, pretend = 0, frame = 0
  31              		@ frame_needed = 0, uses_anonymous_args = 0
  32              		@ link register save eliminated.
  12:Libraries/ctrl_sdk/src/lib_tick.c **** 	lib_millis += ms;
  33              		.loc 1 12 2 view .LVU1
  34              		.loc 1 12 13 is_stmt 0 view .LVU2
  35 0000 024A     		ldr	r2, .L2
  36 0002 1368     		ldr	r3, [r2]
  37 0004 0344     		add	r3, r3, r0
  38 0006 1360     		str	r3, [r2]
  13:Libraries/ctrl_sdk/src/lib_tick.c **** }
  39              		.loc 1 13 1 view .LVU3
  40 0008 7047     		bx	lr
  41              	.L3:
  42 000a 00BF     		.align	2
  43              	.L2:
  44 000c 00000000 		.word	lib_millis
  45              		.cfi_endproc
ARM GAS  C:\Users\Mxuan\AppData\Local\Temp\ccO4EUdW.s 			page 2


  46              	.LFE0:
  48              		.section	.text.lib_get_millis,"ax",%progbits
  49              		.align	1
  50              		.global	lib_get_millis
  51              		.syntax unified
  52              		.thumb
  53              		.thumb_func
  55              	lib_get_millis:
  56              	.LFB1:
  14:Libraries/ctrl_sdk/src/lib_tick.c **** 
  15:Libraries/ctrl_sdk/src/lib_tick.c **** uint32_t lib_get_millis(void)
  16:Libraries/ctrl_sdk/src/lib_tick.c **** {
  57              		.loc 1 16 1 is_stmt 1 view -0
  58              		.cfi_startproc
  59              		@ args = 0, pretend = 0, frame = 0
  60              		@ frame_needed = 0, uses_anonymous_args = 0
  61              		@ link register save eliminated.
  17:Libraries/ctrl_sdk/src/lib_tick.c **** 	return lib_millis;
  62              		.loc 1 17 2 view .LVU5
  18:Libraries/ctrl_sdk/src/lib_tick.c **** }
  63              		.loc 1 18 1 is_stmt 0 view .LVU6
  64 0000 014B     		ldr	r3, .L5
  65 0002 1868     		ldr	r0, [r3]
  66 0004 7047     		bx	lr
  67              	.L6:
  68 0006 00BF     		.align	2
  69              	.L5:
  70 0008 00000000 		.word	lib_millis
  71              		.cfi_endproc
  72              	.LFE1:
  74              		.section	.text.lib_get_tick,"ax",%progbits
  75              		.align	1
  76              		.global	lib_get_tick
  77              		.syntax unified
  78              		.thumb
  79              		.thumb_func
  81              	lib_get_tick:
  82              	.LFB2:
  19:Libraries/ctrl_sdk/src/lib_tick.c **** 
  20:Libraries/ctrl_sdk/src/lib_tick.c **** uint32_t lib_get_tick(void)
  21:Libraries/ctrl_sdk/src/lib_tick.c **** {
  83              		.loc 1 21 1 is_stmt 1 view -0
  84              		.cfi_startproc
  85              		@ args = 0, pretend = 0, frame = 0
  86              		@ frame_needed = 0, uses_anonymous_args = 0
  87              		@ link register save eliminated.
  22:Libraries/ctrl_sdk/src/lib_tick.c **** 	return 0;
  88              		.loc 1 22 2 view .LVU8
  23:Libraries/ctrl_sdk/src/lib_tick.c **** }
  89              		.loc 1 23 1 is_stmt 0 view .LVU9
  90 0000 0020     		movs	r0, #0
  91 0002 7047     		bx	lr
  92              		.cfi_endproc
  93              	.LFE2:
  95              		.section	.bss.lib_millis,"aw",%nobits
  96              		.align	2
  99              	lib_millis:
ARM GAS  C:\Users\Mxuan\AppData\Local\Temp\ccO4EUdW.s 			page 3


 100 0000 00000000 		.space	4
 101              		.text
 102              	.Letext0:
 103              		.file 2 "d:\\_environment\\arm-gnu-toolchain\\arm-none-eabi\\include\\machine\\_default_types.h"
 104              		.file 3 "d:\\_environment\\arm-gnu-toolchain\\arm-none-eabi\\include\\sys\\_stdint.h"
ARM GAS  C:\Users\Mxuan\AppData\Local\Temp\ccO4EUdW.s 			page 4

