ARM GAS  C:\Users\Mxuan\AppData\Local\Temp\ccfnFihP.s 			page 1


   1              		.cpu cortex-m4
   2              		.arch armv7e-m
   3              		.fpu softvfp
   4              		.eabi_attribute 20, 1
   5              		.eabi_attribute 21, 1
   6              		.eabi_attribute 23, 3
   7              		.eabi_attribute 24, 1
   8              		.eabi_attribute 25, 1
   9              		.eabi_attribute 26, 1
  10              		.eabi_attribute 30, 1
  11              		.eabi_attribute 34, 1
  12              		.eabi_attribute 18, 4
  13              		.file	"MPU6050.c"
  14              		.text
  15              	.Ltext0:
  16              		.cfi_sections	.debug_frame
  17              		.file 1 "Libraries/ctrl_drv/i2c/mpu6050/MPU6050.c"
  18              		.section	.text.MPU6050,"ax",%progbits
  19              		.align	1
  20              		.global	MPU6050
  21              		.syntax unified
  22              		.thumb
  23              		.thumb_func
  25              	MPU6050:
  26              	.LVL0:
  27              	.LFB0:
   1:Libraries/ctrl_drv/i2c/mpu6050/MPU6050.c **** // I2Cdev library collection - MPU6050 I2C device class
   2:Libraries/ctrl_drv/i2c/mpu6050/MPU6050.c **** // Based on InvenSense MPU-6050 register map document rev. 2.0, 5/19/2011 (RM-MPU-6000A-00)
   3:Libraries/ctrl_drv/i2c/mpu6050/MPU6050.c **** // 8/24/2011 by Jeff Rowberg <jeff@rowberg.net>
   4:Libraries/ctrl_drv/i2c/mpu6050/MPU6050.c **** // 11/28/2014 by Marton Sebok <sebokmarton@gmail.com>
   5:Libraries/ctrl_drv/i2c/mpu6050/MPU6050.c **** //
   6:Libraries/ctrl_drv/i2c/mpu6050/MPU6050.c **** // Updates should (hopefully) always be available at https://github.com/jrowberg/i2cdevlib
   7:Libraries/ctrl_drv/i2c/mpu6050/MPU6050.c **** //
   8:Libraries/ctrl_drv/i2c/mpu6050/MPU6050.c **** // Changelog:
   9:Libraries/ctrl_drv/i2c/mpu6050/MPU6050.c **** //     ...        - ongoing debug release
  10:Libraries/ctrl_drv/i2c/mpu6050/MPU6050.c **** //     2014-11-28 - ported to PIC18 peripheral library from Arduino code
  11:Libraries/ctrl_drv/i2c/mpu6050/MPU6050.c **** //     2017-03-28 - tested basic function on STM32
  12:Libraries/ctrl_drv/i2c/mpu6050/MPU6050.c **** 
  13:Libraries/ctrl_drv/i2c/mpu6050/MPU6050.c **** // NOTE: THIS IS ONLY A PARIAL RELEASE. THIS DEVICE CLASS IS CURRENTLY UNDERGOING ACTIVE
  14:Libraries/ctrl_drv/i2c/mpu6050/MPU6050.c **** // DEVELOPMENT AND IS STILL MISSING SOME IMPORTANT FEATURES. PLEASE KEEP THIS IN MIND IF
  15:Libraries/ctrl_drv/i2c/mpu6050/MPU6050.c **** // YOU DECIDE TO USE THIS PARTICULAR CODE FOR ANYTHING.
  16:Libraries/ctrl_drv/i2c/mpu6050/MPU6050.c **** 
  17:Libraries/ctrl_drv/i2c/mpu6050/MPU6050.c **** /* ============================================
  18:Libraries/ctrl_drv/i2c/mpu6050/MPU6050.c **** I2Cdev device library code is placed under the MIT license
  19:Libraries/ctrl_drv/i2c/mpu6050/MPU6050.c **** Copyright (c) 2012 Jeff Rowberg
  20:Libraries/ctrl_drv/i2c/mpu6050/MPU6050.c **** Copyright (c) 2014 Marton Sebok
  21:Libraries/ctrl_drv/i2c/mpu6050/MPU6050.c **** 
  22:Libraries/ctrl_drv/i2c/mpu6050/MPU6050.c **** Permission is hereby granted, free of charge, to any person obtaining a copy
  23:Libraries/ctrl_drv/i2c/mpu6050/MPU6050.c **** of this software and associated documentation files (the "Software"), to deal
  24:Libraries/ctrl_drv/i2c/mpu6050/MPU6050.c **** in the Software without restriction, including without limitation the rights
  25:Libraries/ctrl_drv/i2c/mpu6050/MPU6050.c **** to use, copy, modify, merge, publish, distribute, sublicense, and/or sell
  26:Libraries/ctrl_drv/i2c/mpu6050/MPU6050.c **** copies of the Software, and to permit persons to whom the Software is
  27:Libraries/ctrl_drv/i2c/mpu6050/MPU6050.c **** furnished to do so, subject to the following conditions:
  28:Libraries/ctrl_drv/i2c/mpu6050/MPU6050.c **** 
  29:Libraries/ctrl_drv/i2c/mpu6050/MPU6050.c **** The above copyright notice and this permission notice shall be included in
  30:Libraries/ctrl_drv/i2c/mpu6050/MPU6050.c **** all copies or substantial portions of the Software.
  31:Libraries/ctrl_drv/i2c/mpu6050/MPU6050.c **** 
ARM GAS  C:\Users\Mxuan\AppData\Local\Temp\ccfnFihP.s 			page 2


  32:Libraries/ctrl_drv/i2c/mpu6050/MPU6050.c **** THE SOFTWARE IS PROVIDED "AS IS", WITHOUT WARRANTY OF ANY KIND, EXPRESS OR
  33:Libraries/ctrl_drv/i2c/mpu6050/MPU6050.c **** IMPLIED, INCLUDING BUT NOT LIMITED TO THE WARRANTIES OF MERCHANTABILITY,
  34:Libraries/ctrl_drv/i2c/mpu6050/MPU6050.c **** FITNESS FOR A PARTICULAR PURPOSE AND NONINFRINGEMENT. IN NO EVENT SHALL THE
  35:Libraries/ctrl_drv/i2c/mpu6050/MPU6050.c **** AUTHORS OR COPYRIGHT HOLDERS BE LIABLE FOR ANY CLAIM, DAMAGES OR OTHER
  36:Libraries/ctrl_drv/i2c/mpu6050/MPU6050.c **** LIABILITY, WHETHER IN AN ACTION OF CONTRACT, TORT OR OTHERWISE, ARISING FROM,
  37:Libraries/ctrl_drv/i2c/mpu6050/MPU6050.c **** OUT OF OR IN CONNECTION WITH THE SOFTWARE OR THE USE OR OTHER DEALINGS IN
  38:Libraries/ctrl_drv/i2c/mpu6050/MPU6050.c **** THE SOFTWARE.
  39:Libraries/ctrl_drv/i2c/mpu6050/MPU6050.c **** ===============================================
  40:Libraries/ctrl_drv/i2c/mpu6050/MPU6050.c **** */
  41:Libraries/ctrl_drv/i2c/mpu6050/MPU6050.c **** 
  42:Libraries/ctrl_drv/i2c/mpu6050/MPU6050.c **** #include "MPU6050.h"
  43:Libraries/ctrl_drv/i2c/mpu6050/MPU6050.c **** 
  44:Libraries/ctrl_drv/i2c/mpu6050/MPU6050.c **** 
  45:Libraries/ctrl_drv/i2c/mpu6050/MPU6050.c **** typedef struct MPU6050_t {
  46:Libraries/ctrl_drv/i2c/mpu6050/MPU6050.c ****     uint8_t devAddr;
  47:Libraries/ctrl_drv/i2c/mpu6050/MPU6050.c ****     uint8_t buffer[14];
  48:Libraries/ctrl_drv/i2c/mpu6050/MPU6050.c ****     float accRangeScale;
  49:Libraries/ctrl_drv/i2c/mpu6050/MPU6050.c ****     float gyroRangeScale;
  50:Libraries/ctrl_drv/i2c/mpu6050/MPU6050.c **** } MPU6050_t;
  51:Libraries/ctrl_drv/i2c/mpu6050/MPU6050.c **** 
  52:Libraries/ctrl_drv/i2c/mpu6050/MPU6050.c **** static MPU6050_t mpu6050;
  53:Libraries/ctrl_drv/i2c/mpu6050/MPU6050.c **** 
  54:Libraries/ctrl_drv/i2c/mpu6050/MPU6050.c **** /** Specific address constructor.
  55:Libraries/ctrl_drv/i2c/mpu6050/MPU6050.c ****  * @param address I2C address
  56:Libraries/ctrl_drv/i2c/mpu6050/MPU6050.c ****  * @see MPU6050_DEFAULT_ADDRESS
  57:Libraries/ctrl_drv/i2c/mpu6050/MPU6050.c ****  * @see MPU6050_ADDRESS_AD0_LOW
  58:Libraries/ctrl_drv/i2c/mpu6050/MPU6050.c ****  * @see MPU6050_ADDRESS_AD0_HIGH
  59:Libraries/ctrl_drv/i2c/mpu6050/MPU6050.c ****  */
  60:Libraries/ctrl_drv/i2c/mpu6050/MPU6050.c **** void MPU6050(uint8_t address) {
  28              		.loc 1 60 31 view -0
  29              		.cfi_startproc
  30              		@ args = 0, pretend = 0, frame = 0
  31              		@ frame_needed = 0, uses_anonymous_args = 0
  32              		@ link register save eliminated.
  61:Libraries/ctrl_drv/i2c/mpu6050/MPU6050.c ****     mpu6050.devAddr = address;
  33              		.loc 1 61 5 view .LVU1
  34              		.loc 1 61 21 is_stmt 0 view .LVU2
  35 0000 014B     		ldr	r3, .L2
  36 0002 1870     		strb	r0, [r3]
  62:Libraries/ctrl_drv/i2c/mpu6050/MPU6050.c **** }
  37              		.loc 1 62 1 view .LVU3
  38 0004 7047     		bx	lr
  39              	.L3:
  40 0006 00BF     		.align	2
  41              	.L2:
  42 0008 00000000 		.word	mpu6050
  43              		.cfi_endproc
  44              	.LFE0:
  46              		.section	.text.MPU6050_getAuxVDDIOLevel,"ax",%progbits
  47              		.align	1
  48              		.global	MPU6050_getAuxVDDIOLevel
  49              		.syntax unified
  50              		.thumb
  51              		.thumb_func
  53              	MPU6050_getAuxVDDIOLevel:
  54              	.LFB3:
  63:Libraries/ctrl_drv/i2c/mpu6050/MPU6050.c **** 
ARM GAS  C:\Users\Mxuan\AppData\Local\Temp\ccfnFihP.s 			page 3


  64:Libraries/ctrl_drv/i2c/mpu6050/MPU6050.c **** /** Power on and prepare for general usage.
  65:Libraries/ctrl_drv/i2c/mpu6050/MPU6050.c ****  * This will activate the device and take it out of sleep mode (which must be done
  66:Libraries/ctrl_drv/i2c/mpu6050/MPU6050.c ****  * after start-up). This function also sets both the accelerometer and the gyroscope
  67:Libraries/ctrl_drv/i2c/mpu6050/MPU6050.c ****  * to their most sensitive settings, namely +/- 2g and +/- 250 degrees/sec, and sets
  68:Libraries/ctrl_drv/i2c/mpu6050/MPU6050.c ****  * the clock source to use the X Gyro for reference, which is slightly better than
  69:Libraries/ctrl_drv/i2c/mpu6050/MPU6050.c ****  * the default internal clock source.
  70:Libraries/ctrl_drv/i2c/mpu6050/MPU6050.c ****  */
  71:Libraries/ctrl_drv/i2c/mpu6050/MPU6050.c **** void MPU6050_initialize() {
  72:Libraries/ctrl_drv/i2c/mpu6050/MPU6050.c ****     MPU6050(MPU6050_DEFAULT_ADDRESS);
  73:Libraries/ctrl_drv/i2c/mpu6050/MPU6050.c ****     MPU6050_setSleepEnabled(false);         // thanks to Jack Elston for pointing this one out!
  74:Libraries/ctrl_drv/i2c/mpu6050/MPU6050.c ****     MPU6050_setClockSource(MPU6050_CLOCK_PLL_XGYRO);
  75:Libraries/ctrl_drv/i2c/mpu6050/MPU6050.c ****     MPU6050_setFullScaleGyroRange(MPU6050_GYRO_FS_250);
  76:Libraries/ctrl_drv/i2c/mpu6050/MPU6050.c ****     MPU6050_setFullScaleAccelRange(MPU6050_ACCEL_FS_2);
  77:Libraries/ctrl_drv/i2c/mpu6050/MPU6050.c ****     MPU6050_setDLPFMode(MPU6050_DLPF_BW_98);
  78:Libraries/ctrl_drv/i2c/mpu6050/MPU6050.c ****     MPU6050_setI2CMasterModeEnabled(0);	    // ‰∏çËÆ©MPU6050 ÊéßÂà∂AUXI2C
  79:Libraries/ctrl_drv/i2c/mpu6050/MPU6050.c ****     // MPU6050_setI2CBypassEnabled(0);	        // ‰∏ªÊéßÂà∂Âô®ÁöÑI2C‰∏éMPU6050ÁöÑAUXI2C	Áõ¥ÈÄö„ÄÇÊé
  80:Libraries/ctrl_drv/i2c/mpu6050/MPU6050.c **** }
  81:Libraries/ctrl_drv/i2c/mpu6050/MPU6050.c **** 
  82:Libraries/ctrl_drv/i2c/mpu6050/MPU6050.c **** /** Verify the I2C connection.
  83:Libraries/ctrl_drv/i2c/mpu6050/MPU6050.c ****  * Make sure the device is connected and responds as expected.
  84:Libraries/ctrl_drv/i2c/mpu6050/MPU6050.c ****  * @return True if connection is valid, false otherwise
  85:Libraries/ctrl_drv/i2c/mpu6050/MPU6050.c ****  */
  86:Libraries/ctrl_drv/i2c/mpu6050/MPU6050.c **** bool MPU6050_testConnection() {
  87:Libraries/ctrl_drv/i2c/mpu6050/MPU6050.c ****     uint8_t addr = MPU6050_getDeviceID();
  88:Libraries/ctrl_drv/i2c/mpu6050/MPU6050.c ****     _Bool i = addr == 0x68;
  89:Libraries/ctrl_drv/i2c/mpu6050/MPU6050.c ****     return i;
  90:Libraries/ctrl_drv/i2c/mpu6050/MPU6050.c **** }
  91:Libraries/ctrl_drv/i2c/mpu6050/MPU6050.c **** 
  92:Libraries/ctrl_drv/i2c/mpu6050/MPU6050.c **** // AUX_VDDIO register (InvenSense demo code calls this RA_*G_OFFS_TC)
  93:Libraries/ctrl_drv/i2c/mpu6050/MPU6050.c **** 
  94:Libraries/ctrl_drv/i2c/mpu6050/MPU6050.c **** /** Get the auxiliary I2C supply voltage level.
  95:Libraries/ctrl_drv/i2c/mpu6050/MPU6050.c ****  * When set to 1, the auxiliary I2C bus high logic level is VDD. When cleared to
  96:Libraries/ctrl_drv/i2c/mpu6050/MPU6050.c ****  * 0, the auxiliary I2C bus high logic level is VLOGIC. This does not apply to
  97:Libraries/ctrl_drv/i2c/mpu6050/MPU6050.c ****  * the MPU-6000, which does not have a VLOGIC pin.
  98:Libraries/ctrl_drv/i2c/mpu6050/MPU6050.c ****  * @return I2C supply voltage level (0=VLOGIC, 1=VDD)
  99:Libraries/ctrl_drv/i2c/mpu6050/MPU6050.c ****  */
 100:Libraries/ctrl_drv/i2c/mpu6050/MPU6050.c **** uint8_t MPU6050_getAuxVDDIOLevel() {
  55              		.loc 1 100 36 is_stmt 1 view -0
  56              		.cfi_startproc
  57              		@ args = 0, pretend = 0, frame = 0
  58              		@ frame_needed = 0, uses_anonymous_args = 0
  59 0000 10B5     		push	{r4, lr}
  60              	.LCFI0:
  61              		.cfi_def_cfa_offset 8
  62              		.cfi_offset 4, -8
  63              		.cfi_offset 14, -4
 101:Libraries/ctrl_drv/i2c/mpu6050/MPU6050.c ****     I2Cdev_readBit(mpu6050.devAddr, MPU6050_RA_YG_OFFS_TC, MPU6050_TC_PWR_MODE_BIT, mpu6050.buffer)
  64              		.loc 1 101 5 view .LVU5
  65 0002 054B     		ldr	r3, .L6
  66 0004 5C1E     		subs	r4, r3, #1
  67 0006 0722     		movs	r2, #7
  68 0008 0121     		movs	r1, #1
  69 000a 13F8010C 		ldrb	r0, [r3, #-1]	@ zero_extendqisi2
  70 000e FFF7FEFF 		bl	I2Cdev_readBit
  71              	.LVL1:
 102:Libraries/ctrl_drv/i2c/mpu6050/MPU6050.c ****     return mpu6050.buffer[0];
  72              		.loc 1 102 5 view .LVU6
ARM GAS  C:\Users\Mxuan\AppData\Local\Temp\ccfnFihP.s 			page 4


 103:Libraries/ctrl_drv/i2c/mpu6050/MPU6050.c **** }
  73              		.loc 1 103 1 is_stmt 0 view .LVU7
  74 0012 6078     		ldrb	r0, [r4, #1]	@ zero_extendqisi2
  75 0014 10BD     		pop	{r4, pc}
  76              	.L7:
  77 0016 00BF     		.align	2
  78              	.L6:
  79 0018 01000000 		.word	mpu6050+1
  80              		.cfi_endproc
  81              	.LFE3:
  83              		.section	.text.MPU6050_setAuxVDDIOLevel,"ax",%progbits
  84              		.align	1
  85              		.global	MPU6050_setAuxVDDIOLevel
  86              		.syntax unified
  87              		.thumb
  88              		.thumb_func
  90              	MPU6050_setAuxVDDIOLevel:
  91              	.LVL2:
  92              	.LFB4:
 104:Libraries/ctrl_drv/i2c/mpu6050/MPU6050.c **** /** Set the auxiliary I2C supply voltage level.
 105:Libraries/ctrl_drv/i2c/mpu6050/MPU6050.c ****  * When set to 1, the auxiliary I2C bus high logic level is VDD. When cleared to
 106:Libraries/ctrl_drv/i2c/mpu6050/MPU6050.c ****  * 0, the auxiliary I2C bus high logic level is VLOGIC. This does not apply to
 107:Libraries/ctrl_drv/i2c/mpu6050/MPU6050.c ****  * the MPU-6000, which does not have a VLOGIC pin.
 108:Libraries/ctrl_drv/i2c/mpu6050/MPU6050.c ****  * @param level I2C supply voltage level (0=VLOGIC, 1=VDD)
 109:Libraries/ctrl_drv/i2c/mpu6050/MPU6050.c ****  */
 110:Libraries/ctrl_drv/i2c/mpu6050/MPU6050.c **** void MPU6050_setAuxVDDIOLevel(uint8_t level) {
  93              		.loc 1 110 46 is_stmt 1 view -0
  94              		.cfi_startproc
  95              		@ args = 0, pretend = 0, frame = 0
  96              		@ frame_needed = 0, uses_anonymous_args = 0
  97              		.loc 1 110 46 is_stmt 0 view .LVU9
  98 0000 08B5     		push	{r3, lr}
  99              	.LCFI1:
 100              		.cfi_def_cfa_offset 8
 101              		.cfi_offset 3, -8
 102              		.cfi_offset 14, -4
 103 0002 0346     		mov	r3, r0
 111:Libraries/ctrl_drv/i2c/mpu6050/MPU6050.c ****     I2Cdev_writeBit(mpu6050.devAddr, MPU6050_RA_YG_OFFS_TC, MPU6050_TC_PWR_MODE_BIT, level);
 104              		.loc 1 111 5 is_stmt 1 view .LVU10
 105 0004 0722     		movs	r2, #7
 106 0006 0121     		movs	r1, #1
 107 0008 0248     		ldr	r0, .L10
 108              	.LVL3:
 109              		.loc 1 111 5 is_stmt 0 view .LVU11
 110 000a 0078     		ldrb	r0, [r0]	@ zero_extendqisi2
 111 000c FFF7FEFF 		bl	I2Cdev_writeBit
 112              	.LVL4:
 112:Libraries/ctrl_drv/i2c/mpu6050/MPU6050.c **** }
 113              		.loc 1 112 1 view .LVU12
 114 0010 08BD     		pop	{r3, pc}
 115              	.L11:
 116 0012 00BF     		.align	2
 117              	.L10:
 118 0014 00000000 		.word	mpu6050
 119              		.cfi_endproc
 120              	.LFE4:
 122              		.section	.text.MPU6050_getRate,"ax",%progbits
ARM GAS  C:\Users\Mxuan\AppData\Local\Temp\ccfnFihP.s 			page 5


 123              		.align	1
 124              		.global	MPU6050_getRate
 125              		.syntax unified
 126              		.thumb
 127              		.thumb_func
 129              	MPU6050_getRate:
 130              	.LFB5:
 113:Libraries/ctrl_drv/i2c/mpu6050/MPU6050.c **** 
 114:Libraries/ctrl_drv/i2c/mpu6050/MPU6050.c **** // SMPLRT_DIV register
 115:Libraries/ctrl_drv/i2c/mpu6050/MPU6050.c **** 
 116:Libraries/ctrl_drv/i2c/mpu6050/MPU6050.c **** /** Get gyroscope output rate divider.
 117:Libraries/ctrl_drv/i2c/mpu6050/MPU6050.c ****  * The sensor register output, FIFO output, DMP sampling, Motion detection, Zero
 118:Libraries/ctrl_drv/i2c/mpu6050/MPU6050.c ****  * Motion detection, and Free Fall detection are all based on the Sample Rate.
 119:Libraries/ctrl_drv/i2c/mpu6050/MPU6050.c ****  * The Sample Rate is generated by dividing the gyroscope output rate by
 120:Libraries/ctrl_drv/i2c/mpu6050/MPU6050.c ****  * SMPLRT_DIV:
 121:Libraries/ctrl_drv/i2c/mpu6050/MPU6050.c ****  *
 122:Libraries/ctrl_drv/i2c/mpu6050/MPU6050.c ****  * Sample Rate = Gyroscope Output Rate / (1 + SMPLRT_DIV)
 123:Libraries/ctrl_drv/i2c/mpu6050/MPU6050.c ****  *
 124:Libraries/ctrl_drv/i2c/mpu6050/MPU6050.c ****  * where Gyroscope Output Rate = 8kHz when the DLPF is disabled (DLPF_CFG = 0 or
 125:Libraries/ctrl_drv/i2c/mpu6050/MPU6050.c ****  * 7), and 1kHz when the DLPF is enabled (see Register 26).
 126:Libraries/ctrl_drv/i2c/mpu6050/MPU6050.c ****  *
 127:Libraries/ctrl_drv/i2c/mpu6050/MPU6050.c ****  * Note: The accelerometer output rate is 1kHz. This means that for a Sample
 128:Libraries/ctrl_drv/i2c/mpu6050/MPU6050.c ****  * Rate greater than 1kHz, the same accelerometer sample may be output to the
 129:Libraries/ctrl_drv/i2c/mpu6050/MPU6050.c ****  * FIFO, DMP, and sensor registers more than once.
 130:Libraries/ctrl_drv/i2c/mpu6050/MPU6050.c ****  *
 131:Libraries/ctrl_drv/i2c/mpu6050/MPU6050.c ****  * For a diagram of the gyroscope and accelerometer signal paths, see Section 8
 132:Libraries/ctrl_drv/i2c/mpu6050/MPU6050.c ****  * of the MPU-6000/MPU-6050 Product Specification document.
 133:Libraries/ctrl_drv/i2c/mpu6050/MPU6050.c ****  *
 134:Libraries/ctrl_drv/i2c/mpu6050/MPU6050.c ****  * @return Current sample rate
 135:Libraries/ctrl_drv/i2c/mpu6050/MPU6050.c ****  * @see MPU6050_RA_SMPLRT_DIV
 136:Libraries/ctrl_drv/i2c/mpu6050/MPU6050.c ****  */
 137:Libraries/ctrl_drv/i2c/mpu6050/MPU6050.c **** uint8_t MPU6050_getRate() {
 131              		.loc 1 137 27 is_stmt 1 view -0
 132              		.cfi_startproc
 133              		@ args = 0, pretend = 0, frame = 0
 134              		@ frame_needed = 0, uses_anonymous_args = 0
 135 0000 10B5     		push	{r4, lr}
 136              	.LCFI2:
 137              		.cfi_def_cfa_offset 8
 138              		.cfi_offset 4, -8
 139              		.cfi_offset 14, -4
 138:Libraries/ctrl_drv/i2c/mpu6050/MPU6050.c ****     I2Cdev_readByte(mpu6050.devAddr, MPU6050_RA_SMPLRT_DIV, mpu6050.buffer);
 140              		.loc 1 138 5 view .LVU14
 141 0002 044A     		ldr	r2, .L14
 142 0004 541E     		subs	r4, r2, #1
 143 0006 1921     		movs	r1, #25
 144 0008 12F8010C 		ldrb	r0, [r2, #-1]	@ zero_extendqisi2
 145 000c FFF7FEFF 		bl	I2Cdev_readByte
 146              	.LVL5:
 139:Libraries/ctrl_drv/i2c/mpu6050/MPU6050.c ****     return mpu6050.buffer[0];
 147              		.loc 1 139 5 view .LVU15
 140:Libraries/ctrl_drv/i2c/mpu6050/MPU6050.c **** }
 148              		.loc 1 140 1 is_stmt 0 view .LVU16
 149 0010 6078     		ldrb	r0, [r4, #1]	@ zero_extendqisi2
 150 0012 10BD     		pop	{r4, pc}
 151              	.L15:
 152              		.align	2
ARM GAS  C:\Users\Mxuan\AppData\Local\Temp\ccfnFihP.s 			page 6


 153              	.L14:
 154 0014 01000000 		.word	mpu6050+1
 155              		.cfi_endproc
 156              	.LFE5:
 158              		.section	.text.MPU6050_setRate,"ax",%progbits
 159              		.align	1
 160              		.global	MPU6050_setRate
 161              		.syntax unified
 162              		.thumb
 163              		.thumb_func
 165              	MPU6050_setRate:
 166              	.LVL6:
 167              	.LFB6:
 141:Libraries/ctrl_drv/i2c/mpu6050/MPU6050.c **** /** Set gyroscope sample rate divider.
 142:Libraries/ctrl_drv/i2c/mpu6050/MPU6050.c ****  * @param rate New sample rate divider
 143:Libraries/ctrl_drv/i2c/mpu6050/MPU6050.c ****  * @see getRate()
 144:Libraries/ctrl_drv/i2c/mpu6050/MPU6050.c ****  * @see MPU6050_RA_SMPLRT_DIV
 145:Libraries/ctrl_drv/i2c/mpu6050/MPU6050.c ****  */
 146:Libraries/ctrl_drv/i2c/mpu6050/MPU6050.c **** void MPU6050_setRate(uint8_t rate) {
 168              		.loc 1 146 36 is_stmt 1 view -0
 169              		.cfi_startproc
 170              		@ args = 0, pretend = 0, frame = 0
 171              		@ frame_needed = 0, uses_anonymous_args = 0
 172              		.loc 1 146 36 is_stmt 0 view .LVU18
 173 0000 08B5     		push	{r3, lr}
 174              	.LCFI3:
 175              		.cfi_def_cfa_offset 8
 176              		.cfi_offset 3, -8
 177              		.cfi_offset 14, -4
 178 0002 0246     		mov	r2, r0
 147:Libraries/ctrl_drv/i2c/mpu6050/MPU6050.c ****     I2Cdev_writeByte(mpu6050.devAddr, MPU6050_RA_SMPLRT_DIV, rate);
 179              		.loc 1 147 5 is_stmt 1 view .LVU19
 180 0004 1921     		movs	r1, #25
 181 0006 024B     		ldr	r3, .L18
 182 0008 1878     		ldrb	r0, [r3]	@ zero_extendqisi2
 183              	.LVL7:
 184              		.loc 1 147 5 is_stmt 0 view .LVU20
 185 000a FFF7FEFF 		bl	I2Cdev_writeByte
 186              	.LVL8:
 148:Libraries/ctrl_drv/i2c/mpu6050/MPU6050.c **** }
 187              		.loc 1 148 1 view .LVU21
 188 000e 08BD     		pop	{r3, pc}
 189              	.L19:
 190              		.align	2
 191              	.L18:
 192 0010 00000000 		.word	mpu6050
 193              		.cfi_endproc
 194              	.LFE6:
 196              		.section	.text.MPU6050_getExternalFrameSync,"ax",%progbits
 197              		.align	1
 198              		.global	MPU6050_getExternalFrameSync
 199              		.syntax unified
 200              		.thumb
 201              		.thumb_func
 203              	MPU6050_getExternalFrameSync:
 204              	.LFB7:
 149:Libraries/ctrl_drv/i2c/mpu6050/MPU6050.c **** 
ARM GAS  C:\Users\Mxuan\AppData\Local\Temp\ccfnFihP.s 			page 7


 150:Libraries/ctrl_drv/i2c/mpu6050/MPU6050.c **** // CONFIG register
 151:Libraries/ctrl_drv/i2c/mpu6050/MPU6050.c **** 
 152:Libraries/ctrl_drv/i2c/mpu6050/MPU6050.c **** /** Get external FSYNC configuration.
 153:Libraries/ctrl_drv/i2c/mpu6050/MPU6050.c ****  * Configures the external Frame Synchronization (FSYNC) pin sampling. An
 154:Libraries/ctrl_drv/i2c/mpu6050/MPU6050.c ****  * external signal connected to the FSYNC pin can be sampled by configuring
 155:Libraries/ctrl_drv/i2c/mpu6050/MPU6050.c ****  * EXT_SYNC_SET. Signal changes to the FSYNC pin are latched so that short
 156:Libraries/ctrl_drv/i2c/mpu6050/MPU6050.c ****  * strobes may be captured. The latched FSYNC signal will be sampled at the
 157:Libraries/ctrl_drv/i2c/mpu6050/MPU6050.c ****  * Sampling Rate, as defined in register 25. After sampling, the latch will
 158:Libraries/ctrl_drv/i2c/mpu6050/MPU6050.c ****  * reset to the current FSYNC signal state.
 159:Libraries/ctrl_drv/i2c/mpu6050/MPU6050.c ****  *
 160:Libraries/ctrl_drv/i2c/mpu6050/MPU6050.c ****  * The sampled value will be reported in place of the least significant bit in
 161:Libraries/ctrl_drv/i2c/mpu6050/MPU6050.c ****  * a sensor data register determined by the value of EXT_SYNC_SET according to
 162:Libraries/ctrl_drv/i2c/mpu6050/MPU6050.c ****  * the following table.
 163:Libraries/ctrl_drv/i2c/mpu6050/MPU6050.c ****  *
 164:Libraries/ctrl_drv/i2c/mpu6050/MPU6050.c ****  * <pre>
 165:Libraries/ctrl_drv/i2c/mpu6050/MPU6050.c ****  * EXT_SYNC_SET | FSYNC Bit Location
 166:Libraries/ctrl_drv/i2c/mpu6050/MPU6050.c ****  * -------------+-------------------
 167:Libraries/ctrl_drv/i2c/mpu6050/MPU6050.c ****  * 0            | Input disabled
 168:Libraries/ctrl_drv/i2c/mpu6050/MPU6050.c ****  * 1            | TEMP_OUT_L[0]
 169:Libraries/ctrl_drv/i2c/mpu6050/MPU6050.c ****  * 2            | GYRO_XOUT_L[0]
 170:Libraries/ctrl_drv/i2c/mpu6050/MPU6050.c ****  * 3            | GYRO_YOUT_L[0]
 171:Libraries/ctrl_drv/i2c/mpu6050/MPU6050.c ****  * 4            | GYRO_ZOUT_L[0]
 172:Libraries/ctrl_drv/i2c/mpu6050/MPU6050.c ****  * 5            | ACCEL_XOUT_L[0]
 173:Libraries/ctrl_drv/i2c/mpu6050/MPU6050.c ****  * 6            | ACCEL_YOUT_L[0]
 174:Libraries/ctrl_drv/i2c/mpu6050/MPU6050.c ****  * 7            | ACCEL_ZOUT_L[0]
 175:Libraries/ctrl_drv/i2c/mpu6050/MPU6050.c ****  * </pre>
 176:Libraries/ctrl_drv/i2c/mpu6050/MPU6050.c ****  *
 177:Libraries/ctrl_drv/i2c/mpu6050/MPU6050.c ****  * @return FSYNC configuration value
 178:Libraries/ctrl_drv/i2c/mpu6050/MPU6050.c ****  */
 179:Libraries/ctrl_drv/i2c/mpu6050/MPU6050.c **** uint8_t MPU6050_getExternalFrameSync() {
 205              		.loc 1 179 40 is_stmt 1 view -0
 206              		.cfi_startproc
 207              		@ args = 0, pretend = 0, frame = 0
 208              		@ frame_needed = 0, uses_anonymous_args = 0
 209 0000 10B5     		push	{r4, lr}
 210              	.LCFI4:
 211              		.cfi_def_cfa_offset 8
 212              		.cfi_offset 4, -8
 213              		.cfi_offset 14, -4
 214 0002 82B0     		sub	sp, sp, #8
 215              	.LCFI5:
 216              		.cfi_def_cfa_offset 16
 180:Libraries/ctrl_drv/i2c/mpu6050/MPU6050.c ****     I2Cdev_readBits(mpu6050.devAddr, MPU6050_RA_CONFIG, MPU6050_CFG_EXT_SYNC_SET_BIT, MPU6050_CFG_E
 217              		.loc 1 180 5 view .LVU23
 218 0004 064C     		ldr	r4, .L22
 219 0006 2346     		mov	r3, r4
 220 0008 13F8010B 		ldrb	r0, [r3], #1	@ zero_extendqisi2
 221 000c 0093     		str	r3, [sp]
 222 000e 0323     		movs	r3, #3
 223 0010 0522     		movs	r2, #5
 224 0012 1A21     		movs	r1, #26
 225 0014 FFF7FEFF 		bl	I2Cdev_readBits
 226              	.LVL9:
 181:Libraries/ctrl_drv/i2c/mpu6050/MPU6050.c ****     return mpu6050.buffer[0];
 227              		.loc 1 181 5 view .LVU24
 182:Libraries/ctrl_drv/i2c/mpu6050/MPU6050.c **** }
 228              		.loc 1 182 1 is_stmt 0 view .LVU25
ARM GAS  C:\Users\Mxuan\AppData\Local\Temp\ccfnFihP.s 			page 8


 229 0018 6078     		ldrb	r0, [r4, #1]	@ zero_extendqisi2
 230 001a 02B0     		add	sp, sp, #8
 231              	.LCFI6:
 232              		.cfi_def_cfa_offset 8
 233              		@ sp needed
 234 001c 10BD     		pop	{r4, pc}
 235              	.L23:
 236 001e 00BF     		.align	2
 237              	.L22:
 238 0020 00000000 		.word	mpu6050
 239              		.cfi_endproc
 240              	.LFE7:
 242              		.section	.text.MPU6050_setExternalFrameSync,"ax",%progbits
 243              		.align	1
 244              		.global	MPU6050_setExternalFrameSync
 245              		.syntax unified
 246              		.thumb
 247              		.thumb_func
 249              	MPU6050_setExternalFrameSync:
 250              	.LVL10:
 251              	.LFB8:
 183:Libraries/ctrl_drv/i2c/mpu6050/MPU6050.c **** /** Set external FSYNC configuration.
 184:Libraries/ctrl_drv/i2c/mpu6050/MPU6050.c ****  * @see getExternalFrameSync()
 185:Libraries/ctrl_drv/i2c/mpu6050/MPU6050.c ****  * @see MPU6050_RA_CONFIG
 186:Libraries/ctrl_drv/i2c/mpu6050/MPU6050.c ****  * @param sync New FSYNC configuration value
 187:Libraries/ctrl_drv/i2c/mpu6050/MPU6050.c ****  */
 188:Libraries/ctrl_drv/i2c/mpu6050/MPU6050.c **** void MPU6050_setExternalFrameSync(uint8_t sync) {
 252              		.loc 1 188 49 is_stmt 1 view -0
 253              		.cfi_startproc
 254              		@ args = 0, pretend = 0, frame = 0
 255              		@ frame_needed = 0, uses_anonymous_args = 0
 256              		.loc 1 188 49 is_stmt 0 view .LVU27
 257 0000 00B5     		push	{lr}
 258              	.LCFI7:
 259              		.cfi_def_cfa_offset 4
 260              		.cfi_offset 14, -4
 261 0002 83B0     		sub	sp, sp, #12
 262              	.LCFI8:
 263              		.cfi_def_cfa_offset 16
 189:Libraries/ctrl_drv/i2c/mpu6050/MPU6050.c ****     I2Cdev_writeBits(mpu6050.devAddr, MPU6050_RA_CONFIG, MPU6050_CFG_EXT_SYNC_SET_BIT, MPU6050_CFG_
 264              		.loc 1 189 5 is_stmt 1 view .LVU28
 265 0004 0090     		str	r0, [sp]
 266 0006 0323     		movs	r3, #3
 267 0008 0522     		movs	r2, #5
 268 000a 1A21     		movs	r1, #26
 269 000c 0348     		ldr	r0, .L26
 270              	.LVL11:
 271              		.loc 1 189 5 is_stmt 0 view .LVU29
 272 000e 0078     		ldrb	r0, [r0]	@ zero_extendqisi2
 273 0010 FFF7FEFF 		bl	I2Cdev_writeBits
 274              	.LVL12:
 190:Libraries/ctrl_drv/i2c/mpu6050/MPU6050.c **** }
 275              		.loc 1 190 1 view .LVU30
 276 0014 03B0     		add	sp, sp, #12
 277              	.LCFI9:
 278              		.cfi_def_cfa_offset 4
 279              		@ sp needed
ARM GAS  C:\Users\Mxuan\AppData\Local\Temp\ccfnFihP.s 			page 9


 280 0016 5DF804FB 		ldr	pc, [sp], #4
 281              	.L27:
 282 001a 00BF     		.align	2
 283              	.L26:
 284 001c 00000000 		.word	mpu6050
 285              		.cfi_endproc
 286              	.LFE8:
 288              		.section	.text.MPU6050_getDLPFMode,"ax",%progbits
 289              		.align	1
 290              		.global	MPU6050_getDLPFMode
 291              		.syntax unified
 292              		.thumb
 293              		.thumb_func
 295              	MPU6050_getDLPFMode:
 296              	.LFB9:
 191:Libraries/ctrl_drv/i2c/mpu6050/MPU6050.c **** /** Get digital low-pass filter configuration.
 192:Libraries/ctrl_drv/i2c/mpu6050/MPU6050.c ****  * The DLPF_CFG parameter sets the digital low pass filter configuration. It
 193:Libraries/ctrl_drv/i2c/mpu6050/MPU6050.c ****  * also determines the internal sampling rate used by the device as shown in
 194:Libraries/ctrl_drv/i2c/mpu6050/MPU6050.c ****  * the table below.
 195:Libraries/ctrl_drv/i2c/mpu6050/MPU6050.c ****  *
 196:Libraries/ctrl_drv/i2c/mpu6050/MPU6050.c ****  * Note: The accelerometer output rate is 1kHz. This means that for a Sample
 197:Libraries/ctrl_drv/i2c/mpu6050/MPU6050.c ****  * Rate greater than 1kHz, the same accelerometer sample may be output to the
 198:Libraries/ctrl_drv/i2c/mpu6050/MPU6050.c ****  * FIFO, DMP, and sensor registers more than once.
 199:Libraries/ctrl_drv/i2c/mpu6050/MPU6050.c ****  *
 200:Libraries/ctrl_drv/i2c/mpu6050/MPU6050.c ****  * <pre>
 201:Libraries/ctrl_drv/i2c/mpu6050/MPU6050.c ****  *          |   ACCELEROMETER    |           GYROSCOPE
 202:Libraries/ctrl_drv/i2c/mpu6050/MPU6050.c ****  * DLPF_CFG | Bandwidth | Delay  | Bandwidth | Delay  | Sample Rate
 203:Libraries/ctrl_drv/i2c/mpu6050/MPU6050.c ****  * ---------+-----------+--------+-----------+--------+-------------
 204:Libraries/ctrl_drv/i2c/mpu6050/MPU6050.c ****  * 0        | 260Hz     | 0ms    | 256Hz     | 0.98ms | 8kHz
 205:Libraries/ctrl_drv/i2c/mpu6050/MPU6050.c ****  * 1        | 184Hz     | 2.0ms  | 188Hz     | 1.9ms  | 1kHz
 206:Libraries/ctrl_drv/i2c/mpu6050/MPU6050.c ****  * 2        | 94Hz      | 3.0ms  | 98Hz      | 2.8ms  | 1kHz
 207:Libraries/ctrl_drv/i2c/mpu6050/MPU6050.c ****  * 3        | 44Hz      | 4.9ms  | 42Hz      | 4.8ms  | 1kHz
 208:Libraries/ctrl_drv/i2c/mpu6050/MPU6050.c ****  * 4        | 21Hz      | 8.5ms  | 20Hz      | 8.3ms  | 1kHz
 209:Libraries/ctrl_drv/i2c/mpu6050/MPU6050.c ****  * 5        | 10Hz      | 13.8ms | 10Hz      | 13.4ms | 1kHz
 210:Libraries/ctrl_drv/i2c/mpu6050/MPU6050.c ****  * 6        | 5Hz       | 19.0ms | 5Hz       | 18.6ms | 1kHz
 211:Libraries/ctrl_drv/i2c/mpu6050/MPU6050.c ****  * 7        |   -- Reserved --   |   -- Reserved --   | Reserved
 212:Libraries/ctrl_drv/i2c/mpu6050/MPU6050.c ****  * </pre>
 213:Libraries/ctrl_drv/i2c/mpu6050/MPU6050.c ****  *
 214:Libraries/ctrl_drv/i2c/mpu6050/MPU6050.c ****  * @return DLFP configuration
 215:Libraries/ctrl_drv/i2c/mpu6050/MPU6050.c ****  * @see MPU6050_RA_CONFIG
 216:Libraries/ctrl_drv/i2c/mpu6050/MPU6050.c ****  * @see MPU6050_CFG_DLPF_CFG_BIT
 217:Libraries/ctrl_drv/i2c/mpu6050/MPU6050.c ****  * @see MPU6050_CFG_DLPF_CFG_LENGTH
 218:Libraries/ctrl_drv/i2c/mpu6050/MPU6050.c ****  */
 219:Libraries/ctrl_drv/i2c/mpu6050/MPU6050.c **** uint8_t MPU6050_getDLPFMode() {
 297              		.loc 1 219 31 is_stmt 1 view -0
 298              		.cfi_startproc
 299              		@ args = 0, pretend = 0, frame = 0
 300              		@ frame_needed = 0, uses_anonymous_args = 0
 301 0000 10B5     		push	{r4, lr}
 302              	.LCFI10:
 303              		.cfi_def_cfa_offset 8
 304              		.cfi_offset 4, -8
 305              		.cfi_offset 14, -4
 306 0002 82B0     		sub	sp, sp, #8
 307              	.LCFI11:
 308              		.cfi_def_cfa_offset 16
 220:Libraries/ctrl_drv/i2c/mpu6050/MPU6050.c ****     I2Cdev_readBits(mpu6050.devAddr, MPU6050_RA_CONFIG, MPU6050_CFG_DLPF_CFG_BIT, MPU6050_CFG_DLPF_
ARM GAS  C:\Users\Mxuan\AppData\Local\Temp\ccfnFihP.s 			page 10


 309              		.loc 1 220 5 view .LVU32
 310 0004 064C     		ldr	r4, .L30
 311 0006 2346     		mov	r3, r4
 312 0008 13F8010B 		ldrb	r0, [r3], #1	@ zero_extendqisi2
 313 000c 0093     		str	r3, [sp]
 314 000e 0323     		movs	r3, #3
 315 0010 0222     		movs	r2, #2
 316 0012 1A21     		movs	r1, #26
 317 0014 FFF7FEFF 		bl	I2Cdev_readBits
 318              	.LVL13:
 221:Libraries/ctrl_drv/i2c/mpu6050/MPU6050.c ****     return mpu6050.buffer[0];
 319              		.loc 1 221 5 view .LVU33
 222:Libraries/ctrl_drv/i2c/mpu6050/MPU6050.c **** }
 320              		.loc 1 222 1 is_stmt 0 view .LVU34
 321 0018 6078     		ldrb	r0, [r4, #1]	@ zero_extendqisi2
 322 001a 02B0     		add	sp, sp, #8
 323              	.LCFI12:
 324              		.cfi_def_cfa_offset 8
 325              		@ sp needed
 326 001c 10BD     		pop	{r4, pc}
 327              	.L31:
 328 001e 00BF     		.align	2
 329              	.L30:
 330 0020 00000000 		.word	mpu6050
 331              		.cfi_endproc
 332              	.LFE9:
 334              		.section	.text.MPU6050_setDLPFMode,"ax",%progbits
 335              		.align	1
 336              		.global	MPU6050_setDLPFMode
 337              		.syntax unified
 338              		.thumb
 339              		.thumb_func
 341              	MPU6050_setDLPFMode:
 342              	.LVL14:
 343              	.LFB10:
 223:Libraries/ctrl_drv/i2c/mpu6050/MPU6050.c **** /** Set digital low-pass filter configuration.
 224:Libraries/ctrl_drv/i2c/mpu6050/MPU6050.c ****  * @param mode New DLFP configuration setting
 225:Libraries/ctrl_drv/i2c/mpu6050/MPU6050.c ****  * @see getDLPFBandwidth()
 226:Libraries/ctrl_drv/i2c/mpu6050/MPU6050.c ****  * @see MPU6050_DLPF_BW_256
 227:Libraries/ctrl_drv/i2c/mpu6050/MPU6050.c ****  * @see MPU6050_RA_CONFIG
 228:Libraries/ctrl_drv/i2c/mpu6050/MPU6050.c ****  * @see MPU6050_CFG_DLPF_CFG_BIT
 229:Libraries/ctrl_drv/i2c/mpu6050/MPU6050.c ****  * @see MPU6050_CFG_DLPF_CFG_LENGTH
 230:Libraries/ctrl_drv/i2c/mpu6050/MPU6050.c ****  */
 231:Libraries/ctrl_drv/i2c/mpu6050/MPU6050.c **** void MPU6050_setDLPFMode(uint8_t mode) {
 344              		.loc 1 231 40 is_stmt 1 view -0
 345              		.cfi_startproc
 346              		@ args = 0, pretend = 0, frame = 0
 347              		@ frame_needed = 0, uses_anonymous_args = 0
 348              		.loc 1 231 40 is_stmt 0 view .LVU36
 349 0000 00B5     		push	{lr}
 350              	.LCFI13:
 351              		.cfi_def_cfa_offset 4
 352              		.cfi_offset 14, -4
 353 0002 83B0     		sub	sp, sp, #12
 354              	.LCFI14:
 355              		.cfi_def_cfa_offset 16
 232:Libraries/ctrl_drv/i2c/mpu6050/MPU6050.c ****     I2Cdev_writeBits(mpu6050.devAddr, MPU6050_RA_CONFIG, MPU6050_CFG_DLPF_CFG_BIT, MPU6050_CFG_DLPF
ARM GAS  C:\Users\Mxuan\AppData\Local\Temp\ccfnFihP.s 			page 11


 356              		.loc 1 232 5 is_stmt 1 view .LVU37
 357 0004 0090     		str	r0, [sp]
 358 0006 0323     		movs	r3, #3
 359 0008 0222     		movs	r2, #2
 360 000a 1A21     		movs	r1, #26
 361 000c 0348     		ldr	r0, .L34
 362              	.LVL15:
 363              		.loc 1 232 5 is_stmt 0 view .LVU38
 364 000e 0078     		ldrb	r0, [r0]	@ zero_extendqisi2
 365 0010 FFF7FEFF 		bl	I2Cdev_writeBits
 366              	.LVL16:
 233:Libraries/ctrl_drv/i2c/mpu6050/MPU6050.c **** }
 367              		.loc 1 233 1 view .LVU39
 368 0014 03B0     		add	sp, sp, #12
 369              	.LCFI15:
 370              		.cfi_def_cfa_offset 4
 371              		@ sp needed
 372 0016 5DF804FB 		ldr	pc, [sp], #4
 373              	.L35:
 374 001a 00BF     		.align	2
 375              	.L34:
 376 001c 00000000 		.word	mpu6050
 377              		.cfi_endproc
 378              	.LFE10:
 380              		.section	.text.MPU6050_getFullScaleGyroRange,"ax",%progbits
 381              		.align	1
 382              		.global	MPU6050_getFullScaleGyroRange
 383              		.syntax unified
 384              		.thumb
 385              		.thumb_func
 387              	MPU6050_getFullScaleGyroRange:
 388              	.LFB11:
 234:Libraries/ctrl_drv/i2c/mpu6050/MPU6050.c **** 
 235:Libraries/ctrl_drv/i2c/mpu6050/MPU6050.c **** // GYRO_CONFIG register
 236:Libraries/ctrl_drv/i2c/mpu6050/MPU6050.c **** 
 237:Libraries/ctrl_drv/i2c/mpu6050/MPU6050.c **** /** Get full-scale gyroscope range.
 238:Libraries/ctrl_drv/i2c/mpu6050/MPU6050.c ****  * The FS_SEL parameter allows setting the full-scale range of the gyro sensors,
 239:Libraries/ctrl_drv/i2c/mpu6050/MPU6050.c ****  * as described in the table below.
 240:Libraries/ctrl_drv/i2c/mpu6050/MPU6050.c ****  *
 241:Libraries/ctrl_drv/i2c/mpu6050/MPU6050.c ****  * <pre>
 242:Libraries/ctrl_drv/i2c/mpu6050/MPU6050.c ****  * 0 = +/- 250 degrees/sec
 243:Libraries/ctrl_drv/i2c/mpu6050/MPU6050.c ****  * 1 = +/- 500 degrees/sec
 244:Libraries/ctrl_drv/i2c/mpu6050/MPU6050.c ****  * 2 = +/- 1000 degrees/sec
 245:Libraries/ctrl_drv/i2c/mpu6050/MPU6050.c ****  * 3 = +/- 2000 degrees/sec
 246:Libraries/ctrl_drv/i2c/mpu6050/MPU6050.c ****  * </pre>
 247:Libraries/ctrl_drv/i2c/mpu6050/MPU6050.c ****  *
 248:Libraries/ctrl_drv/i2c/mpu6050/MPU6050.c ****  * @return Current full-scale gyroscope range setting
 249:Libraries/ctrl_drv/i2c/mpu6050/MPU6050.c ****  * @see MPU6050_GYRO_FS_250
 250:Libraries/ctrl_drv/i2c/mpu6050/MPU6050.c ****  * @see MPU6050_RA_GYRO_CONFIG
 251:Libraries/ctrl_drv/i2c/mpu6050/MPU6050.c ****  * @see MPU6050_GCONFIG_FS_SEL_BIT
 252:Libraries/ctrl_drv/i2c/mpu6050/MPU6050.c ****  * @see MPU6050_GCONFIG_FS_SEL_LENGTH
 253:Libraries/ctrl_drv/i2c/mpu6050/MPU6050.c ****  */
 254:Libraries/ctrl_drv/i2c/mpu6050/MPU6050.c **** uint8_t MPU6050_getFullScaleGyroRange() {
 389              		.loc 1 254 41 is_stmt 1 view -0
 390              		.cfi_startproc
 391              		@ args = 0, pretend = 0, frame = 0
 392              		@ frame_needed = 0, uses_anonymous_args = 0
ARM GAS  C:\Users\Mxuan\AppData\Local\Temp\ccfnFihP.s 			page 12


 393 0000 10B5     		push	{r4, lr}
 394              	.LCFI16:
 395              		.cfi_def_cfa_offset 8
 396              		.cfi_offset 4, -8
 397              		.cfi_offset 14, -4
 398 0002 82B0     		sub	sp, sp, #8
 399              	.LCFI17:
 400              		.cfi_def_cfa_offset 16
 255:Libraries/ctrl_drv/i2c/mpu6050/MPU6050.c ****     I2Cdev_readBits(mpu6050.devAddr, MPU6050_RA_GYRO_CONFIG, MPU6050_GCONFIG_FS_SEL_BIT, MPU6050_GC
 401              		.loc 1 255 5 view .LVU41
 402 0004 064C     		ldr	r4, .L38
 403 0006 2346     		mov	r3, r4
 404 0008 13F8010B 		ldrb	r0, [r3], #1	@ zero_extendqisi2
 405 000c 0093     		str	r3, [sp]
 406 000e 0223     		movs	r3, #2
 407 0010 0422     		movs	r2, #4
 408 0012 1B21     		movs	r1, #27
 409 0014 FFF7FEFF 		bl	I2Cdev_readBits
 410              	.LVL17:
 256:Libraries/ctrl_drv/i2c/mpu6050/MPU6050.c ****     return mpu6050.buffer[0];
 411              		.loc 1 256 5 view .LVU42
 257:Libraries/ctrl_drv/i2c/mpu6050/MPU6050.c **** }
 412              		.loc 1 257 1 is_stmt 0 view .LVU43
 413 0018 6078     		ldrb	r0, [r4, #1]	@ zero_extendqisi2
 414 001a 02B0     		add	sp, sp, #8
 415              	.LCFI18:
 416              		.cfi_def_cfa_offset 8
 417              		@ sp needed
 418 001c 10BD     		pop	{r4, pc}
 419              	.L39:
 420 001e 00BF     		.align	2
 421              	.L38:
 422 0020 00000000 		.word	mpu6050
 423              		.cfi_endproc
 424              	.LFE11:
 426              		.section	.text.MPU6050_setFullScaleGyroRange,"ax",%progbits
 427              		.align	1
 428              		.global	MPU6050_setFullScaleGyroRange
 429              		.syntax unified
 430              		.thumb
 431              		.thumb_func
 433              	MPU6050_setFullScaleGyroRange:
 434              	.LVL18:
 435              	.LFB12:
 258:Libraries/ctrl_drv/i2c/mpu6050/MPU6050.c **** /** Set full-scale gyroscope range.
 259:Libraries/ctrl_drv/i2c/mpu6050/MPU6050.c ****  * @param range New full-scale gyroscope range value
 260:Libraries/ctrl_drv/i2c/mpu6050/MPU6050.c ****  * @see getFullScaleRange()
 261:Libraries/ctrl_drv/i2c/mpu6050/MPU6050.c ****  * @see MPU6050_GYRO_FS_250
 262:Libraries/ctrl_drv/i2c/mpu6050/MPU6050.c ****  * @see MPU6050_RA_GYRO_CONFIG
 263:Libraries/ctrl_drv/i2c/mpu6050/MPU6050.c ****  * @see MPU6050_GCONFIG_FS_SEL_BIT
 264:Libraries/ctrl_drv/i2c/mpu6050/MPU6050.c ****  * @see MPU6050_GCONFIG_FS_SEL_LENGTH
 265:Libraries/ctrl_drv/i2c/mpu6050/MPU6050.c ****  */
 266:Libraries/ctrl_drv/i2c/mpu6050/MPU6050.c **** void MPU6050_setFullScaleGyroRange(uint8_t range) {
 436              		.loc 1 266 51 is_stmt 1 view -0
 437              		.cfi_startproc
 438              		@ args = 0, pretend = 0, frame = 0
 439              		@ frame_needed = 0, uses_anonymous_args = 0
ARM GAS  C:\Users\Mxuan\AppData\Local\Temp\ccfnFihP.s 			page 13


 440              		.loc 1 266 51 is_stmt 0 view .LVU45
 441 0000 10B5     		push	{r4, lr}
 442              	.LCFI19:
 443              		.cfi_def_cfa_offset 8
 444              		.cfi_offset 4, -8
 445              		.cfi_offset 14, -4
 446 0002 82B0     		sub	sp, sp, #8
 447              	.LCFI20:
 448              		.cfi_def_cfa_offset 16
 449 0004 0446     		mov	r4, r0
 267:Libraries/ctrl_drv/i2c/mpu6050/MPU6050.c ****     I2Cdev_writeBits(mpu6050.devAddr, MPU6050_RA_GYRO_CONFIG, MPU6050_GCONFIG_FS_SEL_BIT, MPU6050_G
 450              		.loc 1 267 5 is_stmt 1 view .LVU46
 451 0006 0090     		str	r0, [sp]
 452 0008 0223     		movs	r3, #2
 453 000a 0422     		movs	r2, #4
 454 000c 1B21     		movs	r1, #27
 455 000e 0D48     		ldr	r0, .L49
 456              	.LVL19:
 457              		.loc 1 267 5 is_stmt 0 view .LVU47
 458 0010 0078     		ldrb	r0, [r0]	@ zero_extendqisi2
 459 0012 FFF7FEFF 		bl	I2Cdev_writeBits
 460              	.LVL20:
 268:Libraries/ctrl_drv/i2c/mpu6050/MPU6050.c **** 
 269:Libraries/ctrl_drv/i2c/mpu6050/MPU6050.c ****     switch (range)
 461              		.loc 1 269 5 is_stmt 1 view .LVU48
 462 0016 032C     		cmp	r4, #3
 463 0018 06D8     		bhi	.L40
 464 001a DFE804F0 		tbb	[pc, r4]
 465              	.L43:
 466 001e 02       		.byte	(.L46-.L43)/2
 467 001f 07       		.byte	(.L45-.L43)/2
 468 0020 0B       		.byte	(.L44-.L43)/2
 469 0021 0F       		.byte	(.L42-.L43)/2
 470              		.p2align 1
 471              	.L46:
 270:Libraries/ctrl_drv/i2c/mpu6050/MPU6050.c ****     {
 271:Libraries/ctrl_drv/i2c/mpu6050/MPU6050.c ****         case MPU6050_GYRO_FS_250:
 272:Libraries/ctrl_drv/i2c/mpu6050/MPU6050.c ****             mpu6050.gyroRangeScale = 32768 / 250.0f;
 472              		.loc 1 272 13 view .LVU49
 473              		.loc 1 272 36 is_stmt 0 view .LVU50
 474 0022 084B     		ldr	r3, .L49
 475 0024 084A     		ldr	r2, .L49+4
 476 0026 5A61     		str	r2, [r3, #20]	@ float
 273:Libraries/ctrl_drv/i2c/mpu6050/MPU6050.c ****             break;
 477              		.loc 1 273 13 is_stmt 1 view .LVU51
 478              	.L40:
 274:Libraries/ctrl_drv/i2c/mpu6050/MPU6050.c ****         case MPU6050_GYRO_FS_500:
 275:Libraries/ctrl_drv/i2c/mpu6050/MPU6050.c ****             mpu6050.gyroRangeScale = 32768 / 500.0f;
 276:Libraries/ctrl_drv/i2c/mpu6050/MPU6050.c ****             break;
 277:Libraries/ctrl_drv/i2c/mpu6050/MPU6050.c ****         case MPU6050_GYRO_FS_1000:
 278:Libraries/ctrl_drv/i2c/mpu6050/MPU6050.c ****             mpu6050.gyroRangeScale = 32768 / 1000.0f;
 279:Libraries/ctrl_drv/i2c/mpu6050/MPU6050.c ****             break;
 280:Libraries/ctrl_drv/i2c/mpu6050/MPU6050.c ****         case MPU6050_GYRO_FS_2000:
 281:Libraries/ctrl_drv/i2c/mpu6050/MPU6050.c ****             mpu6050.gyroRangeScale = 32768 / 2000.0f;
 282:Libraries/ctrl_drv/i2c/mpu6050/MPU6050.c ****             break;
 283:Libraries/ctrl_drv/i2c/mpu6050/MPU6050.c ****         default:
 284:Libraries/ctrl_drv/i2c/mpu6050/MPU6050.c ****             break;
ARM GAS  C:\Users\Mxuan\AppData\Local\Temp\ccfnFihP.s 			page 14


 285:Libraries/ctrl_drv/i2c/mpu6050/MPU6050.c ****     }
 286:Libraries/ctrl_drv/i2c/mpu6050/MPU6050.c **** }
 479              		.loc 1 286 1 is_stmt 0 view .LVU52
 480 0028 02B0     		add	sp, sp, #8
 481              	.LCFI21:
 482              		.cfi_remember_state
 483              		.cfi_def_cfa_offset 8
 484              		@ sp needed
 485 002a 10BD     		pop	{r4, pc}
 486              	.L45:
 487              	.LCFI22:
 488              		.cfi_restore_state
 275:Libraries/ctrl_drv/i2c/mpu6050/MPU6050.c ****             break;
 489              		.loc 1 275 13 is_stmt 1 view .LVU53
 275:Libraries/ctrl_drv/i2c/mpu6050/MPU6050.c ****             break;
 490              		.loc 1 275 36 is_stmt 0 view .LVU54
 491 002c 054B     		ldr	r3, .L49
 492 002e 074A     		ldr	r2, .L49+8
 493 0030 5A61     		str	r2, [r3, #20]	@ float
 276:Libraries/ctrl_drv/i2c/mpu6050/MPU6050.c ****         case MPU6050_GYRO_FS_1000:
 494              		.loc 1 276 13 is_stmt 1 view .LVU55
 495 0032 F9E7     		b	.L40
 496              	.L44:
 278:Libraries/ctrl_drv/i2c/mpu6050/MPU6050.c ****             break;
 497              		.loc 1 278 13 view .LVU56
 278:Libraries/ctrl_drv/i2c/mpu6050/MPU6050.c ****             break;
 498              		.loc 1 278 36 is_stmt 0 view .LVU57
 499 0034 034B     		ldr	r3, .L49
 500 0036 064A     		ldr	r2, .L49+12
 501 0038 5A61     		str	r2, [r3, #20]	@ float
 279:Libraries/ctrl_drv/i2c/mpu6050/MPU6050.c ****         case MPU6050_GYRO_FS_2000:
 502              		.loc 1 279 13 is_stmt 1 view .LVU58
 503 003a F5E7     		b	.L40
 504              	.L42:
 281:Libraries/ctrl_drv/i2c/mpu6050/MPU6050.c ****             break;
 505              		.loc 1 281 13 view .LVU59
 281:Libraries/ctrl_drv/i2c/mpu6050/MPU6050.c ****             break;
 506              		.loc 1 281 36 is_stmt 0 view .LVU60
 507 003c 014B     		ldr	r3, .L49
 508 003e 054A     		ldr	r2, .L49+16
 509 0040 5A61     		str	r2, [r3, #20]	@ float
 282:Libraries/ctrl_drv/i2c/mpu6050/MPU6050.c ****         default:
 510              		.loc 1 282 13 is_stmt 1 view .LVU61
 511              		.loc 1 286 1 is_stmt 0 view .LVU62
 512 0042 F1E7     		b	.L40
 513              	.L50:
 514              		.align	2
 515              	.L49:
 516 0044 00000000 		.word	mpu6050
 517 0048 6F120343 		.word	1124274799
 518 004c 6F128342 		.word	1115886191
 519 0050 6F120342 		.word	1107497583
 520 0054 6F128341 		.word	1099108975
 521              		.cfi_endproc
 522              	.LFE12:
 524              		.section	.text.MPU6050_getGyroRangeScale,"ax",%progbits
 525              		.align	1
ARM GAS  C:\Users\Mxuan\AppData\Local\Temp\ccfnFihP.s 			page 15


 526              		.global	MPU6050_getGyroRangeScale
 527              		.syntax unified
 528              		.thumb
 529              		.thumb_func
 531              	MPU6050_getGyroRangeScale:
 532              	.LFB13:
 287:Libraries/ctrl_drv/i2c/mpu6050/MPU6050.c **** 
 288:Libraries/ctrl_drv/i2c/mpu6050/MPU6050.c **** float MPU6050_getGyroRangeScale()
 289:Libraries/ctrl_drv/i2c/mpu6050/MPU6050.c **** {
 533              		.loc 1 289 1 is_stmt 1 view -0
 534              		.cfi_startproc
 535              		@ args = 0, pretend = 0, frame = 0
 536              		@ frame_needed = 0, uses_anonymous_args = 0
 537              		@ link register save eliminated.
 290:Libraries/ctrl_drv/i2c/mpu6050/MPU6050.c ****     return mpu6050.gyroRangeScale;
 538              		.loc 1 290 5 view .LVU64
 291:Libraries/ctrl_drv/i2c/mpu6050/MPU6050.c **** }
 539              		.loc 1 291 1 is_stmt 0 view .LVU65
 540 0000 014B     		ldr	r3, .L52
 541 0002 5869     		ldr	r0, [r3, #20]	@ float
 542 0004 7047     		bx	lr
 543              	.L53:
 544 0006 00BF     		.align	2
 545              	.L52:
 546 0008 00000000 		.word	mpu6050
 547              		.cfi_endproc
 548              	.LFE13:
 550              		.section	.text.MPU6050_getAccelXSelfTest,"ax",%progbits
 551              		.align	1
 552              		.global	MPU6050_getAccelXSelfTest
 553              		.syntax unified
 554              		.thumb
 555              		.thumb_func
 557              	MPU6050_getAccelXSelfTest:
 558              	.LFB14:
 292:Libraries/ctrl_drv/i2c/mpu6050/MPU6050.c **** 
 293:Libraries/ctrl_drv/i2c/mpu6050/MPU6050.c **** // ACCEL_CONFIG register
 294:Libraries/ctrl_drv/i2c/mpu6050/MPU6050.c **** 
 295:Libraries/ctrl_drv/i2c/mpu6050/MPU6050.c **** /** Get self-test enabled setting for accelerometer X axis.
 296:Libraries/ctrl_drv/i2c/mpu6050/MPU6050.c ****  * @return Self-test enabled value
 297:Libraries/ctrl_drv/i2c/mpu6050/MPU6050.c ****  * @see MPU6050_RA_ACCEL_CONFIG
 298:Libraries/ctrl_drv/i2c/mpu6050/MPU6050.c ****  */
 299:Libraries/ctrl_drv/i2c/mpu6050/MPU6050.c **** bool MPU6050_getAccelXSelfTest() {
 559              		.loc 1 299 34 is_stmt 1 view -0
 560              		.cfi_startproc
 561              		@ args = 0, pretend = 0, frame = 0
 562              		@ frame_needed = 0, uses_anonymous_args = 0
 563 0000 10B5     		push	{r4, lr}
 564              	.LCFI23:
 565              		.cfi_def_cfa_offset 8
 566              		.cfi_offset 4, -8
 567              		.cfi_offset 14, -4
 300:Libraries/ctrl_drv/i2c/mpu6050/MPU6050.c ****     I2Cdev_readBit(mpu6050.devAddr, MPU6050_RA_ACCEL_CONFIG, MPU6050_ACONFIG_XA_ST_BIT, mpu6050.buf
 568              		.loc 1 300 5 view .LVU67
 569 0002 064B     		ldr	r3, .L56
 570 0004 5C1E     		subs	r4, r3, #1
 571 0006 0722     		movs	r2, #7
ARM GAS  C:\Users\Mxuan\AppData\Local\Temp\ccfnFihP.s 			page 16


 572 0008 1C21     		movs	r1, #28
 573 000a 13F8010C 		ldrb	r0, [r3, #-1]	@ zero_extendqisi2
 574 000e FFF7FEFF 		bl	I2Cdev_readBit
 575              	.LVL21:
 301:Libraries/ctrl_drv/i2c/mpu6050/MPU6050.c ****     return mpu6050.buffer[0];
 576              		.loc 1 301 5 view .LVU68
 577              		.loc 1 301 26 is_stmt 0 view .LVU69
 578 0012 6078     		ldrb	r0, [r4, #1]	@ zero_extendqisi2
 302:Libraries/ctrl_drv/i2c/mpu6050/MPU6050.c **** }
 579              		.loc 1 302 1 view .LVU70
 580 0014 0038     		subs	r0, r0, #0
 581 0016 18BF     		it	ne
 582 0018 0120     		movne	r0, #1
 583 001a 10BD     		pop	{r4, pc}
 584              	.L57:
 585              		.align	2
 586              	.L56:
 587 001c 01000000 		.word	mpu6050+1
 588              		.cfi_endproc
 589              	.LFE14:
 591              		.section	.text.MPU6050_setAccelXSelfTest,"ax",%progbits
 592              		.align	1
 593              		.global	MPU6050_setAccelXSelfTest
 594              		.syntax unified
 595              		.thumb
 596              		.thumb_func
 598              	MPU6050_setAccelXSelfTest:
 599              	.LVL22:
 600              	.LFB15:
 303:Libraries/ctrl_drv/i2c/mpu6050/MPU6050.c **** /** Get self-test enabled setting for accelerometer X axis.
 304:Libraries/ctrl_drv/i2c/mpu6050/MPU6050.c ****  * @param enabled Self-test enabled value
 305:Libraries/ctrl_drv/i2c/mpu6050/MPU6050.c ****  * @see MPU6050_RA_ACCEL_CONFIG
 306:Libraries/ctrl_drv/i2c/mpu6050/MPU6050.c ****  */
 307:Libraries/ctrl_drv/i2c/mpu6050/MPU6050.c **** void MPU6050_setAccelXSelfTest(bool enabled) {
 601              		.loc 1 307 46 is_stmt 1 view -0
 602              		.cfi_startproc
 603              		@ args = 0, pretend = 0, frame = 0
 604              		@ frame_needed = 0, uses_anonymous_args = 0
 605              		.loc 1 307 46 is_stmt 0 view .LVU72
 606 0000 08B5     		push	{r3, lr}
 607              	.LCFI24:
 608              		.cfi_def_cfa_offset 8
 609              		.cfi_offset 3, -8
 610              		.cfi_offset 14, -4
 611 0002 0346     		mov	r3, r0
 308:Libraries/ctrl_drv/i2c/mpu6050/MPU6050.c ****     I2Cdev_writeBit(mpu6050.devAddr, MPU6050_RA_ACCEL_CONFIG, MPU6050_ACONFIG_XA_ST_BIT, enabled);
 612              		.loc 1 308 5 is_stmt 1 view .LVU73
 613 0004 0722     		movs	r2, #7
 614 0006 1C21     		movs	r1, #28
 615 0008 0248     		ldr	r0, .L60
 616              	.LVL23:
 617              		.loc 1 308 5 is_stmt 0 view .LVU74
 618 000a 0078     		ldrb	r0, [r0]	@ zero_extendqisi2
 619 000c FFF7FEFF 		bl	I2Cdev_writeBit
 620              	.LVL24:
 309:Libraries/ctrl_drv/i2c/mpu6050/MPU6050.c **** }
 621              		.loc 1 309 1 view .LVU75
ARM GAS  C:\Users\Mxuan\AppData\Local\Temp\ccfnFihP.s 			page 17


 622 0010 08BD     		pop	{r3, pc}
 623              	.L61:
 624 0012 00BF     		.align	2
 625              	.L60:
 626 0014 00000000 		.word	mpu6050
 627              		.cfi_endproc
 628              	.LFE15:
 630              		.section	.text.MPU6050_getAccelYSelfTest,"ax",%progbits
 631              		.align	1
 632              		.global	MPU6050_getAccelYSelfTest
 633              		.syntax unified
 634              		.thumb
 635              		.thumb_func
 637              	MPU6050_getAccelYSelfTest:
 638              	.LFB16:
 310:Libraries/ctrl_drv/i2c/mpu6050/MPU6050.c **** /** Get self-test enabled value for accelerometer Y axis.
 311:Libraries/ctrl_drv/i2c/mpu6050/MPU6050.c ****  * @return Self-test enabled value
 312:Libraries/ctrl_drv/i2c/mpu6050/MPU6050.c ****  * @see MPU6050_RA_ACCEL_CONFIG
 313:Libraries/ctrl_drv/i2c/mpu6050/MPU6050.c ****  */
 314:Libraries/ctrl_drv/i2c/mpu6050/MPU6050.c **** bool MPU6050_getAccelYSelfTest() {
 639              		.loc 1 314 34 is_stmt 1 view -0
 640              		.cfi_startproc
 641              		@ args = 0, pretend = 0, frame = 0
 642              		@ frame_needed = 0, uses_anonymous_args = 0
 643 0000 10B5     		push	{r4, lr}
 644              	.LCFI25:
 645              		.cfi_def_cfa_offset 8
 646              		.cfi_offset 4, -8
 647              		.cfi_offset 14, -4
 315:Libraries/ctrl_drv/i2c/mpu6050/MPU6050.c ****     I2Cdev_readBit(mpu6050.devAddr, MPU6050_RA_ACCEL_CONFIG, MPU6050_ACONFIG_YA_ST_BIT, mpu6050.buf
 648              		.loc 1 315 5 view .LVU77
 649 0002 064B     		ldr	r3, .L64
 650 0004 5C1E     		subs	r4, r3, #1
 651 0006 0622     		movs	r2, #6
 652 0008 1C21     		movs	r1, #28
 653 000a 13F8010C 		ldrb	r0, [r3, #-1]	@ zero_extendqisi2
 654 000e FFF7FEFF 		bl	I2Cdev_readBit
 655              	.LVL25:
 316:Libraries/ctrl_drv/i2c/mpu6050/MPU6050.c ****     return mpu6050.buffer[0];
 656              		.loc 1 316 5 view .LVU78
 657              		.loc 1 316 26 is_stmt 0 view .LVU79
 658 0012 6078     		ldrb	r0, [r4, #1]	@ zero_extendqisi2
 317:Libraries/ctrl_drv/i2c/mpu6050/MPU6050.c **** }
 659              		.loc 1 317 1 view .LVU80
 660 0014 0038     		subs	r0, r0, #0
 661 0016 18BF     		it	ne
 662 0018 0120     		movne	r0, #1
 663 001a 10BD     		pop	{r4, pc}
 664              	.L65:
 665              		.align	2
 666              	.L64:
 667 001c 01000000 		.word	mpu6050+1
 668              		.cfi_endproc
 669              	.LFE16:
 671              		.section	.text.MPU6050_setAccelYSelfTest,"ax",%progbits
 672              		.align	1
 673              		.global	MPU6050_setAccelYSelfTest
ARM GAS  C:\Users\Mxuan\AppData\Local\Temp\ccfnFihP.s 			page 18


 674              		.syntax unified
 675              		.thumb
 676              		.thumb_func
 678              	MPU6050_setAccelYSelfTest:
 679              	.LVL26:
 680              	.LFB17:
 318:Libraries/ctrl_drv/i2c/mpu6050/MPU6050.c **** /** Get self-test enabled value for accelerometer Y axis.
 319:Libraries/ctrl_drv/i2c/mpu6050/MPU6050.c ****  * @param enabled Self-test enabled value
 320:Libraries/ctrl_drv/i2c/mpu6050/MPU6050.c ****  * @see MPU6050_RA_ACCEL_CONFIG
 321:Libraries/ctrl_drv/i2c/mpu6050/MPU6050.c ****  */
 322:Libraries/ctrl_drv/i2c/mpu6050/MPU6050.c **** void MPU6050_setAccelYSelfTest(bool enabled) {
 681              		.loc 1 322 46 is_stmt 1 view -0
 682              		.cfi_startproc
 683              		@ args = 0, pretend = 0, frame = 0
 684              		@ frame_needed = 0, uses_anonymous_args = 0
 685              		.loc 1 322 46 is_stmt 0 view .LVU82
 686 0000 08B5     		push	{r3, lr}
 687              	.LCFI26:
 688              		.cfi_def_cfa_offset 8
 689              		.cfi_offset 3, -8
 690              		.cfi_offset 14, -4
 691 0002 0346     		mov	r3, r0
 323:Libraries/ctrl_drv/i2c/mpu6050/MPU6050.c ****     I2Cdev_writeBit(mpu6050.devAddr, MPU6050_RA_ACCEL_CONFIG, MPU6050_ACONFIG_YA_ST_BIT, enabled);
 692              		.loc 1 323 5 is_stmt 1 view .LVU83
 693 0004 0622     		movs	r2, #6
 694 0006 1C21     		movs	r1, #28
 695 0008 0248     		ldr	r0, .L68
 696              	.LVL27:
 697              		.loc 1 323 5 is_stmt 0 view .LVU84
 698 000a 0078     		ldrb	r0, [r0]	@ zero_extendqisi2
 699 000c FFF7FEFF 		bl	I2Cdev_writeBit
 700              	.LVL28:
 324:Libraries/ctrl_drv/i2c/mpu6050/MPU6050.c **** }
 701              		.loc 1 324 1 view .LVU85
 702 0010 08BD     		pop	{r3, pc}
 703              	.L69:
 704 0012 00BF     		.align	2
 705              	.L68:
 706 0014 00000000 		.word	mpu6050
 707              		.cfi_endproc
 708              	.LFE17:
 710              		.section	.text.MPU6050_getAccelZSelfTest,"ax",%progbits
 711              		.align	1
 712              		.global	MPU6050_getAccelZSelfTest
 713              		.syntax unified
 714              		.thumb
 715              		.thumb_func
 717              	MPU6050_getAccelZSelfTest:
 718              	.LFB18:
 325:Libraries/ctrl_drv/i2c/mpu6050/MPU6050.c **** /** Get self-test enabled value for accelerometer Z axis.
 326:Libraries/ctrl_drv/i2c/mpu6050/MPU6050.c ****  * @return Self-test enabled value
 327:Libraries/ctrl_drv/i2c/mpu6050/MPU6050.c ****  * @see MPU6050_RA_ACCEL_CONFIG
 328:Libraries/ctrl_drv/i2c/mpu6050/MPU6050.c ****  */
 329:Libraries/ctrl_drv/i2c/mpu6050/MPU6050.c **** bool MPU6050_getAccelZSelfTest() {
 719              		.loc 1 329 34 is_stmt 1 view -0
 720              		.cfi_startproc
 721              		@ args = 0, pretend = 0, frame = 0
ARM GAS  C:\Users\Mxuan\AppData\Local\Temp\ccfnFihP.s 			page 19


 722              		@ frame_needed = 0, uses_anonymous_args = 0
 723 0000 10B5     		push	{r4, lr}
 724              	.LCFI27:
 725              		.cfi_def_cfa_offset 8
 726              		.cfi_offset 4, -8
 727              		.cfi_offset 14, -4
 330:Libraries/ctrl_drv/i2c/mpu6050/MPU6050.c ****     I2Cdev_readBit(mpu6050.devAddr, MPU6050_RA_ACCEL_CONFIG, MPU6050_ACONFIG_ZA_ST_BIT, mpu6050.buf
 728              		.loc 1 330 5 view .LVU87
 729 0002 064B     		ldr	r3, .L72
 730 0004 5C1E     		subs	r4, r3, #1
 731 0006 0522     		movs	r2, #5
 732 0008 1C21     		movs	r1, #28
 733 000a 13F8010C 		ldrb	r0, [r3, #-1]	@ zero_extendqisi2
 734 000e FFF7FEFF 		bl	I2Cdev_readBit
 735              	.LVL29:
 331:Libraries/ctrl_drv/i2c/mpu6050/MPU6050.c ****     return mpu6050.buffer[0];
 736              		.loc 1 331 5 view .LVU88
 737              		.loc 1 331 26 is_stmt 0 view .LVU89
 738 0012 6078     		ldrb	r0, [r4, #1]	@ zero_extendqisi2
 332:Libraries/ctrl_drv/i2c/mpu6050/MPU6050.c **** }
 739              		.loc 1 332 1 view .LVU90
 740 0014 0038     		subs	r0, r0, #0
 741 0016 18BF     		it	ne
 742 0018 0120     		movne	r0, #1
 743 001a 10BD     		pop	{r4, pc}
 744              	.L73:
 745              		.align	2
 746              	.L72:
 747 001c 01000000 		.word	mpu6050+1
 748              		.cfi_endproc
 749              	.LFE18:
 751              		.section	.text.MPU6050_setAccelZSelfTest,"ax",%progbits
 752              		.align	1
 753              		.global	MPU6050_setAccelZSelfTest
 754              		.syntax unified
 755              		.thumb
 756              		.thumb_func
 758              	MPU6050_setAccelZSelfTest:
 759              	.LVL30:
 760              	.LFB19:
 333:Libraries/ctrl_drv/i2c/mpu6050/MPU6050.c **** /** Set self-test enabled value for accelerometer Z axis.
 334:Libraries/ctrl_drv/i2c/mpu6050/MPU6050.c ****  * @param enabled Self-test enabled value
 335:Libraries/ctrl_drv/i2c/mpu6050/MPU6050.c ****  * @see MPU6050_RA_ACCEL_CONFIG
 336:Libraries/ctrl_drv/i2c/mpu6050/MPU6050.c ****  */
 337:Libraries/ctrl_drv/i2c/mpu6050/MPU6050.c **** void MPU6050_setAccelZSelfTest(bool enabled) {
 761              		.loc 1 337 46 is_stmt 1 view -0
 762              		.cfi_startproc
 763              		@ args = 0, pretend = 0, frame = 0
 764              		@ frame_needed = 0, uses_anonymous_args = 0
 765              		.loc 1 337 46 is_stmt 0 view .LVU92
 766 0000 08B5     		push	{r3, lr}
 767              	.LCFI28:
 768              		.cfi_def_cfa_offset 8
 769              		.cfi_offset 3, -8
 770              		.cfi_offset 14, -4
 771 0002 0346     		mov	r3, r0
 338:Libraries/ctrl_drv/i2c/mpu6050/MPU6050.c ****     I2Cdev_writeBit(mpu6050.devAddr, MPU6050_RA_ACCEL_CONFIG, MPU6050_ACONFIG_ZA_ST_BIT, enabled);
ARM GAS  C:\Users\Mxuan\AppData\Local\Temp\ccfnFihP.s 			page 20


 772              		.loc 1 338 5 is_stmt 1 view .LVU93
 773 0004 0522     		movs	r2, #5
 774 0006 1C21     		movs	r1, #28
 775 0008 0248     		ldr	r0, .L76
 776              	.LVL31:
 777              		.loc 1 338 5 is_stmt 0 view .LVU94
 778 000a 0078     		ldrb	r0, [r0]	@ zero_extendqisi2
 779 000c FFF7FEFF 		bl	I2Cdev_writeBit
 780              	.LVL32:
 339:Libraries/ctrl_drv/i2c/mpu6050/MPU6050.c **** }
 781              		.loc 1 339 1 view .LVU95
 782 0010 08BD     		pop	{r3, pc}
 783              	.L77:
 784 0012 00BF     		.align	2
 785              	.L76:
 786 0014 00000000 		.word	mpu6050
 787              		.cfi_endproc
 788              	.LFE19:
 790              		.section	.text.MPU6050_getFullScaleAccelRange,"ax",%progbits
 791              		.align	1
 792              		.global	MPU6050_getFullScaleAccelRange
 793              		.syntax unified
 794              		.thumb
 795              		.thumb_func
 797              	MPU6050_getFullScaleAccelRange:
 798              	.LFB20:
 340:Libraries/ctrl_drv/i2c/mpu6050/MPU6050.c **** /** Get full-scale accelerometer range.
 341:Libraries/ctrl_drv/i2c/mpu6050/MPU6050.c ****  * The FS_SEL parameter allows setting the full-scale range of the accelerometer
 342:Libraries/ctrl_drv/i2c/mpu6050/MPU6050.c ****  * sensors, as described in the table below.
 343:Libraries/ctrl_drv/i2c/mpu6050/MPU6050.c ****  *
 344:Libraries/ctrl_drv/i2c/mpu6050/MPU6050.c ****  * <pre>
 345:Libraries/ctrl_drv/i2c/mpu6050/MPU6050.c ****  * 0 = +/- 2g
 346:Libraries/ctrl_drv/i2c/mpu6050/MPU6050.c ****  * 1 = +/- 4g
 347:Libraries/ctrl_drv/i2c/mpu6050/MPU6050.c ****  * 2 = +/- 8g
 348:Libraries/ctrl_drv/i2c/mpu6050/MPU6050.c ****  * 3 = +/- 16g
 349:Libraries/ctrl_drv/i2c/mpu6050/MPU6050.c ****  * </pre>
 350:Libraries/ctrl_drv/i2c/mpu6050/MPU6050.c ****  *
 351:Libraries/ctrl_drv/i2c/mpu6050/MPU6050.c ****  * @return Current full-scale accelerometer range setting
 352:Libraries/ctrl_drv/i2c/mpu6050/MPU6050.c ****  * @see MPU6050_ACCEL_FS_2
 353:Libraries/ctrl_drv/i2c/mpu6050/MPU6050.c ****  * @see MPU6050_RA_ACCEL_CONFIG
 354:Libraries/ctrl_drv/i2c/mpu6050/MPU6050.c ****  * @see MPU6050_ACONFIG_AFS_SEL_BIT
 355:Libraries/ctrl_drv/i2c/mpu6050/MPU6050.c ****  * @see MPU6050_ACONFIG_AFS_SEL_LENGTH
 356:Libraries/ctrl_drv/i2c/mpu6050/MPU6050.c ****  */
 357:Libraries/ctrl_drv/i2c/mpu6050/MPU6050.c **** uint8_t MPU6050_getFullScaleAccelRange() {
 799              		.loc 1 357 42 is_stmt 1 view -0
 800              		.cfi_startproc
 801              		@ args = 0, pretend = 0, frame = 0
 802              		@ frame_needed = 0, uses_anonymous_args = 0
 803 0000 10B5     		push	{r4, lr}
 804              	.LCFI29:
 805              		.cfi_def_cfa_offset 8
 806              		.cfi_offset 4, -8
 807              		.cfi_offset 14, -4
 808 0002 82B0     		sub	sp, sp, #8
 809              	.LCFI30:
 810              		.cfi_def_cfa_offset 16
 358:Libraries/ctrl_drv/i2c/mpu6050/MPU6050.c ****     I2Cdev_readBits(mpu6050.devAddr, MPU6050_RA_ACCEL_CONFIG, MPU6050_ACONFIG_AFS_SEL_BIT, MPU6050_
ARM GAS  C:\Users\Mxuan\AppData\Local\Temp\ccfnFihP.s 			page 21


 811              		.loc 1 358 5 view .LVU97
 812 0004 064C     		ldr	r4, .L80
 813 0006 2346     		mov	r3, r4
 814 0008 13F8010B 		ldrb	r0, [r3], #1	@ zero_extendqisi2
 815 000c 0093     		str	r3, [sp]
 816 000e 0223     		movs	r3, #2
 817 0010 0422     		movs	r2, #4
 818 0012 1C21     		movs	r1, #28
 819 0014 FFF7FEFF 		bl	I2Cdev_readBits
 820              	.LVL33:
 359:Libraries/ctrl_drv/i2c/mpu6050/MPU6050.c ****     return mpu6050.buffer[0];
 821              		.loc 1 359 5 view .LVU98
 360:Libraries/ctrl_drv/i2c/mpu6050/MPU6050.c **** }
 822              		.loc 1 360 1 is_stmt 0 view .LVU99
 823 0018 6078     		ldrb	r0, [r4, #1]	@ zero_extendqisi2
 824 001a 02B0     		add	sp, sp, #8
 825              	.LCFI31:
 826              		.cfi_def_cfa_offset 8
 827              		@ sp needed
 828 001c 10BD     		pop	{r4, pc}
 829              	.L81:
 830 001e 00BF     		.align	2
 831              	.L80:
 832 0020 00000000 		.word	mpu6050
 833              		.cfi_endproc
 834              	.LFE20:
 836              		.section	.text.MPU6050_setFullScaleAccelRange,"ax",%progbits
 837              		.align	1
 838              		.global	MPU6050_setFullScaleAccelRange
 839              		.syntax unified
 840              		.thumb
 841              		.thumb_func
 843              	MPU6050_setFullScaleAccelRange:
 844              	.LVL34:
 845              	.LFB21:
 361:Libraries/ctrl_drv/i2c/mpu6050/MPU6050.c **** /** Set full-scale accelerometer range.
 362:Libraries/ctrl_drv/i2c/mpu6050/MPU6050.c ****  * @param range New full-scale accelerometer range setting
 363:Libraries/ctrl_drv/i2c/mpu6050/MPU6050.c ****  * @see getFullScaleAccelRange()
 364:Libraries/ctrl_drv/i2c/mpu6050/MPU6050.c ****  */
 365:Libraries/ctrl_drv/i2c/mpu6050/MPU6050.c **** void MPU6050_setFullScaleAccelRange(uint8_t range) {
 846              		.loc 1 365 52 is_stmt 1 view -0
 847              		.cfi_startproc
 848              		@ args = 0, pretend = 0, frame = 0
 849              		@ frame_needed = 0, uses_anonymous_args = 0
 850              		.loc 1 365 52 is_stmt 0 view .LVU101
 851 0000 10B5     		push	{r4, lr}
 852              	.LCFI32:
 853              		.cfi_def_cfa_offset 8
 854              		.cfi_offset 4, -8
 855              		.cfi_offset 14, -4
 856 0002 82B0     		sub	sp, sp, #8
 857              	.LCFI33:
 858              		.cfi_def_cfa_offset 16
 859 0004 0446     		mov	r4, r0
 366:Libraries/ctrl_drv/i2c/mpu6050/MPU6050.c ****     I2Cdev_writeBits(mpu6050.devAddr, MPU6050_RA_ACCEL_CONFIG, MPU6050_ACONFIG_AFS_SEL_BIT, MPU6050
 860              		.loc 1 366 5 is_stmt 1 view .LVU102
 861 0006 0090     		str	r0, [sp]
ARM GAS  C:\Users\Mxuan\AppData\Local\Temp\ccfnFihP.s 			page 22


 862 0008 0223     		movs	r3, #2
 863 000a 0422     		movs	r2, #4
 864 000c 1C21     		movs	r1, #28
 865 000e 0F48     		ldr	r0, .L91
 866              	.LVL35:
 867              		.loc 1 366 5 is_stmt 0 view .LVU103
 868 0010 0078     		ldrb	r0, [r0]	@ zero_extendqisi2
 869 0012 FFF7FEFF 		bl	I2Cdev_writeBits
 870              	.LVL36:
 367:Libraries/ctrl_drv/i2c/mpu6050/MPU6050.c ****     switch (range)
 871              		.loc 1 367 5 is_stmt 1 view .LVU104
 872 0016 032C     		cmp	r4, #3
 873 0018 07D8     		bhi	.L82
 874 001a DFE804F0 		tbb	[pc, r4]
 875              	.L85:
 876 001e 02       		.byte	(.L88-.L85)/2
 877 001f 08       		.byte	(.L87-.L85)/2
 878 0020 0D       		.byte	(.L86-.L85)/2
 879 0021 12       		.byte	(.L84-.L85)/2
 880              		.p2align 1
 881              	.L88:
 368:Libraries/ctrl_drv/i2c/mpu6050/MPU6050.c ****     {
 369:Libraries/ctrl_drv/i2c/mpu6050/MPU6050.c ****         case MPU6050_ACCEL_FS_2:
 370:Libraries/ctrl_drv/i2c/mpu6050/MPU6050.c ****             mpu6050.accRangeScale = 32768 / 2.0;
 882              		.loc 1 370 13 view .LVU105
 883              		.loc 1 370 35 is_stmt 0 view .LVU106
 884 0022 0A4B     		ldr	r3, .L91
 885 0024 4FF08D42 		mov	r2, #1182793728
 886 0028 1A61     		str	r2, [r3, #16]	@ float
 371:Libraries/ctrl_drv/i2c/mpu6050/MPU6050.c ****             break;
 887              		.loc 1 371 13 is_stmt 1 view .LVU107
 888              	.L82:
 372:Libraries/ctrl_drv/i2c/mpu6050/MPU6050.c ****         case MPU6050_ACCEL_FS_4:
 373:Libraries/ctrl_drv/i2c/mpu6050/MPU6050.c ****             mpu6050.accRangeScale = 32768 / 4.0;
 374:Libraries/ctrl_drv/i2c/mpu6050/MPU6050.c ****             break;
 375:Libraries/ctrl_drv/i2c/mpu6050/MPU6050.c ****         case MPU6050_ACCEL_FS_8:
 376:Libraries/ctrl_drv/i2c/mpu6050/MPU6050.c ****             mpu6050.accRangeScale = 32768 / 8.0;
 377:Libraries/ctrl_drv/i2c/mpu6050/MPU6050.c ****             break;
 378:Libraries/ctrl_drv/i2c/mpu6050/MPU6050.c ****         case MPU6050_ACCEL_FS_16:
 379:Libraries/ctrl_drv/i2c/mpu6050/MPU6050.c ****             mpu6050.accRangeScale = 32768 / 16.0;
 380:Libraries/ctrl_drv/i2c/mpu6050/MPU6050.c ****             break;
 381:Libraries/ctrl_drv/i2c/mpu6050/MPU6050.c ****         default:
 382:Libraries/ctrl_drv/i2c/mpu6050/MPU6050.c ****             break;
 383:Libraries/ctrl_drv/i2c/mpu6050/MPU6050.c ****     }
 384:Libraries/ctrl_drv/i2c/mpu6050/MPU6050.c **** }
 889              		.loc 1 384 1 is_stmt 0 view .LVU108
 890 002a 02B0     		add	sp, sp, #8
 891              	.LCFI34:
 892              		.cfi_remember_state
 893              		.cfi_def_cfa_offset 8
 894              		@ sp needed
 895 002c 10BD     		pop	{r4, pc}
 896              	.L87:
 897              	.LCFI35:
 898              		.cfi_restore_state
 373:Libraries/ctrl_drv/i2c/mpu6050/MPU6050.c ****             break;
 899              		.loc 1 373 13 is_stmt 1 view .LVU109
ARM GAS  C:\Users\Mxuan\AppData\Local\Temp\ccfnFihP.s 			page 23


 373:Libraries/ctrl_drv/i2c/mpu6050/MPU6050.c ****             break;
 900              		.loc 1 373 35 is_stmt 0 view .LVU110
 901 002e 074B     		ldr	r3, .L91
 902 0030 4FF08C42 		mov	r2, #1174405120
 903 0034 1A61     		str	r2, [r3, #16]	@ float
 374:Libraries/ctrl_drv/i2c/mpu6050/MPU6050.c ****         case MPU6050_ACCEL_FS_8:
 904              		.loc 1 374 13 is_stmt 1 view .LVU111
 905 0036 F8E7     		b	.L82
 906              	.L86:
 376:Libraries/ctrl_drv/i2c/mpu6050/MPU6050.c ****             break;
 907              		.loc 1 376 13 view .LVU112
 376:Libraries/ctrl_drv/i2c/mpu6050/MPU6050.c ****             break;
 908              		.loc 1 376 35 is_stmt 0 view .LVU113
 909 0038 044B     		ldr	r3, .L91
 910 003a 4FF08B42 		mov	r2, #1166016512
 911 003e 1A61     		str	r2, [r3, #16]	@ float
 377:Libraries/ctrl_drv/i2c/mpu6050/MPU6050.c ****         case MPU6050_ACCEL_FS_16:
 912              		.loc 1 377 13 is_stmt 1 view .LVU114
 913 0040 F3E7     		b	.L82
 914              	.L84:
 379:Libraries/ctrl_drv/i2c/mpu6050/MPU6050.c ****             break;
 915              		.loc 1 379 13 view .LVU115
 379:Libraries/ctrl_drv/i2c/mpu6050/MPU6050.c ****             break;
 916              		.loc 1 379 35 is_stmt 0 view .LVU116
 917 0042 024B     		ldr	r3, .L91
 918 0044 4FF08A42 		mov	r2, #1157627904
 919 0048 1A61     		str	r2, [r3, #16]	@ float
 380:Libraries/ctrl_drv/i2c/mpu6050/MPU6050.c ****         default:
 920              		.loc 1 380 13 is_stmt 1 view .LVU117
 921              		.loc 1 384 1 is_stmt 0 view .LVU118
 922 004a EEE7     		b	.L82
 923              	.L92:
 924              		.align	2
 925              	.L91:
 926 004c 00000000 		.word	mpu6050
 927              		.cfi_endproc
 928              	.LFE21:
 930              		.section	.text.MPU6050_getAccRangeScale,"ax",%progbits
 931              		.align	1
 932              		.global	MPU6050_getAccRangeScale
 933              		.syntax unified
 934              		.thumb
 935              		.thumb_func
 937              	MPU6050_getAccRangeScale:
 938              	.LFB22:
 385:Libraries/ctrl_drv/i2c/mpu6050/MPU6050.c **** 
 386:Libraries/ctrl_drv/i2c/mpu6050/MPU6050.c **** float MPU6050_getAccRangeScale(void)
 387:Libraries/ctrl_drv/i2c/mpu6050/MPU6050.c **** {
 939              		.loc 1 387 1 is_stmt 1 view -0
 940              		.cfi_startproc
 941              		@ args = 0, pretend = 0, frame = 0
 942              		@ frame_needed = 0, uses_anonymous_args = 0
 943              		@ link register save eliminated.
 388:Libraries/ctrl_drv/i2c/mpu6050/MPU6050.c ****     return mpu6050.accRangeScale;
 944              		.loc 1 388 5 view .LVU120
 389:Libraries/ctrl_drv/i2c/mpu6050/MPU6050.c **** }
 945              		.loc 1 389 1 is_stmt 0 view .LVU121
ARM GAS  C:\Users\Mxuan\AppData\Local\Temp\ccfnFihP.s 			page 24


 946 0000 014B     		ldr	r3, .L94
 947 0002 1869     		ldr	r0, [r3, #16]	@ float
 948 0004 7047     		bx	lr
 949              	.L95:
 950 0006 00BF     		.align	2
 951              	.L94:
 952 0008 00000000 		.word	mpu6050
 953              		.cfi_endproc
 954              	.LFE22:
 956              		.section	.text.MPU6050_getDHPFMode,"ax",%progbits
 957              		.align	1
 958              		.global	MPU6050_getDHPFMode
 959              		.syntax unified
 960              		.thumb
 961              		.thumb_func
 963              	MPU6050_getDHPFMode:
 964              	.LFB23:
 390:Libraries/ctrl_drv/i2c/mpu6050/MPU6050.c **** 
 391:Libraries/ctrl_drv/i2c/mpu6050/MPU6050.c **** 
 392:Libraries/ctrl_drv/i2c/mpu6050/MPU6050.c **** 
 393:Libraries/ctrl_drv/i2c/mpu6050/MPU6050.c **** /** Get the high-pass filter configuration.
 394:Libraries/ctrl_drv/i2c/mpu6050/MPU6050.c ****  * The DHPF is a filter module in the path leading to motion detectors (Free
 395:Libraries/ctrl_drv/i2c/mpu6050/MPU6050.c ****  * Fall, Motion threshold, and Zero Motion). The high pass filter output is not
 396:Libraries/ctrl_drv/i2c/mpu6050/MPU6050.c ****  * available to the data registers (see Figure in Section 8 of the MPU-6000/
 397:Libraries/ctrl_drv/i2c/mpu6050/MPU6050.c ****  * MPU-6050 Product Specification document).
 398:Libraries/ctrl_drv/i2c/mpu6050/MPU6050.c ****  *
 399:Libraries/ctrl_drv/i2c/mpu6050/MPU6050.c ****  * The high pass filter has three modes:
 400:Libraries/ctrl_drv/i2c/mpu6050/MPU6050.c ****  *
 401:Libraries/ctrl_drv/i2c/mpu6050/MPU6050.c ****  * <pre>
 402:Libraries/ctrl_drv/i2c/mpu6050/MPU6050.c ****  *    Reset: The filter output settles to zero within one sample. This
 403:Libraries/ctrl_drv/i2c/mpu6050/MPU6050.c ****  *           effectively disables the high pass filter. This mode may be toggled
 404:Libraries/ctrl_drv/i2c/mpu6050/MPU6050.c ****  *           to quickly settle the filter.
 405:Libraries/ctrl_drv/i2c/mpu6050/MPU6050.c ****  *
 406:Libraries/ctrl_drv/i2c/mpu6050/MPU6050.c ****  *    On:    The high pass filter will pass signals above the cut off frequency.
 407:Libraries/ctrl_drv/i2c/mpu6050/MPU6050.c ****  *
 408:Libraries/ctrl_drv/i2c/mpu6050/MPU6050.c ****  *    Hold:  When triggered, the filter holds the present sample. The filter
 409:Libraries/ctrl_drv/i2c/mpu6050/MPU6050.c ****  *           output will be the difference between the input sample and the held
 410:Libraries/ctrl_drv/i2c/mpu6050/MPU6050.c ****  *           sample.
 411:Libraries/ctrl_drv/i2c/mpu6050/MPU6050.c ****  * </pre>
 412:Libraries/ctrl_drv/i2c/mpu6050/MPU6050.c ****  *
 413:Libraries/ctrl_drv/i2c/mpu6050/MPU6050.c ****  * <pre>
 414:Libraries/ctrl_drv/i2c/mpu6050/MPU6050.c ****  * ACCEL_HPF | Filter Mode | Cut-off Frequency
 415:Libraries/ctrl_drv/i2c/mpu6050/MPU6050.c ****  * ----------+-------------+------------------
 416:Libraries/ctrl_drv/i2c/mpu6050/MPU6050.c ****  * 0         | Reset       | None
 417:Libraries/ctrl_drv/i2c/mpu6050/MPU6050.c ****  * 1         | On          | 5Hz
 418:Libraries/ctrl_drv/i2c/mpu6050/MPU6050.c ****  * 2         | On          | 2.5Hz
 419:Libraries/ctrl_drv/i2c/mpu6050/MPU6050.c ****  * 3         | On          | 1.25Hz
 420:Libraries/ctrl_drv/i2c/mpu6050/MPU6050.c ****  * 4         | On          | 0.63Hz
 421:Libraries/ctrl_drv/i2c/mpu6050/MPU6050.c ****  * 7         | Hold        | None
 422:Libraries/ctrl_drv/i2c/mpu6050/MPU6050.c ****  * </pre>
 423:Libraries/ctrl_drv/i2c/mpu6050/MPU6050.c ****  *
 424:Libraries/ctrl_drv/i2c/mpu6050/MPU6050.c ****  * @return Current high-pass filter configuration
 425:Libraries/ctrl_drv/i2c/mpu6050/MPU6050.c ****  * @see MPU6050_DHPF_RESET
 426:Libraries/ctrl_drv/i2c/mpu6050/MPU6050.c ****  * @see MPU6050_RA_ACCEL_CONFIG
 427:Libraries/ctrl_drv/i2c/mpu6050/MPU6050.c ****  */
 428:Libraries/ctrl_drv/i2c/mpu6050/MPU6050.c **** uint8_t MPU6050_getDHPFMode() {
 965              		.loc 1 428 31 is_stmt 1 view -0
ARM GAS  C:\Users\Mxuan\AppData\Local\Temp\ccfnFihP.s 			page 25


 966              		.cfi_startproc
 967              		@ args = 0, pretend = 0, frame = 0
 968              		@ frame_needed = 0, uses_anonymous_args = 0
 969 0000 10B5     		push	{r4, lr}
 970              	.LCFI36:
 971              		.cfi_def_cfa_offset 8
 972              		.cfi_offset 4, -8
 973              		.cfi_offset 14, -4
 974 0002 82B0     		sub	sp, sp, #8
 975              	.LCFI37:
 976              		.cfi_def_cfa_offset 16
 429:Libraries/ctrl_drv/i2c/mpu6050/MPU6050.c ****     I2Cdev_readBits(mpu6050.devAddr, MPU6050_RA_ACCEL_CONFIG, MPU6050_ACONFIG_ACCEL_HPF_BIT, MPU605
 977              		.loc 1 429 5 view .LVU123
 978 0004 064C     		ldr	r4, .L98
 979 0006 2346     		mov	r3, r4
 980 0008 13F8010B 		ldrb	r0, [r3], #1	@ zero_extendqisi2
 981 000c 0093     		str	r3, [sp]
 982 000e 0323     		movs	r3, #3
 983 0010 0222     		movs	r2, #2
 984 0012 1C21     		movs	r1, #28
 985 0014 FFF7FEFF 		bl	I2Cdev_readBits
 986              	.LVL37:
 430:Libraries/ctrl_drv/i2c/mpu6050/MPU6050.c ****     return mpu6050.buffer[0];
 987              		.loc 1 430 5 view .LVU124
 431:Libraries/ctrl_drv/i2c/mpu6050/MPU6050.c **** }
 988              		.loc 1 431 1 is_stmt 0 view .LVU125
 989 0018 6078     		ldrb	r0, [r4, #1]	@ zero_extendqisi2
 990 001a 02B0     		add	sp, sp, #8
 991              	.LCFI38:
 992              		.cfi_def_cfa_offset 8
 993              		@ sp needed
 994 001c 10BD     		pop	{r4, pc}
 995              	.L99:
 996 001e 00BF     		.align	2
 997              	.L98:
 998 0020 00000000 		.word	mpu6050
 999              		.cfi_endproc
 1000              	.LFE23:
 1002              		.section	.text.MPU6050_setDHPFMode,"ax",%progbits
 1003              		.align	1
 1004              		.global	MPU6050_setDHPFMode
 1005              		.syntax unified
 1006              		.thumb
 1007              		.thumb_func
 1009              	MPU6050_setDHPFMode:
 1010              	.LVL38:
 1011              	.LFB24:
 432:Libraries/ctrl_drv/i2c/mpu6050/MPU6050.c **** /** Set the high-pass filter configuration.
 433:Libraries/ctrl_drv/i2c/mpu6050/MPU6050.c ****  * @param bandwidth New high-pass filter configuration
 434:Libraries/ctrl_drv/i2c/mpu6050/MPU6050.c ****  * @see setDHPFMode()
 435:Libraries/ctrl_drv/i2c/mpu6050/MPU6050.c ****  * @see MPU6050_DHPF_RESET
 436:Libraries/ctrl_drv/i2c/mpu6050/MPU6050.c ****  * @see MPU6050_RA_ACCEL_CONFIG
 437:Libraries/ctrl_drv/i2c/mpu6050/MPU6050.c ****  */
 438:Libraries/ctrl_drv/i2c/mpu6050/MPU6050.c **** void MPU6050_setDHPFMode(uint8_t bandwidth) {
 1012              		.loc 1 438 45 is_stmt 1 view -0
 1013              		.cfi_startproc
 1014              		@ args = 0, pretend = 0, frame = 0
ARM GAS  C:\Users\Mxuan\AppData\Local\Temp\ccfnFihP.s 			page 26


 1015              		@ frame_needed = 0, uses_anonymous_args = 0
 1016              		.loc 1 438 45 is_stmt 0 view .LVU127
 1017 0000 00B5     		push	{lr}
 1018              	.LCFI39:
 1019              		.cfi_def_cfa_offset 4
 1020              		.cfi_offset 14, -4
 1021 0002 83B0     		sub	sp, sp, #12
 1022              	.LCFI40:
 1023              		.cfi_def_cfa_offset 16
 439:Libraries/ctrl_drv/i2c/mpu6050/MPU6050.c ****     I2Cdev_writeBits(mpu6050.devAddr, MPU6050_RA_ACCEL_CONFIG, MPU6050_ACONFIG_ACCEL_HPF_BIT, MPU60
 1024              		.loc 1 439 5 is_stmt 1 view .LVU128
 1025 0004 0090     		str	r0, [sp]
 1026 0006 0323     		movs	r3, #3
 1027 0008 0222     		movs	r2, #2
 1028 000a 1C21     		movs	r1, #28
 1029 000c 0348     		ldr	r0, .L102
 1030              	.LVL39:
 1031              		.loc 1 439 5 is_stmt 0 view .LVU129
 1032 000e 0078     		ldrb	r0, [r0]	@ zero_extendqisi2
 1033 0010 FFF7FEFF 		bl	I2Cdev_writeBits
 1034              	.LVL40:
 440:Libraries/ctrl_drv/i2c/mpu6050/MPU6050.c **** }
 1035              		.loc 1 440 1 view .LVU130
 1036 0014 03B0     		add	sp, sp, #12
 1037              	.LCFI41:
 1038              		.cfi_def_cfa_offset 4
 1039              		@ sp needed
 1040 0016 5DF804FB 		ldr	pc, [sp], #4
 1041              	.L103:
 1042 001a 00BF     		.align	2
 1043              	.L102:
 1044 001c 00000000 		.word	mpu6050
 1045              		.cfi_endproc
 1046              	.LFE24:
 1048              		.section	.text.MPU6050_getFreefallDetectionThreshold,"ax",%progbits
 1049              		.align	1
 1050              		.global	MPU6050_getFreefallDetectionThreshold
 1051              		.syntax unified
 1052              		.thumb
 1053              		.thumb_func
 1055              	MPU6050_getFreefallDetectionThreshold:
 1056              	.LFB25:
 441:Libraries/ctrl_drv/i2c/mpu6050/MPU6050.c **** 
 442:Libraries/ctrl_drv/i2c/mpu6050/MPU6050.c **** // FF_THR register
 443:Libraries/ctrl_drv/i2c/mpu6050/MPU6050.c **** 
 444:Libraries/ctrl_drv/i2c/mpu6050/MPU6050.c **** /** Get free-fall event acceleration threshold.
 445:Libraries/ctrl_drv/i2c/mpu6050/MPU6050.c ****  * This register configures the detection threshold for Free Fall event
 446:Libraries/ctrl_drv/i2c/mpu6050/MPU6050.c ****  * detection. The unit of FF_THR is 1LSB = 2mg. Free Fall is detected when the
 447:Libraries/ctrl_drv/i2c/mpu6050/MPU6050.c ****  * absolute value of the accelerometer measurements for the three axes are each
 448:Libraries/ctrl_drv/i2c/mpu6050/MPU6050.c ****  * less than the detection threshold. This condition increments the Free Fall
 449:Libraries/ctrl_drv/i2c/mpu6050/MPU6050.c ****  * duration counter (Register 30). The Free Fall interrupt is triggered when the
 450:Libraries/ctrl_drv/i2c/mpu6050/MPU6050.c ****  * Free Fall duration counter reaches the time specified in FF_DUR.
 451:Libraries/ctrl_drv/i2c/mpu6050/MPU6050.c ****  *
 452:Libraries/ctrl_drv/i2c/mpu6050/MPU6050.c ****  * For more details on the Free Fall detection interrupt, see Section 8.2 of the
 453:Libraries/ctrl_drv/i2c/mpu6050/MPU6050.c ****  * MPU-6000/MPU-6050 Product Specification document as well as Registers 56 and
 454:Libraries/ctrl_drv/i2c/mpu6050/MPU6050.c ****  * 58 of this document.
 455:Libraries/ctrl_drv/i2c/mpu6050/MPU6050.c ****  *
ARM GAS  C:\Users\Mxuan\AppData\Local\Temp\ccfnFihP.s 			page 27


 456:Libraries/ctrl_drv/i2c/mpu6050/MPU6050.c ****  * @return Current free-fall acceleration threshold value (LSB = 2mg)
 457:Libraries/ctrl_drv/i2c/mpu6050/MPU6050.c ****  * @see MPU6050_RA_FF_THR
 458:Libraries/ctrl_drv/i2c/mpu6050/MPU6050.c ****  */
 459:Libraries/ctrl_drv/i2c/mpu6050/MPU6050.c **** uint8_t MPU6050_getFreefallDetectionThreshold() {
 1057              		.loc 1 459 49 is_stmt 1 view -0
 1058              		.cfi_startproc
 1059              		@ args = 0, pretend = 0, frame = 0
 1060              		@ frame_needed = 0, uses_anonymous_args = 0
 1061 0000 10B5     		push	{r4, lr}
 1062              	.LCFI42:
 1063              		.cfi_def_cfa_offset 8
 1064              		.cfi_offset 4, -8
 1065              		.cfi_offset 14, -4
 460:Libraries/ctrl_drv/i2c/mpu6050/MPU6050.c ****     I2Cdev_readByte(mpu6050.devAddr, MPU6050_RA_FF_THR, mpu6050.buffer);
 1066              		.loc 1 460 5 view .LVU132
 1067 0002 044A     		ldr	r2, .L106
 1068 0004 541E     		subs	r4, r2, #1
 1069 0006 1D21     		movs	r1, #29
 1070 0008 12F8010C 		ldrb	r0, [r2, #-1]	@ zero_extendqisi2
 1071 000c FFF7FEFF 		bl	I2Cdev_readByte
 1072              	.LVL41:
 461:Libraries/ctrl_drv/i2c/mpu6050/MPU6050.c ****     return mpu6050.buffer[0];
 1073              		.loc 1 461 5 view .LVU133
 462:Libraries/ctrl_drv/i2c/mpu6050/MPU6050.c **** }
 1074              		.loc 1 462 1 is_stmt 0 view .LVU134
 1075 0010 6078     		ldrb	r0, [r4, #1]	@ zero_extendqisi2
 1076 0012 10BD     		pop	{r4, pc}
 1077              	.L107:
 1078              		.align	2
 1079              	.L106:
 1080 0014 01000000 		.word	mpu6050+1
 1081              		.cfi_endproc
 1082              	.LFE25:
 1084              		.section	.text.MPU6050_setFreefallDetectionThreshold,"ax",%progbits
 1085              		.align	1
 1086              		.global	MPU6050_setFreefallDetectionThreshold
 1087              		.syntax unified
 1088              		.thumb
 1089              		.thumb_func
 1091              	MPU6050_setFreefallDetectionThreshold:
 1092              	.LVL42:
 1093              	.LFB26:
 463:Libraries/ctrl_drv/i2c/mpu6050/MPU6050.c **** /** Get free-fall event acceleration threshold.
 464:Libraries/ctrl_drv/i2c/mpu6050/MPU6050.c ****  * @param threshold New free-fall acceleration threshold value (LSB = 2mg)
 465:Libraries/ctrl_drv/i2c/mpu6050/MPU6050.c ****  * @see getFreefallDetectionThreshold()
 466:Libraries/ctrl_drv/i2c/mpu6050/MPU6050.c ****  * @see MPU6050_RA_FF_THR
 467:Libraries/ctrl_drv/i2c/mpu6050/MPU6050.c ****  */
 468:Libraries/ctrl_drv/i2c/mpu6050/MPU6050.c **** void MPU6050_setFreefallDetectionThreshold(uint8_t threshold) {
 1094              		.loc 1 468 63 is_stmt 1 view -0
 1095              		.cfi_startproc
 1096              		@ args = 0, pretend = 0, frame = 0
 1097              		@ frame_needed = 0, uses_anonymous_args = 0
 1098              		.loc 1 468 63 is_stmt 0 view .LVU136
 1099 0000 08B5     		push	{r3, lr}
 1100              	.LCFI43:
 1101              		.cfi_def_cfa_offset 8
 1102              		.cfi_offset 3, -8
ARM GAS  C:\Users\Mxuan\AppData\Local\Temp\ccfnFihP.s 			page 28


 1103              		.cfi_offset 14, -4
 1104 0002 0246     		mov	r2, r0
 469:Libraries/ctrl_drv/i2c/mpu6050/MPU6050.c ****     I2Cdev_writeByte(mpu6050.devAddr, MPU6050_RA_FF_THR, threshold);
 1105              		.loc 1 469 5 is_stmt 1 view .LVU137
 1106 0004 1D21     		movs	r1, #29
 1107 0006 024B     		ldr	r3, .L110
 1108 0008 1878     		ldrb	r0, [r3]	@ zero_extendqisi2
 1109              	.LVL43:
 1110              		.loc 1 469 5 is_stmt 0 view .LVU138
 1111 000a FFF7FEFF 		bl	I2Cdev_writeByte
 1112              	.LVL44:
 470:Libraries/ctrl_drv/i2c/mpu6050/MPU6050.c **** }
 1113              		.loc 1 470 1 view .LVU139
 1114 000e 08BD     		pop	{r3, pc}
 1115              	.L111:
 1116              		.align	2
 1117              	.L110:
 1118 0010 00000000 		.word	mpu6050
 1119              		.cfi_endproc
 1120              	.LFE26:
 1122              		.section	.text.MPU6050_getFreefallDetectionDuration,"ax",%progbits
 1123              		.align	1
 1124              		.global	MPU6050_getFreefallDetectionDuration
 1125              		.syntax unified
 1126              		.thumb
 1127              		.thumb_func
 1129              	MPU6050_getFreefallDetectionDuration:
 1130              	.LFB27:
 471:Libraries/ctrl_drv/i2c/mpu6050/MPU6050.c **** 
 472:Libraries/ctrl_drv/i2c/mpu6050/MPU6050.c **** // FF_DUR register
 473:Libraries/ctrl_drv/i2c/mpu6050/MPU6050.c **** 
 474:Libraries/ctrl_drv/i2c/mpu6050/MPU6050.c **** /** Get free-fall event duration threshold.
 475:Libraries/ctrl_drv/i2c/mpu6050/MPU6050.c ****  * This register configures the duration counter threshold for Free Fall event
 476:Libraries/ctrl_drv/i2c/mpu6050/MPU6050.c ****  * detection. The duration counter ticks at 1kHz, therefore FF_DUR has a unit
 477:Libraries/ctrl_drv/i2c/mpu6050/MPU6050.c ****  * of 1 LSB = 1 ms.
 478:Libraries/ctrl_drv/i2c/mpu6050/MPU6050.c ****  *
 479:Libraries/ctrl_drv/i2c/mpu6050/MPU6050.c ****  * The Free Fall duration counter increments while the absolute value of the
 480:Libraries/ctrl_drv/i2c/mpu6050/MPU6050.c ****  * accelerometer measurements are each less than the detection threshold
 481:Libraries/ctrl_drv/i2c/mpu6050/MPU6050.c ****  * (Register 29). The Free Fall interrupt is triggered when the Free Fall
 482:Libraries/ctrl_drv/i2c/mpu6050/MPU6050.c ****  * duration counter reaches the time specified in this register.
 483:Libraries/ctrl_drv/i2c/mpu6050/MPU6050.c ****  *
 484:Libraries/ctrl_drv/i2c/mpu6050/MPU6050.c ****  * For more details on the Free Fall detection interrupt, see Section 8.2 of
 485:Libraries/ctrl_drv/i2c/mpu6050/MPU6050.c ****  * the MPU-6000/MPU-6050 Product Specification document as well as Registers 56
 486:Libraries/ctrl_drv/i2c/mpu6050/MPU6050.c ****  * and 58 of this document.
 487:Libraries/ctrl_drv/i2c/mpu6050/MPU6050.c ****  *
 488:Libraries/ctrl_drv/i2c/mpu6050/MPU6050.c ****  * @return Current free-fall duration threshold value (LSB = 1ms)
 489:Libraries/ctrl_drv/i2c/mpu6050/MPU6050.c ****  * @see MPU6050_RA_FF_DUR
 490:Libraries/ctrl_drv/i2c/mpu6050/MPU6050.c ****  */
 491:Libraries/ctrl_drv/i2c/mpu6050/MPU6050.c **** uint8_t MPU6050_getFreefallDetectionDuration() {
 1131              		.loc 1 491 48 is_stmt 1 view -0
 1132              		.cfi_startproc
 1133              		@ args = 0, pretend = 0, frame = 0
 1134              		@ frame_needed = 0, uses_anonymous_args = 0
 1135 0000 10B5     		push	{r4, lr}
 1136              	.LCFI44:
 1137              		.cfi_def_cfa_offset 8
 1138              		.cfi_offset 4, -8
ARM GAS  C:\Users\Mxuan\AppData\Local\Temp\ccfnFihP.s 			page 29


 1139              		.cfi_offset 14, -4
 492:Libraries/ctrl_drv/i2c/mpu6050/MPU6050.c ****     I2Cdev_readByte(mpu6050.devAddr, MPU6050_RA_FF_DUR, mpu6050.buffer);
 1140              		.loc 1 492 5 view .LVU141
 1141 0002 044A     		ldr	r2, .L114
 1142 0004 541E     		subs	r4, r2, #1
 1143 0006 1E21     		movs	r1, #30
 1144 0008 12F8010C 		ldrb	r0, [r2, #-1]	@ zero_extendqisi2
 1145 000c FFF7FEFF 		bl	I2Cdev_readByte
 1146              	.LVL45:
 493:Libraries/ctrl_drv/i2c/mpu6050/MPU6050.c ****     return mpu6050.buffer[0];
 1147              		.loc 1 493 5 view .LVU142
 494:Libraries/ctrl_drv/i2c/mpu6050/MPU6050.c **** }
 1148              		.loc 1 494 1 is_stmt 0 view .LVU143
 1149 0010 6078     		ldrb	r0, [r4, #1]	@ zero_extendqisi2
 1150 0012 10BD     		pop	{r4, pc}
 1151              	.L115:
 1152              		.align	2
 1153              	.L114:
 1154 0014 01000000 		.word	mpu6050+1
 1155              		.cfi_endproc
 1156              	.LFE27:
 1158              		.section	.text.MPU6050_setFreefallDetectionDuration,"ax",%progbits
 1159              		.align	1
 1160              		.global	MPU6050_setFreefallDetectionDuration
 1161              		.syntax unified
 1162              		.thumb
 1163              		.thumb_func
 1165              	MPU6050_setFreefallDetectionDuration:
 1166              	.LVL46:
 1167              	.LFB28:
 495:Libraries/ctrl_drv/i2c/mpu6050/MPU6050.c **** /** Get free-fall event duration threshold.
 496:Libraries/ctrl_drv/i2c/mpu6050/MPU6050.c ****  * @param duration New free-fall duration threshold value (LSB = 1ms)
 497:Libraries/ctrl_drv/i2c/mpu6050/MPU6050.c ****  * @see getFreefallDetectionDuration()
 498:Libraries/ctrl_drv/i2c/mpu6050/MPU6050.c ****  * @see MPU6050_RA_FF_DUR
 499:Libraries/ctrl_drv/i2c/mpu6050/MPU6050.c ****  */
 500:Libraries/ctrl_drv/i2c/mpu6050/MPU6050.c **** void MPU6050_setFreefallDetectionDuration(uint8_t duration) {
 1168              		.loc 1 500 61 is_stmt 1 view -0
 1169              		.cfi_startproc
 1170              		@ args = 0, pretend = 0, frame = 0
 1171              		@ frame_needed = 0, uses_anonymous_args = 0
 1172              		.loc 1 500 61 is_stmt 0 view .LVU145
 1173 0000 08B5     		push	{r3, lr}
 1174              	.LCFI45:
 1175              		.cfi_def_cfa_offset 8
 1176              		.cfi_offset 3, -8
 1177              		.cfi_offset 14, -4
 1178 0002 0246     		mov	r2, r0
 501:Libraries/ctrl_drv/i2c/mpu6050/MPU6050.c ****     I2Cdev_writeByte(mpu6050.devAddr, MPU6050_RA_FF_DUR, duration);
 1179              		.loc 1 501 5 is_stmt 1 view .LVU146
 1180 0004 1E21     		movs	r1, #30
 1181 0006 024B     		ldr	r3, .L118
 1182 0008 1878     		ldrb	r0, [r3]	@ zero_extendqisi2
 1183              	.LVL47:
 1184              		.loc 1 501 5 is_stmt 0 view .LVU147
 1185 000a FFF7FEFF 		bl	I2Cdev_writeByte
 1186              	.LVL48:
 502:Libraries/ctrl_drv/i2c/mpu6050/MPU6050.c **** }
ARM GAS  C:\Users\Mxuan\AppData\Local\Temp\ccfnFihP.s 			page 30


 1187              		.loc 1 502 1 view .LVU148
 1188 000e 08BD     		pop	{r3, pc}
 1189              	.L119:
 1190              		.align	2
 1191              	.L118:
 1192 0010 00000000 		.word	mpu6050
 1193              		.cfi_endproc
 1194              	.LFE28:
 1196              		.section	.text.MPU6050_getMotionDetectionThreshold,"ax",%progbits
 1197              		.align	1
 1198              		.global	MPU6050_getMotionDetectionThreshold
 1199              		.syntax unified
 1200              		.thumb
 1201              		.thumb_func
 1203              	MPU6050_getMotionDetectionThreshold:
 1204              	.LFB29:
 503:Libraries/ctrl_drv/i2c/mpu6050/MPU6050.c **** 
 504:Libraries/ctrl_drv/i2c/mpu6050/MPU6050.c **** // MOT_THR register
 505:Libraries/ctrl_drv/i2c/mpu6050/MPU6050.c **** 
 506:Libraries/ctrl_drv/i2c/mpu6050/MPU6050.c **** /** Get motion detection event acceleration threshold.
 507:Libraries/ctrl_drv/i2c/mpu6050/MPU6050.c ****  * This register configures the detection threshold for Motion interrupt
 508:Libraries/ctrl_drv/i2c/mpu6050/MPU6050.c ****  * generation. The unit of MOT_THR is 1LSB = 2mg. Motion is detected when the
 509:Libraries/ctrl_drv/i2c/mpu6050/MPU6050.c ****  * absolute value of any of the accelerometer measurements exceeds this Motion
 510:Libraries/ctrl_drv/i2c/mpu6050/MPU6050.c ****  * detection threshold. This condition increments the Motion detection duration
 511:Libraries/ctrl_drv/i2c/mpu6050/MPU6050.c ****  * counter (Register 32). The Motion detection interrupt is triggered when the
 512:Libraries/ctrl_drv/i2c/mpu6050/MPU6050.c ****  * Motion Detection counter reaches the time count specified in MOT_DUR
 513:Libraries/ctrl_drv/i2c/mpu6050/MPU6050.c ****  * (Register 32).
 514:Libraries/ctrl_drv/i2c/mpu6050/MPU6050.c ****  *
 515:Libraries/ctrl_drv/i2c/mpu6050/MPU6050.c ****  * The Motion interrupt will indicate the axis and polarity of detected motion
 516:Libraries/ctrl_drv/i2c/mpu6050/MPU6050.c ****  * in MOT_DETECT_STATUS (Register 97).
 517:Libraries/ctrl_drv/i2c/mpu6050/MPU6050.c ****  *
 518:Libraries/ctrl_drv/i2c/mpu6050/MPU6050.c ****  * For more details on the Motion detection interrupt, see Section 8.3 of the
 519:Libraries/ctrl_drv/i2c/mpu6050/MPU6050.c ****  * MPU-6000/MPU-6050 Product Specification document as well as Registers 56 and
 520:Libraries/ctrl_drv/i2c/mpu6050/MPU6050.c ****  * 58 of this document.
 521:Libraries/ctrl_drv/i2c/mpu6050/MPU6050.c ****  *
 522:Libraries/ctrl_drv/i2c/mpu6050/MPU6050.c ****  * @return Current motion detection acceleration threshold value (LSB = 2mg)
 523:Libraries/ctrl_drv/i2c/mpu6050/MPU6050.c ****  * @see MPU6050_RA_MOT_THR
 524:Libraries/ctrl_drv/i2c/mpu6050/MPU6050.c ****  */
 525:Libraries/ctrl_drv/i2c/mpu6050/MPU6050.c **** uint8_t MPU6050_getMotionDetectionThreshold() {
 1205              		.loc 1 525 47 is_stmt 1 view -0
 1206              		.cfi_startproc
 1207              		@ args = 0, pretend = 0, frame = 0
 1208              		@ frame_needed = 0, uses_anonymous_args = 0
 1209 0000 10B5     		push	{r4, lr}
 1210              	.LCFI46:
 1211              		.cfi_def_cfa_offset 8
 1212              		.cfi_offset 4, -8
 1213              		.cfi_offset 14, -4
 526:Libraries/ctrl_drv/i2c/mpu6050/MPU6050.c ****     I2Cdev_readByte(mpu6050.devAddr, MPU6050_RA_MOT_THR, mpu6050.buffer);
 1214              		.loc 1 526 5 view .LVU150
 1215 0002 044A     		ldr	r2, .L122
 1216 0004 541E     		subs	r4, r2, #1
 1217 0006 1F21     		movs	r1, #31
 1218 0008 12F8010C 		ldrb	r0, [r2, #-1]	@ zero_extendqisi2
 1219 000c FFF7FEFF 		bl	I2Cdev_readByte
 1220              	.LVL49:
 527:Libraries/ctrl_drv/i2c/mpu6050/MPU6050.c ****     return mpu6050.buffer[0];
ARM GAS  C:\Users\Mxuan\AppData\Local\Temp\ccfnFihP.s 			page 31


 1221              		.loc 1 527 5 view .LVU151
 528:Libraries/ctrl_drv/i2c/mpu6050/MPU6050.c **** }
 1222              		.loc 1 528 1 is_stmt 0 view .LVU152
 1223 0010 6078     		ldrb	r0, [r4, #1]	@ zero_extendqisi2
 1224 0012 10BD     		pop	{r4, pc}
 1225              	.L123:
 1226              		.align	2
 1227              	.L122:
 1228 0014 01000000 		.word	mpu6050+1
 1229              		.cfi_endproc
 1230              	.LFE29:
 1232              		.section	.text.MPU6050_setMotionDetectionThreshold,"ax",%progbits
 1233              		.align	1
 1234              		.global	MPU6050_setMotionDetectionThreshold
 1235              		.syntax unified
 1236              		.thumb
 1237              		.thumb_func
 1239              	MPU6050_setMotionDetectionThreshold:
 1240              	.LVL50:
 1241              	.LFB30:
 529:Libraries/ctrl_drv/i2c/mpu6050/MPU6050.c **** /** Set free-fall event acceleration threshold.
 530:Libraries/ctrl_drv/i2c/mpu6050/MPU6050.c ****  * @param threshold New motion detection acceleration threshold value (LSB = 2mg)
 531:Libraries/ctrl_drv/i2c/mpu6050/MPU6050.c ****  * @see getMotionDetectionThreshold()
 532:Libraries/ctrl_drv/i2c/mpu6050/MPU6050.c ****  * @see MPU6050_RA_MOT_THR
 533:Libraries/ctrl_drv/i2c/mpu6050/MPU6050.c ****  */
 534:Libraries/ctrl_drv/i2c/mpu6050/MPU6050.c **** void MPU6050_setMotionDetectionThreshold(uint8_t threshold) {
 1242              		.loc 1 534 61 is_stmt 1 view -0
 1243              		.cfi_startproc
 1244              		@ args = 0, pretend = 0, frame = 0
 1245              		@ frame_needed = 0, uses_anonymous_args = 0
 1246              		.loc 1 534 61 is_stmt 0 view .LVU154
 1247 0000 08B5     		push	{r3, lr}
 1248              	.LCFI47:
 1249              		.cfi_def_cfa_offset 8
 1250              		.cfi_offset 3, -8
 1251              		.cfi_offset 14, -4
 1252 0002 0246     		mov	r2, r0
 535:Libraries/ctrl_drv/i2c/mpu6050/MPU6050.c ****     I2Cdev_writeByte(mpu6050.devAddr, MPU6050_RA_MOT_THR, threshold);
 1253              		.loc 1 535 5 is_stmt 1 view .LVU155
 1254 0004 1F21     		movs	r1, #31
 1255 0006 024B     		ldr	r3, .L126
 1256 0008 1878     		ldrb	r0, [r3]	@ zero_extendqisi2
 1257              	.LVL51:
 1258              		.loc 1 535 5 is_stmt 0 view .LVU156
 1259 000a FFF7FEFF 		bl	I2Cdev_writeByte
 1260              	.LVL52:
 536:Libraries/ctrl_drv/i2c/mpu6050/MPU6050.c **** }
 1261              		.loc 1 536 1 view .LVU157
 1262 000e 08BD     		pop	{r3, pc}
 1263              	.L127:
 1264              		.align	2
 1265              	.L126:
 1266 0010 00000000 		.word	mpu6050
 1267              		.cfi_endproc
 1268              	.LFE30:
 1270              		.section	.text.MPU6050_getMotionDetectionDuration,"ax",%progbits
 1271              		.align	1
ARM GAS  C:\Users\Mxuan\AppData\Local\Temp\ccfnFihP.s 			page 32


 1272              		.global	MPU6050_getMotionDetectionDuration
 1273              		.syntax unified
 1274              		.thumb
 1275              		.thumb_func
 1277              	MPU6050_getMotionDetectionDuration:
 1278              	.LFB31:
 537:Libraries/ctrl_drv/i2c/mpu6050/MPU6050.c **** 
 538:Libraries/ctrl_drv/i2c/mpu6050/MPU6050.c **** // MOT_DUR register
 539:Libraries/ctrl_drv/i2c/mpu6050/MPU6050.c **** 
 540:Libraries/ctrl_drv/i2c/mpu6050/MPU6050.c **** /** Get motion detection event duration threshold.
 541:Libraries/ctrl_drv/i2c/mpu6050/MPU6050.c ****  * This register configures the duration counter threshold for Motion interrupt
 542:Libraries/ctrl_drv/i2c/mpu6050/MPU6050.c ****  * generation. The duration counter ticks at 1 kHz, therefore MOT_DUR has a unit
 543:Libraries/ctrl_drv/i2c/mpu6050/MPU6050.c ****  * of 1LSB = 1ms. The Motion detection duration counter increments when the
 544:Libraries/ctrl_drv/i2c/mpu6050/MPU6050.c ****  * absolute value of any of the accelerometer measurements exceeds the Motion
 545:Libraries/ctrl_drv/i2c/mpu6050/MPU6050.c ****  * detection threshold (Register 31). The Motion detection interrupt is
 546:Libraries/ctrl_drv/i2c/mpu6050/MPU6050.c ****  * triggered when the Motion detection counter reaches the time count specified
 547:Libraries/ctrl_drv/i2c/mpu6050/MPU6050.c ****  * in this register.
 548:Libraries/ctrl_drv/i2c/mpu6050/MPU6050.c ****  *
 549:Libraries/ctrl_drv/i2c/mpu6050/MPU6050.c ****  * For more details on the Motion detection interrupt, see Section 8.3 of the
 550:Libraries/ctrl_drv/i2c/mpu6050/MPU6050.c ****  * MPU-6000/MPU-6050 Product Specification document.
 551:Libraries/ctrl_drv/i2c/mpu6050/MPU6050.c ****  *
 552:Libraries/ctrl_drv/i2c/mpu6050/MPU6050.c ****  * @return Current motion detection duration threshold value (LSB = 1ms)
 553:Libraries/ctrl_drv/i2c/mpu6050/MPU6050.c ****  * @see MPU6050_RA_MOT_DUR
 554:Libraries/ctrl_drv/i2c/mpu6050/MPU6050.c ****  */
 555:Libraries/ctrl_drv/i2c/mpu6050/MPU6050.c **** uint8_t MPU6050_getMotionDetectionDuration() {
 1279              		.loc 1 555 46 is_stmt 1 view -0
 1280              		.cfi_startproc
 1281              		@ args = 0, pretend = 0, frame = 0
 1282              		@ frame_needed = 0, uses_anonymous_args = 0
 1283 0000 10B5     		push	{r4, lr}
 1284              	.LCFI48:
 1285              		.cfi_def_cfa_offset 8
 1286              		.cfi_offset 4, -8
 1287              		.cfi_offset 14, -4
 556:Libraries/ctrl_drv/i2c/mpu6050/MPU6050.c ****     I2Cdev_readByte(mpu6050.devAddr, MPU6050_RA_MOT_DUR, mpu6050.buffer);
 1288              		.loc 1 556 5 view .LVU159
 1289 0002 044A     		ldr	r2, .L130
 1290 0004 541E     		subs	r4, r2, #1
 1291 0006 2021     		movs	r1, #32
 1292 0008 12F8010C 		ldrb	r0, [r2, #-1]	@ zero_extendqisi2
 1293 000c FFF7FEFF 		bl	I2Cdev_readByte
 1294              	.LVL53:
 557:Libraries/ctrl_drv/i2c/mpu6050/MPU6050.c ****     return mpu6050.buffer[0];
 1295              		.loc 1 557 5 view .LVU160
 558:Libraries/ctrl_drv/i2c/mpu6050/MPU6050.c **** }
 1296              		.loc 1 558 1 is_stmt 0 view .LVU161
 1297 0010 6078     		ldrb	r0, [r4, #1]	@ zero_extendqisi2
 1298 0012 10BD     		pop	{r4, pc}
 1299              	.L131:
 1300              		.align	2
 1301              	.L130:
 1302 0014 01000000 		.word	mpu6050+1
 1303              		.cfi_endproc
 1304              	.LFE31:
 1306              		.section	.text.MPU6050_setMotionDetectionDuration,"ax",%progbits
 1307              		.align	1
 1308              		.global	MPU6050_setMotionDetectionDuration
ARM GAS  C:\Users\Mxuan\AppData\Local\Temp\ccfnFihP.s 			page 33


 1309              		.syntax unified
 1310              		.thumb
 1311              		.thumb_func
 1313              	MPU6050_setMotionDetectionDuration:
 1314              	.LVL54:
 1315              	.LFB32:
 559:Libraries/ctrl_drv/i2c/mpu6050/MPU6050.c **** /** Set motion detection event duration threshold.
 560:Libraries/ctrl_drv/i2c/mpu6050/MPU6050.c ****  * @param duration New motion detection duration threshold value (LSB = 1ms)
 561:Libraries/ctrl_drv/i2c/mpu6050/MPU6050.c ****  * @see getMotionDetectionDuration()
 562:Libraries/ctrl_drv/i2c/mpu6050/MPU6050.c ****  * @see MPU6050_RA_MOT_DUR
 563:Libraries/ctrl_drv/i2c/mpu6050/MPU6050.c ****  */
 564:Libraries/ctrl_drv/i2c/mpu6050/MPU6050.c **** void MPU6050_setMotionDetectionDuration(uint8_t duration) {
 1316              		.loc 1 564 59 is_stmt 1 view -0
 1317              		.cfi_startproc
 1318              		@ args = 0, pretend = 0, frame = 0
 1319              		@ frame_needed = 0, uses_anonymous_args = 0
 1320              		.loc 1 564 59 is_stmt 0 view .LVU163
 1321 0000 08B5     		push	{r3, lr}
 1322              	.LCFI49:
 1323              		.cfi_def_cfa_offset 8
 1324              		.cfi_offset 3, -8
 1325              		.cfi_offset 14, -4
 1326 0002 0246     		mov	r2, r0
 565:Libraries/ctrl_drv/i2c/mpu6050/MPU6050.c ****     I2Cdev_writeByte(mpu6050.devAddr, MPU6050_RA_MOT_DUR, duration);
 1327              		.loc 1 565 5 is_stmt 1 view .LVU164
 1328 0004 2021     		movs	r1, #32
 1329 0006 024B     		ldr	r3, .L134
 1330 0008 1878     		ldrb	r0, [r3]	@ zero_extendqisi2
 1331              	.LVL55:
 1332              		.loc 1 565 5 is_stmt 0 view .LVU165
 1333 000a FFF7FEFF 		bl	I2Cdev_writeByte
 1334              	.LVL56:
 566:Libraries/ctrl_drv/i2c/mpu6050/MPU6050.c **** }
 1335              		.loc 1 566 1 view .LVU166
 1336 000e 08BD     		pop	{r3, pc}
 1337              	.L135:
 1338              		.align	2
 1339              	.L134:
 1340 0010 00000000 		.word	mpu6050
 1341              		.cfi_endproc
 1342              	.LFE32:
 1344              		.section	.text.MPU6050_getZeroMotionDetectionThreshold,"ax",%progbits
 1345              		.align	1
 1346              		.global	MPU6050_getZeroMotionDetectionThreshold
 1347              		.syntax unified
 1348              		.thumb
 1349              		.thumb_func
 1351              	MPU6050_getZeroMotionDetectionThreshold:
 1352              	.LFB33:
 567:Libraries/ctrl_drv/i2c/mpu6050/MPU6050.c **** 
 568:Libraries/ctrl_drv/i2c/mpu6050/MPU6050.c **** // ZRMOT_THR register
 569:Libraries/ctrl_drv/i2c/mpu6050/MPU6050.c **** 
 570:Libraries/ctrl_drv/i2c/mpu6050/MPU6050.c **** /** Get zero motion detection event acceleration threshold.
 571:Libraries/ctrl_drv/i2c/mpu6050/MPU6050.c ****  * This register configures the detection threshold for Zero Motion interrupt
 572:Libraries/ctrl_drv/i2c/mpu6050/MPU6050.c ****  * generation. The unit of ZRMOT_THR is 1LSB = 2mg. Zero Motion is detected when
 573:Libraries/ctrl_drv/i2c/mpu6050/MPU6050.c ****  * the absolute value of the accelerometer measurements for the 3 axes are each
 574:Libraries/ctrl_drv/i2c/mpu6050/MPU6050.c ****  * less than the detection threshold. This condition increments the Zero Motion
ARM GAS  C:\Users\Mxuan\AppData\Local\Temp\ccfnFihP.s 			page 34


 575:Libraries/ctrl_drv/i2c/mpu6050/MPU6050.c ****  * duration counter (Register 34). The Zero Motion interrupt is triggered when
 576:Libraries/ctrl_drv/i2c/mpu6050/MPU6050.c ****  * the Zero Motion duration counter reaches the time count specified in
 577:Libraries/ctrl_drv/i2c/mpu6050/MPU6050.c ****  * ZRMOT_DUR (Register 34).
 578:Libraries/ctrl_drv/i2c/mpu6050/MPU6050.c ****  *
 579:Libraries/ctrl_drv/i2c/mpu6050/MPU6050.c ****  * Unlike Free Fall or Motion detection, Zero Motion detection triggers an
 580:Libraries/ctrl_drv/i2c/mpu6050/MPU6050.c ****  * interrupt both when Zero Motion is first detected and when Zero Motion is no
 581:Libraries/ctrl_drv/i2c/mpu6050/MPU6050.c ****  * longer detected.
 582:Libraries/ctrl_drv/i2c/mpu6050/MPU6050.c ****  *
 583:Libraries/ctrl_drv/i2c/mpu6050/MPU6050.c ****  * When a zero motion event is detected, a Zero Motion Status will be indicated
 584:Libraries/ctrl_drv/i2c/mpu6050/MPU6050.c ****  * in the MOT_DETECT_STATUS register (Register 97). When a motion-to-zero-motion
 585:Libraries/ctrl_drv/i2c/mpu6050/MPU6050.c ****  * condition is detected, the status bit is set to 1. When a zero-motion-to-
 586:Libraries/ctrl_drv/i2c/mpu6050/MPU6050.c ****  * motion condition is detected, the status bit is set to 0.
 587:Libraries/ctrl_drv/i2c/mpu6050/MPU6050.c ****  *
 588:Libraries/ctrl_drv/i2c/mpu6050/MPU6050.c ****  * For more details on the Zero Motion detection interrupt, see Section 8.4 of
 589:Libraries/ctrl_drv/i2c/mpu6050/MPU6050.c ****  * the MPU-6000/MPU-6050 Product Specification document as well as Registers 56
 590:Libraries/ctrl_drv/i2c/mpu6050/MPU6050.c ****  * and 58 of this document.
 591:Libraries/ctrl_drv/i2c/mpu6050/MPU6050.c ****  *
 592:Libraries/ctrl_drv/i2c/mpu6050/MPU6050.c ****  * @return Current zero motion detection acceleration threshold value (LSB = 2mg)
 593:Libraries/ctrl_drv/i2c/mpu6050/MPU6050.c ****  * @see MPU6050_RA_ZRMOT_THR
 594:Libraries/ctrl_drv/i2c/mpu6050/MPU6050.c ****  */
 595:Libraries/ctrl_drv/i2c/mpu6050/MPU6050.c **** uint8_t MPU6050_getZeroMotionDetectionThreshold() {
 1353              		.loc 1 595 51 is_stmt 1 view -0
 1354              		.cfi_startproc
 1355              		@ args = 0, pretend = 0, frame = 0
 1356              		@ frame_needed = 0, uses_anonymous_args = 0
 1357 0000 10B5     		push	{r4, lr}
 1358              	.LCFI50:
 1359              		.cfi_def_cfa_offset 8
 1360              		.cfi_offset 4, -8
 1361              		.cfi_offset 14, -4
 596:Libraries/ctrl_drv/i2c/mpu6050/MPU6050.c ****     I2Cdev_readByte(mpu6050.devAddr, MPU6050_RA_ZRMOT_THR, mpu6050.buffer);
 1362              		.loc 1 596 5 view .LVU168
 1363 0002 044A     		ldr	r2, .L138
 1364 0004 541E     		subs	r4, r2, #1
 1365 0006 2121     		movs	r1, #33
 1366 0008 12F8010C 		ldrb	r0, [r2, #-1]	@ zero_extendqisi2
 1367 000c FFF7FEFF 		bl	I2Cdev_readByte
 1368              	.LVL57:
 597:Libraries/ctrl_drv/i2c/mpu6050/MPU6050.c ****     return mpu6050.buffer[0];
 1369              		.loc 1 597 5 view .LVU169
 598:Libraries/ctrl_drv/i2c/mpu6050/MPU6050.c **** }
 1370              		.loc 1 598 1 is_stmt 0 view .LVU170
 1371 0010 6078     		ldrb	r0, [r4, #1]	@ zero_extendqisi2
 1372 0012 10BD     		pop	{r4, pc}
 1373              	.L139:
 1374              		.align	2
 1375              	.L138:
 1376 0014 01000000 		.word	mpu6050+1
 1377              		.cfi_endproc
 1378              	.LFE33:
 1380              		.section	.text.MPU6050_setZeroMotionDetectionThreshold,"ax",%progbits
 1381              		.align	1
 1382              		.global	MPU6050_setZeroMotionDetectionThreshold
 1383              		.syntax unified
 1384              		.thumb
 1385              		.thumb_func
 1387              	MPU6050_setZeroMotionDetectionThreshold:
ARM GAS  C:\Users\Mxuan\AppData\Local\Temp\ccfnFihP.s 			page 35


 1388              	.LVL58:
 1389              	.LFB34:
 599:Libraries/ctrl_drv/i2c/mpu6050/MPU6050.c **** /** Set zero motion detection event acceleration threshold.
 600:Libraries/ctrl_drv/i2c/mpu6050/MPU6050.c ****  * @param threshold New zero motion detection acceleration threshold value (LSB = 2mg)
 601:Libraries/ctrl_drv/i2c/mpu6050/MPU6050.c ****  * @see getZeroMotionDetectionThreshold()
 602:Libraries/ctrl_drv/i2c/mpu6050/MPU6050.c ****  * @see MPU6050_RA_ZRMOT_THR
 603:Libraries/ctrl_drv/i2c/mpu6050/MPU6050.c ****  */
 604:Libraries/ctrl_drv/i2c/mpu6050/MPU6050.c **** void MPU6050_setZeroMotionDetectionThreshold(uint8_t threshold) {
 1390              		.loc 1 604 65 is_stmt 1 view -0
 1391              		.cfi_startproc
 1392              		@ args = 0, pretend = 0, frame = 0
 1393              		@ frame_needed = 0, uses_anonymous_args = 0
 1394              		.loc 1 604 65 is_stmt 0 view .LVU172
 1395 0000 08B5     		push	{r3, lr}
 1396              	.LCFI51:
 1397              		.cfi_def_cfa_offset 8
 1398              		.cfi_offset 3, -8
 1399              		.cfi_offset 14, -4
 1400 0002 0246     		mov	r2, r0
 605:Libraries/ctrl_drv/i2c/mpu6050/MPU6050.c ****     I2Cdev_writeByte(mpu6050.devAddr, MPU6050_RA_ZRMOT_THR, threshold);
 1401              		.loc 1 605 5 is_stmt 1 view .LVU173
 1402 0004 2121     		movs	r1, #33
 1403 0006 024B     		ldr	r3, .L142
 1404 0008 1878     		ldrb	r0, [r3]	@ zero_extendqisi2
 1405              	.LVL59:
 1406              		.loc 1 605 5 is_stmt 0 view .LVU174
 1407 000a FFF7FEFF 		bl	I2Cdev_writeByte
 1408              	.LVL60:
 606:Libraries/ctrl_drv/i2c/mpu6050/MPU6050.c **** }
 1409              		.loc 1 606 1 view .LVU175
 1410 000e 08BD     		pop	{r3, pc}
 1411              	.L143:
 1412              		.align	2
 1413              	.L142:
 1414 0010 00000000 		.word	mpu6050
 1415              		.cfi_endproc
 1416              	.LFE34:
 1418              		.section	.text.MPU6050_getZeroMotionDetectionDuration,"ax",%progbits
 1419              		.align	1
 1420              		.global	MPU6050_getZeroMotionDetectionDuration
 1421              		.syntax unified
 1422              		.thumb
 1423              		.thumb_func
 1425              	MPU6050_getZeroMotionDetectionDuration:
 1426              	.LFB35:
 607:Libraries/ctrl_drv/i2c/mpu6050/MPU6050.c **** 
 608:Libraries/ctrl_drv/i2c/mpu6050/MPU6050.c **** // ZRMOT_DUR register
 609:Libraries/ctrl_drv/i2c/mpu6050/MPU6050.c **** 
 610:Libraries/ctrl_drv/i2c/mpu6050/MPU6050.c **** /** Get zero motion detection event duration threshold.
 611:Libraries/ctrl_drv/i2c/mpu6050/MPU6050.c ****  * This register configures the duration counter threshold for Zero Motion
 612:Libraries/ctrl_drv/i2c/mpu6050/MPU6050.c ****  * interrupt generation. The duration counter ticks at 16 Hz, therefore
 613:Libraries/ctrl_drv/i2c/mpu6050/MPU6050.c ****  * ZRMOT_DUR has a unit of 1 LSB = 64 ms. The Zero Motion duration counter
 614:Libraries/ctrl_drv/i2c/mpu6050/MPU6050.c ****  * increments while the absolute value of the accelerometer measurements are
 615:Libraries/ctrl_drv/i2c/mpu6050/MPU6050.c ****  * each less than the detection threshold (Register 33). The Zero Motion
 616:Libraries/ctrl_drv/i2c/mpu6050/MPU6050.c ****  * interrupt is triggered when the Zero Motion duration counter reaches the time
 617:Libraries/ctrl_drv/i2c/mpu6050/MPU6050.c ****  * count specified in this register.
 618:Libraries/ctrl_drv/i2c/mpu6050/MPU6050.c ****  *
ARM GAS  C:\Users\Mxuan\AppData\Local\Temp\ccfnFihP.s 			page 36


 619:Libraries/ctrl_drv/i2c/mpu6050/MPU6050.c ****  * For more details on the Zero Motion detection interrupt, see Section 8.4 of
 620:Libraries/ctrl_drv/i2c/mpu6050/MPU6050.c ****  * the MPU-6000/MPU-6050 Product Specification document, as well as Registers 56
 621:Libraries/ctrl_drv/i2c/mpu6050/MPU6050.c ****  * and 58 of this document.
 622:Libraries/ctrl_drv/i2c/mpu6050/MPU6050.c ****  *
 623:Libraries/ctrl_drv/i2c/mpu6050/MPU6050.c ****  * @return Current zero motion detection duration threshold value (LSB = 64ms)
 624:Libraries/ctrl_drv/i2c/mpu6050/MPU6050.c ****  * @see MPU6050_RA_ZRMOT_DUR
 625:Libraries/ctrl_drv/i2c/mpu6050/MPU6050.c ****  */
 626:Libraries/ctrl_drv/i2c/mpu6050/MPU6050.c **** uint8_t MPU6050_getZeroMotionDetectionDuration() {
 1427              		.loc 1 626 50 is_stmt 1 view -0
 1428              		.cfi_startproc
 1429              		@ args = 0, pretend = 0, frame = 0
 1430              		@ frame_needed = 0, uses_anonymous_args = 0
 1431 0000 10B5     		push	{r4, lr}
 1432              	.LCFI52:
 1433              		.cfi_def_cfa_offset 8
 1434              		.cfi_offset 4, -8
 1435              		.cfi_offset 14, -4
 627:Libraries/ctrl_drv/i2c/mpu6050/MPU6050.c ****     I2Cdev_readByte(mpu6050.devAddr, MPU6050_RA_ZRMOT_DUR, mpu6050.buffer);
 1436              		.loc 1 627 5 view .LVU177
 1437 0002 044A     		ldr	r2, .L146
 1438 0004 541E     		subs	r4, r2, #1
 1439 0006 2221     		movs	r1, #34
 1440 0008 12F8010C 		ldrb	r0, [r2, #-1]	@ zero_extendqisi2
 1441 000c FFF7FEFF 		bl	I2Cdev_readByte
 1442              	.LVL61:
 628:Libraries/ctrl_drv/i2c/mpu6050/MPU6050.c ****     return mpu6050.buffer[0];
 1443              		.loc 1 628 5 view .LVU178
 629:Libraries/ctrl_drv/i2c/mpu6050/MPU6050.c **** }
 1444              		.loc 1 629 1 is_stmt 0 view .LVU179
 1445 0010 6078     		ldrb	r0, [r4, #1]	@ zero_extendqisi2
 1446 0012 10BD     		pop	{r4, pc}
 1447              	.L147:
 1448              		.align	2
 1449              	.L146:
 1450 0014 01000000 		.word	mpu6050+1
 1451              		.cfi_endproc
 1452              	.LFE35:
 1454              		.section	.text.MPU6050_setZeroMotionDetectionDuration,"ax",%progbits
 1455              		.align	1
 1456              		.global	MPU6050_setZeroMotionDetectionDuration
 1457              		.syntax unified
 1458              		.thumb
 1459              		.thumb_func
 1461              	MPU6050_setZeroMotionDetectionDuration:
 1462              	.LVL62:
 1463              	.LFB36:
 630:Libraries/ctrl_drv/i2c/mpu6050/MPU6050.c **** /** Set zero motion detection event duration threshold.
 631:Libraries/ctrl_drv/i2c/mpu6050/MPU6050.c ****  * @param duration New zero motion detection duration threshold value (LSB = 1ms)
 632:Libraries/ctrl_drv/i2c/mpu6050/MPU6050.c ****  * @see getZeroMotionDetectionDuration()
 633:Libraries/ctrl_drv/i2c/mpu6050/MPU6050.c ****  * @see MPU6050_RA_ZRMOT_DUR
 634:Libraries/ctrl_drv/i2c/mpu6050/MPU6050.c ****  */
 635:Libraries/ctrl_drv/i2c/mpu6050/MPU6050.c **** void MPU6050_setZeroMotionDetectionDuration(uint8_t duration) {
 1464              		.loc 1 635 63 is_stmt 1 view -0
 1465              		.cfi_startproc
 1466              		@ args = 0, pretend = 0, frame = 0
 1467              		@ frame_needed = 0, uses_anonymous_args = 0
 1468              		.loc 1 635 63 is_stmt 0 view .LVU181
ARM GAS  C:\Users\Mxuan\AppData\Local\Temp\ccfnFihP.s 			page 37


 1469 0000 08B5     		push	{r3, lr}
 1470              	.LCFI53:
 1471              		.cfi_def_cfa_offset 8
 1472              		.cfi_offset 3, -8
 1473              		.cfi_offset 14, -4
 1474 0002 0246     		mov	r2, r0
 636:Libraries/ctrl_drv/i2c/mpu6050/MPU6050.c ****     I2Cdev_writeByte(mpu6050.devAddr, MPU6050_RA_ZRMOT_DUR, duration);
 1475              		.loc 1 636 5 is_stmt 1 view .LVU182
 1476 0004 2221     		movs	r1, #34
 1477 0006 024B     		ldr	r3, .L150
 1478 0008 1878     		ldrb	r0, [r3]	@ zero_extendqisi2
 1479              	.LVL63:
 1480              		.loc 1 636 5 is_stmt 0 view .LVU183
 1481 000a FFF7FEFF 		bl	I2Cdev_writeByte
 1482              	.LVL64:
 637:Libraries/ctrl_drv/i2c/mpu6050/MPU6050.c **** }
 1483              		.loc 1 637 1 view .LVU184
 1484 000e 08BD     		pop	{r3, pc}
 1485              	.L151:
 1486              		.align	2
 1487              	.L150:
 1488 0010 00000000 		.word	mpu6050
 1489              		.cfi_endproc
 1490              	.LFE36:
 1492              		.section	.text.MPU6050_getTempFIFOEnabled,"ax",%progbits
 1493              		.align	1
 1494              		.global	MPU6050_getTempFIFOEnabled
 1495              		.syntax unified
 1496              		.thumb
 1497              		.thumb_func
 1499              	MPU6050_getTempFIFOEnabled:
 1500              	.LFB37:
 638:Libraries/ctrl_drv/i2c/mpu6050/MPU6050.c **** 
 639:Libraries/ctrl_drv/i2c/mpu6050/MPU6050.c **** // FIFO_EN register
 640:Libraries/ctrl_drv/i2c/mpu6050/MPU6050.c **** 
 641:Libraries/ctrl_drv/i2c/mpu6050/MPU6050.c **** /** Get temperature FIFO enabled value.
 642:Libraries/ctrl_drv/i2c/mpu6050/MPU6050.c ****  * When set to 1, this bit enables TEMP_OUT_H and TEMP_OUT_L (Registers 65 and
 643:Libraries/ctrl_drv/i2c/mpu6050/MPU6050.c ****  * 66) to be written into the FIFO mpu6050.buffer.
 644:Libraries/ctrl_drv/i2c/mpu6050/MPU6050.c ****  * @return Current temperature FIFO enabled value
 645:Libraries/ctrl_drv/i2c/mpu6050/MPU6050.c ****  * @see MPU6050_RA_FIFO_EN
 646:Libraries/ctrl_drv/i2c/mpu6050/MPU6050.c ****  */
 647:Libraries/ctrl_drv/i2c/mpu6050/MPU6050.c **** bool MPU6050_getTempFIFOEnabled() {
 1501              		.loc 1 647 35 is_stmt 1 view -0
 1502              		.cfi_startproc
 1503              		@ args = 0, pretend = 0, frame = 0
 1504              		@ frame_needed = 0, uses_anonymous_args = 0
 1505 0000 10B5     		push	{r4, lr}
 1506              	.LCFI54:
 1507              		.cfi_def_cfa_offset 8
 1508              		.cfi_offset 4, -8
 1509              		.cfi_offset 14, -4
 648:Libraries/ctrl_drv/i2c/mpu6050/MPU6050.c ****     I2Cdev_readBit(mpu6050.devAddr, MPU6050_RA_FIFO_EN, MPU6050_TEMP_FIFO_EN_BIT, mpu6050.buffer);
 1510              		.loc 1 648 5 view .LVU186
 1511 0002 064B     		ldr	r3, .L154
 1512 0004 5C1E     		subs	r4, r3, #1
 1513 0006 0722     		movs	r2, #7
 1514 0008 2321     		movs	r1, #35
ARM GAS  C:\Users\Mxuan\AppData\Local\Temp\ccfnFihP.s 			page 38


 1515 000a 13F8010C 		ldrb	r0, [r3, #-1]	@ zero_extendqisi2
 1516 000e FFF7FEFF 		bl	I2Cdev_readBit
 1517              	.LVL65:
 649:Libraries/ctrl_drv/i2c/mpu6050/MPU6050.c ****     return mpu6050.buffer[0];
 1518              		.loc 1 649 5 view .LVU187
 1519              		.loc 1 649 26 is_stmt 0 view .LVU188
 1520 0012 6078     		ldrb	r0, [r4, #1]	@ zero_extendqisi2
 650:Libraries/ctrl_drv/i2c/mpu6050/MPU6050.c **** }
 1521              		.loc 1 650 1 view .LVU189
 1522 0014 0038     		subs	r0, r0, #0
 1523 0016 18BF     		it	ne
 1524 0018 0120     		movne	r0, #1
 1525 001a 10BD     		pop	{r4, pc}
 1526              	.L155:
 1527              		.align	2
 1528              	.L154:
 1529 001c 01000000 		.word	mpu6050+1
 1530              		.cfi_endproc
 1531              	.LFE37:
 1533              		.section	.text.MPU6050_setTempFIFOEnabled,"ax",%progbits
 1534              		.align	1
 1535              		.global	MPU6050_setTempFIFOEnabled
 1536              		.syntax unified
 1537              		.thumb
 1538              		.thumb_func
 1540              	MPU6050_setTempFIFOEnabled:
 1541              	.LVL66:
 1542              	.LFB38:
 651:Libraries/ctrl_drv/i2c/mpu6050/MPU6050.c **** /** Set temperature FIFO enabled value.
 652:Libraries/ctrl_drv/i2c/mpu6050/MPU6050.c ****  * @param enabled New temperature FIFO enabled value
 653:Libraries/ctrl_drv/i2c/mpu6050/MPU6050.c ****  * @see getTempFIFOEnabled()
 654:Libraries/ctrl_drv/i2c/mpu6050/MPU6050.c ****  * @see MPU6050_RA_FIFO_EN
 655:Libraries/ctrl_drv/i2c/mpu6050/MPU6050.c ****  */
 656:Libraries/ctrl_drv/i2c/mpu6050/MPU6050.c **** void MPU6050_setTempFIFOEnabled(bool enabled) {
 1543              		.loc 1 656 47 is_stmt 1 view -0
 1544              		.cfi_startproc
 1545              		@ args = 0, pretend = 0, frame = 0
 1546              		@ frame_needed = 0, uses_anonymous_args = 0
 1547              		.loc 1 656 47 is_stmt 0 view .LVU191
 1548 0000 08B5     		push	{r3, lr}
 1549              	.LCFI55:
 1550              		.cfi_def_cfa_offset 8
 1551              		.cfi_offset 3, -8
 1552              		.cfi_offset 14, -4
 1553 0002 0346     		mov	r3, r0
 657:Libraries/ctrl_drv/i2c/mpu6050/MPU6050.c ****     I2Cdev_writeBit(mpu6050.devAddr, MPU6050_RA_FIFO_EN, MPU6050_TEMP_FIFO_EN_BIT, enabled);
 1554              		.loc 1 657 5 is_stmt 1 view .LVU192
 1555 0004 0722     		movs	r2, #7
 1556 0006 2321     		movs	r1, #35
 1557 0008 0248     		ldr	r0, .L158
 1558              	.LVL67:
 1559              		.loc 1 657 5 is_stmt 0 view .LVU193
 1560 000a 0078     		ldrb	r0, [r0]	@ zero_extendqisi2
 1561 000c FFF7FEFF 		bl	I2Cdev_writeBit
 1562              	.LVL68:
 658:Libraries/ctrl_drv/i2c/mpu6050/MPU6050.c **** }
 1563              		.loc 1 658 1 view .LVU194
ARM GAS  C:\Users\Mxuan\AppData\Local\Temp\ccfnFihP.s 			page 39


 1564 0010 08BD     		pop	{r3, pc}
 1565              	.L159:
 1566 0012 00BF     		.align	2
 1567              	.L158:
 1568 0014 00000000 		.word	mpu6050
 1569              		.cfi_endproc
 1570              	.LFE38:
 1572              		.section	.text.MPU6050_getXGyroFIFOEnabled,"ax",%progbits
 1573              		.align	1
 1574              		.global	MPU6050_getXGyroFIFOEnabled
 1575              		.syntax unified
 1576              		.thumb
 1577              		.thumb_func
 1579              	MPU6050_getXGyroFIFOEnabled:
 1580              	.LFB39:
 659:Libraries/ctrl_drv/i2c/mpu6050/MPU6050.c **** /** Get gyroscope X-axis FIFO enabled value.
 660:Libraries/ctrl_drv/i2c/mpu6050/MPU6050.c ****  * When set to 1, this bit enables GYRO_XOUT_H and GYRO_XOUT_L (Registers 67 and
 661:Libraries/ctrl_drv/i2c/mpu6050/MPU6050.c ****  * 68) to be written into the FIFO mpu6050.buffer.
 662:Libraries/ctrl_drv/i2c/mpu6050/MPU6050.c ****  * @return Current gyroscope X-axis FIFO enabled value
 663:Libraries/ctrl_drv/i2c/mpu6050/MPU6050.c ****  * @see MPU6050_RA_FIFO_EN
 664:Libraries/ctrl_drv/i2c/mpu6050/MPU6050.c ****  */
 665:Libraries/ctrl_drv/i2c/mpu6050/MPU6050.c **** bool MPU6050_getXGyroFIFOEnabled() {
 1581              		.loc 1 665 36 is_stmt 1 view -0
 1582              		.cfi_startproc
 1583              		@ args = 0, pretend = 0, frame = 0
 1584              		@ frame_needed = 0, uses_anonymous_args = 0
 1585 0000 10B5     		push	{r4, lr}
 1586              	.LCFI56:
 1587              		.cfi_def_cfa_offset 8
 1588              		.cfi_offset 4, -8
 1589              		.cfi_offset 14, -4
 666:Libraries/ctrl_drv/i2c/mpu6050/MPU6050.c ****     I2Cdev_readBit(mpu6050.devAddr, MPU6050_RA_FIFO_EN, MPU6050_XG_FIFO_EN_BIT, mpu6050.buffer);
 1590              		.loc 1 666 5 view .LVU196
 1591 0002 064B     		ldr	r3, .L162
 1592 0004 5C1E     		subs	r4, r3, #1
 1593 0006 0622     		movs	r2, #6
 1594 0008 2321     		movs	r1, #35
 1595 000a 13F8010C 		ldrb	r0, [r3, #-1]	@ zero_extendqisi2
 1596 000e FFF7FEFF 		bl	I2Cdev_readBit
 1597              	.LVL69:
 667:Libraries/ctrl_drv/i2c/mpu6050/MPU6050.c ****     return mpu6050.buffer[0];
 1598              		.loc 1 667 5 view .LVU197
 1599              		.loc 1 667 26 is_stmt 0 view .LVU198
 1600 0012 6078     		ldrb	r0, [r4, #1]	@ zero_extendqisi2
 668:Libraries/ctrl_drv/i2c/mpu6050/MPU6050.c **** }
 1601              		.loc 1 668 1 view .LVU199
 1602 0014 0038     		subs	r0, r0, #0
 1603 0016 18BF     		it	ne
 1604 0018 0120     		movne	r0, #1
 1605 001a 10BD     		pop	{r4, pc}
 1606              	.L163:
 1607              		.align	2
 1608              	.L162:
 1609 001c 01000000 		.word	mpu6050+1
 1610              		.cfi_endproc
 1611              	.LFE39:
 1613              		.section	.text.MPU6050_setXGyroFIFOEnabled,"ax",%progbits
ARM GAS  C:\Users\Mxuan\AppData\Local\Temp\ccfnFihP.s 			page 40


 1614              		.align	1
 1615              		.global	MPU6050_setXGyroFIFOEnabled
 1616              		.syntax unified
 1617              		.thumb
 1618              		.thumb_func
 1620              	MPU6050_setXGyroFIFOEnabled:
 1621              	.LVL70:
 1622              	.LFB40:
 669:Libraries/ctrl_drv/i2c/mpu6050/MPU6050.c **** /** Set gyroscope X-axis FIFO enabled value.
 670:Libraries/ctrl_drv/i2c/mpu6050/MPU6050.c ****  * @param enabled New gyroscope X-axis FIFO enabled value
 671:Libraries/ctrl_drv/i2c/mpu6050/MPU6050.c ****  * @see getXGyroFIFOEnabled()
 672:Libraries/ctrl_drv/i2c/mpu6050/MPU6050.c ****  * @see MPU6050_RA_FIFO_EN
 673:Libraries/ctrl_drv/i2c/mpu6050/MPU6050.c ****  */
 674:Libraries/ctrl_drv/i2c/mpu6050/MPU6050.c **** void MPU6050_setXGyroFIFOEnabled(bool enabled) {
 1623              		.loc 1 674 48 is_stmt 1 view -0
 1624              		.cfi_startproc
 1625              		@ args = 0, pretend = 0, frame = 0
 1626              		@ frame_needed = 0, uses_anonymous_args = 0
 1627              		.loc 1 674 48 is_stmt 0 view .LVU201
 1628 0000 08B5     		push	{r3, lr}
 1629              	.LCFI57:
 1630              		.cfi_def_cfa_offset 8
 1631              		.cfi_offset 3, -8
 1632              		.cfi_offset 14, -4
 1633 0002 0346     		mov	r3, r0
 675:Libraries/ctrl_drv/i2c/mpu6050/MPU6050.c ****     I2Cdev_writeBit(mpu6050.devAddr, MPU6050_RA_FIFO_EN, MPU6050_XG_FIFO_EN_BIT, enabled);
 1634              		.loc 1 675 5 is_stmt 1 view .LVU202
 1635 0004 0622     		movs	r2, #6
 1636 0006 2321     		movs	r1, #35
 1637 0008 0248     		ldr	r0, .L166
 1638              	.LVL71:
 1639              		.loc 1 675 5 is_stmt 0 view .LVU203
 1640 000a 0078     		ldrb	r0, [r0]	@ zero_extendqisi2
 1641 000c FFF7FEFF 		bl	I2Cdev_writeBit
 1642              	.LVL72:
 676:Libraries/ctrl_drv/i2c/mpu6050/MPU6050.c **** }
 1643              		.loc 1 676 1 view .LVU204
 1644 0010 08BD     		pop	{r3, pc}
 1645              	.L167:
 1646 0012 00BF     		.align	2
 1647              	.L166:
 1648 0014 00000000 		.word	mpu6050
 1649              		.cfi_endproc
 1650              	.LFE40:
 1652              		.section	.text.MPU6050_getYGyroFIFOEnabled,"ax",%progbits
 1653              		.align	1
 1654              		.global	MPU6050_getYGyroFIFOEnabled
 1655              		.syntax unified
 1656              		.thumb
 1657              		.thumb_func
 1659              	MPU6050_getYGyroFIFOEnabled:
 1660              	.LFB41:
 677:Libraries/ctrl_drv/i2c/mpu6050/MPU6050.c **** /** Get gyroscope Y-axis FIFO enabled value.
 678:Libraries/ctrl_drv/i2c/mpu6050/MPU6050.c ****  * When set to 1, this bit enables GYRO_YOUT_H and GYRO_YOUT_L (Registers 69 and
 679:Libraries/ctrl_drv/i2c/mpu6050/MPU6050.c ****  * 70) to be written into the FIFO mpu6050.buffer.
 680:Libraries/ctrl_drv/i2c/mpu6050/MPU6050.c ****  * @return Current gyroscope Y-axis FIFO enabled value
 681:Libraries/ctrl_drv/i2c/mpu6050/MPU6050.c ****  * @see MPU6050_RA_FIFO_EN
ARM GAS  C:\Users\Mxuan\AppData\Local\Temp\ccfnFihP.s 			page 41


 682:Libraries/ctrl_drv/i2c/mpu6050/MPU6050.c ****  */
 683:Libraries/ctrl_drv/i2c/mpu6050/MPU6050.c **** bool MPU6050_getYGyroFIFOEnabled() {
 1661              		.loc 1 683 36 is_stmt 1 view -0
 1662              		.cfi_startproc
 1663              		@ args = 0, pretend = 0, frame = 0
 1664              		@ frame_needed = 0, uses_anonymous_args = 0
 1665 0000 10B5     		push	{r4, lr}
 1666              	.LCFI58:
 1667              		.cfi_def_cfa_offset 8
 1668              		.cfi_offset 4, -8
 1669              		.cfi_offset 14, -4
 684:Libraries/ctrl_drv/i2c/mpu6050/MPU6050.c ****     I2Cdev_readBit(mpu6050.devAddr, MPU6050_RA_FIFO_EN, MPU6050_YG_FIFO_EN_BIT, mpu6050.buffer);
 1670              		.loc 1 684 5 view .LVU206
 1671 0002 064B     		ldr	r3, .L170
 1672 0004 5C1E     		subs	r4, r3, #1
 1673 0006 0522     		movs	r2, #5
 1674 0008 2321     		movs	r1, #35
 1675 000a 13F8010C 		ldrb	r0, [r3, #-1]	@ zero_extendqisi2
 1676 000e FFF7FEFF 		bl	I2Cdev_readBit
 1677              	.LVL73:
 685:Libraries/ctrl_drv/i2c/mpu6050/MPU6050.c ****     return mpu6050.buffer[0];
 1678              		.loc 1 685 5 view .LVU207
 1679              		.loc 1 685 26 is_stmt 0 view .LVU208
 1680 0012 6078     		ldrb	r0, [r4, #1]	@ zero_extendqisi2
 686:Libraries/ctrl_drv/i2c/mpu6050/MPU6050.c **** }
 1681              		.loc 1 686 1 view .LVU209
 1682 0014 0038     		subs	r0, r0, #0
 1683 0016 18BF     		it	ne
 1684 0018 0120     		movne	r0, #1
 1685 001a 10BD     		pop	{r4, pc}
 1686              	.L171:
 1687              		.align	2
 1688              	.L170:
 1689 001c 01000000 		.word	mpu6050+1
 1690              		.cfi_endproc
 1691              	.LFE41:
 1693              		.section	.text.MPU6050_setYGyroFIFOEnabled,"ax",%progbits
 1694              		.align	1
 1695              		.global	MPU6050_setYGyroFIFOEnabled
 1696              		.syntax unified
 1697              		.thumb
 1698              		.thumb_func
 1700              	MPU6050_setYGyroFIFOEnabled:
 1701              	.LVL74:
 1702              	.LFB42:
 687:Libraries/ctrl_drv/i2c/mpu6050/MPU6050.c **** /** Set gyroscope Y-axis FIFO enabled value.
 688:Libraries/ctrl_drv/i2c/mpu6050/MPU6050.c ****  * @param enabled New gyroscope Y-axis FIFO enabled value
 689:Libraries/ctrl_drv/i2c/mpu6050/MPU6050.c ****  * @see getYGyroFIFOEnabled()
 690:Libraries/ctrl_drv/i2c/mpu6050/MPU6050.c ****  * @see MPU6050_RA_FIFO_EN
 691:Libraries/ctrl_drv/i2c/mpu6050/MPU6050.c ****  */
 692:Libraries/ctrl_drv/i2c/mpu6050/MPU6050.c **** void MPU6050_setYGyroFIFOEnabled(bool enabled) {
 1703              		.loc 1 692 48 is_stmt 1 view -0
 1704              		.cfi_startproc
 1705              		@ args = 0, pretend = 0, frame = 0
 1706              		@ frame_needed = 0, uses_anonymous_args = 0
 1707              		.loc 1 692 48 is_stmt 0 view .LVU211
 1708 0000 08B5     		push	{r3, lr}
ARM GAS  C:\Users\Mxuan\AppData\Local\Temp\ccfnFihP.s 			page 42


 1709              	.LCFI59:
 1710              		.cfi_def_cfa_offset 8
 1711              		.cfi_offset 3, -8
 1712              		.cfi_offset 14, -4
 1713 0002 0346     		mov	r3, r0
 693:Libraries/ctrl_drv/i2c/mpu6050/MPU6050.c ****     I2Cdev_writeBit(mpu6050.devAddr, MPU6050_RA_FIFO_EN, MPU6050_YG_FIFO_EN_BIT, enabled);
 1714              		.loc 1 693 5 is_stmt 1 view .LVU212
 1715 0004 0522     		movs	r2, #5
 1716 0006 2321     		movs	r1, #35
 1717 0008 0248     		ldr	r0, .L174
 1718              	.LVL75:
 1719              		.loc 1 693 5 is_stmt 0 view .LVU213
 1720 000a 0078     		ldrb	r0, [r0]	@ zero_extendqisi2
 1721 000c FFF7FEFF 		bl	I2Cdev_writeBit
 1722              	.LVL76:
 694:Libraries/ctrl_drv/i2c/mpu6050/MPU6050.c **** }
 1723              		.loc 1 694 1 view .LVU214
 1724 0010 08BD     		pop	{r3, pc}
 1725              	.L175:
 1726 0012 00BF     		.align	2
 1727              	.L174:
 1728 0014 00000000 		.word	mpu6050
 1729              		.cfi_endproc
 1730              	.LFE42:
 1732              		.section	.text.MPU6050_getZGyroFIFOEnabled,"ax",%progbits
 1733              		.align	1
 1734              		.global	MPU6050_getZGyroFIFOEnabled
 1735              		.syntax unified
 1736              		.thumb
 1737              		.thumb_func
 1739              	MPU6050_getZGyroFIFOEnabled:
 1740              	.LFB43:
 695:Libraries/ctrl_drv/i2c/mpu6050/MPU6050.c **** /** Get gyroscope Z-axis FIFO enabled value.
 696:Libraries/ctrl_drv/i2c/mpu6050/MPU6050.c ****  * When set to 1, this bit enables GYRO_ZOUT_H and GYRO_ZOUT_L (Registers 71 and
 697:Libraries/ctrl_drv/i2c/mpu6050/MPU6050.c ****  * 72) to be written into the FIFO mpu6050.buffer.
 698:Libraries/ctrl_drv/i2c/mpu6050/MPU6050.c ****  * @return Current gyroscope Z-axis FIFO enabled value
 699:Libraries/ctrl_drv/i2c/mpu6050/MPU6050.c ****  * @see MPU6050_RA_FIFO_EN
 700:Libraries/ctrl_drv/i2c/mpu6050/MPU6050.c ****  */
 701:Libraries/ctrl_drv/i2c/mpu6050/MPU6050.c **** bool MPU6050_getZGyroFIFOEnabled() {
 1741              		.loc 1 701 36 is_stmt 1 view -0
 1742              		.cfi_startproc
 1743              		@ args = 0, pretend = 0, frame = 0
 1744              		@ frame_needed = 0, uses_anonymous_args = 0
 1745 0000 10B5     		push	{r4, lr}
 1746              	.LCFI60:
 1747              		.cfi_def_cfa_offset 8
 1748              		.cfi_offset 4, -8
 1749              		.cfi_offset 14, -4
 702:Libraries/ctrl_drv/i2c/mpu6050/MPU6050.c ****     I2Cdev_readBit(mpu6050.devAddr, MPU6050_RA_FIFO_EN, MPU6050_ZG_FIFO_EN_BIT, mpu6050.buffer);
 1750              		.loc 1 702 5 view .LVU216
 1751 0002 064B     		ldr	r3, .L178
 1752 0004 5C1E     		subs	r4, r3, #1
 1753 0006 0422     		movs	r2, #4
 1754 0008 2321     		movs	r1, #35
 1755 000a 13F8010C 		ldrb	r0, [r3, #-1]	@ zero_extendqisi2
 1756 000e FFF7FEFF 		bl	I2Cdev_readBit
 1757              	.LVL77:
ARM GAS  C:\Users\Mxuan\AppData\Local\Temp\ccfnFihP.s 			page 43


 703:Libraries/ctrl_drv/i2c/mpu6050/MPU6050.c ****     return mpu6050.buffer[0];
 1758              		.loc 1 703 5 view .LVU217
 1759              		.loc 1 703 26 is_stmt 0 view .LVU218
 1760 0012 6078     		ldrb	r0, [r4, #1]	@ zero_extendqisi2
 704:Libraries/ctrl_drv/i2c/mpu6050/MPU6050.c **** }
 1761              		.loc 1 704 1 view .LVU219
 1762 0014 0038     		subs	r0, r0, #0
 1763 0016 18BF     		it	ne
 1764 0018 0120     		movne	r0, #1
 1765 001a 10BD     		pop	{r4, pc}
 1766              	.L179:
 1767              		.align	2
 1768              	.L178:
 1769 001c 01000000 		.word	mpu6050+1
 1770              		.cfi_endproc
 1771              	.LFE43:
 1773              		.section	.text.MPU6050_setZGyroFIFOEnabled,"ax",%progbits
 1774              		.align	1
 1775              		.global	MPU6050_setZGyroFIFOEnabled
 1776              		.syntax unified
 1777              		.thumb
 1778              		.thumb_func
 1780              	MPU6050_setZGyroFIFOEnabled:
 1781              	.LVL78:
 1782              	.LFB44:
 705:Libraries/ctrl_drv/i2c/mpu6050/MPU6050.c **** /** Set gyroscope Z-axis FIFO enabled value.
 706:Libraries/ctrl_drv/i2c/mpu6050/MPU6050.c ****  * @param enabled New gyroscope Z-axis FIFO enabled value
 707:Libraries/ctrl_drv/i2c/mpu6050/MPU6050.c ****  * @see getZGyroFIFOEnabled()
 708:Libraries/ctrl_drv/i2c/mpu6050/MPU6050.c ****  * @see MPU6050_RA_FIFO_EN
 709:Libraries/ctrl_drv/i2c/mpu6050/MPU6050.c ****  */
 710:Libraries/ctrl_drv/i2c/mpu6050/MPU6050.c **** void MPU6050_setZGyroFIFOEnabled(bool enabled) {
 1783              		.loc 1 710 48 is_stmt 1 view -0
 1784              		.cfi_startproc
 1785              		@ args = 0, pretend = 0, frame = 0
 1786              		@ frame_needed = 0, uses_anonymous_args = 0
 1787              		.loc 1 710 48 is_stmt 0 view .LVU221
 1788 0000 08B5     		push	{r3, lr}
 1789              	.LCFI61:
 1790              		.cfi_def_cfa_offset 8
 1791              		.cfi_offset 3, -8
 1792              		.cfi_offset 14, -4
 1793 0002 0346     		mov	r3, r0
 711:Libraries/ctrl_drv/i2c/mpu6050/MPU6050.c ****     I2Cdev_writeBit(mpu6050.devAddr, MPU6050_RA_FIFO_EN, MPU6050_ZG_FIFO_EN_BIT, enabled);
 1794              		.loc 1 711 5 is_stmt 1 view .LVU222
 1795 0004 0422     		movs	r2, #4
 1796 0006 2321     		movs	r1, #35
 1797 0008 0248     		ldr	r0, .L182
 1798              	.LVL79:
 1799              		.loc 1 711 5 is_stmt 0 view .LVU223
 1800 000a 0078     		ldrb	r0, [r0]	@ zero_extendqisi2
 1801 000c FFF7FEFF 		bl	I2Cdev_writeBit
 1802              	.LVL80:
 712:Libraries/ctrl_drv/i2c/mpu6050/MPU6050.c **** }
 1803              		.loc 1 712 1 view .LVU224
 1804 0010 08BD     		pop	{r3, pc}
 1805              	.L183:
 1806 0012 00BF     		.align	2
ARM GAS  C:\Users\Mxuan\AppData\Local\Temp\ccfnFihP.s 			page 44


 1807              	.L182:
 1808 0014 00000000 		.word	mpu6050
 1809              		.cfi_endproc
 1810              	.LFE44:
 1812              		.section	.text.MPU6050_getAccelFIFOEnabled,"ax",%progbits
 1813              		.align	1
 1814              		.global	MPU6050_getAccelFIFOEnabled
 1815              		.syntax unified
 1816              		.thumb
 1817              		.thumb_func
 1819              	MPU6050_getAccelFIFOEnabled:
 1820              	.LFB45:
 713:Libraries/ctrl_drv/i2c/mpu6050/MPU6050.c **** /** Get accelerometer FIFO enabled value.
 714:Libraries/ctrl_drv/i2c/mpu6050/MPU6050.c ****  * When set to 1, this bit enables ACCEL_XOUT_H, ACCEL_XOUT_L, ACCEL_YOUT_H,
 715:Libraries/ctrl_drv/i2c/mpu6050/MPU6050.c ****  * ACCEL_YOUT_L, ACCEL_ZOUT_H, and ACCEL_ZOUT_L (Registers 59 to 64) to be
 716:Libraries/ctrl_drv/i2c/mpu6050/MPU6050.c ****  * written into the FIFO mpu6050.buffer.
 717:Libraries/ctrl_drv/i2c/mpu6050/MPU6050.c ****  * @return Current accelerometer FIFO enabled value
 718:Libraries/ctrl_drv/i2c/mpu6050/MPU6050.c ****  * @see MPU6050_RA_FIFO_EN
 719:Libraries/ctrl_drv/i2c/mpu6050/MPU6050.c ****  */
 720:Libraries/ctrl_drv/i2c/mpu6050/MPU6050.c **** bool MPU6050_getAccelFIFOEnabled() {
 1821              		.loc 1 720 36 is_stmt 1 view -0
 1822              		.cfi_startproc
 1823              		@ args = 0, pretend = 0, frame = 0
 1824              		@ frame_needed = 0, uses_anonymous_args = 0
 1825 0000 10B5     		push	{r4, lr}
 1826              	.LCFI62:
 1827              		.cfi_def_cfa_offset 8
 1828              		.cfi_offset 4, -8
 1829              		.cfi_offset 14, -4
 721:Libraries/ctrl_drv/i2c/mpu6050/MPU6050.c ****     I2Cdev_readBit(mpu6050.devAddr, MPU6050_RA_FIFO_EN, MPU6050_ACCEL_FIFO_EN_BIT, mpu6050.buffer);
 1830              		.loc 1 721 5 view .LVU226
 1831 0002 064B     		ldr	r3, .L186
 1832 0004 5C1E     		subs	r4, r3, #1
 1833 0006 0322     		movs	r2, #3
 1834 0008 2321     		movs	r1, #35
 1835 000a 13F8010C 		ldrb	r0, [r3, #-1]	@ zero_extendqisi2
 1836 000e FFF7FEFF 		bl	I2Cdev_readBit
 1837              	.LVL81:
 722:Libraries/ctrl_drv/i2c/mpu6050/MPU6050.c ****     return mpu6050.buffer[0];
 1838              		.loc 1 722 5 view .LVU227
 1839              		.loc 1 722 26 is_stmt 0 view .LVU228
 1840 0012 6078     		ldrb	r0, [r4, #1]	@ zero_extendqisi2
 723:Libraries/ctrl_drv/i2c/mpu6050/MPU6050.c **** }
 1841              		.loc 1 723 1 view .LVU229
 1842 0014 0038     		subs	r0, r0, #0
 1843 0016 18BF     		it	ne
 1844 0018 0120     		movne	r0, #1
 1845 001a 10BD     		pop	{r4, pc}
 1846              	.L187:
 1847              		.align	2
 1848              	.L186:
 1849 001c 01000000 		.word	mpu6050+1
 1850              		.cfi_endproc
 1851              	.LFE45:
 1853              		.section	.text.MPU6050_setAccelFIFOEnabled,"ax",%progbits
 1854              		.align	1
 1855              		.global	MPU6050_setAccelFIFOEnabled
ARM GAS  C:\Users\Mxuan\AppData\Local\Temp\ccfnFihP.s 			page 45


 1856              		.syntax unified
 1857              		.thumb
 1858              		.thumb_func
 1860              	MPU6050_setAccelFIFOEnabled:
 1861              	.LVL82:
 1862              	.LFB46:
 724:Libraries/ctrl_drv/i2c/mpu6050/MPU6050.c **** /** Set accelerometer FIFO enabled value.
 725:Libraries/ctrl_drv/i2c/mpu6050/MPU6050.c ****  * @param enabled New accelerometer FIFO enabled value
 726:Libraries/ctrl_drv/i2c/mpu6050/MPU6050.c ****  * @see getAccelFIFOEnabled()
 727:Libraries/ctrl_drv/i2c/mpu6050/MPU6050.c ****  * @see MPU6050_RA_FIFO_EN
 728:Libraries/ctrl_drv/i2c/mpu6050/MPU6050.c ****  */
 729:Libraries/ctrl_drv/i2c/mpu6050/MPU6050.c **** void MPU6050_setAccelFIFOEnabled(bool enabled) {
 1863              		.loc 1 729 48 is_stmt 1 view -0
 1864              		.cfi_startproc
 1865              		@ args = 0, pretend = 0, frame = 0
 1866              		@ frame_needed = 0, uses_anonymous_args = 0
 1867              		.loc 1 729 48 is_stmt 0 view .LVU231
 1868 0000 08B5     		push	{r3, lr}
 1869              	.LCFI63:
 1870              		.cfi_def_cfa_offset 8
 1871              		.cfi_offset 3, -8
 1872              		.cfi_offset 14, -4
 1873 0002 0346     		mov	r3, r0
 730:Libraries/ctrl_drv/i2c/mpu6050/MPU6050.c ****     I2Cdev_writeBit(mpu6050.devAddr, MPU6050_RA_FIFO_EN, MPU6050_ACCEL_FIFO_EN_BIT, enabled);
 1874              		.loc 1 730 5 is_stmt 1 view .LVU232
 1875 0004 0322     		movs	r2, #3
 1876 0006 2321     		movs	r1, #35
 1877 0008 0248     		ldr	r0, .L190
 1878              	.LVL83:
 1879              		.loc 1 730 5 is_stmt 0 view .LVU233
 1880 000a 0078     		ldrb	r0, [r0]	@ zero_extendqisi2
 1881 000c FFF7FEFF 		bl	I2Cdev_writeBit
 1882              	.LVL84:
 731:Libraries/ctrl_drv/i2c/mpu6050/MPU6050.c **** }
 1883              		.loc 1 731 1 view .LVU234
 1884 0010 08BD     		pop	{r3, pc}
 1885              	.L191:
 1886 0012 00BF     		.align	2
 1887              	.L190:
 1888 0014 00000000 		.word	mpu6050
 1889              		.cfi_endproc
 1890              	.LFE46:
 1892              		.section	.text.MPU6050_getSlave2FIFOEnabled,"ax",%progbits
 1893              		.align	1
 1894              		.global	MPU6050_getSlave2FIFOEnabled
 1895              		.syntax unified
 1896              		.thumb
 1897              		.thumb_func
 1899              	MPU6050_getSlave2FIFOEnabled:
 1900              	.LFB47:
 732:Libraries/ctrl_drv/i2c/mpu6050/MPU6050.c **** /** Get Slave 2 FIFO enabled value.
 733:Libraries/ctrl_drv/i2c/mpu6050/MPU6050.c ****  * When set to 1, this bit enables EXT_SENS_DATA registers (Registers 73 to 96)
 734:Libraries/ctrl_drv/i2c/mpu6050/MPU6050.c ****  * associated with Slave 2 to be written into the FIFO mpu6050.buffer.
 735:Libraries/ctrl_drv/i2c/mpu6050/MPU6050.c ****  * @return Current Slave 2 FIFO enabled value
 736:Libraries/ctrl_drv/i2c/mpu6050/MPU6050.c ****  * @see MPU6050_RA_FIFO_EN
 737:Libraries/ctrl_drv/i2c/mpu6050/MPU6050.c ****  */
 738:Libraries/ctrl_drv/i2c/mpu6050/MPU6050.c **** bool MPU6050_getSlave2FIFOEnabled() {
ARM GAS  C:\Users\Mxuan\AppData\Local\Temp\ccfnFihP.s 			page 46


 1901              		.loc 1 738 37 is_stmt 1 view -0
 1902              		.cfi_startproc
 1903              		@ args = 0, pretend = 0, frame = 0
 1904              		@ frame_needed = 0, uses_anonymous_args = 0
 1905 0000 10B5     		push	{r4, lr}
 1906              	.LCFI64:
 1907              		.cfi_def_cfa_offset 8
 1908              		.cfi_offset 4, -8
 1909              		.cfi_offset 14, -4
 739:Libraries/ctrl_drv/i2c/mpu6050/MPU6050.c ****     I2Cdev_readBit(mpu6050.devAddr, MPU6050_RA_FIFO_EN, MPU6050_SLV2_FIFO_EN_BIT, mpu6050.buffer);
 1910              		.loc 1 739 5 view .LVU236
 1911 0002 064B     		ldr	r3, .L194
 1912 0004 5C1E     		subs	r4, r3, #1
 1913 0006 0222     		movs	r2, #2
 1914 0008 2321     		movs	r1, #35
 1915 000a 13F8010C 		ldrb	r0, [r3, #-1]	@ zero_extendqisi2
 1916 000e FFF7FEFF 		bl	I2Cdev_readBit
 1917              	.LVL85:
 740:Libraries/ctrl_drv/i2c/mpu6050/MPU6050.c ****     return mpu6050.buffer[0];
 1918              		.loc 1 740 5 view .LVU237
 1919              		.loc 1 740 26 is_stmt 0 view .LVU238
 1920 0012 6078     		ldrb	r0, [r4, #1]	@ zero_extendqisi2
 741:Libraries/ctrl_drv/i2c/mpu6050/MPU6050.c **** }
 1921              		.loc 1 741 1 view .LVU239
 1922 0014 0038     		subs	r0, r0, #0
 1923 0016 18BF     		it	ne
 1924 0018 0120     		movne	r0, #1
 1925 001a 10BD     		pop	{r4, pc}
 1926              	.L195:
 1927              		.align	2
 1928              	.L194:
 1929 001c 01000000 		.word	mpu6050+1
 1930              		.cfi_endproc
 1931              	.LFE47:
 1933              		.section	.text.MPU6050_setSlave2FIFOEnabled,"ax",%progbits
 1934              		.align	1
 1935              		.global	MPU6050_setSlave2FIFOEnabled
 1936              		.syntax unified
 1937              		.thumb
 1938              		.thumb_func
 1940              	MPU6050_setSlave2FIFOEnabled:
 1941              	.LVL86:
 1942              	.LFB48:
 742:Libraries/ctrl_drv/i2c/mpu6050/MPU6050.c **** /** Set Slave 2 FIFO enabled value.
 743:Libraries/ctrl_drv/i2c/mpu6050/MPU6050.c ****  * @param enabled New Slave 2 FIFO enabled value
 744:Libraries/ctrl_drv/i2c/mpu6050/MPU6050.c ****  * @see getSlave2FIFOEnabled()
 745:Libraries/ctrl_drv/i2c/mpu6050/MPU6050.c ****  * @see MPU6050_RA_FIFO_EN
 746:Libraries/ctrl_drv/i2c/mpu6050/MPU6050.c ****  */
 747:Libraries/ctrl_drv/i2c/mpu6050/MPU6050.c **** void MPU6050_setSlave2FIFOEnabled(bool enabled) {
 1943              		.loc 1 747 49 is_stmt 1 view -0
 1944              		.cfi_startproc
 1945              		@ args = 0, pretend = 0, frame = 0
 1946              		@ frame_needed = 0, uses_anonymous_args = 0
 1947              		.loc 1 747 49 is_stmt 0 view .LVU241
 1948 0000 08B5     		push	{r3, lr}
 1949              	.LCFI65:
 1950              		.cfi_def_cfa_offset 8
ARM GAS  C:\Users\Mxuan\AppData\Local\Temp\ccfnFihP.s 			page 47


 1951              		.cfi_offset 3, -8
 1952              		.cfi_offset 14, -4
 1953 0002 0346     		mov	r3, r0
 748:Libraries/ctrl_drv/i2c/mpu6050/MPU6050.c ****     I2Cdev_writeBit(mpu6050.devAddr, MPU6050_RA_FIFO_EN, MPU6050_SLV2_FIFO_EN_BIT, enabled);
 1954              		.loc 1 748 5 is_stmt 1 view .LVU242
 1955 0004 0222     		movs	r2, #2
 1956 0006 2321     		movs	r1, #35
 1957 0008 0248     		ldr	r0, .L198
 1958              	.LVL87:
 1959              		.loc 1 748 5 is_stmt 0 view .LVU243
 1960 000a 0078     		ldrb	r0, [r0]	@ zero_extendqisi2
 1961 000c FFF7FEFF 		bl	I2Cdev_writeBit
 1962              	.LVL88:
 749:Libraries/ctrl_drv/i2c/mpu6050/MPU6050.c **** }
 1963              		.loc 1 749 1 view .LVU244
 1964 0010 08BD     		pop	{r3, pc}
 1965              	.L199:
 1966 0012 00BF     		.align	2
 1967              	.L198:
 1968 0014 00000000 		.word	mpu6050
 1969              		.cfi_endproc
 1970              	.LFE48:
 1972              		.section	.text.MPU6050_getSlave1FIFOEnabled,"ax",%progbits
 1973              		.align	1
 1974              		.global	MPU6050_getSlave1FIFOEnabled
 1975              		.syntax unified
 1976              		.thumb
 1977              		.thumb_func
 1979              	MPU6050_getSlave1FIFOEnabled:
 1980              	.LFB49:
 750:Libraries/ctrl_drv/i2c/mpu6050/MPU6050.c **** /** Get Slave 1 FIFO enabled value.
 751:Libraries/ctrl_drv/i2c/mpu6050/MPU6050.c ****  * When set to 1, this bit enables EXT_SENS_DATA registers (Registers 73 to 96)
 752:Libraries/ctrl_drv/i2c/mpu6050/MPU6050.c ****  * associated with Slave 1 to be written into the FIFO mpu6050.buffer.
 753:Libraries/ctrl_drv/i2c/mpu6050/MPU6050.c ****  * @return Current Slave 1 FIFO enabled value
 754:Libraries/ctrl_drv/i2c/mpu6050/MPU6050.c ****  * @see MPU6050_RA_FIFO_EN
 755:Libraries/ctrl_drv/i2c/mpu6050/MPU6050.c ****  */
 756:Libraries/ctrl_drv/i2c/mpu6050/MPU6050.c **** bool MPU6050_getSlave1FIFOEnabled() {
 1981              		.loc 1 756 37 is_stmt 1 view -0
 1982              		.cfi_startproc
 1983              		@ args = 0, pretend = 0, frame = 0
 1984              		@ frame_needed = 0, uses_anonymous_args = 0
 1985 0000 10B5     		push	{r4, lr}
 1986              	.LCFI66:
 1987              		.cfi_def_cfa_offset 8
 1988              		.cfi_offset 4, -8
 1989              		.cfi_offset 14, -4
 757:Libraries/ctrl_drv/i2c/mpu6050/MPU6050.c ****     I2Cdev_readBit(mpu6050.devAddr, MPU6050_RA_FIFO_EN, MPU6050_SLV1_FIFO_EN_BIT, mpu6050.buffer);
 1990              		.loc 1 757 5 view .LVU246
 1991 0002 064B     		ldr	r3, .L202
 1992 0004 5C1E     		subs	r4, r3, #1
 1993 0006 0122     		movs	r2, #1
 1994 0008 2321     		movs	r1, #35
 1995 000a 13F8010C 		ldrb	r0, [r3, #-1]	@ zero_extendqisi2
 1996 000e FFF7FEFF 		bl	I2Cdev_readBit
 1997              	.LVL89:
 758:Libraries/ctrl_drv/i2c/mpu6050/MPU6050.c ****     return mpu6050.buffer[0];
 1998              		.loc 1 758 5 view .LVU247
ARM GAS  C:\Users\Mxuan\AppData\Local\Temp\ccfnFihP.s 			page 48


 1999              		.loc 1 758 26 is_stmt 0 view .LVU248
 2000 0012 6078     		ldrb	r0, [r4, #1]	@ zero_extendqisi2
 759:Libraries/ctrl_drv/i2c/mpu6050/MPU6050.c **** }
 2001              		.loc 1 759 1 view .LVU249
 2002 0014 0038     		subs	r0, r0, #0
 2003 0016 18BF     		it	ne
 2004 0018 0120     		movne	r0, #1
 2005 001a 10BD     		pop	{r4, pc}
 2006              	.L203:
 2007              		.align	2
 2008              	.L202:
 2009 001c 01000000 		.word	mpu6050+1
 2010              		.cfi_endproc
 2011              	.LFE49:
 2013              		.section	.text.MPU6050_setSlave1FIFOEnabled,"ax",%progbits
 2014              		.align	1
 2015              		.global	MPU6050_setSlave1FIFOEnabled
 2016              		.syntax unified
 2017              		.thumb
 2018              		.thumb_func
 2020              	MPU6050_setSlave1FIFOEnabled:
 2021              	.LVL90:
 2022              	.LFB50:
 760:Libraries/ctrl_drv/i2c/mpu6050/MPU6050.c **** /** Set Slave 1 FIFO enabled value.
 761:Libraries/ctrl_drv/i2c/mpu6050/MPU6050.c ****  * @param enabled New Slave 1 FIFO enabled value
 762:Libraries/ctrl_drv/i2c/mpu6050/MPU6050.c ****  * @see getSlave1FIFOEnabled()
 763:Libraries/ctrl_drv/i2c/mpu6050/MPU6050.c ****  * @see MPU6050_RA_FIFO_EN
 764:Libraries/ctrl_drv/i2c/mpu6050/MPU6050.c ****  */
 765:Libraries/ctrl_drv/i2c/mpu6050/MPU6050.c **** void MPU6050_setSlave1FIFOEnabled(bool enabled) {
 2023              		.loc 1 765 49 is_stmt 1 view -0
 2024              		.cfi_startproc
 2025              		@ args = 0, pretend = 0, frame = 0
 2026              		@ frame_needed = 0, uses_anonymous_args = 0
 2027              		.loc 1 765 49 is_stmt 0 view .LVU251
 2028 0000 08B5     		push	{r3, lr}
 2029              	.LCFI67:
 2030              		.cfi_def_cfa_offset 8
 2031              		.cfi_offset 3, -8
 2032              		.cfi_offset 14, -4
 2033 0002 0346     		mov	r3, r0
 766:Libraries/ctrl_drv/i2c/mpu6050/MPU6050.c ****     I2Cdev_writeBit(mpu6050.devAddr, MPU6050_RA_FIFO_EN, MPU6050_SLV1_FIFO_EN_BIT, enabled);
 2034              		.loc 1 766 5 is_stmt 1 view .LVU252
 2035 0004 0122     		movs	r2, #1
 2036 0006 2321     		movs	r1, #35
 2037 0008 0248     		ldr	r0, .L206
 2038              	.LVL91:
 2039              		.loc 1 766 5 is_stmt 0 view .LVU253
 2040 000a 0078     		ldrb	r0, [r0]	@ zero_extendqisi2
 2041 000c FFF7FEFF 		bl	I2Cdev_writeBit
 2042              	.LVL92:
 767:Libraries/ctrl_drv/i2c/mpu6050/MPU6050.c **** }
 2043              		.loc 1 767 1 view .LVU254
 2044 0010 08BD     		pop	{r3, pc}
 2045              	.L207:
 2046 0012 00BF     		.align	2
 2047              	.L206:
 2048 0014 00000000 		.word	mpu6050
ARM GAS  C:\Users\Mxuan\AppData\Local\Temp\ccfnFihP.s 			page 49


 2049              		.cfi_endproc
 2050              	.LFE50:
 2052              		.section	.text.MPU6050_getSlave0FIFOEnabled,"ax",%progbits
 2053              		.align	1
 2054              		.global	MPU6050_getSlave0FIFOEnabled
 2055              		.syntax unified
 2056              		.thumb
 2057              		.thumb_func
 2059              	MPU6050_getSlave0FIFOEnabled:
 2060              	.LFB51:
 768:Libraries/ctrl_drv/i2c/mpu6050/MPU6050.c **** /** Get Slave 0 FIFO enabled value.
 769:Libraries/ctrl_drv/i2c/mpu6050/MPU6050.c ****  * When set to 1, this bit enables EXT_SENS_DATA registers (Registers 73 to 96)
 770:Libraries/ctrl_drv/i2c/mpu6050/MPU6050.c ****  * associated with Slave 0 to be written into the FIFO mpu6050.buffer.
 771:Libraries/ctrl_drv/i2c/mpu6050/MPU6050.c ****  * @return Current Slave 0 FIFO enabled value
 772:Libraries/ctrl_drv/i2c/mpu6050/MPU6050.c ****  * @see MPU6050_RA_FIFO_EN
 773:Libraries/ctrl_drv/i2c/mpu6050/MPU6050.c ****  */
 774:Libraries/ctrl_drv/i2c/mpu6050/MPU6050.c **** bool MPU6050_getSlave0FIFOEnabled() {
 2061              		.loc 1 774 37 is_stmt 1 view -0
 2062              		.cfi_startproc
 2063              		@ args = 0, pretend = 0, frame = 0
 2064              		@ frame_needed = 0, uses_anonymous_args = 0
 2065 0000 10B5     		push	{r4, lr}
 2066              	.LCFI68:
 2067              		.cfi_def_cfa_offset 8
 2068              		.cfi_offset 4, -8
 2069              		.cfi_offset 14, -4
 775:Libraries/ctrl_drv/i2c/mpu6050/MPU6050.c ****     I2Cdev_readBit(mpu6050.devAddr, MPU6050_RA_FIFO_EN, MPU6050_SLV0_FIFO_EN_BIT, mpu6050.buffer);
 2070              		.loc 1 775 5 view .LVU256
 2071 0002 064B     		ldr	r3, .L210
 2072 0004 5C1E     		subs	r4, r3, #1
 2073 0006 0022     		movs	r2, #0
 2074 0008 2321     		movs	r1, #35
 2075 000a 13F8010C 		ldrb	r0, [r3, #-1]	@ zero_extendqisi2
 2076 000e FFF7FEFF 		bl	I2Cdev_readBit
 2077              	.LVL93:
 776:Libraries/ctrl_drv/i2c/mpu6050/MPU6050.c ****     return mpu6050.buffer[0];
 2078              		.loc 1 776 5 view .LVU257
 2079              		.loc 1 776 26 is_stmt 0 view .LVU258
 2080 0012 6078     		ldrb	r0, [r4, #1]	@ zero_extendqisi2
 777:Libraries/ctrl_drv/i2c/mpu6050/MPU6050.c **** }
 2081              		.loc 1 777 1 view .LVU259
 2082 0014 0038     		subs	r0, r0, #0
 2083 0016 18BF     		it	ne
 2084 0018 0120     		movne	r0, #1
 2085 001a 10BD     		pop	{r4, pc}
 2086              	.L211:
 2087              		.align	2
 2088              	.L210:
 2089 001c 01000000 		.word	mpu6050+1
 2090              		.cfi_endproc
 2091              	.LFE51:
 2093              		.section	.text.MPU6050_setSlave0FIFOEnabled,"ax",%progbits
 2094              		.align	1
 2095              		.global	MPU6050_setSlave0FIFOEnabled
 2096              		.syntax unified
 2097              		.thumb
 2098              		.thumb_func
ARM GAS  C:\Users\Mxuan\AppData\Local\Temp\ccfnFihP.s 			page 50


 2100              	MPU6050_setSlave0FIFOEnabled:
 2101              	.LVL94:
 2102              	.LFB52:
 778:Libraries/ctrl_drv/i2c/mpu6050/MPU6050.c **** /** Set Slave 0 FIFO enabled value.
 779:Libraries/ctrl_drv/i2c/mpu6050/MPU6050.c ****  * @param enabled New Slave 0 FIFO enabled value
 780:Libraries/ctrl_drv/i2c/mpu6050/MPU6050.c ****  * @see getSlave0FIFOEnabled()
 781:Libraries/ctrl_drv/i2c/mpu6050/MPU6050.c ****  * @see MPU6050_RA_FIFO_EN
 782:Libraries/ctrl_drv/i2c/mpu6050/MPU6050.c ****  */
 783:Libraries/ctrl_drv/i2c/mpu6050/MPU6050.c **** void MPU6050_setSlave0FIFOEnabled(bool enabled) {
 2103              		.loc 1 783 49 is_stmt 1 view -0
 2104              		.cfi_startproc
 2105              		@ args = 0, pretend = 0, frame = 0
 2106              		@ frame_needed = 0, uses_anonymous_args = 0
 2107              		.loc 1 783 49 is_stmt 0 view .LVU261
 2108 0000 08B5     		push	{r3, lr}
 2109              	.LCFI69:
 2110              		.cfi_def_cfa_offset 8
 2111              		.cfi_offset 3, -8
 2112              		.cfi_offset 14, -4
 2113 0002 0346     		mov	r3, r0
 784:Libraries/ctrl_drv/i2c/mpu6050/MPU6050.c ****     I2Cdev_writeBit(mpu6050.devAddr, MPU6050_RA_FIFO_EN, MPU6050_SLV0_FIFO_EN_BIT, enabled);
 2114              		.loc 1 784 5 is_stmt 1 view .LVU262
 2115 0004 0022     		movs	r2, #0
 2116 0006 2321     		movs	r1, #35
 2117 0008 0248     		ldr	r0, .L214
 2118              	.LVL95:
 2119              		.loc 1 784 5 is_stmt 0 view .LVU263
 2120 000a 0078     		ldrb	r0, [r0]	@ zero_extendqisi2
 2121 000c FFF7FEFF 		bl	I2Cdev_writeBit
 2122              	.LVL96:
 785:Libraries/ctrl_drv/i2c/mpu6050/MPU6050.c **** }
 2123              		.loc 1 785 1 view .LVU264
 2124 0010 08BD     		pop	{r3, pc}
 2125              	.L215:
 2126 0012 00BF     		.align	2
 2127              	.L214:
 2128 0014 00000000 		.word	mpu6050
 2129              		.cfi_endproc
 2130              	.LFE52:
 2132              		.section	.text.MPU6050_getMultiMasterEnabled,"ax",%progbits
 2133              		.align	1
 2134              		.global	MPU6050_getMultiMasterEnabled
 2135              		.syntax unified
 2136              		.thumb
 2137              		.thumb_func
 2139              	MPU6050_getMultiMasterEnabled:
 2140              	.LFB53:
 786:Libraries/ctrl_drv/i2c/mpu6050/MPU6050.c **** 
 787:Libraries/ctrl_drv/i2c/mpu6050/MPU6050.c **** // I2C_MST_CTRL register
 788:Libraries/ctrl_drv/i2c/mpu6050/MPU6050.c **** 
 789:Libraries/ctrl_drv/i2c/mpu6050/MPU6050.c **** /** Get multi-master enabled value.
 790:Libraries/ctrl_drv/i2c/mpu6050/MPU6050.c ****  * Multi-master capability allows multiple I2C masters to operate on the same
 791:Libraries/ctrl_drv/i2c/mpu6050/MPU6050.c ****  * bus. In circuits where multi-master capability is required, set MULT_MST_EN
 792:Libraries/ctrl_drv/i2c/mpu6050/MPU6050.c ****  * to 1. This will increase current drawn by approximately 30uA.
 793:Libraries/ctrl_drv/i2c/mpu6050/MPU6050.c ****  *
 794:Libraries/ctrl_drv/i2c/mpu6050/MPU6050.c ****  * In circuits where multi-master capability is required, the state of the I2C
 795:Libraries/ctrl_drv/i2c/mpu6050/MPU6050.c ****  * bus must always be monitored by each separate I2C Master. Before an I2C
ARM GAS  C:\Users\Mxuan\AppData\Local\Temp\ccfnFihP.s 			page 51


 796:Libraries/ctrl_drv/i2c/mpu6050/MPU6050.c ****  * Master can assume arbitration of the bus, it must first confirm that no other
 797:Libraries/ctrl_drv/i2c/mpu6050/MPU6050.c ****  * I2C Master has arbitration of the bus. When MULT_MST_EN is set to 1, the
 798:Libraries/ctrl_drv/i2c/mpu6050/MPU6050.c ****  * MPU-60X0's bus arbitration detection logic is turned on, enabling it to
 799:Libraries/ctrl_drv/i2c/mpu6050/MPU6050.c ****  * detect when the bus is available.
 800:Libraries/ctrl_drv/i2c/mpu6050/MPU6050.c ****  *
 801:Libraries/ctrl_drv/i2c/mpu6050/MPU6050.c ****  * @return Current multi-master enabled value
 802:Libraries/ctrl_drv/i2c/mpu6050/MPU6050.c ****  * @see MPU6050_RA_I2C_MST_CTRL
 803:Libraries/ctrl_drv/i2c/mpu6050/MPU6050.c ****  */
 804:Libraries/ctrl_drv/i2c/mpu6050/MPU6050.c **** bool MPU6050_getMultiMasterEnabled() {
 2141              		.loc 1 804 38 is_stmt 1 view -0
 2142              		.cfi_startproc
 2143              		@ args = 0, pretend = 0, frame = 0
 2144              		@ frame_needed = 0, uses_anonymous_args = 0
 2145 0000 10B5     		push	{r4, lr}
 2146              	.LCFI70:
 2147              		.cfi_def_cfa_offset 8
 2148              		.cfi_offset 4, -8
 2149              		.cfi_offset 14, -4
 805:Libraries/ctrl_drv/i2c/mpu6050/MPU6050.c ****     I2Cdev_readBit(mpu6050.devAddr, MPU6050_RA_I2C_MST_CTRL, MPU6050_MULT_MST_EN_BIT, mpu6050.buffe
 2150              		.loc 1 805 5 view .LVU266
 2151 0002 064B     		ldr	r3, .L218
 2152 0004 5C1E     		subs	r4, r3, #1
 2153 0006 0722     		movs	r2, #7
 2154 0008 2421     		movs	r1, #36
 2155 000a 13F8010C 		ldrb	r0, [r3, #-1]	@ zero_extendqisi2
 2156 000e FFF7FEFF 		bl	I2Cdev_readBit
 2157              	.LVL97:
 806:Libraries/ctrl_drv/i2c/mpu6050/MPU6050.c ****     return mpu6050.buffer[0];
 2158              		.loc 1 806 5 view .LVU267
 2159              		.loc 1 806 26 is_stmt 0 view .LVU268
 2160 0012 6078     		ldrb	r0, [r4, #1]	@ zero_extendqisi2
 807:Libraries/ctrl_drv/i2c/mpu6050/MPU6050.c **** }
 2161              		.loc 1 807 1 view .LVU269
 2162 0014 0038     		subs	r0, r0, #0
 2163 0016 18BF     		it	ne
 2164 0018 0120     		movne	r0, #1
 2165 001a 10BD     		pop	{r4, pc}
 2166              	.L219:
 2167              		.align	2
 2168              	.L218:
 2169 001c 01000000 		.word	mpu6050+1
 2170              		.cfi_endproc
 2171              	.LFE53:
 2173              		.section	.text.MPU6050_setMultiMasterEnabled,"ax",%progbits
 2174              		.align	1
 2175              		.global	MPU6050_setMultiMasterEnabled
 2176              		.syntax unified
 2177              		.thumb
 2178              		.thumb_func
 2180              	MPU6050_setMultiMasterEnabled:
 2181              	.LVL98:
 2182              	.LFB54:
 808:Libraries/ctrl_drv/i2c/mpu6050/MPU6050.c **** /** Set multi-master enabled value.
 809:Libraries/ctrl_drv/i2c/mpu6050/MPU6050.c ****  * @param enabled New multi-master enabled value
 810:Libraries/ctrl_drv/i2c/mpu6050/MPU6050.c ****  * @see getMultiMasterEnabled()
 811:Libraries/ctrl_drv/i2c/mpu6050/MPU6050.c ****  * @see MPU6050_RA_I2C_MST_CTRL
 812:Libraries/ctrl_drv/i2c/mpu6050/MPU6050.c ****  */
ARM GAS  C:\Users\Mxuan\AppData\Local\Temp\ccfnFihP.s 			page 52


 813:Libraries/ctrl_drv/i2c/mpu6050/MPU6050.c **** void MPU6050_setMultiMasterEnabled(bool enabled) {
 2183              		.loc 1 813 50 is_stmt 1 view -0
 2184              		.cfi_startproc
 2185              		@ args = 0, pretend = 0, frame = 0
 2186              		@ frame_needed = 0, uses_anonymous_args = 0
 2187              		.loc 1 813 50 is_stmt 0 view .LVU271
 2188 0000 08B5     		push	{r3, lr}
 2189              	.LCFI71:
 2190              		.cfi_def_cfa_offset 8
 2191              		.cfi_offset 3, -8
 2192              		.cfi_offset 14, -4
 2193 0002 0346     		mov	r3, r0
 814:Libraries/ctrl_drv/i2c/mpu6050/MPU6050.c ****     I2Cdev_writeBit(mpu6050.devAddr, MPU6050_RA_I2C_MST_CTRL, MPU6050_MULT_MST_EN_BIT, enabled);
 2194              		.loc 1 814 5 is_stmt 1 view .LVU272
 2195 0004 0722     		movs	r2, #7
 2196 0006 2421     		movs	r1, #36
 2197 0008 0248     		ldr	r0, .L222
 2198              	.LVL99:
 2199              		.loc 1 814 5 is_stmt 0 view .LVU273
 2200 000a 0078     		ldrb	r0, [r0]	@ zero_extendqisi2
 2201 000c FFF7FEFF 		bl	I2Cdev_writeBit
 2202              	.LVL100:
 815:Libraries/ctrl_drv/i2c/mpu6050/MPU6050.c **** }
 2203              		.loc 1 815 1 view .LVU274
 2204 0010 08BD     		pop	{r3, pc}
 2205              	.L223:
 2206 0012 00BF     		.align	2
 2207              	.L222:
 2208 0014 00000000 		.word	mpu6050
 2209              		.cfi_endproc
 2210              	.LFE54:
 2212              		.section	.text.MPU6050_getWaitForExternalSensorEnabled,"ax",%progbits
 2213              		.align	1
 2214              		.global	MPU6050_getWaitForExternalSensorEnabled
 2215              		.syntax unified
 2216              		.thumb
 2217              		.thumb_func
 2219              	MPU6050_getWaitForExternalSensorEnabled:
 2220              	.LFB55:
 816:Libraries/ctrl_drv/i2c/mpu6050/MPU6050.c **** /** Get wait-for-external-sensor-data enabled value.
 817:Libraries/ctrl_drv/i2c/mpu6050/MPU6050.c ****  * When the WAIT_FOR_ES bit is set to 1, the Data Ready interrupt will be
 818:Libraries/ctrl_drv/i2c/mpu6050/MPU6050.c ****  * delayed until External Sensor data from the Slave Devices are loaded into the
 819:Libraries/ctrl_drv/i2c/mpu6050/MPU6050.c ****  * EXT_SENS_DATA registers. This is used to ensure that both the internal sensor
 820:Libraries/ctrl_drv/i2c/mpu6050/MPU6050.c ****  * data (i.e. from gyro and accel) and external sensor data have been loaded to
 821:Libraries/ctrl_drv/i2c/mpu6050/MPU6050.c ****  * their respective data registers (i.e. the data is synced) when the Data Ready
 822:Libraries/ctrl_drv/i2c/mpu6050/MPU6050.c ****  * interrupt is triggered.
 823:Libraries/ctrl_drv/i2c/mpu6050/MPU6050.c ****  *
 824:Libraries/ctrl_drv/i2c/mpu6050/MPU6050.c ****  * @return Current wait-for-external-sensor-data enabled value
 825:Libraries/ctrl_drv/i2c/mpu6050/MPU6050.c ****  * @see MPU6050_RA_I2C_MST_CTRL
 826:Libraries/ctrl_drv/i2c/mpu6050/MPU6050.c ****  */
 827:Libraries/ctrl_drv/i2c/mpu6050/MPU6050.c **** bool MPU6050_getWaitForExternalSensorEnabled() {
 2221              		.loc 1 827 48 is_stmt 1 view -0
 2222              		.cfi_startproc
 2223              		@ args = 0, pretend = 0, frame = 0
 2224              		@ frame_needed = 0, uses_anonymous_args = 0
 2225 0000 10B5     		push	{r4, lr}
 2226              	.LCFI72:
ARM GAS  C:\Users\Mxuan\AppData\Local\Temp\ccfnFihP.s 			page 53


 2227              		.cfi_def_cfa_offset 8
 2228              		.cfi_offset 4, -8
 2229              		.cfi_offset 14, -4
 828:Libraries/ctrl_drv/i2c/mpu6050/MPU6050.c ****     I2Cdev_readBit(mpu6050.devAddr, MPU6050_RA_I2C_MST_CTRL, MPU6050_WAIT_FOR_ES_BIT, mpu6050.buffe
 2230              		.loc 1 828 5 view .LVU276
 2231 0002 064B     		ldr	r3, .L226
 2232 0004 5C1E     		subs	r4, r3, #1
 2233 0006 0622     		movs	r2, #6
 2234 0008 2421     		movs	r1, #36
 2235 000a 13F8010C 		ldrb	r0, [r3, #-1]	@ zero_extendqisi2
 2236 000e FFF7FEFF 		bl	I2Cdev_readBit
 2237              	.LVL101:
 829:Libraries/ctrl_drv/i2c/mpu6050/MPU6050.c ****     return mpu6050.buffer[0];
 2238              		.loc 1 829 5 view .LVU277
 2239              		.loc 1 829 26 is_stmt 0 view .LVU278
 2240 0012 6078     		ldrb	r0, [r4, #1]	@ zero_extendqisi2
 830:Libraries/ctrl_drv/i2c/mpu6050/MPU6050.c **** }
 2241              		.loc 1 830 1 view .LVU279
 2242 0014 0038     		subs	r0, r0, #0
 2243 0016 18BF     		it	ne
 2244 0018 0120     		movne	r0, #1
 2245 001a 10BD     		pop	{r4, pc}
 2246              	.L227:
 2247              		.align	2
 2248              	.L226:
 2249 001c 01000000 		.word	mpu6050+1
 2250              		.cfi_endproc
 2251              	.LFE55:
 2253              		.section	.text.MPU6050_setWaitForExternalSensorEnabled,"ax",%progbits
 2254              		.align	1
 2255              		.global	MPU6050_setWaitForExternalSensorEnabled
 2256              		.syntax unified
 2257              		.thumb
 2258              		.thumb_func
 2260              	MPU6050_setWaitForExternalSensorEnabled:
 2261              	.LVL102:
 2262              	.LFB56:
 831:Libraries/ctrl_drv/i2c/mpu6050/MPU6050.c **** /** Set wait-for-external-sensor-data enabled value.
 832:Libraries/ctrl_drv/i2c/mpu6050/MPU6050.c ****  * @param enabled New wait-for-external-sensor-data enabled value
 833:Libraries/ctrl_drv/i2c/mpu6050/MPU6050.c ****  * @see getWaitForExternalSensorEnabled()
 834:Libraries/ctrl_drv/i2c/mpu6050/MPU6050.c ****  * @see MPU6050_RA_I2C_MST_CTRL
 835:Libraries/ctrl_drv/i2c/mpu6050/MPU6050.c ****  */
 836:Libraries/ctrl_drv/i2c/mpu6050/MPU6050.c **** void MPU6050_setWaitForExternalSensorEnabled(bool enabled) {
 2263              		.loc 1 836 60 is_stmt 1 view -0
 2264              		.cfi_startproc
 2265              		@ args = 0, pretend = 0, frame = 0
 2266              		@ frame_needed = 0, uses_anonymous_args = 0
 2267              		.loc 1 836 60 is_stmt 0 view .LVU281
 2268 0000 08B5     		push	{r3, lr}
 2269              	.LCFI73:
 2270              		.cfi_def_cfa_offset 8
 2271              		.cfi_offset 3, -8
 2272              		.cfi_offset 14, -4
 2273 0002 0346     		mov	r3, r0
 837:Libraries/ctrl_drv/i2c/mpu6050/MPU6050.c ****     I2Cdev_writeBit(mpu6050.devAddr, MPU6050_RA_I2C_MST_CTRL, MPU6050_WAIT_FOR_ES_BIT, enabled);
 2274              		.loc 1 837 5 is_stmt 1 view .LVU282
 2275 0004 0622     		movs	r2, #6
ARM GAS  C:\Users\Mxuan\AppData\Local\Temp\ccfnFihP.s 			page 54


 2276 0006 2421     		movs	r1, #36
 2277 0008 0248     		ldr	r0, .L230
 2278              	.LVL103:
 2279              		.loc 1 837 5 is_stmt 0 view .LVU283
 2280 000a 0078     		ldrb	r0, [r0]	@ zero_extendqisi2
 2281 000c FFF7FEFF 		bl	I2Cdev_writeBit
 2282              	.LVL104:
 838:Libraries/ctrl_drv/i2c/mpu6050/MPU6050.c **** }
 2283              		.loc 1 838 1 view .LVU284
 2284 0010 08BD     		pop	{r3, pc}
 2285              	.L231:
 2286 0012 00BF     		.align	2
 2287              	.L230:
 2288 0014 00000000 		.word	mpu6050
 2289              		.cfi_endproc
 2290              	.LFE56:
 2292              		.section	.text.MPU6050_getSlave3FIFOEnabled,"ax",%progbits
 2293              		.align	1
 2294              		.global	MPU6050_getSlave3FIFOEnabled
 2295              		.syntax unified
 2296              		.thumb
 2297              		.thumb_func
 2299              	MPU6050_getSlave3FIFOEnabled:
 2300              	.LFB57:
 839:Libraries/ctrl_drv/i2c/mpu6050/MPU6050.c **** /** Get Slave 3 FIFO enabled value.
 840:Libraries/ctrl_drv/i2c/mpu6050/MPU6050.c ****  * When set to 1, this bit enables EXT_SENS_DATA registers (Registers 73 to 96)
 841:Libraries/ctrl_drv/i2c/mpu6050/MPU6050.c ****  * associated with Slave 3 to be written into the FIFO mpu6050.buffer.
 842:Libraries/ctrl_drv/i2c/mpu6050/MPU6050.c ****  * @return Current Slave 3 FIFO enabled value
 843:Libraries/ctrl_drv/i2c/mpu6050/MPU6050.c ****  * @see MPU6050_RA_MST_CTRL
 844:Libraries/ctrl_drv/i2c/mpu6050/MPU6050.c ****  */
 845:Libraries/ctrl_drv/i2c/mpu6050/MPU6050.c **** bool MPU6050_getSlave3FIFOEnabled() {
 2301              		.loc 1 845 37 is_stmt 1 view -0
 2302              		.cfi_startproc
 2303              		@ args = 0, pretend = 0, frame = 0
 2304              		@ frame_needed = 0, uses_anonymous_args = 0
 2305 0000 10B5     		push	{r4, lr}
 2306              	.LCFI74:
 2307              		.cfi_def_cfa_offset 8
 2308              		.cfi_offset 4, -8
 2309              		.cfi_offset 14, -4
 846:Libraries/ctrl_drv/i2c/mpu6050/MPU6050.c ****     I2Cdev_readBit(mpu6050.devAddr, MPU6050_RA_I2C_MST_CTRL, MPU6050_SLV_3_FIFO_EN_BIT, mpu6050.buf
 2310              		.loc 1 846 5 view .LVU286
 2311 0002 064B     		ldr	r3, .L234
 2312 0004 5C1E     		subs	r4, r3, #1
 2313 0006 0522     		movs	r2, #5
 2314 0008 2421     		movs	r1, #36
 2315 000a 13F8010C 		ldrb	r0, [r3, #-1]	@ zero_extendqisi2
 2316 000e FFF7FEFF 		bl	I2Cdev_readBit
 2317              	.LVL105:
 847:Libraries/ctrl_drv/i2c/mpu6050/MPU6050.c ****     return mpu6050.buffer[0];
 2318              		.loc 1 847 5 view .LVU287
 2319              		.loc 1 847 26 is_stmt 0 view .LVU288
 2320 0012 6078     		ldrb	r0, [r4, #1]	@ zero_extendqisi2
 848:Libraries/ctrl_drv/i2c/mpu6050/MPU6050.c **** }
 2321              		.loc 1 848 1 view .LVU289
 2322 0014 0038     		subs	r0, r0, #0
 2323 0016 18BF     		it	ne
ARM GAS  C:\Users\Mxuan\AppData\Local\Temp\ccfnFihP.s 			page 55


 2324 0018 0120     		movne	r0, #1
 2325 001a 10BD     		pop	{r4, pc}
 2326              	.L235:
 2327              		.align	2
 2328              	.L234:
 2329 001c 01000000 		.word	mpu6050+1
 2330              		.cfi_endproc
 2331              	.LFE57:
 2333              		.section	.text.MPU6050_setSlave3FIFOEnabled,"ax",%progbits
 2334              		.align	1
 2335              		.global	MPU6050_setSlave3FIFOEnabled
 2336              		.syntax unified
 2337              		.thumb
 2338              		.thumb_func
 2340              	MPU6050_setSlave3FIFOEnabled:
 2341              	.LVL106:
 2342              	.LFB58:
 849:Libraries/ctrl_drv/i2c/mpu6050/MPU6050.c **** /** Set Slave 3 FIFO enabled value.
 850:Libraries/ctrl_drv/i2c/mpu6050/MPU6050.c ****  * @param enabled New Slave 3 FIFO enabled value
 851:Libraries/ctrl_drv/i2c/mpu6050/MPU6050.c ****  * @see getSlave3FIFOEnabled()
 852:Libraries/ctrl_drv/i2c/mpu6050/MPU6050.c ****  * @see MPU6050_RA_MST_CTRL
 853:Libraries/ctrl_drv/i2c/mpu6050/MPU6050.c ****  */
 854:Libraries/ctrl_drv/i2c/mpu6050/MPU6050.c **** void MPU6050_setSlave3FIFOEnabled(bool enabled) {
 2343              		.loc 1 854 49 is_stmt 1 view -0
 2344              		.cfi_startproc
 2345              		@ args = 0, pretend = 0, frame = 0
 2346              		@ frame_needed = 0, uses_anonymous_args = 0
 2347              		.loc 1 854 49 is_stmt 0 view .LVU291
 2348 0000 08B5     		push	{r3, lr}
 2349              	.LCFI75:
 2350              		.cfi_def_cfa_offset 8
 2351              		.cfi_offset 3, -8
 2352              		.cfi_offset 14, -4
 2353 0002 0346     		mov	r3, r0
 855:Libraries/ctrl_drv/i2c/mpu6050/MPU6050.c ****     I2Cdev_writeBit(mpu6050.devAddr, MPU6050_RA_I2C_MST_CTRL, MPU6050_SLV_3_FIFO_EN_BIT, enabled);
 2354              		.loc 1 855 5 is_stmt 1 view .LVU292
 2355 0004 0522     		movs	r2, #5
 2356 0006 2421     		movs	r1, #36
 2357 0008 0248     		ldr	r0, .L238
 2358              	.LVL107:
 2359              		.loc 1 855 5 is_stmt 0 view .LVU293
 2360 000a 0078     		ldrb	r0, [r0]	@ zero_extendqisi2
 2361 000c FFF7FEFF 		bl	I2Cdev_writeBit
 2362              	.LVL108:
 856:Libraries/ctrl_drv/i2c/mpu6050/MPU6050.c **** }
 2363              		.loc 1 856 1 view .LVU294
 2364 0010 08BD     		pop	{r3, pc}
 2365              	.L239:
 2366 0012 00BF     		.align	2
 2367              	.L238:
 2368 0014 00000000 		.word	mpu6050
 2369              		.cfi_endproc
 2370              	.LFE58:
 2372              		.section	.text.MPU6050_getSlaveReadWriteTransitionEnabled,"ax",%progbits
 2373              		.align	1
 2374              		.global	MPU6050_getSlaveReadWriteTransitionEnabled
 2375              		.syntax unified
ARM GAS  C:\Users\Mxuan\AppData\Local\Temp\ccfnFihP.s 			page 56


 2376              		.thumb
 2377              		.thumb_func
 2379              	MPU6050_getSlaveReadWriteTransitionEnabled:
 2380              	.LFB59:
 857:Libraries/ctrl_drv/i2c/mpu6050/MPU6050.c **** /** Get slave read/write transition enabled value.
 858:Libraries/ctrl_drv/i2c/mpu6050/MPU6050.c ****  * The I2C_MST_P_NSR bit configures the I2C Master's transition from one slave
 859:Libraries/ctrl_drv/i2c/mpu6050/MPU6050.c ****  * read to the next slave read. If the bit equals 0, there will be a restart
 860:Libraries/ctrl_drv/i2c/mpu6050/MPU6050.c ****  * between reads. If the bit equals 1, there will be a stop followed by a start
 861:Libraries/ctrl_drv/i2c/mpu6050/MPU6050.c ****  * of the following read. When a write transaction follows a read transaction,
 862:Libraries/ctrl_drv/i2c/mpu6050/MPU6050.c ****  * the stop followed by a start of the successive write will be always used.
 863:Libraries/ctrl_drv/i2c/mpu6050/MPU6050.c ****  *
 864:Libraries/ctrl_drv/i2c/mpu6050/MPU6050.c ****  * @return Current slave read/write transition enabled value
 865:Libraries/ctrl_drv/i2c/mpu6050/MPU6050.c ****  * @see MPU6050_RA_I2C_MST_CTRL
 866:Libraries/ctrl_drv/i2c/mpu6050/MPU6050.c ****  */
 867:Libraries/ctrl_drv/i2c/mpu6050/MPU6050.c **** bool MPU6050_getSlaveReadWriteTransitionEnabled() {
 2381              		.loc 1 867 51 is_stmt 1 view -0
 2382              		.cfi_startproc
 2383              		@ args = 0, pretend = 0, frame = 0
 2384              		@ frame_needed = 0, uses_anonymous_args = 0
 2385 0000 10B5     		push	{r4, lr}
 2386              	.LCFI76:
 2387              		.cfi_def_cfa_offset 8
 2388              		.cfi_offset 4, -8
 2389              		.cfi_offset 14, -4
 868:Libraries/ctrl_drv/i2c/mpu6050/MPU6050.c ****     I2Cdev_readBit(mpu6050.devAddr, MPU6050_RA_I2C_MST_CTRL, MPU6050_I2C_MST_P_NSR_BIT, mpu6050.buf
 2390              		.loc 1 868 5 view .LVU296
 2391 0002 064B     		ldr	r3, .L242
 2392 0004 5C1E     		subs	r4, r3, #1
 2393 0006 0422     		movs	r2, #4
 2394 0008 2421     		movs	r1, #36
 2395 000a 13F8010C 		ldrb	r0, [r3, #-1]	@ zero_extendqisi2
 2396 000e FFF7FEFF 		bl	I2Cdev_readBit
 2397              	.LVL109:
 869:Libraries/ctrl_drv/i2c/mpu6050/MPU6050.c ****     return mpu6050.buffer[0];
 2398              		.loc 1 869 5 view .LVU297
 2399              		.loc 1 869 26 is_stmt 0 view .LVU298
 2400 0012 6078     		ldrb	r0, [r4, #1]	@ zero_extendqisi2
 870:Libraries/ctrl_drv/i2c/mpu6050/MPU6050.c **** }
 2401              		.loc 1 870 1 view .LVU299
 2402 0014 0038     		subs	r0, r0, #0
 2403 0016 18BF     		it	ne
 2404 0018 0120     		movne	r0, #1
 2405 001a 10BD     		pop	{r4, pc}
 2406              	.L243:
 2407              		.align	2
 2408              	.L242:
 2409 001c 01000000 		.word	mpu6050+1
 2410              		.cfi_endproc
 2411              	.LFE59:
 2413              		.section	.text.MPU6050_setSlaveReadWriteTransitionEnabled,"ax",%progbits
 2414              		.align	1
 2415              		.global	MPU6050_setSlaveReadWriteTransitionEnabled
 2416              		.syntax unified
 2417              		.thumb
 2418              		.thumb_func
 2420              	MPU6050_setSlaveReadWriteTransitionEnabled:
 2421              	.LVL110:
ARM GAS  C:\Users\Mxuan\AppData\Local\Temp\ccfnFihP.s 			page 57


 2422              	.LFB60:
 871:Libraries/ctrl_drv/i2c/mpu6050/MPU6050.c **** /** Set slave read/write transition enabled value.
 872:Libraries/ctrl_drv/i2c/mpu6050/MPU6050.c ****  * @param enabled New slave read/write transition enabled value
 873:Libraries/ctrl_drv/i2c/mpu6050/MPU6050.c ****  * @see getSlaveReadWriteTransitionEnabled()
 874:Libraries/ctrl_drv/i2c/mpu6050/MPU6050.c ****  * @see MPU6050_RA_I2C_MST_CTRL
 875:Libraries/ctrl_drv/i2c/mpu6050/MPU6050.c ****  */
 876:Libraries/ctrl_drv/i2c/mpu6050/MPU6050.c **** void MPU6050_setSlaveReadWriteTransitionEnabled(bool enabled) {
 2423              		.loc 1 876 63 is_stmt 1 view -0
 2424              		.cfi_startproc
 2425              		@ args = 0, pretend = 0, frame = 0
 2426              		@ frame_needed = 0, uses_anonymous_args = 0
 2427              		.loc 1 876 63 is_stmt 0 view .LVU301
 2428 0000 08B5     		push	{r3, lr}
 2429              	.LCFI77:
 2430              		.cfi_def_cfa_offset 8
 2431              		.cfi_offset 3, -8
 2432              		.cfi_offset 14, -4
 2433 0002 0346     		mov	r3, r0
 877:Libraries/ctrl_drv/i2c/mpu6050/MPU6050.c ****     I2Cdev_writeBit(mpu6050.devAddr, MPU6050_RA_I2C_MST_CTRL, MPU6050_I2C_MST_P_NSR_BIT, enabled);
 2434              		.loc 1 877 5 is_stmt 1 view .LVU302
 2435 0004 0422     		movs	r2, #4
 2436 0006 2421     		movs	r1, #36
 2437 0008 0248     		ldr	r0, .L246
 2438              	.LVL111:
 2439              		.loc 1 877 5 is_stmt 0 view .LVU303
 2440 000a 0078     		ldrb	r0, [r0]	@ zero_extendqisi2
 2441 000c FFF7FEFF 		bl	I2Cdev_writeBit
 2442              	.LVL112:
 878:Libraries/ctrl_drv/i2c/mpu6050/MPU6050.c **** }
 2443              		.loc 1 878 1 view .LVU304
 2444 0010 08BD     		pop	{r3, pc}
 2445              	.L247:
 2446 0012 00BF     		.align	2
 2447              	.L246:
 2448 0014 00000000 		.word	mpu6050
 2449              		.cfi_endproc
 2450              	.LFE60:
 2452              		.section	.text.MPU6050_getMasterClockSpeed,"ax",%progbits
 2453              		.align	1
 2454              		.global	MPU6050_getMasterClockSpeed
 2455              		.syntax unified
 2456              		.thumb
 2457              		.thumb_func
 2459              	MPU6050_getMasterClockSpeed:
 2460              	.LFB61:
 879:Libraries/ctrl_drv/i2c/mpu6050/MPU6050.c **** /** Get I2C master clock speed.
 880:Libraries/ctrl_drv/i2c/mpu6050/MPU6050.c ****  * I2C_MST_CLK is a 4 bit unsigned value which configures a divider on the
 881:Libraries/ctrl_drv/i2c/mpu6050/MPU6050.c ****  * MPU-60X0 internal 8MHz clock. It sets the I2C master clock speed according to
 882:Libraries/ctrl_drv/i2c/mpu6050/MPU6050.c ****  * the following table:
 883:Libraries/ctrl_drv/i2c/mpu6050/MPU6050.c ****  *
 884:Libraries/ctrl_drv/i2c/mpu6050/MPU6050.c ****  * <pre>
 885:Libraries/ctrl_drv/i2c/mpu6050/MPU6050.c ****  * I2C_MST_CLK | I2C Master Clock Speed | 8MHz Clock Divider
 886:Libraries/ctrl_drv/i2c/mpu6050/MPU6050.c ****  * ------------+------------------------+-------------------
 887:Libraries/ctrl_drv/i2c/mpu6050/MPU6050.c ****  * 0           | 348kHz                 | 23
 888:Libraries/ctrl_drv/i2c/mpu6050/MPU6050.c ****  * 1           | 333kHz                 | 24
 889:Libraries/ctrl_drv/i2c/mpu6050/MPU6050.c ****  * 2           | 320kHz                 | 25
 890:Libraries/ctrl_drv/i2c/mpu6050/MPU6050.c ****  * 3           | 308kHz                 | 26
ARM GAS  C:\Users\Mxuan\AppData\Local\Temp\ccfnFihP.s 			page 58


 891:Libraries/ctrl_drv/i2c/mpu6050/MPU6050.c ****  * 4           | 296kHz                 | 27
 892:Libraries/ctrl_drv/i2c/mpu6050/MPU6050.c ****  * 5           | 286kHz                 | 28
 893:Libraries/ctrl_drv/i2c/mpu6050/MPU6050.c ****  * 6           | 276kHz                 | 29
 894:Libraries/ctrl_drv/i2c/mpu6050/MPU6050.c ****  * 7           | 267kHz                 | 30
 895:Libraries/ctrl_drv/i2c/mpu6050/MPU6050.c ****  * 8           | 258kHz                 | 31
 896:Libraries/ctrl_drv/i2c/mpu6050/MPU6050.c ****  * 9           | 500kHz                 | 16
 897:Libraries/ctrl_drv/i2c/mpu6050/MPU6050.c ****  * 10          | 471kHz                 | 17
 898:Libraries/ctrl_drv/i2c/mpu6050/MPU6050.c ****  * 11          | 444kHz                 | 18
 899:Libraries/ctrl_drv/i2c/mpu6050/MPU6050.c ****  * 12          | 421kHz                 | 19
 900:Libraries/ctrl_drv/i2c/mpu6050/MPU6050.c ****  * 13          | 400kHz                 | 20
 901:Libraries/ctrl_drv/i2c/mpu6050/MPU6050.c ****  * 14          | 381kHz                 | 21
 902:Libraries/ctrl_drv/i2c/mpu6050/MPU6050.c ****  * 15          | 364kHz                 | 22
 903:Libraries/ctrl_drv/i2c/mpu6050/MPU6050.c ****  * </pre>
 904:Libraries/ctrl_drv/i2c/mpu6050/MPU6050.c ****  *
 905:Libraries/ctrl_drv/i2c/mpu6050/MPU6050.c ****  * @return Current I2C master clock speed
 906:Libraries/ctrl_drv/i2c/mpu6050/MPU6050.c ****  * @see MPU6050_RA_I2C_MST_CTRL
 907:Libraries/ctrl_drv/i2c/mpu6050/MPU6050.c ****  */
 908:Libraries/ctrl_drv/i2c/mpu6050/MPU6050.c **** uint8_t MPU6050_getMasterClockSpeed() {
 2461              		.loc 1 908 39 is_stmt 1 view -0
 2462              		.cfi_startproc
 2463              		@ args = 0, pretend = 0, frame = 0
 2464              		@ frame_needed = 0, uses_anonymous_args = 0
 2465 0000 10B5     		push	{r4, lr}
 2466              	.LCFI78:
 2467              		.cfi_def_cfa_offset 8
 2468              		.cfi_offset 4, -8
 2469              		.cfi_offset 14, -4
 2470 0002 82B0     		sub	sp, sp, #8
 2471              	.LCFI79:
 2472              		.cfi_def_cfa_offset 16
 909:Libraries/ctrl_drv/i2c/mpu6050/MPU6050.c ****     I2Cdev_readBits(mpu6050.devAddr, MPU6050_RA_I2C_MST_CTRL, MPU6050_I2C_MST_CLK_BIT, MPU6050_I2C_
 2473              		.loc 1 909 5 view .LVU306
 2474 0004 064C     		ldr	r4, .L250
 2475 0006 2346     		mov	r3, r4
 2476 0008 13F8010B 		ldrb	r0, [r3], #1	@ zero_extendqisi2
 2477 000c 0093     		str	r3, [sp]
 2478 000e 0423     		movs	r3, #4
 2479 0010 0322     		movs	r2, #3
 2480 0012 2421     		movs	r1, #36
 2481 0014 FFF7FEFF 		bl	I2Cdev_readBits
 2482              	.LVL113:
 910:Libraries/ctrl_drv/i2c/mpu6050/MPU6050.c ****     return mpu6050.buffer[0];
 2483              		.loc 1 910 5 view .LVU307
 911:Libraries/ctrl_drv/i2c/mpu6050/MPU6050.c **** }
 2484              		.loc 1 911 1 is_stmt 0 view .LVU308
 2485 0018 6078     		ldrb	r0, [r4, #1]	@ zero_extendqisi2
 2486 001a 02B0     		add	sp, sp, #8
 2487              	.LCFI80:
 2488              		.cfi_def_cfa_offset 8
 2489              		@ sp needed
 2490 001c 10BD     		pop	{r4, pc}
 2491              	.L251:
 2492 001e 00BF     		.align	2
 2493              	.L250:
 2494 0020 00000000 		.word	mpu6050
 2495              		.cfi_endproc
 2496              	.LFE61:
ARM GAS  C:\Users\Mxuan\AppData\Local\Temp\ccfnFihP.s 			page 59


 2498              		.section	.text.MPU6050_setMasterClockSpeed,"ax",%progbits
 2499              		.align	1
 2500              		.global	MPU6050_setMasterClockSpeed
 2501              		.syntax unified
 2502              		.thumb
 2503              		.thumb_func
 2505              	MPU6050_setMasterClockSpeed:
 2506              	.LVL114:
 2507              	.LFB62:
 912:Libraries/ctrl_drv/i2c/mpu6050/MPU6050.c **** /** Set I2C master clock speed.
 913:Libraries/ctrl_drv/i2c/mpu6050/MPU6050.c ****  * @reparam speed Current I2C master clock speed
 914:Libraries/ctrl_drv/i2c/mpu6050/MPU6050.c ****  * @see MPU6050_RA_I2C_MST_CTRL
 915:Libraries/ctrl_drv/i2c/mpu6050/MPU6050.c ****  */
 916:Libraries/ctrl_drv/i2c/mpu6050/MPU6050.c **** void MPU6050_setMasterClockSpeed(uint8_t speed) {
 2508              		.loc 1 916 49 is_stmt 1 view -0
 2509              		.cfi_startproc
 2510              		@ args = 0, pretend = 0, frame = 0
 2511              		@ frame_needed = 0, uses_anonymous_args = 0
 2512              		.loc 1 916 49 is_stmt 0 view .LVU310
 2513 0000 00B5     		push	{lr}
 2514              	.LCFI81:
 2515              		.cfi_def_cfa_offset 4
 2516              		.cfi_offset 14, -4
 2517 0002 83B0     		sub	sp, sp, #12
 2518              	.LCFI82:
 2519              		.cfi_def_cfa_offset 16
 917:Libraries/ctrl_drv/i2c/mpu6050/MPU6050.c ****     I2Cdev_writeBits(mpu6050.devAddr, MPU6050_RA_I2C_MST_CTRL, MPU6050_I2C_MST_CLK_BIT, MPU6050_I2C
 2520              		.loc 1 917 5 is_stmt 1 view .LVU311
 2521 0004 0090     		str	r0, [sp]
 2522 0006 0423     		movs	r3, #4
 2523 0008 0322     		movs	r2, #3
 2524 000a 2421     		movs	r1, #36
 2525 000c 0348     		ldr	r0, .L254
 2526              	.LVL115:
 2527              		.loc 1 917 5 is_stmt 0 view .LVU312
 2528 000e 0078     		ldrb	r0, [r0]	@ zero_extendqisi2
 2529 0010 FFF7FEFF 		bl	I2Cdev_writeBits
 2530              	.LVL116:
 918:Libraries/ctrl_drv/i2c/mpu6050/MPU6050.c **** }
 2531              		.loc 1 918 1 view .LVU313
 2532 0014 03B0     		add	sp, sp, #12
 2533              	.LCFI83:
 2534              		.cfi_def_cfa_offset 4
 2535              		@ sp needed
 2536 0016 5DF804FB 		ldr	pc, [sp], #4
 2537              	.L255:
 2538 001a 00BF     		.align	2
 2539              	.L254:
 2540 001c 00000000 		.word	mpu6050
 2541              		.cfi_endproc
 2542              	.LFE62:
 2544              		.section	.text.MPU6050_getSlaveAddress,"ax",%progbits
 2545              		.align	1
 2546              		.global	MPU6050_getSlaveAddress
 2547              		.syntax unified
 2548              		.thumb
 2549              		.thumb_func
ARM GAS  C:\Users\Mxuan\AppData\Local\Temp\ccfnFihP.s 			page 60


 2551              	MPU6050_getSlaveAddress:
 2552              	.LVL117:
 2553              	.LFB63:
 919:Libraries/ctrl_drv/i2c/mpu6050/MPU6050.c **** 
 920:Libraries/ctrl_drv/i2c/mpu6050/MPU6050.c **** // I2C_SLV* registers (Slave 0-3)
 921:Libraries/ctrl_drv/i2c/mpu6050/MPU6050.c **** 
 922:Libraries/ctrl_drv/i2c/mpu6050/MPU6050.c **** /** Get the I2C address of the specified slave (0-3).
 923:Libraries/ctrl_drv/i2c/mpu6050/MPU6050.c ****  * Note that Bit 7 (MSB) controls read/write mode. If Bit 7 is set, it's a read
 924:Libraries/ctrl_drv/i2c/mpu6050/MPU6050.c ****  * operation, and if it is cleared, then it's a write operation. The remaining
 925:Libraries/ctrl_drv/i2c/mpu6050/MPU6050.c ****  * bits (6-0) are the 7-bit device address of the slave device.
 926:Libraries/ctrl_drv/i2c/mpu6050/MPU6050.c ****  *
 927:Libraries/ctrl_drv/i2c/mpu6050/MPU6050.c ****  * In read mode, the result of the read is placed in the lowest available
 928:Libraries/ctrl_drv/i2c/mpu6050/MPU6050.c ****  * EXT_SENS_DATA register. For further information regarding the allocation of
 929:Libraries/ctrl_drv/i2c/mpu6050/MPU6050.c ****  * read results, please refer to the EXT_SENS_DATA register description
 930:Libraries/ctrl_drv/i2c/mpu6050/MPU6050.c ****  * (Registers 73 - 96).
 931:Libraries/ctrl_drv/i2c/mpu6050/MPU6050.c ****  *
 932:Libraries/ctrl_drv/i2c/mpu6050/MPU6050.c ****  * The MPU-6050 supports a total of five slaves, but Slave 4 has unique
 933:Libraries/ctrl_drv/i2c/mpu6050/MPU6050.c ****  * characteristics, and so it has its own functions (getSlave4* and setSlave4*).
 934:Libraries/ctrl_drv/i2c/mpu6050/MPU6050.c ****  *
 935:Libraries/ctrl_drv/i2c/mpu6050/MPU6050.c ****  * I2C data transactions are performed at the Sample Rate, as defined in
 936:Libraries/ctrl_drv/i2c/mpu6050/MPU6050.c ****  * Register 25. The user is responsible for ensuring that I2C data transactions
 937:Libraries/ctrl_drv/i2c/mpu6050/MPU6050.c ****  * to and from each enabled Slave can be completed within a single period of the
 938:Libraries/ctrl_drv/i2c/mpu6050/MPU6050.c ****  * Sample Rate.
 939:Libraries/ctrl_drv/i2c/mpu6050/MPU6050.c ****  *
 940:Libraries/ctrl_drv/i2c/mpu6050/MPU6050.c ****  * The I2C slave access rate can be reduced relative to the Sample Rate. This
 941:Libraries/ctrl_drv/i2c/mpu6050/MPU6050.c ****  * reduced access rate is determined by I2C_MST_DLY (Register 52). Whether a
 942:Libraries/ctrl_drv/i2c/mpu6050/MPU6050.c ****  * slave's access rate is reduced relative to the Sample Rate is determined by
 943:Libraries/ctrl_drv/i2c/mpu6050/MPU6050.c ****  * I2C_MST_DELAY_CTRL (Register 103).
 944:Libraries/ctrl_drv/i2c/mpu6050/MPU6050.c ****  *
 945:Libraries/ctrl_drv/i2c/mpu6050/MPU6050.c ****  * The processing order for the slaves is fixed. The sequence followed for
 946:Libraries/ctrl_drv/i2c/mpu6050/MPU6050.c ****  * processing the slaves is Slave 0, Slave 1, Slave 2, Slave 3 and Slave 4. If a
 947:Libraries/ctrl_drv/i2c/mpu6050/MPU6050.c ****  * particular Slave is disabled it will be skipped.
 948:Libraries/ctrl_drv/i2c/mpu6050/MPU6050.c ****  *
 949:Libraries/ctrl_drv/i2c/mpu6050/MPU6050.c ****  * Each slave can either be accessed at the sample rate or at a reduced sample
 950:Libraries/ctrl_drv/i2c/mpu6050/MPU6050.c ****  * rate. In a case where some slaves are accessed at the Sample Rate and some
 951:Libraries/ctrl_drv/i2c/mpu6050/MPU6050.c ****  * slaves are accessed at the reduced rate, the sequence of accessing the slaves
 952:Libraries/ctrl_drv/i2c/mpu6050/MPU6050.c ****  * (Slave 0 to Slave 4) is still followed. However, the reduced rate slaves will
 953:Libraries/ctrl_drv/i2c/mpu6050/MPU6050.c ****  * be skipped if their access rate dictates that they should not be accessed
 954:Libraries/ctrl_drv/i2c/mpu6050/MPU6050.c ****  * during that particular cycle. For further information regarding the reduced
 955:Libraries/ctrl_drv/i2c/mpu6050/MPU6050.c ****  * access rate, please refer to Register 52. Whether a slave is accessed at the
 956:Libraries/ctrl_drv/i2c/mpu6050/MPU6050.c ****  * Sample Rate or at the reduced rate is determined by the Delay Enable bits in
 957:Libraries/ctrl_drv/i2c/mpu6050/MPU6050.c ****  * Register 103.
 958:Libraries/ctrl_drv/i2c/mpu6050/MPU6050.c ****  *
 959:Libraries/ctrl_drv/i2c/mpu6050/MPU6050.c ****  * @param num Slave number (0-3)
 960:Libraries/ctrl_drv/i2c/mpu6050/MPU6050.c ****  * @return Current address for specified slave
 961:Libraries/ctrl_drv/i2c/mpu6050/MPU6050.c ****  * @see MPU6050_RA_I2C_SLV0_ADDR
 962:Libraries/ctrl_drv/i2c/mpu6050/MPU6050.c ****  */
 963:Libraries/ctrl_drv/i2c/mpu6050/MPU6050.c **** uint8_t MPU6050_getSlaveAddress(uint8_t num) {
 2554              		.loc 1 963 46 is_stmt 1 view -0
 2555              		.cfi_startproc
 2556              		@ args = 0, pretend = 0, frame = 0
 2557              		@ frame_needed = 0, uses_anonymous_args = 0
 964:Libraries/ctrl_drv/i2c/mpu6050/MPU6050.c ****     if (num > 3) return 0;
 2558              		.loc 1 964 5 view .LVU315
 2559              		.loc 1 964 8 is_stmt 0 view .LVU316
 2560 0000 0328     		cmp	r0, #3
 2561 0002 01D9     		bls	.L263
ARM GAS  C:\Users\Mxuan\AppData\Local\Temp\ccfnFihP.s 			page 61


 2562              		.loc 1 964 25 view .LVU317
 2563 0004 0020     		movs	r0, #0
 2564              	.LVL118:
 965:Libraries/ctrl_drv/i2c/mpu6050/MPU6050.c ****     I2Cdev_readByte(mpu6050.devAddr, MPU6050_RA_I2C_SLV0_ADDR + num*3, mpu6050.buffer);
 966:Libraries/ctrl_drv/i2c/mpu6050/MPU6050.c ****     return mpu6050.buffer[0];
 967:Libraries/ctrl_drv/i2c/mpu6050/MPU6050.c **** }
 2565              		.loc 1 967 1 view .LVU318
 2566 0006 7047     		bx	lr
 2567              	.LVL119:
 2568              	.L263:
 963:Libraries/ctrl_drv/i2c/mpu6050/MPU6050.c ****     if (num > 3) return 0;
 2569              		.loc 1 963 46 view .LVU319
 2570 0008 10B5     		push	{r4, lr}
 2571              	.LCFI84:
 2572              		.cfi_def_cfa_offset 8
 2573              		.cfi_offset 4, -8
 2574              		.cfi_offset 14, -4
 965:Libraries/ctrl_drv/i2c/mpu6050/MPU6050.c ****     I2Cdev_readByte(mpu6050.devAddr, MPU6050_RA_I2C_SLV0_ADDR + num*3, mpu6050.buffer);
 2575              		.loc 1 965 5 is_stmt 1 view .LVU320
 2576 000a 064A     		ldr	r2, .L264
 2577 000c 00EB4000 		add	r0, r0, r0, lsl #1
 2578              	.LVL120:
 965:Libraries/ctrl_drv/i2c/mpu6050/MPU6050.c ****     I2Cdev_readByte(mpu6050.devAddr, MPU6050_RA_I2C_SLV0_ADDR + num*3, mpu6050.buffer);
 2579              		.loc 1 965 5 is_stmt 0 view .LVU321
 2580 0010 00F12501 		add	r1, r0, #37
 2581 0014 541E     		subs	r4, r2, #1
 2582 0016 C9B2     		uxtb	r1, r1
 2583 0018 12F8010C 		ldrb	r0, [r2, #-1]	@ zero_extendqisi2
 2584 001c FFF7FEFF 		bl	I2Cdev_readByte
 2585              	.LVL121:
 966:Libraries/ctrl_drv/i2c/mpu6050/MPU6050.c **** }
 2586              		.loc 1 966 5 is_stmt 1 view .LVU322
 966:Libraries/ctrl_drv/i2c/mpu6050/MPU6050.c **** }
 2587              		.loc 1 966 26 is_stmt 0 view .LVU323
 2588 0020 6078     		ldrb	r0, [r4, #1]	@ zero_extendqisi2
 2589              		.loc 1 967 1 view .LVU324
 2590 0022 10BD     		pop	{r4, pc}
 2591              	.L265:
 2592              		.align	2
 2593              	.L264:
 2594 0024 01000000 		.word	mpu6050+1
 2595              		.cfi_endproc
 2596              	.LFE63:
 2598              		.section	.text.MPU6050_setSlaveAddress,"ax",%progbits
 2599              		.align	1
 2600              		.global	MPU6050_setSlaveAddress
 2601              		.syntax unified
 2602              		.thumb
 2603              		.thumb_func
 2605              	MPU6050_setSlaveAddress:
 2606              	.LVL122:
 2607              	.LFB64:
 968:Libraries/ctrl_drv/i2c/mpu6050/MPU6050.c **** /** Set the I2C address of the specified slave (0-3).
 969:Libraries/ctrl_drv/i2c/mpu6050/MPU6050.c ****  * @param num Slave number (0-3)
 970:Libraries/ctrl_drv/i2c/mpu6050/MPU6050.c ****  * @param address New address for specified slave
 971:Libraries/ctrl_drv/i2c/mpu6050/MPU6050.c ****  * @see getSlaveAddress()
 972:Libraries/ctrl_drv/i2c/mpu6050/MPU6050.c ****  * @see MPU6050_RA_I2C_SLV0_ADDR
ARM GAS  C:\Users\Mxuan\AppData\Local\Temp\ccfnFihP.s 			page 62


 973:Libraries/ctrl_drv/i2c/mpu6050/MPU6050.c ****  */
 974:Libraries/ctrl_drv/i2c/mpu6050/MPU6050.c **** void MPU6050_setSlaveAddress(uint8_t num, uint8_t address) {
 2608              		.loc 1 974 60 is_stmt 1 view -0
 2609              		.cfi_startproc
 2610              		@ args = 0, pretend = 0, frame = 0
 2611              		@ frame_needed = 0, uses_anonymous_args = 0
 975:Libraries/ctrl_drv/i2c/mpu6050/MPU6050.c ****     if (num > 3) return;
 2612              		.loc 1 975 5 view .LVU326
 2613              		.loc 1 975 8 is_stmt 0 view .LVU327
 2614 0000 0328     		cmp	r0, #3
 2615 0002 00D9     		bls	.L272
 2616 0004 7047     		bx	lr
 2617              	.L272:
 974:Libraries/ctrl_drv/i2c/mpu6050/MPU6050.c ****     if (num > 3) return;
 2618              		.loc 1 974 60 view .LVU328
 2619 0006 08B5     		push	{r3, lr}
 2620              	.LCFI85:
 2621              		.cfi_def_cfa_offset 8
 2622              		.cfi_offset 3, -8
 2623              		.cfi_offset 14, -4
 976:Libraries/ctrl_drv/i2c/mpu6050/MPU6050.c ****     I2Cdev_writeByte(mpu6050.devAddr, MPU6050_RA_I2C_SLV0_ADDR + num*3, address);
 2624              		.loc 1 976 5 is_stmt 1 view .LVU329
 2625 0008 00EB4000 		add	r0, r0, r0, lsl #1
 2626              	.LVL123:
 2627              		.loc 1 976 5 is_stmt 0 view .LVU330
 2628 000c 2530     		adds	r0, r0, #37
 2629 000e 0A46     		mov	r2, r1
 2630 0010 C1B2     		uxtb	r1, r0
 2631              	.LVL124:
 2632              		.loc 1 976 5 view .LVU331
 2633 0012 024B     		ldr	r3, .L273
 2634 0014 1878     		ldrb	r0, [r3]	@ zero_extendqisi2
 2635 0016 FFF7FEFF 		bl	I2Cdev_writeByte
 2636              	.LVL125:
 977:Libraries/ctrl_drv/i2c/mpu6050/MPU6050.c **** }
 2637              		.loc 1 977 1 view .LVU332
 2638 001a 08BD     		pop	{r3, pc}
 2639              	.L274:
 2640              		.align	2
 2641              	.L273:
 2642 001c 00000000 		.word	mpu6050
 2643              		.cfi_endproc
 2644              	.LFE64:
 2646              		.section	.text.MPU6050_getSlaveRegister,"ax",%progbits
 2647              		.align	1
 2648              		.global	MPU6050_getSlaveRegister
 2649              		.syntax unified
 2650              		.thumb
 2651              		.thumb_func
 2653              	MPU6050_getSlaveRegister:
 2654              	.LVL126:
 2655              	.LFB65:
 978:Libraries/ctrl_drv/i2c/mpu6050/MPU6050.c **** /** Get the active internal register for the specified slave (0-3).
 979:Libraries/ctrl_drv/i2c/mpu6050/MPU6050.c ****  * Read/write operations for this slave will be done to whatever internal
 980:Libraries/ctrl_drv/i2c/mpu6050/MPU6050.c ****  * register address is stored in this MPU register.
 981:Libraries/ctrl_drv/i2c/mpu6050/MPU6050.c ****  *
 982:Libraries/ctrl_drv/i2c/mpu6050/MPU6050.c ****  * The MPU-6050 supports a total of five slaves, but Slave 4 has unique
ARM GAS  C:\Users\Mxuan\AppData\Local\Temp\ccfnFihP.s 			page 63


 983:Libraries/ctrl_drv/i2c/mpu6050/MPU6050.c ****  * characteristics, and so it has its own functions.
 984:Libraries/ctrl_drv/i2c/mpu6050/MPU6050.c ****  *
 985:Libraries/ctrl_drv/i2c/mpu6050/MPU6050.c ****  * @param num Slave number (0-3)
 986:Libraries/ctrl_drv/i2c/mpu6050/MPU6050.c ****  * @return Current active register for specified slave
 987:Libraries/ctrl_drv/i2c/mpu6050/MPU6050.c ****  * @see MPU6050_RA_I2C_SLV0_REG
 988:Libraries/ctrl_drv/i2c/mpu6050/MPU6050.c ****  */
 989:Libraries/ctrl_drv/i2c/mpu6050/MPU6050.c **** uint8_t MPU6050_getSlaveRegister(uint8_t num) {
 2656              		.loc 1 989 47 is_stmt 1 view -0
 2657              		.cfi_startproc
 2658              		@ args = 0, pretend = 0, frame = 0
 2659              		@ frame_needed = 0, uses_anonymous_args = 0
 990:Libraries/ctrl_drv/i2c/mpu6050/MPU6050.c ****     if (num > 3) return 0;
 2660              		.loc 1 990 5 view .LVU334
 2661              		.loc 1 990 8 is_stmt 0 view .LVU335
 2662 0000 0328     		cmp	r0, #3
 2663 0002 01D9     		bls	.L282
 2664              		.loc 1 990 25 view .LVU336
 2665 0004 0020     		movs	r0, #0
 2666              	.LVL127:
 991:Libraries/ctrl_drv/i2c/mpu6050/MPU6050.c ****     I2Cdev_readByte(mpu6050.devAddr, MPU6050_RA_I2C_SLV0_REG + num*3, mpu6050.buffer);
 992:Libraries/ctrl_drv/i2c/mpu6050/MPU6050.c ****     return mpu6050.buffer[0];
 993:Libraries/ctrl_drv/i2c/mpu6050/MPU6050.c **** }
 2667              		.loc 1 993 1 view .LVU337
 2668 0006 7047     		bx	lr
 2669              	.LVL128:
 2670              	.L282:
 989:Libraries/ctrl_drv/i2c/mpu6050/MPU6050.c ****     if (num > 3) return 0;
 2671              		.loc 1 989 47 view .LVU338
 2672 0008 10B5     		push	{r4, lr}
 2673              	.LCFI86:
 2674              		.cfi_def_cfa_offset 8
 2675              		.cfi_offset 4, -8
 2676              		.cfi_offset 14, -4
 991:Libraries/ctrl_drv/i2c/mpu6050/MPU6050.c ****     I2Cdev_readByte(mpu6050.devAddr, MPU6050_RA_I2C_SLV0_REG + num*3, mpu6050.buffer);
 2677              		.loc 1 991 5 is_stmt 1 view .LVU339
 2678 000a 064A     		ldr	r2, .L283
 2679 000c 00EB4000 		add	r0, r0, r0, lsl #1
 2680              	.LVL129:
 991:Libraries/ctrl_drv/i2c/mpu6050/MPU6050.c ****     I2Cdev_readByte(mpu6050.devAddr, MPU6050_RA_I2C_SLV0_REG + num*3, mpu6050.buffer);
 2681              		.loc 1 991 5 is_stmt 0 view .LVU340
 2682 0010 00F12601 		add	r1, r0, #38
 2683 0014 541E     		subs	r4, r2, #1
 2684 0016 C9B2     		uxtb	r1, r1
 2685 0018 12F8010C 		ldrb	r0, [r2, #-1]	@ zero_extendqisi2
 2686 001c FFF7FEFF 		bl	I2Cdev_readByte
 2687              	.LVL130:
 992:Libraries/ctrl_drv/i2c/mpu6050/MPU6050.c **** }
 2688              		.loc 1 992 5 is_stmt 1 view .LVU341
 992:Libraries/ctrl_drv/i2c/mpu6050/MPU6050.c **** }
 2689              		.loc 1 992 26 is_stmt 0 view .LVU342
 2690 0020 6078     		ldrb	r0, [r4, #1]	@ zero_extendqisi2
 2691              		.loc 1 993 1 view .LVU343
 2692 0022 10BD     		pop	{r4, pc}
 2693              	.L284:
 2694              		.align	2
 2695              	.L283:
 2696 0024 01000000 		.word	mpu6050+1
ARM GAS  C:\Users\Mxuan\AppData\Local\Temp\ccfnFihP.s 			page 64


 2697              		.cfi_endproc
 2698              	.LFE65:
 2700              		.section	.text.MPU6050_setSlaveRegister,"ax",%progbits
 2701              		.align	1
 2702              		.global	MPU6050_setSlaveRegister
 2703              		.syntax unified
 2704              		.thumb
 2705              		.thumb_func
 2707              	MPU6050_setSlaveRegister:
 2708              	.LVL131:
 2709              	.LFB66:
 994:Libraries/ctrl_drv/i2c/mpu6050/MPU6050.c **** /** Set the active internal register for the specified slave (0-3).
 995:Libraries/ctrl_drv/i2c/mpu6050/MPU6050.c ****  * @param num Slave number (0-3)
 996:Libraries/ctrl_drv/i2c/mpu6050/MPU6050.c ****  * @param reg New active register for specified slave
 997:Libraries/ctrl_drv/i2c/mpu6050/MPU6050.c ****  * @see getSlaveRegister()
 998:Libraries/ctrl_drv/i2c/mpu6050/MPU6050.c ****  * @see MPU6050_RA_I2C_SLV0_REG
 999:Libraries/ctrl_drv/i2c/mpu6050/MPU6050.c ****  */
1000:Libraries/ctrl_drv/i2c/mpu6050/MPU6050.c **** void MPU6050_setSlaveRegister(uint8_t num, uint8_t reg) {
 2710              		.loc 1 1000 57 is_stmt 1 view -0
 2711              		.cfi_startproc
 2712              		@ args = 0, pretend = 0, frame = 0
 2713              		@ frame_needed = 0, uses_anonymous_args = 0
1001:Libraries/ctrl_drv/i2c/mpu6050/MPU6050.c ****     if (num > 3) return;
 2714              		.loc 1 1001 5 view .LVU345
 2715              		.loc 1 1001 8 is_stmt 0 view .LVU346
 2716 0000 0328     		cmp	r0, #3
 2717 0002 00D9     		bls	.L291
 2718 0004 7047     		bx	lr
 2719              	.L291:
1000:Libraries/ctrl_drv/i2c/mpu6050/MPU6050.c ****     if (num > 3) return;
 2720              		.loc 1 1000 57 view .LVU347
 2721 0006 08B5     		push	{r3, lr}
 2722              	.LCFI87:
 2723              		.cfi_def_cfa_offset 8
 2724              		.cfi_offset 3, -8
 2725              		.cfi_offset 14, -4
1002:Libraries/ctrl_drv/i2c/mpu6050/MPU6050.c ****     I2Cdev_writeByte(mpu6050.devAddr, MPU6050_RA_I2C_SLV0_REG + num*3, reg);
 2726              		.loc 1 1002 5 is_stmt 1 view .LVU348
 2727 0008 00EB4000 		add	r0, r0, r0, lsl #1
 2728              	.LVL132:
 2729              		.loc 1 1002 5 is_stmt 0 view .LVU349
 2730 000c 2630     		adds	r0, r0, #38
 2731 000e 0A46     		mov	r2, r1
 2732 0010 C1B2     		uxtb	r1, r0
 2733              	.LVL133:
 2734              		.loc 1 1002 5 view .LVU350
 2735 0012 024B     		ldr	r3, .L292
 2736 0014 1878     		ldrb	r0, [r3]	@ zero_extendqisi2
 2737 0016 FFF7FEFF 		bl	I2Cdev_writeByte
 2738              	.LVL134:
1003:Libraries/ctrl_drv/i2c/mpu6050/MPU6050.c **** }
 2739              		.loc 1 1003 1 view .LVU351
 2740 001a 08BD     		pop	{r3, pc}
 2741              	.L293:
 2742              		.align	2
 2743              	.L292:
 2744 001c 00000000 		.word	mpu6050
ARM GAS  C:\Users\Mxuan\AppData\Local\Temp\ccfnFihP.s 			page 65


 2745              		.cfi_endproc
 2746              	.LFE66:
 2748              		.section	.text.MPU6050_getSlaveEnabled,"ax",%progbits
 2749              		.align	1
 2750              		.global	MPU6050_getSlaveEnabled
 2751              		.syntax unified
 2752              		.thumb
 2753              		.thumb_func
 2755              	MPU6050_getSlaveEnabled:
 2756              	.LVL135:
 2757              	.LFB67:
1004:Libraries/ctrl_drv/i2c/mpu6050/MPU6050.c **** /** Get the enabled value for the specified slave (0-3).
1005:Libraries/ctrl_drv/i2c/mpu6050/MPU6050.c ****  * When set to 1, this bit enables Slave 0 for data transfer operations. When
1006:Libraries/ctrl_drv/i2c/mpu6050/MPU6050.c ****  * cleared to 0, this bit disables Slave 0 from data transfer operations.
1007:Libraries/ctrl_drv/i2c/mpu6050/MPU6050.c ****  * @param num Slave number (0-3)
1008:Libraries/ctrl_drv/i2c/mpu6050/MPU6050.c ****  * @return Current enabled value for specified slave
1009:Libraries/ctrl_drv/i2c/mpu6050/MPU6050.c ****  * @see MPU6050_RA_I2C_SLV0_CTRL
1010:Libraries/ctrl_drv/i2c/mpu6050/MPU6050.c ****  */
1011:Libraries/ctrl_drv/i2c/mpu6050/MPU6050.c **** bool MPU6050_getSlaveEnabled(uint8_t num) {
 2758              		.loc 1 1011 43 is_stmt 1 view -0
 2759              		.cfi_startproc
 2760              		@ args = 0, pretend = 0, frame = 0
 2761              		@ frame_needed = 0, uses_anonymous_args = 0
1012:Libraries/ctrl_drv/i2c/mpu6050/MPU6050.c ****     if (num > 3) return 0;
 2762              		.loc 1 1012 5 view .LVU353
 2763              		.loc 1 1012 8 is_stmt 0 view .LVU354
 2764 0000 0328     		cmp	r0, #3
 2765 0002 01D9     		bls	.L301
 2766              		.loc 1 1012 25 view .LVU355
 2767 0004 0020     		movs	r0, #0
 2768              	.LVL136:
1013:Libraries/ctrl_drv/i2c/mpu6050/MPU6050.c ****     I2Cdev_readBit(mpu6050.devAddr, MPU6050_RA_I2C_SLV0_CTRL + num*3, MPU6050_I2C_SLV_EN_BIT, mpu60
1014:Libraries/ctrl_drv/i2c/mpu6050/MPU6050.c ****     return mpu6050.buffer[0];
1015:Libraries/ctrl_drv/i2c/mpu6050/MPU6050.c **** }
 2769              		.loc 1 1015 1 view .LVU356
 2770 0006 7047     		bx	lr
 2771              	.LVL137:
 2772              	.L301:
1011:Libraries/ctrl_drv/i2c/mpu6050/MPU6050.c ****     if (num > 3) return 0;
 2773              		.loc 1 1011 43 view .LVU357
 2774 0008 10B5     		push	{r4, lr}
 2775              	.LCFI88:
 2776              		.cfi_def_cfa_offset 8
 2777              		.cfi_offset 4, -8
 2778              		.cfi_offset 14, -4
1013:Libraries/ctrl_drv/i2c/mpu6050/MPU6050.c ****     I2Cdev_readBit(mpu6050.devAddr, MPU6050_RA_I2C_SLV0_CTRL + num*3, MPU6050_I2C_SLV_EN_BIT, mpu60
 2779              		.loc 1 1013 5 is_stmt 1 view .LVU358
 2780 000a 084B     		ldr	r3, .L302
 2781 000c 00EB4000 		add	r0, r0, r0, lsl #1
 2782              	.LVL138:
1013:Libraries/ctrl_drv/i2c/mpu6050/MPU6050.c ****     I2Cdev_readBit(mpu6050.devAddr, MPU6050_RA_I2C_SLV0_CTRL + num*3, MPU6050_I2C_SLV_EN_BIT, mpu60
 2783              		.loc 1 1013 5 is_stmt 0 view .LVU359
 2784 0010 00F12701 		add	r1, r0, #39
 2785 0014 5C1E     		subs	r4, r3, #1
 2786 0016 0722     		movs	r2, #7
 2787 0018 C9B2     		uxtb	r1, r1
 2788 001a 13F8010C 		ldrb	r0, [r3, #-1]	@ zero_extendqisi2
ARM GAS  C:\Users\Mxuan\AppData\Local\Temp\ccfnFihP.s 			page 66


 2789 001e FFF7FEFF 		bl	I2Cdev_readBit
 2790              	.LVL139:
1014:Libraries/ctrl_drv/i2c/mpu6050/MPU6050.c **** }
 2791              		.loc 1 1014 5 is_stmt 1 view .LVU360
1014:Libraries/ctrl_drv/i2c/mpu6050/MPU6050.c **** }
 2792              		.loc 1 1014 26 is_stmt 0 view .LVU361
 2793 0022 6078     		ldrb	r0, [r4, #1]	@ zero_extendqisi2
 2794 0024 0038     		subs	r0, r0, #0
 2795 0026 18BF     		it	ne
 2796 0028 0120     		movne	r0, #1
 2797              		.loc 1 1015 1 view .LVU362
 2798 002a 10BD     		pop	{r4, pc}
 2799              	.L303:
 2800              		.align	2
 2801              	.L302:
 2802 002c 01000000 		.word	mpu6050+1
 2803              		.cfi_endproc
 2804              	.LFE67:
 2806              		.section	.text.MPU6050_setSlaveEnabled,"ax",%progbits
 2807              		.align	1
 2808              		.global	MPU6050_setSlaveEnabled
 2809              		.syntax unified
 2810              		.thumb
 2811              		.thumb_func
 2813              	MPU6050_setSlaveEnabled:
 2814              	.LVL140:
 2815              	.LFB68:
1016:Libraries/ctrl_drv/i2c/mpu6050/MPU6050.c **** /** Set the enabled value for the specified slave (0-3).
1017:Libraries/ctrl_drv/i2c/mpu6050/MPU6050.c ****  * @param num Slave number (0-3)
1018:Libraries/ctrl_drv/i2c/mpu6050/MPU6050.c ****  * @param enabled New enabled value for specified slave
1019:Libraries/ctrl_drv/i2c/mpu6050/MPU6050.c ****  * @see getSlaveEnabled()
1020:Libraries/ctrl_drv/i2c/mpu6050/MPU6050.c ****  * @see MPU6050_RA_I2C_SLV0_CTRL
1021:Libraries/ctrl_drv/i2c/mpu6050/MPU6050.c ****  */
1022:Libraries/ctrl_drv/i2c/mpu6050/MPU6050.c **** void MPU6050_setSlaveEnabled(uint8_t num, bool enabled) {
 2816              		.loc 1 1022 57 is_stmt 1 view -0
 2817              		.cfi_startproc
 2818              		@ args = 0, pretend = 0, frame = 0
 2819              		@ frame_needed = 0, uses_anonymous_args = 0
1023:Libraries/ctrl_drv/i2c/mpu6050/MPU6050.c ****     if (num > 3) return;
 2820              		.loc 1 1023 5 view .LVU364
 2821              		.loc 1 1023 8 is_stmt 0 view .LVU365
 2822 0000 0328     		cmp	r0, #3
 2823 0002 00D9     		bls	.L310
 2824 0004 7047     		bx	lr
 2825              	.L310:
1022:Libraries/ctrl_drv/i2c/mpu6050/MPU6050.c ****     if (num > 3) return;
 2826              		.loc 1 1022 57 view .LVU366
 2827 0006 08B5     		push	{r3, lr}
 2828              	.LCFI89:
 2829              		.cfi_def_cfa_offset 8
 2830              		.cfi_offset 3, -8
 2831              		.cfi_offset 14, -4
1024:Libraries/ctrl_drv/i2c/mpu6050/MPU6050.c ****     I2Cdev_writeBit(mpu6050.devAddr, MPU6050_RA_I2C_SLV0_CTRL + num*3, MPU6050_I2C_SLV_EN_BIT, enab
 2832              		.loc 1 1024 5 is_stmt 1 view .LVU367
 2833 0008 00EB4000 		add	r0, r0, r0, lsl #1
 2834              	.LVL141:
 2835              		.loc 1 1024 5 is_stmt 0 view .LVU368
ARM GAS  C:\Users\Mxuan\AppData\Local\Temp\ccfnFihP.s 			page 67


 2836 000c 2730     		adds	r0, r0, #39
 2837 000e 0B46     		mov	r3, r1
 2838 0010 0722     		movs	r2, #7
 2839 0012 C1B2     		uxtb	r1, r0
 2840              	.LVL142:
 2841              		.loc 1 1024 5 view .LVU369
 2842 0014 0248     		ldr	r0, .L311
 2843 0016 0078     		ldrb	r0, [r0]	@ zero_extendqisi2
 2844 0018 FFF7FEFF 		bl	I2Cdev_writeBit
 2845              	.LVL143:
1025:Libraries/ctrl_drv/i2c/mpu6050/MPU6050.c **** }
 2846              		.loc 1 1025 1 view .LVU370
 2847 001c 08BD     		pop	{r3, pc}
 2848              	.L312:
 2849 001e 00BF     		.align	2
 2850              	.L311:
 2851 0020 00000000 		.word	mpu6050
 2852              		.cfi_endproc
 2853              	.LFE68:
 2855              		.section	.text.MPU6050_getSlaveWordByteSwap,"ax",%progbits
 2856              		.align	1
 2857              		.global	MPU6050_getSlaveWordByteSwap
 2858              		.syntax unified
 2859              		.thumb
 2860              		.thumb_func
 2862              	MPU6050_getSlaveWordByteSwap:
 2863              	.LVL144:
 2864              	.LFB69:
1026:Libraries/ctrl_drv/i2c/mpu6050/MPU6050.c **** /** Get word pair byte-swapping enabled for the specified slave (0-3).
1027:Libraries/ctrl_drv/i2c/mpu6050/MPU6050.c ****  * When set to 1, this bit enables byte swapping. When byte swapping is enabled,
1028:Libraries/ctrl_drv/i2c/mpu6050/MPU6050.c ****  * the high and low bytes of a word pair are swapped. Please refer to
1029:Libraries/ctrl_drv/i2c/mpu6050/MPU6050.c ****  * I2C_SLV0_GRP for the pairing convention of the word pairs. When cleared to 0,
1030:Libraries/ctrl_drv/i2c/mpu6050/MPU6050.c ****  * bytes transferred to and from Slave 0 will be written to EXT_SENS_DATA
1031:Libraries/ctrl_drv/i2c/mpu6050/MPU6050.c ****  * registers in the order they were transferred.
1032:Libraries/ctrl_drv/i2c/mpu6050/MPU6050.c ****  *
1033:Libraries/ctrl_drv/i2c/mpu6050/MPU6050.c ****  * @param num Slave number (0-3)
1034:Libraries/ctrl_drv/i2c/mpu6050/MPU6050.c ****  * @return Current word pair byte-swapping enabled value for specified slave
1035:Libraries/ctrl_drv/i2c/mpu6050/MPU6050.c ****  * @see MPU6050_RA_I2C_SLV0_CTRL
1036:Libraries/ctrl_drv/i2c/mpu6050/MPU6050.c ****  */
1037:Libraries/ctrl_drv/i2c/mpu6050/MPU6050.c **** bool MPU6050_getSlaveWordByteSwap(uint8_t num) {
 2865              		.loc 1 1037 48 is_stmt 1 view -0
 2866              		.cfi_startproc
 2867              		@ args = 0, pretend = 0, frame = 0
 2868              		@ frame_needed = 0, uses_anonymous_args = 0
1038:Libraries/ctrl_drv/i2c/mpu6050/MPU6050.c ****     if (num > 3) return 0;
 2869              		.loc 1 1038 5 view .LVU372
 2870              		.loc 1 1038 8 is_stmt 0 view .LVU373
 2871 0000 0328     		cmp	r0, #3
 2872 0002 01D9     		bls	.L320
 2873              		.loc 1 1038 25 view .LVU374
 2874 0004 0020     		movs	r0, #0
 2875              	.LVL145:
1039:Libraries/ctrl_drv/i2c/mpu6050/MPU6050.c ****     I2Cdev_readBit(mpu6050.devAddr, MPU6050_RA_I2C_SLV0_CTRL + num*3, MPU6050_I2C_SLV_BYTE_SW_BIT, 
1040:Libraries/ctrl_drv/i2c/mpu6050/MPU6050.c ****     return mpu6050.buffer[0];
1041:Libraries/ctrl_drv/i2c/mpu6050/MPU6050.c **** }
 2876              		.loc 1 1041 1 view .LVU375
 2877 0006 7047     		bx	lr
ARM GAS  C:\Users\Mxuan\AppData\Local\Temp\ccfnFihP.s 			page 68


 2878              	.LVL146:
 2879              	.L320:
1037:Libraries/ctrl_drv/i2c/mpu6050/MPU6050.c ****     if (num > 3) return 0;
 2880              		.loc 1 1037 48 view .LVU376
 2881 0008 10B5     		push	{r4, lr}
 2882              	.LCFI90:
 2883              		.cfi_def_cfa_offset 8
 2884              		.cfi_offset 4, -8
 2885              		.cfi_offset 14, -4
1039:Libraries/ctrl_drv/i2c/mpu6050/MPU6050.c ****     I2Cdev_readBit(mpu6050.devAddr, MPU6050_RA_I2C_SLV0_CTRL + num*3, MPU6050_I2C_SLV_BYTE_SW_BIT, 
 2886              		.loc 1 1039 5 is_stmt 1 view .LVU377
 2887 000a 084B     		ldr	r3, .L321
 2888 000c 00EB4000 		add	r0, r0, r0, lsl #1
 2889              	.LVL147:
1039:Libraries/ctrl_drv/i2c/mpu6050/MPU6050.c ****     I2Cdev_readBit(mpu6050.devAddr, MPU6050_RA_I2C_SLV0_CTRL + num*3, MPU6050_I2C_SLV_BYTE_SW_BIT, 
 2890              		.loc 1 1039 5 is_stmt 0 view .LVU378
 2891 0010 00F12701 		add	r1, r0, #39
 2892 0014 5C1E     		subs	r4, r3, #1
 2893 0016 0622     		movs	r2, #6
 2894 0018 C9B2     		uxtb	r1, r1
 2895 001a 13F8010C 		ldrb	r0, [r3, #-1]	@ zero_extendqisi2
 2896 001e FFF7FEFF 		bl	I2Cdev_readBit
 2897              	.LVL148:
1040:Libraries/ctrl_drv/i2c/mpu6050/MPU6050.c **** }
 2898              		.loc 1 1040 5 is_stmt 1 view .LVU379
1040:Libraries/ctrl_drv/i2c/mpu6050/MPU6050.c **** }
 2899              		.loc 1 1040 26 is_stmt 0 view .LVU380
 2900 0022 6078     		ldrb	r0, [r4, #1]	@ zero_extendqisi2
 2901 0024 0038     		subs	r0, r0, #0
 2902 0026 18BF     		it	ne
 2903 0028 0120     		movne	r0, #1
 2904              		.loc 1 1041 1 view .LVU381
 2905 002a 10BD     		pop	{r4, pc}
 2906              	.L322:
 2907              		.align	2
 2908              	.L321:
 2909 002c 01000000 		.word	mpu6050+1
 2910              		.cfi_endproc
 2911              	.LFE69:
 2913              		.section	.text.MPU6050_setSlaveWordByteSwap,"ax",%progbits
 2914              		.align	1
 2915              		.global	MPU6050_setSlaveWordByteSwap
 2916              		.syntax unified
 2917              		.thumb
 2918              		.thumb_func
 2920              	MPU6050_setSlaveWordByteSwap:
 2921              	.LVL149:
 2922              	.LFB70:
1042:Libraries/ctrl_drv/i2c/mpu6050/MPU6050.c **** /** Set word pair byte-swapping enabled for the specified slave (0-3).
1043:Libraries/ctrl_drv/i2c/mpu6050/MPU6050.c ****  * @param num Slave number (0-3)
1044:Libraries/ctrl_drv/i2c/mpu6050/MPU6050.c ****  * @param enabled New word pair byte-swapping enabled value for specified slave
1045:Libraries/ctrl_drv/i2c/mpu6050/MPU6050.c ****  * @see getSlaveWordByteSwap()
1046:Libraries/ctrl_drv/i2c/mpu6050/MPU6050.c ****  * @see MPU6050_RA_I2C_SLV0_CTRL
1047:Libraries/ctrl_drv/i2c/mpu6050/MPU6050.c ****  */
1048:Libraries/ctrl_drv/i2c/mpu6050/MPU6050.c **** void MPU6050_setSlaveWordByteSwap(uint8_t num, bool enabled) {
 2923              		.loc 1 1048 62 is_stmt 1 view -0
 2924              		.cfi_startproc
ARM GAS  C:\Users\Mxuan\AppData\Local\Temp\ccfnFihP.s 			page 69


 2925              		@ args = 0, pretend = 0, frame = 0
 2926              		@ frame_needed = 0, uses_anonymous_args = 0
1049:Libraries/ctrl_drv/i2c/mpu6050/MPU6050.c ****     if (num > 3) return;
 2927              		.loc 1 1049 5 view .LVU383
 2928              		.loc 1 1049 8 is_stmt 0 view .LVU384
 2929 0000 0328     		cmp	r0, #3
 2930 0002 00D9     		bls	.L329
 2931 0004 7047     		bx	lr
 2932              	.L329:
1048:Libraries/ctrl_drv/i2c/mpu6050/MPU6050.c ****     if (num > 3) return;
 2933              		.loc 1 1048 62 view .LVU385
 2934 0006 08B5     		push	{r3, lr}
 2935              	.LCFI91:
 2936              		.cfi_def_cfa_offset 8
 2937              		.cfi_offset 3, -8
 2938              		.cfi_offset 14, -4
1050:Libraries/ctrl_drv/i2c/mpu6050/MPU6050.c ****     I2Cdev_writeBit(mpu6050.devAddr, MPU6050_RA_I2C_SLV0_CTRL + num*3, MPU6050_I2C_SLV_BYTE_SW_BIT,
 2939              		.loc 1 1050 5 is_stmt 1 view .LVU386
 2940 0008 00EB4000 		add	r0, r0, r0, lsl #1
 2941              	.LVL150:
 2942              		.loc 1 1050 5 is_stmt 0 view .LVU387
 2943 000c 2730     		adds	r0, r0, #39
 2944 000e 0B46     		mov	r3, r1
 2945 0010 0622     		movs	r2, #6
 2946 0012 C1B2     		uxtb	r1, r0
 2947              	.LVL151:
 2948              		.loc 1 1050 5 view .LVU388
 2949 0014 0248     		ldr	r0, .L330
 2950 0016 0078     		ldrb	r0, [r0]	@ zero_extendqisi2
 2951 0018 FFF7FEFF 		bl	I2Cdev_writeBit
 2952              	.LVL152:
1051:Libraries/ctrl_drv/i2c/mpu6050/MPU6050.c **** }
 2953              		.loc 1 1051 1 view .LVU389
 2954 001c 08BD     		pop	{r3, pc}
 2955              	.L331:
 2956 001e 00BF     		.align	2
 2957              	.L330:
 2958 0020 00000000 		.word	mpu6050
 2959              		.cfi_endproc
 2960              	.LFE70:
 2962              		.section	.text.MPU6050_getSlaveWriteMode,"ax",%progbits
 2963              		.align	1
 2964              		.global	MPU6050_getSlaveWriteMode
 2965              		.syntax unified
 2966              		.thumb
 2967              		.thumb_func
 2969              	MPU6050_getSlaveWriteMode:
 2970              	.LVL153:
 2971              	.LFB71:
1052:Libraries/ctrl_drv/i2c/mpu6050/MPU6050.c **** /** Get write mode for the specified slave (0-3).
1053:Libraries/ctrl_drv/i2c/mpu6050/MPU6050.c ****  * When set to 1, the transaction will read or write data only. When cleared to
1054:Libraries/ctrl_drv/i2c/mpu6050/MPU6050.c ****  * 0, the transaction will write a register address prior to reading or writing
1055:Libraries/ctrl_drv/i2c/mpu6050/MPU6050.c ****  * data. This should equal 0 when specifying the register address within the
1056:Libraries/ctrl_drv/i2c/mpu6050/MPU6050.c ****  * Slave device to/from which the ensuing data transaction will take place.
1057:Libraries/ctrl_drv/i2c/mpu6050/MPU6050.c ****  *
1058:Libraries/ctrl_drv/i2c/mpu6050/MPU6050.c ****  * @param num Slave number (0-3)
1059:Libraries/ctrl_drv/i2c/mpu6050/MPU6050.c ****  * @return Current write mode for specified slave (0 = register address + data, 1 = data only)
ARM GAS  C:\Users\Mxuan\AppData\Local\Temp\ccfnFihP.s 			page 70


1060:Libraries/ctrl_drv/i2c/mpu6050/MPU6050.c ****  * @see MPU6050_RA_I2C_SLV0_CTRL
1061:Libraries/ctrl_drv/i2c/mpu6050/MPU6050.c ****  */
1062:Libraries/ctrl_drv/i2c/mpu6050/MPU6050.c **** bool MPU6050_getSlaveWriteMode(uint8_t num) {
 2972              		.loc 1 1062 45 is_stmt 1 view -0
 2973              		.cfi_startproc
 2974              		@ args = 0, pretend = 0, frame = 0
 2975              		@ frame_needed = 0, uses_anonymous_args = 0
1063:Libraries/ctrl_drv/i2c/mpu6050/MPU6050.c ****     if (num > 3) return 0;
 2976              		.loc 1 1063 5 view .LVU391
 2977              		.loc 1 1063 8 is_stmt 0 view .LVU392
 2978 0000 0328     		cmp	r0, #3
 2979 0002 01D9     		bls	.L339
 2980              		.loc 1 1063 25 view .LVU393
 2981 0004 0020     		movs	r0, #0
 2982              	.LVL154:
1064:Libraries/ctrl_drv/i2c/mpu6050/MPU6050.c ****     I2Cdev_readBit(mpu6050.devAddr, MPU6050_RA_I2C_SLV0_CTRL + num*3, MPU6050_I2C_SLV_REG_DIS_BIT, 
1065:Libraries/ctrl_drv/i2c/mpu6050/MPU6050.c ****     return mpu6050.buffer[0];
1066:Libraries/ctrl_drv/i2c/mpu6050/MPU6050.c **** }
 2983              		.loc 1 1066 1 view .LVU394
 2984 0006 7047     		bx	lr
 2985              	.LVL155:
 2986              	.L339:
1062:Libraries/ctrl_drv/i2c/mpu6050/MPU6050.c ****     if (num > 3) return 0;
 2987              		.loc 1 1062 45 view .LVU395
 2988 0008 10B5     		push	{r4, lr}
 2989              	.LCFI92:
 2990              		.cfi_def_cfa_offset 8
 2991              		.cfi_offset 4, -8
 2992              		.cfi_offset 14, -4
1064:Libraries/ctrl_drv/i2c/mpu6050/MPU6050.c ****     I2Cdev_readBit(mpu6050.devAddr, MPU6050_RA_I2C_SLV0_CTRL + num*3, MPU6050_I2C_SLV_REG_DIS_BIT, 
 2993              		.loc 1 1064 5 is_stmt 1 view .LVU396
 2994 000a 084B     		ldr	r3, .L340
 2995 000c 00EB4000 		add	r0, r0, r0, lsl #1
 2996              	.LVL156:
1064:Libraries/ctrl_drv/i2c/mpu6050/MPU6050.c ****     I2Cdev_readBit(mpu6050.devAddr, MPU6050_RA_I2C_SLV0_CTRL + num*3, MPU6050_I2C_SLV_REG_DIS_BIT, 
 2997              		.loc 1 1064 5 is_stmt 0 view .LVU397
 2998 0010 00F12701 		add	r1, r0, #39
 2999 0014 5C1E     		subs	r4, r3, #1
 3000 0016 0522     		movs	r2, #5
 3001 0018 C9B2     		uxtb	r1, r1
 3002 001a 13F8010C 		ldrb	r0, [r3, #-1]	@ zero_extendqisi2
 3003 001e FFF7FEFF 		bl	I2Cdev_readBit
 3004              	.LVL157:
1065:Libraries/ctrl_drv/i2c/mpu6050/MPU6050.c **** }
 3005              		.loc 1 1065 5 is_stmt 1 view .LVU398
1065:Libraries/ctrl_drv/i2c/mpu6050/MPU6050.c **** }
 3006              		.loc 1 1065 26 is_stmt 0 view .LVU399
 3007 0022 6078     		ldrb	r0, [r4, #1]	@ zero_extendqisi2
 3008 0024 0038     		subs	r0, r0, #0
 3009 0026 18BF     		it	ne
 3010 0028 0120     		movne	r0, #1
 3011              		.loc 1 1066 1 view .LVU400
 3012 002a 10BD     		pop	{r4, pc}
 3013              	.L341:
 3014              		.align	2
 3015              	.L340:
 3016 002c 01000000 		.word	mpu6050+1
ARM GAS  C:\Users\Mxuan\AppData\Local\Temp\ccfnFihP.s 			page 71


 3017              		.cfi_endproc
 3018              	.LFE71:
 3020              		.section	.text.MPU6050_setSlaveWriteMode,"ax",%progbits
 3021              		.align	1
 3022              		.global	MPU6050_setSlaveWriteMode
 3023              		.syntax unified
 3024              		.thumb
 3025              		.thumb_func
 3027              	MPU6050_setSlaveWriteMode:
 3028              	.LVL158:
 3029              	.LFB72:
1067:Libraries/ctrl_drv/i2c/mpu6050/MPU6050.c **** /** Set write mode for the specified slave (0-3).
1068:Libraries/ctrl_drv/i2c/mpu6050/MPU6050.c ****  * @param num Slave number (0-3)
1069:Libraries/ctrl_drv/i2c/mpu6050/MPU6050.c ****  * @param mode New write mode for specified slave (0 = register address + data, 1 = data only)
1070:Libraries/ctrl_drv/i2c/mpu6050/MPU6050.c ****  * @see getSlaveWriteMode()
1071:Libraries/ctrl_drv/i2c/mpu6050/MPU6050.c ****  * @see MPU6050_RA_I2C_SLV0_CTRL
1072:Libraries/ctrl_drv/i2c/mpu6050/MPU6050.c ****  */
1073:Libraries/ctrl_drv/i2c/mpu6050/MPU6050.c **** void MPU6050_setSlaveWriteMode(uint8_t num, bool mode) {
 3030              		.loc 1 1073 56 is_stmt 1 view -0
 3031              		.cfi_startproc
 3032              		@ args = 0, pretend = 0, frame = 0
 3033              		@ frame_needed = 0, uses_anonymous_args = 0
1074:Libraries/ctrl_drv/i2c/mpu6050/MPU6050.c ****     if (num > 3) return;
 3034              		.loc 1 1074 5 view .LVU402
 3035              		.loc 1 1074 8 is_stmt 0 view .LVU403
 3036 0000 0328     		cmp	r0, #3
 3037 0002 00D9     		bls	.L348
 3038 0004 7047     		bx	lr
 3039              	.L348:
1073:Libraries/ctrl_drv/i2c/mpu6050/MPU6050.c ****     if (num > 3) return;
 3040              		.loc 1 1073 56 view .LVU404
 3041 0006 08B5     		push	{r3, lr}
 3042              	.LCFI93:
 3043              		.cfi_def_cfa_offset 8
 3044              		.cfi_offset 3, -8
 3045              		.cfi_offset 14, -4
1075:Libraries/ctrl_drv/i2c/mpu6050/MPU6050.c ****     I2Cdev_writeBit(mpu6050.devAddr, MPU6050_RA_I2C_SLV0_CTRL + num*3, MPU6050_I2C_SLV_REG_DIS_BIT,
 3046              		.loc 1 1075 5 is_stmt 1 view .LVU405
 3047 0008 00EB4000 		add	r0, r0, r0, lsl #1
 3048              	.LVL159:
 3049              		.loc 1 1075 5 is_stmt 0 view .LVU406
 3050 000c 2730     		adds	r0, r0, #39
 3051 000e 0B46     		mov	r3, r1
 3052 0010 0522     		movs	r2, #5
 3053 0012 C1B2     		uxtb	r1, r0
 3054              	.LVL160:
 3055              		.loc 1 1075 5 view .LVU407
 3056 0014 0248     		ldr	r0, .L349
 3057 0016 0078     		ldrb	r0, [r0]	@ zero_extendqisi2
 3058 0018 FFF7FEFF 		bl	I2Cdev_writeBit
 3059              	.LVL161:
1076:Libraries/ctrl_drv/i2c/mpu6050/MPU6050.c **** }
 3060              		.loc 1 1076 1 view .LVU408
 3061 001c 08BD     		pop	{r3, pc}
 3062              	.L350:
 3063 001e 00BF     		.align	2
 3064              	.L349:
ARM GAS  C:\Users\Mxuan\AppData\Local\Temp\ccfnFihP.s 			page 72


 3065 0020 00000000 		.word	mpu6050
 3066              		.cfi_endproc
 3067              	.LFE72:
 3069              		.section	.text.MPU6050_getSlaveWordGroupOffset,"ax",%progbits
 3070              		.align	1
 3071              		.global	MPU6050_getSlaveWordGroupOffset
 3072              		.syntax unified
 3073              		.thumb
 3074              		.thumb_func
 3076              	MPU6050_getSlaveWordGroupOffset:
 3077              	.LVL162:
 3078              	.LFB73:
1077:Libraries/ctrl_drv/i2c/mpu6050/MPU6050.c **** /** Get word pair grouping order offset for the specified slave (0-3).
1078:Libraries/ctrl_drv/i2c/mpu6050/MPU6050.c ****  * This sets specifies the grouping order of word pairs received from registers.
1079:Libraries/ctrl_drv/i2c/mpu6050/MPU6050.c ****  * When cleared to 0, bytes from register addresses 0 and 1, 2 and 3, etc (even,
1080:Libraries/ctrl_drv/i2c/mpu6050/MPU6050.c ****  * then odd register addresses) are paired to form a word. When set to 1, bytes
1081:Libraries/ctrl_drv/i2c/mpu6050/MPU6050.c ****  * from register addresses are paired 1 and 2, 3 and 4, etc. (odd, then even
1082:Libraries/ctrl_drv/i2c/mpu6050/MPU6050.c ****  * register addresses) are paired to form a word.
1083:Libraries/ctrl_drv/i2c/mpu6050/MPU6050.c ****  *
1084:Libraries/ctrl_drv/i2c/mpu6050/MPU6050.c ****  * @param num Slave number (0-3)
1085:Libraries/ctrl_drv/i2c/mpu6050/MPU6050.c ****  * @return Current word pair grouping order offset for specified slave
1086:Libraries/ctrl_drv/i2c/mpu6050/MPU6050.c ****  * @see MPU6050_RA_I2C_SLV0_CTRL
1087:Libraries/ctrl_drv/i2c/mpu6050/MPU6050.c ****  */
1088:Libraries/ctrl_drv/i2c/mpu6050/MPU6050.c **** bool MPU6050_getSlaveWordGroupOffset(uint8_t num) {
 3079              		.loc 1 1088 51 is_stmt 1 view -0
 3080              		.cfi_startproc
 3081              		@ args = 0, pretend = 0, frame = 0
 3082              		@ frame_needed = 0, uses_anonymous_args = 0
1089:Libraries/ctrl_drv/i2c/mpu6050/MPU6050.c ****     if (num > 3) return 0;
 3083              		.loc 1 1089 5 view .LVU410
 3084              		.loc 1 1089 8 is_stmt 0 view .LVU411
 3085 0000 0328     		cmp	r0, #3
 3086 0002 01D9     		bls	.L358
 3087              		.loc 1 1089 25 view .LVU412
 3088 0004 0020     		movs	r0, #0
 3089              	.LVL163:
1090:Libraries/ctrl_drv/i2c/mpu6050/MPU6050.c ****     I2Cdev_readBit(mpu6050.devAddr, MPU6050_RA_I2C_SLV0_CTRL + num*3, MPU6050_I2C_SLV_GRP_BIT, mpu6
1091:Libraries/ctrl_drv/i2c/mpu6050/MPU6050.c ****     return mpu6050.buffer[0];
1092:Libraries/ctrl_drv/i2c/mpu6050/MPU6050.c **** }
 3090              		.loc 1 1092 1 view .LVU413
 3091 0006 7047     		bx	lr
 3092              	.LVL164:
 3093              	.L358:
1088:Libraries/ctrl_drv/i2c/mpu6050/MPU6050.c ****     if (num > 3) return 0;
 3094              		.loc 1 1088 51 view .LVU414
 3095 0008 10B5     		push	{r4, lr}
 3096              	.LCFI94:
 3097              		.cfi_def_cfa_offset 8
 3098              		.cfi_offset 4, -8
 3099              		.cfi_offset 14, -4
1090:Libraries/ctrl_drv/i2c/mpu6050/MPU6050.c ****     I2Cdev_readBit(mpu6050.devAddr, MPU6050_RA_I2C_SLV0_CTRL + num*3, MPU6050_I2C_SLV_GRP_BIT, mpu6
 3100              		.loc 1 1090 5 is_stmt 1 view .LVU415
 3101 000a 084B     		ldr	r3, .L359
 3102 000c 00EB4000 		add	r0, r0, r0, lsl #1
 3103              	.LVL165:
1090:Libraries/ctrl_drv/i2c/mpu6050/MPU6050.c ****     I2Cdev_readBit(mpu6050.devAddr, MPU6050_RA_I2C_SLV0_CTRL + num*3, MPU6050_I2C_SLV_GRP_BIT, mpu6
 3104              		.loc 1 1090 5 is_stmt 0 view .LVU416
ARM GAS  C:\Users\Mxuan\AppData\Local\Temp\ccfnFihP.s 			page 73


 3105 0010 00F12701 		add	r1, r0, #39
 3106 0014 5C1E     		subs	r4, r3, #1
 3107 0016 0422     		movs	r2, #4
 3108 0018 C9B2     		uxtb	r1, r1
 3109 001a 13F8010C 		ldrb	r0, [r3, #-1]	@ zero_extendqisi2
 3110 001e FFF7FEFF 		bl	I2Cdev_readBit
 3111              	.LVL166:
1091:Libraries/ctrl_drv/i2c/mpu6050/MPU6050.c **** }
 3112              		.loc 1 1091 5 is_stmt 1 view .LVU417
1091:Libraries/ctrl_drv/i2c/mpu6050/MPU6050.c **** }
 3113              		.loc 1 1091 26 is_stmt 0 view .LVU418
 3114 0022 6078     		ldrb	r0, [r4, #1]	@ zero_extendqisi2
 3115 0024 0038     		subs	r0, r0, #0
 3116 0026 18BF     		it	ne
 3117 0028 0120     		movne	r0, #1
 3118              		.loc 1 1092 1 view .LVU419
 3119 002a 10BD     		pop	{r4, pc}
 3120              	.L360:
 3121              		.align	2
 3122              	.L359:
 3123 002c 01000000 		.word	mpu6050+1
 3124              		.cfi_endproc
 3125              	.LFE73:
 3127              		.section	.text.MPU6050_setSlaveWordGroupOffset,"ax",%progbits
 3128              		.align	1
 3129              		.global	MPU6050_setSlaveWordGroupOffset
 3130              		.syntax unified
 3131              		.thumb
 3132              		.thumb_func
 3134              	MPU6050_setSlaveWordGroupOffset:
 3135              	.LVL167:
 3136              	.LFB74:
1093:Libraries/ctrl_drv/i2c/mpu6050/MPU6050.c **** /** Set word pair grouping order offset for the specified slave (0-3).
1094:Libraries/ctrl_drv/i2c/mpu6050/MPU6050.c ****  * @param num Slave number (0-3)
1095:Libraries/ctrl_drv/i2c/mpu6050/MPU6050.c ****  * @param enabled New word pair grouping order offset for specified slave
1096:Libraries/ctrl_drv/i2c/mpu6050/MPU6050.c ****  * @see getSlaveWordGroupOffset()
1097:Libraries/ctrl_drv/i2c/mpu6050/MPU6050.c ****  * @see MPU6050_RA_I2C_SLV0_CTRL
1098:Libraries/ctrl_drv/i2c/mpu6050/MPU6050.c ****  */
1099:Libraries/ctrl_drv/i2c/mpu6050/MPU6050.c **** void MPU6050_setSlaveWordGroupOffset(uint8_t num, bool enabled) {
 3137              		.loc 1 1099 65 is_stmt 1 view -0
 3138              		.cfi_startproc
 3139              		@ args = 0, pretend = 0, frame = 0
 3140              		@ frame_needed = 0, uses_anonymous_args = 0
1100:Libraries/ctrl_drv/i2c/mpu6050/MPU6050.c ****     if (num > 3) return;
 3141              		.loc 1 1100 5 view .LVU421
 3142              		.loc 1 1100 8 is_stmt 0 view .LVU422
 3143 0000 0328     		cmp	r0, #3
 3144 0002 00D9     		bls	.L367
 3145 0004 7047     		bx	lr
 3146              	.L367:
1099:Libraries/ctrl_drv/i2c/mpu6050/MPU6050.c ****     if (num > 3) return;
 3147              		.loc 1 1099 65 view .LVU423
 3148 0006 08B5     		push	{r3, lr}
 3149              	.LCFI95:
 3150              		.cfi_def_cfa_offset 8
 3151              		.cfi_offset 3, -8
 3152              		.cfi_offset 14, -4
ARM GAS  C:\Users\Mxuan\AppData\Local\Temp\ccfnFihP.s 			page 74


1101:Libraries/ctrl_drv/i2c/mpu6050/MPU6050.c ****     I2Cdev_writeBit(mpu6050.devAddr, MPU6050_RA_I2C_SLV0_CTRL + num*3, MPU6050_I2C_SLV_GRP_BIT, ena
 3153              		.loc 1 1101 5 is_stmt 1 view .LVU424
 3154 0008 00EB4000 		add	r0, r0, r0, lsl #1
 3155              	.LVL168:
 3156              		.loc 1 1101 5 is_stmt 0 view .LVU425
 3157 000c 2730     		adds	r0, r0, #39
 3158 000e 0B46     		mov	r3, r1
 3159 0010 0422     		movs	r2, #4
 3160 0012 C1B2     		uxtb	r1, r0
 3161              	.LVL169:
 3162              		.loc 1 1101 5 view .LVU426
 3163 0014 0248     		ldr	r0, .L368
 3164 0016 0078     		ldrb	r0, [r0]	@ zero_extendqisi2
 3165 0018 FFF7FEFF 		bl	I2Cdev_writeBit
 3166              	.LVL170:
1102:Libraries/ctrl_drv/i2c/mpu6050/MPU6050.c **** }
 3167              		.loc 1 1102 1 view .LVU427
 3168 001c 08BD     		pop	{r3, pc}
 3169              	.L369:
 3170 001e 00BF     		.align	2
 3171              	.L368:
 3172 0020 00000000 		.word	mpu6050
 3173              		.cfi_endproc
 3174              	.LFE74:
 3176              		.section	.text.MPU6050_getSlaveDataLength,"ax",%progbits
 3177              		.align	1
 3178              		.global	MPU6050_getSlaveDataLength
 3179              		.syntax unified
 3180              		.thumb
 3181              		.thumb_func
 3183              	MPU6050_getSlaveDataLength:
 3184              	.LVL171:
 3185              	.LFB75:
1103:Libraries/ctrl_drv/i2c/mpu6050/MPU6050.c **** /** Get number of bytes to read for the specified slave (0-3).
1104:Libraries/ctrl_drv/i2c/mpu6050/MPU6050.c ****  * Specifies the number of bytes transferred to and from Slave 0. Clearing this
1105:Libraries/ctrl_drv/i2c/mpu6050/MPU6050.c ****  * bit to 0 is equivalent to disabling the register by writing 0 to I2C_SLV0_EN.
1106:Libraries/ctrl_drv/i2c/mpu6050/MPU6050.c ****  * @param num Slave number (0-3)
1107:Libraries/ctrl_drv/i2c/mpu6050/MPU6050.c ****  * @return Number of bytes to read for specified slave
1108:Libraries/ctrl_drv/i2c/mpu6050/MPU6050.c ****  * @see MPU6050_RA_I2C_SLV0_CTRL
1109:Libraries/ctrl_drv/i2c/mpu6050/MPU6050.c ****  */
1110:Libraries/ctrl_drv/i2c/mpu6050/MPU6050.c **** uint8_t MPU6050_getSlaveDataLength(uint8_t num) {
 3186              		.loc 1 1110 49 is_stmt 1 view -0
 3187              		.cfi_startproc
 3188              		@ args = 0, pretend = 0, frame = 0
 3189              		@ frame_needed = 0, uses_anonymous_args = 0
1111:Libraries/ctrl_drv/i2c/mpu6050/MPU6050.c ****     if (num > 3) return 0;
 3190              		.loc 1 1111 5 view .LVU429
 3191              		.loc 1 1111 8 is_stmt 0 view .LVU430
 3192 0000 0328     		cmp	r0, #3
 3193 0002 01D9     		bls	.L377
 3194              		.loc 1 1111 25 view .LVU431
 3195 0004 0020     		movs	r0, #0
 3196              	.LVL172:
1112:Libraries/ctrl_drv/i2c/mpu6050/MPU6050.c ****     I2Cdev_readBits(mpu6050.devAddr, MPU6050_RA_I2C_SLV0_CTRL + num*3, MPU6050_I2C_SLV_LEN_BIT, MPU
1113:Libraries/ctrl_drv/i2c/mpu6050/MPU6050.c ****     return mpu6050.buffer[0];
1114:Libraries/ctrl_drv/i2c/mpu6050/MPU6050.c **** }
 3197              		.loc 1 1114 1 view .LVU432
ARM GAS  C:\Users\Mxuan\AppData\Local\Temp\ccfnFihP.s 			page 75


 3198 0006 7047     		bx	lr
 3199              	.LVL173:
 3200              	.L377:
1110:Libraries/ctrl_drv/i2c/mpu6050/MPU6050.c ****     if (num > 3) return 0;
 3201              		.loc 1 1110 49 view .LVU433
 3202 0008 10B5     		push	{r4, lr}
 3203              	.LCFI96:
 3204              		.cfi_def_cfa_offset 8
 3205              		.cfi_offset 4, -8
 3206              		.cfi_offset 14, -4
 3207 000a 82B0     		sub	sp, sp, #8
 3208              	.LCFI97:
 3209              		.cfi_def_cfa_offset 16
1112:Libraries/ctrl_drv/i2c/mpu6050/MPU6050.c ****     I2Cdev_readBits(mpu6050.devAddr, MPU6050_RA_I2C_SLV0_CTRL + num*3, MPU6050_I2C_SLV_LEN_BIT, MPU
 3210              		.loc 1 1112 5 is_stmt 1 view .LVU434
 3211 000c 00EB4000 		add	r0, r0, r0, lsl #1
 3212              	.LVL174:
1112:Libraries/ctrl_drv/i2c/mpu6050/MPU6050.c ****     I2Cdev_readBits(mpu6050.devAddr, MPU6050_RA_I2C_SLV0_CTRL + num*3, MPU6050_I2C_SLV_LEN_BIT, MPU
 3213              		.loc 1 1112 5 is_stmt 0 view .LVU435
 3214 0010 00F12701 		add	r1, r0, #39
 3215 0014 064C     		ldr	r4, .L378
 3216 0016 2346     		mov	r3, r4
 3217 0018 13F8010B 		ldrb	r0, [r3], #1	@ zero_extendqisi2
 3218 001c 0093     		str	r3, [sp]
 3219 001e 0423     		movs	r3, #4
 3220 0020 0322     		movs	r2, #3
 3221 0022 C9B2     		uxtb	r1, r1
 3222 0024 FFF7FEFF 		bl	I2Cdev_readBits
 3223              	.LVL175:
1113:Libraries/ctrl_drv/i2c/mpu6050/MPU6050.c **** }
 3224              		.loc 1 1113 5 is_stmt 1 view .LVU436
1113:Libraries/ctrl_drv/i2c/mpu6050/MPU6050.c **** }
 3225              		.loc 1 1113 26 is_stmt 0 view .LVU437
 3226 0028 6078     		ldrb	r0, [r4, #1]	@ zero_extendqisi2
 3227              		.loc 1 1114 1 view .LVU438
 3228 002a 02B0     		add	sp, sp, #8
 3229              	.LCFI98:
 3230              		.cfi_def_cfa_offset 8
 3231              		@ sp needed
 3232 002c 10BD     		pop	{r4, pc}
 3233              	.L379:
 3234 002e 00BF     		.align	2
 3235              	.L378:
 3236 0030 00000000 		.word	mpu6050
 3237              		.cfi_endproc
 3238              	.LFE75:
 3240              		.section	.text.MPU6050_setSlaveDataLength,"ax",%progbits
 3241              		.align	1
 3242              		.global	MPU6050_setSlaveDataLength
 3243              		.syntax unified
 3244              		.thumb
 3245              		.thumb_func
 3247              	MPU6050_setSlaveDataLength:
 3248              	.LVL176:
 3249              	.LFB76:
1115:Libraries/ctrl_drv/i2c/mpu6050/MPU6050.c **** /** Set number of bytes to read for the specified slave (0-3).
1116:Libraries/ctrl_drv/i2c/mpu6050/MPU6050.c ****  * @param num Slave number (0-3)
ARM GAS  C:\Users\Mxuan\AppData\Local\Temp\ccfnFihP.s 			page 76


1117:Libraries/ctrl_drv/i2c/mpu6050/MPU6050.c ****  * @param length Number of bytes to read for specified slave
1118:Libraries/ctrl_drv/i2c/mpu6050/MPU6050.c ****  * @see getSlaveDataLength()
1119:Libraries/ctrl_drv/i2c/mpu6050/MPU6050.c ****  * @see MPU6050_RA_I2C_SLV0_CTRL
1120:Libraries/ctrl_drv/i2c/mpu6050/MPU6050.c ****  */
1121:Libraries/ctrl_drv/i2c/mpu6050/MPU6050.c **** void MPU6050_setSlaveDataLength(uint8_t num, uint8_t length) {
 3250              		.loc 1 1121 62 is_stmt 1 view -0
 3251              		.cfi_startproc
 3252              		@ args = 0, pretend = 0, frame = 0
 3253              		@ frame_needed = 0, uses_anonymous_args = 0
1122:Libraries/ctrl_drv/i2c/mpu6050/MPU6050.c ****     if (num > 3) return;
 3254              		.loc 1 1122 5 view .LVU440
 3255              		.loc 1 1122 8 is_stmt 0 view .LVU441
 3256 0000 0328     		cmp	r0, #3
 3257 0002 00D9     		bls	.L386
 3258 0004 7047     		bx	lr
 3259              	.L386:
1121:Libraries/ctrl_drv/i2c/mpu6050/MPU6050.c ****     if (num > 3) return;
 3260              		.loc 1 1121 62 view .LVU442
 3261 0006 00B5     		push	{lr}
 3262              	.LCFI99:
 3263              		.cfi_def_cfa_offset 4
 3264              		.cfi_offset 14, -4
 3265 0008 83B0     		sub	sp, sp, #12
 3266              	.LCFI100:
 3267              		.cfi_def_cfa_offset 16
1123:Libraries/ctrl_drv/i2c/mpu6050/MPU6050.c ****     I2Cdev_writeBits(mpu6050.devAddr, MPU6050_RA_I2C_SLV0_CTRL + num*3, MPU6050_I2C_SLV_LEN_BIT, MP
 3268              		.loc 1 1123 5 is_stmt 1 view .LVU443
 3269 000a 00EB4000 		add	r0, r0, r0, lsl #1
 3270              	.LVL177:
 3271              		.loc 1 1123 5 is_stmt 0 view .LVU444
 3272 000e 2730     		adds	r0, r0, #39
 3273 0010 0091     		str	r1, [sp]
 3274 0012 0423     		movs	r3, #4
 3275 0014 0322     		movs	r2, #3
 3276 0016 C1B2     		uxtb	r1, r0
 3277              	.LVL178:
 3278              		.loc 1 1123 5 view .LVU445
 3279 0018 0348     		ldr	r0, .L387
 3280 001a 0078     		ldrb	r0, [r0]	@ zero_extendqisi2
 3281 001c FFF7FEFF 		bl	I2Cdev_writeBits
 3282              	.LVL179:
1124:Libraries/ctrl_drv/i2c/mpu6050/MPU6050.c **** }
 3283              		.loc 1 1124 1 view .LVU446
 3284 0020 03B0     		add	sp, sp, #12
 3285              	.LCFI101:
 3286              		.cfi_def_cfa_offset 4
 3287              		@ sp needed
 3288 0022 5DF804FB 		ldr	pc, [sp], #4
 3289              	.L388:
 3290 0026 00BF     		.align	2
 3291              	.L387:
 3292 0028 00000000 		.word	mpu6050
 3293              		.cfi_endproc
 3294              	.LFE76:
 3296              		.section	.text.MPU6050_getSlave4Address,"ax",%progbits
 3297              		.align	1
 3298              		.global	MPU6050_getSlave4Address
ARM GAS  C:\Users\Mxuan\AppData\Local\Temp\ccfnFihP.s 			page 77


 3299              		.syntax unified
 3300              		.thumb
 3301              		.thumb_func
 3303              	MPU6050_getSlave4Address:
 3304              	.LFB77:
1125:Libraries/ctrl_drv/i2c/mpu6050/MPU6050.c **** 
1126:Libraries/ctrl_drv/i2c/mpu6050/MPU6050.c **** // I2C_SLV* registers (Slave 4)
1127:Libraries/ctrl_drv/i2c/mpu6050/MPU6050.c **** 
1128:Libraries/ctrl_drv/i2c/mpu6050/MPU6050.c **** /** Get the I2C address of Slave 4.
1129:Libraries/ctrl_drv/i2c/mpu6050/MPU6050.c ****  * Note that Bit 7 (MSB) controls read/write mode. If Bit 7 is set, it's a read
1130:Libraries/ctrl_drv/i2c/mpu6050/MPU6050.c ****  * operation, and if it is cleared, then it's a write operation. The remaining
1131:Libraries/ctrl_drv/i2c/mpu6050/MPU6050.c ****  * bits (6-0) are the 7-bit device address of the slave device.
1132:Libraries/ctrl_drv/i2c/mpu6050/MPU6050.c ****  *
1133:Libraries/ctrl_drv/i2c/mpu6050/MPU6050.c ****  * @return Current address for Slave 4
1134:Libraries/ctrl_drv/i2c/mpu6050/MPU6050.c ****  * @see getSlaveAddress()
1135:Libraries/ctrl_drv/i2c/mpu6050/MPU6050.c ****  * @see MPU6050_RA_I2C_SLV4_ADDR
1136:Libraries/ctrl_drv/i2c/mpu6050/MPU6050.c ****  */
1137:Libraries/ctrl_drv/i2c/mpu6050/MPU6050.c **** uint8_t MPU6050_getSlave4Address() {
 3305              		.loc 1 1137 36 is_stmt 1 view -0
 3306              		.cfi_startproc
 3307              		@ args = 0, pretend = 0, frame = 0
 3308              		@ frame_needed = 0, uses_anonymous_args = 0
 3309 0000 10B5     		push	{r4, lr}
 3310              	.LCFI102:
 3311              		.cfi_def_cfa_offset 8
 3312              		.cfi_offset 4, -8
 3313              		.cfi_offset 14, -4
1138:Libraries/ctrl_drv/i2c/mpu6050/MPU6050.c ****     I2Cdev_readByte(mpu6050.devAddr, MPU6050_RA_I2C_SLV4_ADDR, mpu6050.buffer);
 3314              		.loc 1 1138 5 view .LVU448
 3315 0002 044A     		ldr	r2, .L391
 3316 0004 541E     		subs	r4, r2, #1
 3317 0006 3121     		movs	r1, #49
 3318 0008 12F8010C 		ldrb	r0, [r2, #-1]	@ zero_extendqisi2
 3319 000c FFF7FEFF 		bl	I2Cdev_readByte
 3320              	.LVL180:
1139:Libraries/ctrl_drv/i2c/mpu6050/MPU6050.c ****     return mpu6050.buffer[0];
 3321              		.loc 1 1139 5 view .LVU449
1140:Libraries/ctrl_drv/i2c/mpu6050/MPU6050.c **** }
 3322              		.loc 1 1140 1 is_stmt 0 view .LVU450
 3323 0010 6078     		ldrb	r0, [r4, #1]	@ zero_extendqisi2
 3324 0012 10BD     		pop	{r4, pc}
 3325              	.L392:
 3326              		.align	2
 3327              	.L391:
 3328 0014 01000000 		.word	mpu6050+1
 3329              		.cfi_endproc
 3330              	.LFE77:
 3332              		.section	.text.MPU6050_setSlave4Address,"ax",%progbits
 3333              		.align	1
 3334              		.global	MPU6050_setSlave4Address
 3335              		.syntax unified
 3336              		.thumb
 3337              		.thumb_func
 3339              	MPU6050_setSlave4Address:
 3340              	.LVL181:
 3341              	.LFB78:
1141:Libraries/ctrl_drv/i2c/mpu6050/MPU6050.c **** /** Set the I2C address of Slave 4.
ARM GAS  C:\Users\Mxuan\AppData\Local\Temp\ccfnFihP.s 			page 78


1142:Libraries/ctrl_drv/i2c/mpu6050/MPU6050.c ****  * @param address New address for Slave 4
1143:Libraries/ctrl_drv/i2c/mpu6050/MPU6050.c ****  * @see getSlave4Address()
1144:Libraries/ctrl_drv/i2c/mpu6050/MPU6050.c ****  * @see MPU6050_RA_I2C_SLV4_ADDR
1145:Libraries/ctrl_drv/i2c/mpu6050/MPU6050.c ****  */
1146:Libraries/ctrl_drv/i2c/mpu6050/MPU6050.c **** void MPU6050_setSlave4Address(uint8_t address) {
 3342              		.loc 1 1146 48 is_stmt 1 view -0
 3343              		.cfi_startproc
 3344              		@ args = 0, pretend = 0, frame = 0
 3345              		@ frame_needed = 0, uses_anonymous_args = 0
 3346              		.loc 1 1146 48 is_stmt 0 view .LVU452
 3347 0000 08B5     		push	{r3, lr}
 3348              	.LCFI103:
 3349              		.cfi_def_cfa_offset 8
 3350              		.cfi_offset 3, -8
 3351              		.cfi_offset 14, -4
 3352 0002 0246     		mov	r2, r0
1147:Libraries/ctrl_drv/i2c/mpu6050/MPU6050.c ****     I2Cdev_writeByte(mpu6050.devAddr, MPU6050_RA_I2C_SLV4_ADDR, address);
 3353              		.loc 1 1147 5 is_stmt 1 view .LVU453
 3354 0004 3121     		movs	r1, #49
 3355 0006 024B     		ldr	r3, .L395
 3356 0008 1878     		ldrb	r0, [r3]	@ zero_extendqisi2
 3357              	.LVL182:
 3358              		.loc 1 1147 5 is_stmt 0 view .LVU454
 3359 000a FFF7FEFF 		bl	I2Cdev_writeByte
 3360              	.LVL183:
1148:Libraries/ctrl_drv/i2c/mpu6050/MPU6050.c **** }
 3361              		.loc 1 1148 1 view .LVU455
 3362 000e 08BD     		pop	{r3, pc}
 3363              	.L396:
 3364              		.align	2
 3365              	.L395:
 3366 0010 00000000 		.word	mpu6050
 3367              		.cfi_endproc
 3368              	.LFE78:
 3370              		.section	.text.MPU6050_getSlave4Register,"ax",%progbits
 3371              		.align	1
 3372              		.global	MPU6050_getSlave4Register
 3373              		.syntax unified
 3374              		.thumb
 3375              		.thumb_func
 3377              	MPU6050_getSlave4Register:
 3378              	.LFB79:
1149:Libraries/ctrl_drv/i2c/mpu6050/MPU6050.c **** /** Get the active internal register for the Slave 4.
1150:Libraries/ctrl_drv/i2c/mpu6050/MPU6050.c ****  * Read/write operations for this slave will be done to whatever internal
1151:Libraries/ctrl_drv/i2c/mpu6050/MPU6050.c ****  * register address is stored in this MPU register.
1152:Libraries/ctrl_drv/i2c/mpu6050/MPU6050.c ****  *
1153:Libraries/ctrl_drv/i2c/mpu6050/MPU6050.c ****  * @return Current active register for Slave 4
1154:Libraries/ctrl_drv/i2c/mpu6050/MPU6050.c ****  * @see MPU6050_RA_I2C_SLV4_REG
1155:Libraries/ctrl_drv/i2c/mpu6050/MPU6050.c ****  */
1156:Libraries/ctrl_drv/i2c/mpu6050/MPU6050.c **** uint8_t MPU6050_getSlave4Register() {
 3379              		.loc 1 1156 37 is_stmt 1 view -0
 3380              		.cfi_startproc
 3381              		@ args = 0, pretend = 0, frame = 0
 3382              		@ frame_needed = 0, uses_anonymous_args = 0
 3383 0000 10B5     		push	{r4, lr}
 3384              	.LCFI104:
 3385              		.cfi_def_cfa_offset 8
ARM GAS  C:\Users\Mxuan\AppData\Local\Temp\ccfnFihP.s 			page 79


 3386              		.cfi_offset 4, -8
 3387              		.cfi_offset 14, -4
1157:Libraries/ctrl_drv/i2c/mpu6050/MPU6050.c ****     I2Cdev_readByte(mpu6050.devAddr, MPU6050_RA_I2C_SLV4_REG, mpu6050.buffer);
 3388              		.loc 1 1157 5 view .LVU457
 3389 0002 044A     		ldr	r2, .L399
 3390 0004 541E     		subs	r4, r2, #1
 3391 0006 3221     		movs	r1, #50
 3392 0008 12F8010C 		ldrb	r0, [r2, #-1]	@ zero_extendqisi2
 3393 000c FFF7FEFF 		bl	I2Cdev_readByte
 3394              	.LVL184:
1158:Libraries/ctrl_drv/i2c/mpu6050/MPU6050.c ****     return mpu6050.buffer[0];
 3395              		.loc 1 1158 5 view .LVU458
1159:Libraries/ctrl_drv/i2c/mpu6050/MPU6050.c **** }
 3396              		.loc 1 1159 1 is_stmt 0 view .LVU459
 3397 0010 6078     		ldrb	r0, [r4, #1]	@ zero_extendqisi2
 3398 0012 10BD     		pop	{r4, pc}
 3399              	.L400:
 3400              		.align	2
 3401              	.L399:
 3402 0014 01000000 		.word	mpu6050+1
 3403              		.cfi_endproc
 3404              	.LFE79:
 3406              		.section	.text.MPU6050_setSlave4Register,"ax",%progbits
 3407              		.align	1
 3408              		.global	MPU6050_setSlave4Register
 3409              		.syntax unified
 3410              		.thumb
 3411              		.thumb_func
 3413              	MPU6050_setSlave4Register:
 3414              	.LVL185:
 3415              	.LFB80:
1160:Libraries/ctrl_drv/i2c/mpu6050/MPU6050.c **** /** Set the active internal register for Slave 4.
1161:Libraries/ctrl_drv/i2c/mpu6050/MPU6050.c ****  * @param reg New active register for Slave 4
1162:Libraries/ctrl_drv/i2c/mpu6050/MPU6050.c ****  * @see getSlave4Register()
1163:Libraries/ctrl_drv/i2c/mpu6050/MPU6050.c ****  * @see MPU6050_RA_I2C_SLV4_REG
1164:Libraries/ctrl_drv/i2c/mpu6050/MPU6050.c ****  */
1165:Libraries/ctrl_drv/i2c/mpu6050/MPU6050.c **** void MPU6050_setSlave4Register(uint8_t reg) {
 3416              		.loc 1 1165 45 is_stmt 1 view -0
 3417              		.cfi_startproc
 3418              		@ args = 0, pretend = 0, frame = 0
 3419              		@ frame_needed = 0, uses_anonymous_args = 0
 3420              		.loc 1 1165 45 is_stmt 0 view .LVU461
 3421 0000 08B5     		push	{r3, lr}
 3422              	.LCFI105:
 3423              		.cfi_def_cfa_offset 8
 3424              		.cfi_offset 3, -8
 3425              		.cfi_offset 14, -4
 3426 0002 0246     		mov	r2, r0
1166:Libraries/ctrl_drv/i2c/mpu6050/MPU6050.c ****     I2Cdev_writeByte(mpu6050.devAddr, MPU6050_RA_I2C_SLV4_REG, reg);
 3427              		.loc 1 1166 5 is_stmt 1 view .LVU462
 3428 0004 3221     		movs	r1, #50
 3429 0006 024B     		ldr	r3, .L403
 3430 0008 1878     		ldrb	r0, [r3]	@ zero_extendqisi2
 3431              	.LVL186:
 3432              		.loc 1 1166 5 is_stmt 0 view .LVU463
 3433 000a FFF7FEFF 		bl	I2Cdev_writeByte
 3434              	.LVL187:
ARM GAS  C:\Users\Mxuan\AppData\Local\Temp\ccfnFihP.s 			page 80


1167:Libraries/ctrl_drv/i2c/mpu6050/MPU6050.c **** }
 3435              		.loc 1 1167 1 view .LVU464
 3436 000e 08BD     		pop	{r3, pc}
 3437              	.L404:
 3438              		.align	2
 3439              	.L403:
 3440 0010 00000000 		.word	mpu6050
 3441              		.cfi_endproc
 3442              	.LFE80:
 3444              		.section	.text.MPU6050_setSlave4OutputByte,"ax",%progbits
 3445              		.align	1
 3446              		.global	MPU6050_setSlave4OutputByte
 3447              		.syntax unified
 3448              		.thumb
 3449              		.thumb_func
 3451              	MPU6050_setSlave4OutputByte:
 3452              	.LVL188:
 3453              	.LFB81:
1168:Libraries/ctrl_drv/i2c/mpu6050/MPU6050.c **** /** Set new byte to write to Slave 4.
