ARM GAS  C:\Users\Mxuan\AppData\Local\Temp\ccfnFihP.s 			page 1


   1              		.cpu cortex-m4
   2              		.arch armv7e-m
   3              		.fpu softvfp
   4              		.eabi_attribute 20, 1
   5              		.eabi_attribute 21, 1
   6              		.eabi_attribute 23, 3
   7              		.eabi_attribute 24, 1
   8              		.eabi_attribute 25, 1
   9              		.eabi_attribute 26, 1
  10              		.eabi_attribute 30, 1
  11              		.eabi_attribute 34, 1
  12              		.eabi_attribute 18, 4
  13              		.file	"MPU6050.c"
  14              		.text
  15              	.Ltext0:
  16              		.cfi_sections	.debug_frame
  17              		.file 1 "Libraries/ctrl_drv/i2c/mpu6050/MPU6050.c"
  18              		.section	.text.MPU6050,"ax",%progbits
  19              		.align	1
  20              		.global	MPU6050
  21              		.syntax unified
  22              		.thumb
  23              		.thumb_func
  25              	MPU6050:
  26              	.LVL0:
  27              	.LFB0:
   1:Libraries/ctrl_drv/i2c/mpu6050/MPU6050.c **** // I2Cdev library collection - MPU6050 I2C device class
   2:Libraries/ctrl_drv/i2c/mpu6050/MPU6050.c **** // Based on InvenSense MPU-6050 register map document rev. 2.0, 5/19/2011 (RM-MPU-6000A-00)
   3:Libraries/ctrl_drv/i2c/mpu6050/MPU6050.c **** // 8/24/2011 by Jeff Rowberg <jeff@rowberg.net>
   4:Libraries/ctrl_drv/i2c/mpu6050/MPU6050.c **** // 11/28/2014 by Marton Sebok <sebokmarton@gmail.com>
   5:Libraries/ctrl_drv/i2c/mpu6050/MPU6050.c **** //
   6:Libraries/ctrl_drv/i2c/mpu6050/MPU6050.c **** // Updates should (hopefully) always be available at https://github.com/jrowberg/i2cdevlib
   7:Libraries/ctrl_drv/i2c/mpu6050/MPU6050.c **** //
   8:Libraries/ctrl_drv/i2c/mpu6050/MPU6050.c **** // Changelog:
   9:Libraries/ctrl_drv/i2c/mpu6050/MPU6050.c **** //     ...        - ongoing debug release
  10:Libraries/ctrl_drv/i2c/mpu6050/MPU6050.c **** //     2014-11-28 - ported to PIC18 peripheral library from Arduino code
  11:Libraries/ctrl_drv/i2c/mpu6050/MPU6050.c **** //     2017-03-28 - tested basic function on STM32
  12:Libraries/ctrl_drv/i2c/mpu6050/MPU6050.c **** 
  13:Libraries/ctrl_drv/i2c/mpu6050/MPU6050.c **** // NOTE: THIS IS ONLY A PARIAL RELEASE. THIS DEVICE CLASS IS CURRENTLY UNDERGOING ACTIVE
  14:Libraries/ctrl_drv/i2c/mpu6050/MPU6050.c **** // DEVELOPMENT AND IS STILL MISSING SOME IMPORTANT FEATURES. PLEASE KEEP THIS IN MIND IF
  15:Libraries/ctrl_drv/i2c/mpu6050/MPU6050.c **** // YOU DECIDE TO USE THIS PARTICULAR CODE FOR ANYTHING.
  16:Libraries/ctrl_drv/i2c/mpu6050/MPU6050.c **** 
  17:Libraries/ctrl_drv/i2c/mpu6050/MPU6050.c **** /* ============================================
  18:Libraries/ctrl_drv/i2c/mpu6050/MPU6050.c **** I2Cdev device library code is placed under the MIT license
  19:Libraries/ctrl_drv/i2c/mpu6050/MPU6050.c **** Copyright (c) 2012 Jeff Rowberg
  20:Libraries/ctrl_drv/i2c/mpu6050/MPU6050.c **** Copyright (c) 2014 Marton Sebok
  21:Libraries/ctrl_drv/i2c/mpu6050/MPU6050.c **** 
  22:Libraries/ctrl_drv/i2c/mpu6050/MPU6050.c **** Permission is hereby granted, free of charge, to any person obtaining a copy
  23:Libraries/ctrl_drv/i2c/mpu6050/MPU6050.c **** of this software and associated documentation files (the "Software"), to deal
  24:Libraries/ctrl_drv/i2c/mpu6050/MPU6050.c **** in the Software without restriction, including without limitation the rights
  25:Libraries/ctrl_drv/i2c/mpu6050/MPU6050.c **** to use, copy, modify, merge, publish, distribute, sublicense, and/or sell
  26:Libraries/ctrl_drv/i2c/mpu6050/MPU6050.c **** copies of the Software, and to permit persons to whom the Software is
  27:Libraries/ctrl_drv/i2c/mpu6050/MPU6050.c **** furnished to do so, subject to the following conditions:
  28:Libraries/ctrl_drv/i2c/mpu6050/MPU6050.c **** 
  29:Libraries/ctrl_drv/i2c/mpu6050/MPU6050.c **** The above copyright notice and this permission notice shall be included in
  30:Libraries/ctrl_drv/i2c/mpu6050/MPU6050.c **** all copies or substantial portions of the Software.
  31:Libraries/ctrl_drv/i2c/mpu6050/MPU6050.c **** 
ARM GAS  C:\Users\Mxuan\AppData\Local\Temp\ccfnFihP.s 			page 2


  32:Libraries/ctrl_drv/i2c/mpu6050/MPU6050.c **** THE SOFTWARE IS PROVIDED "AS IS", WITHOUT WARRANTY OF ANY KIND, EXPRESS OR
  33:Libraries/ctrl_drv/i2c/mpu6050/MPU6050.c **** IMPLIED, INCLUDING BUT NOT LIMITED TO THE WARRANTIES OF MERCHANTABILITY,
  34:Libraries/ctrl_drv/i2c/mpu6050/MPU6050.c **** FITNESS FOR A PARTICULAR PURPOSE AND NONINFRINGEMENT. IN NO EVENT SHALL THE
  35:Libraries/ctrl_drv/i2c/mpu6050/MPU6050.c **** AUTHORS OR COPYRIGHT HOLDERS BE LIABLE FOR ANY CLAIM, DAMAGES OR OTHER
  36:Libraries/ctrl_drv/i2c/mpu6050/MPU6050.c **** LIABILITY, WHETHER IN AN ACTION OF CONTRACT, TORT OR OTHERWISE, ARISING FROM,
  37:Libraries/ctrl_drv/i2c/mpu6050/MPU6050.c **** OUT OF OR IN CONNECTION WITH THE SOFTWARE OR THE USE OR OTHER DEALINGS IN
  38:Libraries/ctrl_drv/i2c/mpu6050/MPU6050.c **** THE SOFTWARE.
  39:Libraries/ctrl_drv/i2c/mpu6050/MPU6050.c **** ===============================================
  40:Libraries/ctrl_drv/i2c/mpu6050/MPU6050.c **** */
  41:Libraries/ctrl_drv/i2c/mpu6050/MPU6050.c **** 
  42:Libraries/ctrl_drv/i2c/mpu6050/MPU6050.c **** #include "MPU6050.h"
  43:Libraries/ctrl_drv/i2c/mpu6050/MPU6050.c **** 
  44:Libraries/ctrl_drv/i2c/mpu6050/MPU6050.c **** 
  45:Libraries/ctrl_drv/i2c/mpu6050/MPU6050.c **** typedef struct MPU6050_t {
  46:Libraries/ctrl_drv/i2c/mpu6050/MPU6050.c ****     uint8_t devAddr;
  47:Libraries/ctrl_drv/i2c/mpu6050/MPU6050.c ****     uint8_t buffer[14];
  48:Libraries/ctrl_drv/i2c/mpu6050/MPU6050.c ****     float accRangeScale;
  49:Libraries/ctrl_drv/i2c/mpu6050/MPU6050.c ****     float gyroRangeScale;
  50:Libraries/ctrl_drv/i2c/mpu6050/MPU6050.c **** } MPU6050_t;
  51:Libraries/ctrl_drv/i2c/mpu6050/MPU6050.c **** 
  52:Libraries/ctrl_drv/i2c/mpu6050/MPU6050.c **** static MPU6050_t mpu6050;
  53:Libraries/ctrl_drv/i2c/mpu6050/MPU6050.c **** 
  54:Libraries/ctrl_drv/i2c/mpu6050/MPU6050.c **** /** Specific address constructor.
  55:Libraries/ctrl_drv/i2c/mpu6050/MPU6050.c ****  * @param address I2C address
  56:Libraries/ctrl_drv/i2c/mpu6050/MPU6050.c ****  * @see MPU6050_DEFAULT_ADDRESS
  57:Libraries/ctrl_drv/i2c/mpu6050/MPU6050.c ****  * @see MPU6050_ADDRESS_AD0_LOW
  58:Libraries/ctrl_drv/i2c/mpu6050/MPU6050.c ****  * @see MPU6050_ADDRESS_AD0_HIGH
  59:Libraries/ctrl_drv/i2c/mpu6050/MPU6050.c ****  */
  60:Libraries/ctrl_drv/i2c/mpu6050/MPU6050.c **** void MPU6050(uint8_t address) {
  28              		.loc 1 60 31 view -0
  29              		.cfi_startproc
  30              		@ args = 0, pretend = 0, frame = 0
  31              		@ frame_needed = 0, uses_anonymous_args = 0
  32              		@ link register save eliminated.
  61:Libraries/ctrl_drv/i2c/mpu6050/MPU6050.c ****     mpu6050.devAddr = address;
  33              		.loc 1 61 5 view .LVU1
  34              		.loc 1 61 21 is_stmt 0 view .LVU2
  35 0000 014B     		ldr	r3, .L2
  36 0002 1870     		strb	r0, [r3]
  62:Libraries/ctrl_drv/i2c/mpu6050/MPU6050.c **** }
  37              		.loc 1 62 1 view .LVU3
  38 0004 7047     		bx	lr
  39              	.L3:
  40 0006 00BF     		.align	2
  41              	.L2:
  42 0008 00000000 		.word	mpu6050
  43              		.cfi_endproc
  44              	.LFE0:
  46              		.section	.text.MPU6050_getAuxVDDIOLevel,"ax",%progbits
  47              		.align	1
  48              		.global	MPU6050_getAuxVDDIOLevel
  49              		.syntax unified
  50              		.thumb
  51              		.thumb_func
  53              	MPU6050_getAuxVDDIOLevel:
  54              	.LFB3:
  63:Libraries/ctrl_drv/i2c/mpu6050/MPU6050.c **** 
ARM GAS  C:\Users\Mxuan\AppData\Local\Temp\ccfnFihP.s 			page 3


  64:Libraries/ctrl_drv/i2c/mpu6050/MPU6050.c **** /** Power on and prepare for general usage.
  65:Libraries/ctrl_drv/i2c/mpu6050/MPU6050.c ****  * This will activate the device and take it out of sleep mode (which must be done
  66:Libraries/ctrl_drv/i2c/mpu6050/MPU6050.c ****  * after start-up). This function also sets both the accelerometer and the gyroscope
  67:Libraries/ctrl_drv/i2c/mpu6050/MPU6050.c ****  * to their most sensitive settings, namely +/- 2g and +/- 250 degrees/sec, and sets
  68:Libraries/ctrl_drv/i2c/mpu6050/MPU6050.c ****  * the clock source to use the X Gyro for reference, which is slightly better than
  69:Libraries/ctrl_drv/i2c/mpu6050/MPU6050.c ****  * the default internal clock source.
  70:Libraries/ctrl_drv/i2c/mpu6050/MPU6050.c ****  */
  71:Libraries/ctrl_drv/i2c/mpu6050/MPU6050.c **** void MPU6050_initialize() {
  72:Libraries/ctrl_drv/i2c/mpu6050/MPU6050.c ****     MPU6050(MPU6050_DEFAULT_ADDRESS);
  73:Libraries/ctrl_drv/i2c/mpu6050/MPU6050.c ****     MPU6050_setSleepEnabled(false);         // thanks to Jack Elston for pointing this one out!
  74:Libraries/ctrl_drv/i2c/mpu6050/MPU6050.c ****     MPU6050_setClockSource(MPU6050_CLOCK_PLL_XGYRO);
  75:Libraries/ctrl_drv/i2c/mpu6050/MPU6050.c ****     MPU6050_setFullScaleGyroRange(MPU6050_GYRO_FS_250);
  76:Libraries/ctrl_drv/i2c/mpu6050/MPU6050.c ****     MPU6050_setFullScaleAccelRange(MPU6050_ACCEL_FS_2);
  77:Libraries/ctrl_drv/i2c/mpu6050/MPU6050.c ****     MPU6050_setDLPFMode(MPU6050_DLPF_BW_98);
  78:Libraries/ctrl_drv/i2c/mpu6050/MPU6050.c ****     MPU6050_setI2CMasterModeEnabled(0);	    // ‰∏çËÆ©MPU6050 ÊéßÂà∂AUXI2C
  79:Libraries/ctrl_drv/i2c/mpu6050/MPU6050.c ****     // MPU6050_setI2CBypassEnabled(0);	        // ‰∏ªÊéßÂà∂Âô®ÁöÑI2C‰∏éMPU6050ÁöÑAUXI2C	Áõ¥ÈÄö„ÄÇÊé
  80:Libraries/ctrl_drv/i2c/mpu6050/MPU6050.c **** }
  81:Libraries/ctrl_drv/i2c/mpu6050/MPU6050.c **** 
  82:Libraries/ctrl_drv/i2c/mpu6050/MPU6050.c **** /** Verify the I2C connection.
  83:Libraries/ctrl_drv/i2c/mpu6050/MPU6050.c ****  * Make sure the device is connected and responds as expected.
  84:Libraries/ctrl_drv/i2c/mpu6050/MPU6050.c ****  * @return True if connection is valid, false otherwise
  85:Libraries/ctrl_drv/i2c/mpu6050/MPU6050.c ****  */
  86:Libraries/ctrl_drv/i2c/mpu6050/MPU6050.c **** bool MPU6050_testConnection() {
  87:Libraries/ctrl_drv/i2c/mpu6050/MPU6050.c ****     uint8_t addr = MPU6050_getDeviceID();
  88:Libraries/ctrl_drv/i2c/mpu6050/MPU6050.c ****     _Bool i = addr == 0x68;
  89:Libraries/ctrl_drv/i2c/mpu6050/MPU6050.c ****     return i;
  90:Libraries/ctrl_drv/i2c/mpu6050/MPU6050.c **** }
  91:Libraries/ctrl_drv/i2c/mpu6050/MPU6050.c **** 
  92:Libraries/ctrl_drv/i2c/mpu6050/MPU6050.c **** // AUX_VDDIO register (InvenSense demo code calls this RA_*G_OFFS_TC)
  93:Libraries/ctrl_drv/i2c/mpu6050/MPU6050.c **** 
  94:Libraries/ctrl_drv/i2c/mpu6050/MPU6050.c **** /** Get the auxiliary I2C supply voltage level.
  95:Libraries/ctrl_drv/i2c/mpu6050/MPU6050.c ****  * When set to 1, the auxiliary I2C bus high logic level is VDD. When cleared to
  96:Libraries/ctrl_drv/i2c/mpu6050/MPU6050.c ****  * 0, the auxiliary I2C bus high logic level is VLOGIC. This does not apply to
  97:Libraries/ctrl_drv/i2c/mpu6050/MPU6050.c ****  * the MPU-6000, which does not have a VLOGIC pin.
  98:Libraries/ctrl_drv/i2c/mpu6050/MPU6050.c ****  * @return I2C supply voltage level (0=VLOGIC, 1=VDD)
  99:Libraries/ctrl_drv/i2c/mpu6050/MPU6050.c ****  */
 100:Libraries/ctrl_drv/i2c/mpu6050/MPU6050.c **** uint8_t MPU6050_getAuxVDDIOLevel() {
  55              		.loc 1 100 36 is_stmt 1 view -0
  56              		.cfi_startproc
  57              		@ args = 0, pretend = 0, frame = 0
  58              		@ frame_needed = 0, uses_anonymous_args = 0
  59 0000 10B5     		push	{r4, lr}
  60              	.LCFI0:
  61              		.cfi_def_cfa_offset 8
  62              		.cfi_offset 4, -8
  63              		.cfi_offset 14, -4
 101:Libraries/ctrl_drv/i2c/mpu6050/MPU6050.c ****     I2Cdev_readBit(mpu6050.devAddr, MPU6050_RA_YG_OFFS_TC, MPU6050_TC_PWR_MODE_BIT, mpu6050.buffer)
  64              		.loc 1 101 5 view .LVU5
  65 0002 054B     		ldr	r3, .L6
  66 0004 5C1E     		subs	r4, r3, #1
  67 0006 0722     		movs	r2, #7
  68 0008 0121     		movs	r1, #1
  69 000a 13F8010C 		ldrb	r0, [r3, #-1]	@ zero_extendqisi2
  70 000e FFF7FEFF 		bl	I2Cdev_readBit
  71              	.LVL1:
 102:Libraries/ctrl_drv/i2c/mpu6050/MPU6050.c ****     return mpu6050.buffer[0];
  72              		.loc 1 102 5 view .LVU6
ARM GAS  C:\Users\Mxuan\AppData\Local\Temp\ccfnFihP.s 			page 4


 103:Libraries/ctrl_drv/i2c/mpu6050/MPU6050.c **** }
  73              		.loc 1 103 1 is_stmt 0 view .LVU7
  74 0012 6078     		ldrb	r0, [r4, #1]	@ zero_extendqisi2
  75 0014 10BD     		pop	{r4, pc}
  76              	.L7:
  77 0016 00BF     		.align	2
  78              	.L6:
  79 0018 01000000 		.word	mpu6050+1
  80              		.cfi_endproc
  81              	.LFE3:
  83              		.section	.text.MPU6050_setAuxVDDIOLevel,"ax",%progbits
  84              		.align	1
  85              		.global	MPU6050_setAuxVDDIOLevel
  86              		.syntax unified
  87              		.thumb
  88              		.thumb_func
  90              	MPU6050_setAuxVDDIOLevel:
  91              	.LVL2:
  92              	.LFB4:
 104:Libraries/ctrl_drv/i2c/mpu6050/MPU6050.c **** /** Set the auxiliary I2C supply voltage level.
 105:Libraries/ctrl_drv/i2c/mpu6050/MPU6050.c ****  * When set to 1, the auxiliary I2C bus high logic level is VDD. When cleared to
 106:Libraries/ctrl_drv/i2c/mpu6050/MPU6050.c ****  * 0, the auxiliary I2C bus high logic level is VLOGIC. This does not apply to
 107:Libraries/ctrl_drv/i2c/mpu6050/MPU6050.c ****  * the MPU-6000, which does not have a VLOGIC pin.
 108:Libraries/ctrl_drv/i2c/mpu6050/MPU6050.c ****  * @param level I2C supply voltage level (0=VLOGIC, 1=VDD)
 109:Libraries/ctrl_drv/i2c/mpu6050/MPU6050.c ****  */
 110:Libraries/ctrl_drv/i2c/mpu6050/MPU6050.c **** void MPU6050_setAuxVDDIOLevel(uint8_t level) {
  93              		.loc 1 110 46 is_stmt 1 view -0
  94              		.cfi_startproc
  95              		@ args = 0, pretend = 0, frame = 0
  96              		@ frame_needed = 0, uses_anonymous_args = 0
  97              		.loc 1 110 46 is_stmt 0 view .LVU9
  98 0000 08B5     		push	{r3, lr}
  99              	.LCFI1:
 100              		.cfi_def_cfa_offset 8
 101              		.cfi_offset 3, -8
 102              		.cfi_offset 14, -4
 103 0002 0346     		mov	r3, r0
 111:Libraries/ctrl_drv/i2c/mpu6050/MPU6050.c ****     I2Cdev_writeBit(mpu6050.devAddr, MPU6050_RA_YG_OFFS_TC, MPU6050_TC_PWR_MODE_BIT, level);
 104              		.loc 1 111 5 is_stmt 1 view .LVU10
 105 0004 0722     		movs	r2, #7
 106 0006 0121     		movs	r1, #1
 107 0008 0248     		ldr	r0, .L10
 108              	.LVL3:
 109              		.loc 1 111 5 is_stmt 0 view .LVU11
 110 000a 0078     		ldrb	r0, [r0]	@ zero_extendqisi2
 111 000c FFF7FEFF 		bl	I2Cdev_writeBit
 112              	.LVL4:
 112:Libraries/ctrl_drv/i2c/mpu6050/MPU6050.c **** }
 113              		.loc 1 112 1 view .LVU12
 114 0010 08BD     		pop	{r3, pc}
 115              	.L11:
 116 0012 00BF     		.align	2
 117              	.L10:
 118 0014 00000000 		.word	mpu6050
 119              		.cfi_endproc
 120              	.LFE4:
 122              		.section	.text.MPU6050_getRate,"ax",%progbits
ARM GAS  C:\Users\Mxuan\AppData\Local\Temp\ccfnFihP.s 			page 5


 123              		.align	1
 124              		.global	MPU6050_getRate
 125              		.syntax unified
 126              		.thumb
 127              		.thumb_func
 129              	MPU6050_getRate:
 130              	.LFB5:
 113:Libraries/ctrl_drv/i2c/mpu6050/MPU6050.c **** 
 114:Libraries/ctrl_drv/i2c/mpu6050/MPU6050.c **** // SMPLRT_DIV register
 115:Libraries/ctrl_drv/i2c/mpu6050/MPU6050.c **** 
 116:Libraries/ctrl_drv/i2c/mpu6050/MPU6050.c **** /** Get gyroscope output rate divider.
 117:Libraries/ctrl_drv/i2c/mpu6050/MPU6050.c ****  * The sensor register output, FIFO output, DMP sampling, Motion detection, Zero
 118:Libraries/ctrl_drv/i2c/mpu6050/MPU6050.c ****  * Motion detection, and Free Fall detection are all based on the Sample Rate.
 119:Libraries/ctrl_drv/i2c/mpu6050/MPU6050.c ****  * The Sample Rate is generated by dividing the gyroscope output rate by
 120:Libraries/ctrl_drv/i2c/mpu6050/MPU6050.c ****  * SMPLRT_DIV:
 121:Libraries/ctrl_drv/i2c/mpu6050/MPU6050.c ****  *
 122:Libraries/ctrl_drv/i2c/mpu6050/MPU6050.c ****  * Sample Rate = Gyroscope Output Rate / (1 + SMPLRT_DIV)
 123:Libraries/ctrl_drv/i2c/mpu6050/MPU6050.c ****  *
 124:Libraries/ctrl_drv/i2c/mpu6050/MPU6050.c ****  * where Gyroscope Output Rate = 8kHz when the DLPF is disabled (DLPF_CFG = 0 or
 125:Libraries/ctrl_drv/i2c/mpu6050/MPU6050.c ****  * 7), and 1kHz when the DLPF is enabled (see Register 26).
 126:Libraries/ctrl_drv/i2c/mpu6050/MPU6050.c ****  *
 127:Libraries/ctrl_drv/i2c/mpu6050/MPU6050.c ****  * Note: The accelerometer output rate is 1kHz. This means that for a Sample
 128:Libraries/ctrl_drv/i2c/mpu6050/MPU6050.c ****  * Rate greater than 1kHz, the same accelerometer sample may be output to the
 129:Libraries/ctrl_drv/i2c/mpu6050/MPU6050.c ****  * FIFO, DMP, and sensor registers more than once.
 130:Libraries/ctrl_drv/i2c/mpu6050/MPU6050.c ****  *
 131:Libraries/ctrl_drv/i2c/mpu6050/MPU6050.c ****  * For a diagram of the gyroscope and accelerometer signal paths, see Section 8
 132:Libraries/ctrl_drv/i2c/mpu6050/MPU6050.c ****  * of the MPU-6000/MPU-6050 Product Specification document.
 133:Libraries/ctrl_drv/i2c/mpu6050/MPU6050.c ****  *
 134:Libraries/ctrl_drv/i2c/mpu6050/MPU6050.c ****  * @return Current sample rate
 135:Libraries/ctrl_drv/i2c/mpu6050/MPU6050.c ****  * @see MPU6050_RA_SMPLRT_DIV
 136:Libraries/ctrl_drv/i2c/mpu6050/MPU6050.c ****  */
 137:Libraries/ctrl_drv/i2c/mpu6050/MPU6050.c **** uint8_t MPU6050_getRate() {
 131              		.loc 1 137 27 is_stmt 1 view -0
 132              		.cfi_startproc
 133              		@ args = 0, pretend = 0, frame = 0
 134              		@ frame_needed = 0, uses_anonymous_args = 0
 135 0000 10B5     		push	{r4, lr}
 136              	.LCFI2:
 137              		.cfi_def_cfa_offset 8
 138              		.cfi_offset 4, -8
 139              		.cfi_offset 14, -4
 138:Libraries/ctrl_drv/i2c/mpu6050/MPU6050.c ****     I2Cdev_readByte(mpu6050.devAddr, MPU6050_RA_SMPLRT_DIV, mpu6050.buffer);
 140              		.loc 1 138 5 view .LVU14
 141 0002 044A     		ldr	r2, .L14
 142 0004 541E     		subs	r4, r2, #1
 143 0006 1921     		movs	r1, #25
 144 0008 12F8010C 		ldrb	r0, [r2, #-1]	@ zero_extendqisi2
 145 000c FFF7FEFF 		bl	I2Cdev_readByte
 146              	.LVL5:
 139:Libraries/ctrl_drv/i2c/mpu6050/MPU6050.c ****     return mpu6050.buffer[0];
 147              		.loc 1 139 5 view .LVU15
 140:Libraries/ctrl_drv/i2c/mpu6050/MPU6050.c **** }
 148              		.loc 1 140 1 is_stmt 0 view .LVU16
 149 0010 6078     		ldrb	r0, [r4, #1]	@ zero_extendqisi2
 150 0012 10BD     		pop	{r4, pc}
 151              	.L15:
 152              		.align	2
ARM GAS  C:\Users\Mxuan\AppData\Local\Temp\ccfnFihP.s 			page 6


 153              	.L14:
 154 0014 01000000 		.word	mpu6050+1
 155              		.cfi_endproc
 156              	.LFE5:
 158              		.section	.text.MPU6050_setRate,"ax",%progbits
 159              		.align	1
 160              		.global	MPU6050_setRate
 161              		.syntax unified
 162              		.thumb
 163              		.thumb_func
 165              	MPU6050_setRate:
 166              	.LVL6:
 167              	.LFB6:
 141:Libraries/ctrl_drv/i2c/mpu6050/MPU6050.c **** /** Set gyroscope sample rate divider.
 142:Libraries/ctrl_drv/i2c/mpu6050/MPU6050.c ****  * @param rate New sample rate divider
 143:Libraries/ctrl_drv/i2c/mpu6050/MPU6050.c ****  * @see getRate()
 144:Libraries/ctrl_drv/i2c/mpu6050/MPU6050.c ****  * @see MPU6050_RA_SMPLRT_DIV
 145:Libraries/ctrl_drv/i2c/mpu6050/MPU6050.c ****  */
 146:Libraries/ctrl_drv/i2c/mpu6050/MPU6050.c **** void MPU6050_setRate(uint8_t rate) {
 168              		.loc 1 146 36 is_stmt 1 view -0
 169              		.cfi_startproc
 170              		@ args = 0, pretend = 0, frame = 0
 171              		@ frame_needed = 0, uses_anonymous_args = 0
 172              		.loc 1 146 36 is_stmt 0 view .LVU18
 173 0000 08B5     		push	{r3, lr}
 174              	.LCFI3:
 175              		.cfi_def_cfa_offset 8
 176              		.cfi_offset 3, -8
 177              		.cfi_offset 14, -4
 178 0002 0246     		mov	r2, r0
 147:Libraries/ctrl_drv/i2c/mpu6050/MPU6050.c ****     I2Cdev_writeByte(mpu6050.devAddr, MPU6050_RA_SMPLRT_DIV, rate);
 179              		.loc 1 147 5 is_stmt 1 view .LVU19
 180 0004 1921     		movs	r1, #25
 181 0006 024B     		ldr	r3, .L18
 182 0008 1878     		ldrb	r0, [r3]	@ zero_extendqisi2
 183              	.LVL7:
 184              		.loc 1 147 5 is_stmt 0 view .LVU20
 185 000a FFF7FEFF 		bl	I2Cdev_writeByte
 186              	.LVL8:
 148:Libraries/ctrl_drv/i2c/mpu6050/MPU6050.c **** }
 187              		.loc 1 148 1 view .LVU21
 188 000e 08BD     		pop	{r3, pc}
 189              	.L19:
 190              		.align	2
 191              	.L18:
 192 0010 00000000 		.word	mpu6050
 193              		.cfi_endproc
 194              	.LFE6:
 196              		.section	.text.MPU6050_getExternalFrameSync,"ax",%progbits
 197              		.align	1
 198              		.global	MPU6050_getExternalFrameSync
 199              		.syntax unified
 200              		.thumb
 201              		.thumb_func
 203              	MPU6050_getExternalFrameSync:
 204              	.LFB7:
 149:Libraries/ctrl_drv/i2c/mpu6050/MPU6050.c **** 
ARM GAS  C:\Users\Mxuan\AppData\Local\Temp\ccfnFihP.s 			page 7


 150:Libraries/ctrl_drv/i2c/mpu6050/MPU6050.c **** // CONFIG register
 151:Libraries/ctrl_drv/i2c/mpu6050/MPU6050.c **** 
 152:Libraries/ctrl_drv/i2c/mpu6050/MPU6050.c **** /** Get external FSYNC configuration.
 153:Libraries/ctrl_drv/i2c/mpu6050/MPU6050.c ****  * Configures the external Frame Synchronization (FSYNC) pin sampling. An
 154:Libraries/ctrl_drv/i2c/mpu6050/MPU6050.c ****  * external signal connected to the FSYNC pin can be sampled by configuring
 155:Libraries/ctrl_drv/i2c/mpu6050/MPU6050.c ****  * EXT_SYNC_SET. Signal changes to the FSYNC pin are latched so that short
 156:Libraries/ctrl_drv/i2c/mpu6050/MPU6050.c ****  * strobes may be captured. The latched FSYNC signal will be sampled at the
 157:Libraries/ctrl_drv/i2c/mpu6050/MPU6050.c ****  * Sampling Rate, as defined in register 25. After sampling, the latch will
 158:Libraries/ctrl_drv/i2c/mpu6050/MPU6050.c ****  * reset to the current FSYNC signal state.
 159:Libraries/ctrl_drv/i2c/mpu6050/MPU6050.c ****  *
 160:Libraries/ctrl_drv/i2c/mpu6050/MPU6050.c ****  * The sampled value will be reported in place of the least significant bit in
 161:Libraries/ctrl_drv/i2c/mpu6050/MPU6050.c ****  * a sensor data register determined by the value of EXT_SYNC_SET according to
 162:Libraries/ctrl_drv/i2c/mpu6050/MPU6050.c ****  * the following table.
 163:Libraries/ctrl_drv/i2c/mpu6050/MPU6050.c ****  *
 164:Libraries/ctrl_drv/i2c/mpu6050/MPU6050.c ****  * <pre>
 165:Libraries/ctrl_drv/i2c/mpu6050/MPU6050.c ****  * EXT_SYNC_SET | FSYNC Bit Location
 166:Libraries/ctrl_drv/i2c/mpu6050/MPU6050.c ****  * -------------+-------------------
 167:Libraries/ctrl_drv/i2c/mpu6050/MPU6050.c ****  * 0            | Input disabled
 168:Libraries/ctrl_drv/i2c/mpu6050/MPU6050.c ****  * 1            | TEMP_OUT_L[0]
 169:Libraries/ctrl_drv/i2c/mpu6050/MPU6050.c ****  * 2            | GYRO_XOUT_L[0]
 170:Libraries/ctrl_drv/i2c/mpu6050/MPU6050.c ****  * 3            | GYRO_YOUT_L[0]
 171:Libraries/ctrl_drv/i2c/mpu6050/MPU6050.c ****  * 4            | GYRO_ZOUT_L[0]
 172:Libraries/ctrl_drv/i2c/mpu6050/MPU6050.c ****  * 5            | ACCEL_XOUT_L[0]
 173:Libraries/ctrl_drv/i2c/mpu6050/MPU6050.c ****  * 6            | ACCEL_YOUT_L[0]
 174:Libraries/ctrl_drv/i2c/mpu6050/MPU6050.c ****  * 7            | ACCEL_ZOUT_L[0]
 175:Libraries/ctrl_drv/i2c/mpu6050/MPU6050.c ****  * </pre>
 176:Libraries/ctrl_drv/i2c/mpu6050/MPU6050.c ****  *
 177:Libraries/ctrl_drv/i2c/mpu6050/MPU6050.c ****  * @return FSYNC configuration value
 178:Libraries/ctrl_drv/i2c/mpu6050/MPU6050.c ****  */
 179:Libraries/ctrl_drv/i2c/mpu6050/MPU6050.c **** uint8_t MPU6050_getExternalFrameSync() {
 205              		.loc 1 179 40 is_stmt 1 view -0
 206              		.cfi_startproc
 207              		@ args = 0, pretend = 0, frame = 0
 208              		@ frame_needed = 0, uses_anonymous_args = 0
 209 0000 10B5     		push	{r4, lr}
 210              	.LCFI4:
 211              		.cfi_def_cfa_offset 8
 212              		.cfi_offset 4, -8
 213              		.cfi_offset 14, -4
 214 0002 82B0     		sub	sp, sp, #8
 215              	.LCFI5:
 216              		.cfi_def_cfa_offset 16
 180:Libraries/ctrl_drv/i2c/mpu6050/MPU6050.c ****     I2Cdev_readBits(mpu6050.devAddr, MPU6050_RA_CONFIG, MPU6050_CFG_EXT_SYNC_SET_BIT, MPU6050_CFG_E
 217              		.loc 1 180 5 view .LVU23
 218 0004 064C     		ldr	r4, .L22
 219 0006 2346     		mov	r3, r4
 220 0008 13F8010B 		ldrb	r0, [r3], #1	@ zero_extendqisi2
 221 000c 0093     		str	r3, [sp]
 222 000e 0323     		movs	r3, #3
 223 0010 0522     		movs	r2, #5
 224 0012 1A21     		movs	r1, #26
 225 0014 FFF7FEFF 		bl	I2Cdev_readBits
 226              	.LVL9:
 181:Libraries/ctrl_drv/i2c/mpu6050/MPU6050.c ****     return mpu6050.buffer[0];
 227              		.loc 1 181 5 view .LVU24
 182:Libraries/ctrl_drv/i2c/mpu6050/MPU6050.c **** }
 228              		.loc 1 182 1 is_stmt 0 view .LVU25
ARM GAS  C:\Users\Mxuan\AppData\Local\Temp\ccfnFihP.s 			page 8


 229 0018 6078     		ldrb	r0, [r4, #1]	@ zero_extendqisi2
 230 001a 02B0     		add	sp, sp, #8
 231              	.LCFI6:
 232              		.cfi_def_cfa_offset 8
 233              		@ sp needed
 234 001c 10BD     		pop	{r4, pc}
 235              	.L23:
 236 001e 00BF     		.align	2
 237              	.L22:
 238 0020 00000000 		.word	mpu6050
 239              		.cfi_endproc
 240              	.LFE7:
 242              		.section	.text.MPU6050_setExternalFrameSync,"ax",%progbits
 243              		.align	1
 244              		.global	MPU6050_setExternalFrameSync
 245              		.syntax unified
 246              		.thumb
 247              		.thumb_func
 249              	MPU6050_setExternalFrameSync:
 250              	.LVL10:
 251              	.LFB8:
 183:Libraries/ctrl_drv/i2c/mpu6050/MPU6050.c **** /** Set external FSYNC configuration.
 184:Libraries/ctrl_drv/i2c/mpu6050/MPU6050.c ****  * @see getExternalFrameSync()
 185:Libraries/ctrl_drv/i2c/mpu6050/MPU6050.c ****  * @see MPU6050_RA_CONFIG
 186:Libraries/ctrl_drv/i2c/mpu6050/MPU6050.c ****  * @param sync New FSYNC configuration value
 187:Libraries/ctrl_drv/i2c/mpu6050/MPU6050.c ****  */
 188:Libraries/ctrl_drv/i2c/mpu6050/MPU6050.c **** void MPU6050_setExternalFrameSync(uint8_t sync) {
 252              		.loc 1 188 49 is_stmt 1 view -0
 253              		.cfi_startproc
 254              		@ args = 0, pretend = 0, frame = 0
 255              		@ frame_needed = 0, uses_anonymous_args = 0
 256              		.loc 1 188 49 is_stmt 0 view .LVU27
 257 0000 00B5     		push	{lr}
 258              	.LCFI7:
 259              		.cfi_def_cfa_offset 4
 260              		.cfi_offset 14, -4
 261 0002 83B0     		sub	sp, sp, #12
 262              	.LCFI8:
 263              		.cfi_def_cfa_offset 16
 189:Libraries/ctrl_drv/i2c/mpu6050/MPU6050.c ****     I2Cdev_writeBits(mpu6050.devAddr, MPU6050_RA_CONFIG, MPU6050_CFG_EXT_SYNC_SET_BIT, MPU6050_CFG_
 264              		.loc 1 189 5 is_stmt 1 view .LVU28
 265 0004 0090     		str	r0, [sp]
 266 0006 0323     		movs	r3, #3
 267 0008 0522     		movs	r2, #5
 268 000a 1A21     		movs	r1, #26
 269 000c 0348     		ldr	r0, .L26
 270              	.LVL11:
 271              		.loc 1 189 5 is_stmt 0 view .LVU29
 272 000e 0078     		ldrb	r0, [r0]	@ zero_extendqisi2
 273 0010 FFF7FEFF 		bl	I2Cdev_writeBits
 274              	.LVL12:
 190:Libraries/ctrl_drv/i2c/mpu6050/MPU6050.c **** }
 275              		.loc 1 190 1 view .LVU30
 276 0014 03B0     		add	sp, sp, #12
 277              	.LCFI9:
 278              		.cfi_def_cfa_offset 4
 279              		@ sp needed
ARM GAS  C:\Users\Mxuan\AppData\Local\Temp\ccfnFihP.s 			page 9


 280 0016 5DF804FB 		ldr	pc, [sp], #4
 281              	.L27:
 282 001a 00BF     		.align	2
 283              	.L26:
 284 001c 00000000 		.word	mpu6050
 285              		.cfi_endproc
 286              	.LFE8:
 288              		.section	.text.MPU6050_getDLPFMode,"ax",%progbits
 289              		.align	1
 290              		.global	MPU6050_getDLPFMode
 291              		.syntax unified
 292              		.thumb
 293              		.thumb_func
 295              	MPU6050_getDLPFMode:
 296              	.LFB9:
 191:Libraries/ctrl_drv/i2c/mpu6050/MPU6050.c **** /** Get digital low-pass filter configuration.
 192:Libraries/ctrl_drv/i2c/mpu6050/MPU6050.c ****  * The DLPF_CFG parameter sets the digital low pass filter configuration. It
 193:Libraries/ctrl_drv/i2c/mpu6050/MPU6050.c ****  * also determines the internal sampling rate used by the device as shown in
 194:Libraries/ctrl_drv/i2c/mpu6050/MPU6050.c ****  * the table below.
 195:Libraries/ctrl_drv/i2c/mpu6050/MPU6050.c ****  *
 196:Libraries/ctrl_drv/i2c/mpu6050/MPU6050.c ****  * Note: The accelerometer output rate is 1kHz. This means that for a Sample
 197:Libraries/ctrl_drv/i2c/mpu6050/MPU6050.c ****  * Rate greater than 1kHz, the same accelerometer sample may be output to the
 198:Libraries/ctrl_drv/i2c/mpu6050/MPU6050.c ****  * FIFO, DMP, and sensor registers more than once.
 199:Libraries/ctrl_drv/i2c/mpu6050/MPU6050.c ****  *
 200:Libraries/ctrl_drv/i2c/mpu6050/MPU6050.c ****  * <pre>
 201:Libraries/ctrl_drv/i2c/mpu6050/MPU6050.c ****  *          |   ACCELEROMETER    |           GYROSCOPE
 202:Libraries/ctrl_drv/i2c/mpu6050/MPU6050.c ****  * DLPF_CFG | Bandwidth | Delay  | Bandwidth | Delay  | Sample Rate
 203:Libraries/ctrl_drv/i2c/mpu6050/MPU6050.c ****  * ---------+-----------+--------+-----------+--------+-------------
 204:Libraries/ctrl_drv/i2c/mpu6050/MPU6050.c ****  * 0        | 260Hz     | 0ms    | 256Hz     | 0.98ms | 8kHz
 205:Libraries/ctrl_drv/i2c/mpu6050/MPU6050.c ****  * 1        | 184Hz     | 2.0ms  | 188Hz     | 1.9ms  | 1kHz
 206:Libraries/ctrl_drv/i2c/mpu6050/MPU6050.c ****  * 2        | 94Hz      | 3.0ms  | 98Hz      | 2.8ms  | 1kHz
 207:Libraries/ctrl_drv/i2c/mpu6050/MPU6050.c ****  * 3        | 44Hz      | 4.9ms  | 42Hz      | 4.8ms  | 1kHz
 208:Libraries/ctrl_drv/i2c/mpu6050/MPU6050.c ****  * 4        | 21Hz      | 8.5ms  | 20Hz      | 8.3ms  | 1kHz
 209:Libraries/ctrl_drv/i2c/mpu6050/MPU6050.c ****  * 5        | 10Hz      | 13.8ms | 10Hz      | 13.4ms | 1kHz
 210:Libraries/ctrl_drv/i2c/mpu6050/MPU6050.c ****  * 6        | 5Hz       | 19.0ms | 5Hz       | 18.6ms | 1kHz
 211:Libraries/ctrl_drv/i2c/mpu6050/MPU6050.c ****  * 7        |   -- Reserved --   |   -- Reserved --   | Reserved
 212:Libraries/ctrl_drv/i2c/mpu6050/MPU6050.c ****  * </pre>
 213:Libraries/ctrl_drv/i2c/mpu6050/MPU6050.c ****  *
 214:Libraries/ctrl_drv/i2c/mpu6050/MPU6050.c ****  * @return DLFP configuration
 215:Libraries/ctrl_drv/i2c/mpu6050/MPU6050.c ****  * @see MPU6050_RA_CONFIG
 216:Libraries/ctrl_drv/i2c/mpu6050/MPU6050.c ****  * @see MPU6050_CFG_DLPF_CFG_BIT
 217:Libraries/ctrl_drv/i2c/mpu6050/MPU6050.c ****  * @see MPU6050_CFG_DLPF_CFG_LENGTH
 218:Libraries/ctrl_drv/i2c/mpu6050/MPU6050.c ****  */
 219:Libraries/ctrl_drv/i2c/mpu6050/MPU6050.c **** uint8_t MPU6050_getDLPFMode() {
 297              		.loc 1 219 31 is_stmt 1 view -0
 298              		.cfi_startproc
 299              		@ args = 0, pretend = 0, frame = 0
 300              		@ frame_needed = 0, uses_anonymous_args = 0
 301 0000 10B5     		push	{r4, lr}
 302              	.LCFI10:
 303              		.cfi_def_cfa_offset 8
 304              		.cfi_offset 4, -8
 305              		.cfi_offset 14, -4
 306 0002 82B0     		sub	sp, sp, #8
 307              	.LCFI11:
 308              		.cfi_def_cfa_offset 16
 220:Libraries/ctrl_drv/i2c/mpu6050/MPU6050.c ****     I2Cdev_readBits(mpu6050.devAddr, MPU6050_RA_CONFIG, MPU6050_CFG_DLPF_CFG_BIT, MPU6050_CFG_DLPF_
ARM GAS  C:\Users\Mxuan\AppData\Local\Temp\ccfnFihP.s 			page 10


 309              		.loc 1 220 5 view .LVU32
 310 0004 064C     		ldr	r4, .L30
 311 0006 2346     		mov	r3, r4
 312 0008 13F8010B 		ldrb	r0, [r3], #1	@ zero_extendqisi2
 313 000c 0093     		str	r3, [sp]
 314 000e 0323     		movs	r3, #3
 315 0010 0222     		movs	r2, #2
 316 0012 1A21     		movs	r1, #26
 317 0014 FFF7FEFF 		bl	I2Cdev_readBits
 318              	.LVL13:
 221:Libraries/ctrl_drv/i2c/mpu6050/MPU6050.c ****     return mpu6050.buffer[0];
 319              		.loc 1 221 5 view .LVU33
 222:Libraries/ctrl_drv/i2c/mpu6050/MPU6050.c **** }
 320              		.loc 1 222 1 is_stmt 0 view .LVU34
 321 0018 6078     		ldrb	r0, [r4, #1]	@ zero_extendqisi2
 322 001a 02B0     		add	sp, sp, #8
 323              	.LCFI12:
 324              		.cfi_def_cfa_offset 8
 325              		@ sp needed
 326 001c 10BD     		pop	{r4, pc}
 327              	.L31:
 328 001e 00BF     		.align	2
 329              	.L30:
 330 0020 00000000 		.word	mpu6050
 331              		.cfi_endproc
 332              	.LFE9:
 334              		.section	.text.MPU6050_setDLPFMode,"ax",%progbits
 335              		.align	1
 336              		.global	MPU6050_setDLPFMode
 337              		.syntax unified
 338              		.thumb
 339              		.thumb_func
 341              	MPU6050_setDLPFMode:
 342              	.LVL14:
 343              	.LFB10:
 223:Libraries/ctrl_drv/i2c/mpu6050/MPU6050.c **** /** Set digital low-pass filter configuration.
 224:Libraries/ctrl_drv/i2c/mpu6050/MPU6050.c ****  * @param mode New DLFP configuration setting
 225:Libraries/ctrl_drv/i2c/mpu6050/MPU6050.c ****  * @see getDLPFBandwidth()
 226:Libraries/ctrl_drv/i2c/mpu6050/MPU6050.c ****  * @see MPU6050_DLPF_BW_256
 227:Libraries/ctrl_drv/i2c/mpu6050/MPU6050.c ****  * @see MPU6050_RA_CONFIG
 228:Libraries/ctrl_drv/i2c/mpu6050/MPU6050.c ****  * @see MPU6050_CFG_DLPF_CFG_BIT
 229:Libraries/ctrl_drv/i2c/mpu6050/MPU6050.c ****  * @see MPU6050_CFG_DLPF_CFG_LENGTH
 230:Libraries/ctrl_drv/i2c/mpu6050/MPU6050.c ****  */
 231:Libraries/ctrl_drv/i2c/mpu6050/MPU6050.c **** void MPU6050_setDLPFMode(uint8_t mode) {
 344              		.loc 1 231 40 is_stmt 1 view -0
 345              		.cfi_startproc
 346              		@ args = 0, pretend = 0, frame = 0
 347              		@ frame_needed = 0, uses_anonymous_args = 0
 348              		.loc 1 231 40 is_stmt 0 view .LVU36
 349 0000 00B5     		push	{lr}
 350              	.LCFI13:
 351              		.cfi_def_cfa_offset 4
 352              		.cfi_offset 14, -4
 353 0002 83B0     		sub	sp, sp, #12
 354              	.LCFI14:
 355              		.cfi_def_cfa_offset 16
 232:Libraries/ctrl_drv/i2c/mpu6050/MPU6050.c ****     I2Cdev_writeBits(mpu6050.devAddr, MPU6050_RA_CONFIG, MPU6050_CFG_DLPF_CFG_BIT, MPU6050_CFG_DLPF
ARM GAS  C:\Users\Mxuan\AppData\Local\Temp\ccfnFihP.s 			page 11


 356              		.loc 1 232 5 is_stmt 1 view .LVU37
 357 0004 0090     		str	r0, [sp]
 358 0006 0323     		movs	r3, #3
 359 0008 0222     		movs	r2, #2
 360 000a 1A21     		movs	r1, #26
 361 000c 0348     		ldr	r0, .L34
 362              	.LVL15:
 363              		.loc 1 232 5 is_stmt 0 view .LVU38
 364 000e 0078     		ldrb	r0, [r0]	@ zero_extendqisi2
 365 0010 FFF7FEFF 		bl	I2Cdev_writeBits
 366              	.LVL16:
 233:Libraries/ctrl_drv/i2c/mpu6050/MPU6050.c **** }
 367              		.loc 1 233 1 view .LVU39
 368 0014 03B0     		add	sp, sp, #12
 369              	.LCFI15:
 370              		.cfi_def_cfa_offset 4
 371              		@ sp needed
 372 0016 5DF804FB 		ldr	pc, [sp], #4
 373              	.L35:
 374 001a 00BF     		.align	2
 375              	.L34:
 376 001c 00000000 		.word	mpu6050
 377              		.cfi_endproc
 378              	.LFE10:
 380              		.section	.text.MPU6050_getFullScaleGyroRange,"ax",%progbits
 381              		.align	1
 382              		.global	MPU6050_getFullScaleGyroRange
 383              		.syntax unified
 384              		.thumb
 385              		.thumb_func
 387              	MPU6050_getFullScaleGyroRange:
 388              	.LFB11:
 234:Libraries/ctrl_drv/i2c/mpu6050/MPU6050.c **** 
 235:Libraries/ctrl_drv/i2c/mpu6050/MPU6050.c **** // GYRO_CONFIG register
 236:Libraries/ctrl_drv/i2c/mpu6050/MPU6050.c **** 
 237:Libraries/ctrl_drv/i2c/mpu6050/MPU6050.c **** /** Get full-scale gyroscope range.
 238:Libraries/ctrl_drv/i2c/mpu6050/MPU6050.c ****  * The FS_SEL parameter allows setting the full-scale range of the gyro sensors,
 239:Libraries/ctrl_drv/i2c/mpu6050/MPU6050.c ****  * as described in the table below.
 240:Libraries/ctrl_drv/i2c/mpu6050/MPU6050.c ****  *
 241:Libraries/ctrl_drv/i2c/mpu6050/MPU6050.c ****  * <pre>
 242:Libraries/ctrl_drv/i2c/mpu6050/MPU6050.c ****  * 0 = +/- 250 degrees/sec
 243:Libraries/ctrl_drv/i2c/mpu6050/MPU6050.c ****  * 1 = +/- 500 degrees/sec
 244:Libraries/ctrl_drv/i2c/mpu6050/MPU6050.c ****  * 2 = +/- 1000 degrees/sec
 245:Libraries/ctrl_drv/i2c/mpu6050/MPU6050.c ****  * 3 = +/- 2000 degrees/sec
 246:Libraries/ctrl_drv/i2c/mpu6050/MPU6050.c ****  * </pre>
 247:Libraries/ctrl_drv/i2c/mpu6050/MPU6050.c ****  *
 248:Libraries/ctrl_drv/i2c/mpu6050/MPU6050.c ****  * @return Current full-scale gyroscope range setting
 249:Libraries/ctrl_drv/i2c/mpu6050/MPU6050.c ****  * @see MPU6050_GYRO_FS_250
 250:Libraries/ctrl_drv/i2c/mpu6050/MPU6050.c ****  * @see MPU6050_RA_GYRO_CONFIG
 251:Libraries/ctrl_drv/i2c/mpu6050/MPU6050.c ****  * @see MPU6050_GCONFIG_FS_SEL_BIT
 252:Libraries/ctrl_drv/i2c/mpu6050/MPU6050.c ****  * @see MPU6050_GCONFIG_FS_SEL_LENGTH
 253:Libraries/ctrl_drv/i2c/mpu6050/MPU6050.c ****  */
 254:Libraries/ctrl_drv/i2c/mpu6050/MPU6050.c **** uint8_t MPU6050_getFullScaleGyroRange() {
 389              		.loc 1 254 41 is_stmt 1 view -0
 390              		.cfi_startproc
 391              		@ args = 0, pretend = 0, frame = 0
 392              		@ frame_needed = 0, uses_anonymous_args = 0
ARM GAS  C:\Users\Mxuan\AppData\Local\Temp\ccfnFihP.s 			page 12


 393 0000 10B5     		push	{r4, lr}
 394              	.LCFI16:
 395              		.cfi_def_cfa_offset 8
 396              		.cfi_offset 4, -8
 397              		.cfi_offset 14, -4
 398 0002 82B0     		sub	sp, sp, #8
 399              	.LCFI17:
 400              		.cfi_def_cfa_offset 16
 255:Libraries/ctrl_drv/i2c/mpu6050/MPU6050.c ****     I2Cdev_readBits(mpu6050.devAddr, MPU6050_RA_GYRO_CONFIG, MPU6050_GCONFIG_FS_SEL_BIT, MPU6050_GC
 401              		.loc 1 255 5 view .LVU41
 402 0004 064C     		ldr	r4, .L38
 403 0006 2346     		mov	r3, r4
 404 0008 13F8010B 		ldrb	r0, [r3], #1	@ zero_extendqisi2
 405 000c 0093     		str	r3, [sp]
 406 000e 0223     		movs	r3, #2
 407 0010 0422     		movs	r2, #4
 408 0012 1B21     		movs	r1, #27
 409 0014 FFF7FEFF 		bl	I2Cdev_readBits
 410              	.LVL17:
 256:Libraries/ctrl_drv/i2c/mpu6050/MPU6050.c ****     return mpu6050.buffer[0];
 411              		.loc 1 256 5 view .LVU42
 257:Libraries/ctrl_drv/i2c/mpu6050/MPU6050.c **** }
 412              		.loc 1 257 1 is_stmt 0 view .LVU43
 413 0018 6078     		ldrb	r0, [r4, #1]	@ zero_extendqisi2
 414 001a 02B0     		add	sp, sp, #8
 415              	.LCFI18:
 416              		.cfi_def_cfa_offset 8
 417              		@ sp needed
 418 001c 10BD     		pop	{r4, pc}
 419              	.L39:
 420 001e 00BF     		.align	2
 421              	.L38:
 422 0020 00000000 		.word	mpu6050
 423              		.cfi_endproc
 424              	.LFE11:
 426              		.section	.text.MPU6050_setFullScaleGyroRange,"ax",%progbits
 427              		.align	1
 428              		.global	MPU6050_setFullScaleGyroRange
 429              		.syntax unified
 430              		.thumb
 431              		.thumb_func
 433              	MPU6050_setFullScaleGyroRange:
 434              	.LVL18:
 435              	.LFB12:
 258:Libraries/ctrl_drv/i2c/mpu6050/MPU6050.c **** /** Set full-scale gyroscope range.
 259:Libraries/ctrl_drv/i2c/mpu6050/MPU6050.c ****  * @param range New full-scale gyroscope range value
 260:Libraries/ctrl_drv/i2c/mpu6050/MPU6050.c ****  * @see getFullScaleRange()
 261:Libraries/ctrl_drv/i2c/mpu6050/MPU6050.c ****  * @see MPU6050_GYRO_FS_250
 262:Libraries/ctrl_drv/i2c/mpu6050/MPU6050.c ****  * @see MPU6050_RA_GYRO_CONFIG
 263:Libraries/ctrl_drv/i2c/mpu6050/MPU6050.c ****  * @see MPU6050_GCONFIG_FS_SEL_BIT
 264:Libraries/ctrl_drv/i2c/mpu6050/MPU6050.c ****  * @see MPU6050_GCONFIG_FS_SEL_LENGTH
 265:Libraries/ctrl_drv/i2c/mpu6050/MPU6050.c ****  */
 266:Libraries/ctrl_drv/i2c/mpu6050/MPU6050.c **** void MPU6050_setFullScaleGyroRange(uint8_t range) {
 436              		.loc 1 266 51 is_stmt 1 view -0
 437              		.cfi_startproc
 438              		@ args = 0, pretend = 0, frame = 0
 439              		@ frame_needed = 0, uses_anonymous_args = 0
ARM GAS  C:\Users\Mxuan\AppData\Local\Temp\ccfnFihP.s 			page 13


 440              		.loc 1 266 51 is_stmt 0 view .LVU45
 441 0000 10B5     		push	{r4, lr}
 442              	.LCFI19:
 443              		.cfi_def_cfa_offset 8
 444              		.cfi_offset 4, -8
 445              		.cfi_offset 14, -4
 446 0002 82B0     		sub	sp, sp, #8
 447              	.LCFI20:
 448              		.cfi_def_cfa_offset 16
 449 0004 0446     		mov	r4, r0
 267:Libraries/ctrl_drv/i2c/mpu6050/MPU6050.c ****     I2Cdev_writeBits(mpu6050.devAddr, MPU6050_RA_GYRO_CONFIG, MPU6050_GCONFIG_FS_SEL_BIT, MPU6050_G
 450              		.loc 1 267 5 is_stmt 1 view .LVU46
 451 0006 0090     		str	r0, [sp]
 452 0008 0223     		movs	r3, #2
 453 000a 0422     		movs	r2, #4
 454 000c 1B21     		movs	r1, #27
 455 000e 0D48     		ldr	r0, .L49
 456              	.LVL19:
 457              		.loc 1 267 5 is_stmt 0 view .LVU47
 458 0010 0078     		ldrb	r0, [r0]	@ zero_extendqisi2
 459 0012 FFF7FEFF 		bl	I2Cdev_writeBits
 460              	.LVL20:
 268:Libraries/ctrl_drv/i2c/mpu6050/MPU6050.c **** 
 269:Libraries/ctrl_drv/i2c/mpu6050/MPU6050.c ****     switch (range)
 461              		.loc 1 269 5 is_stmt 1 view .LVU48
 462 0016 032C     		cmp	r4, #3
 463 0018 06D8     		bhi	.L40
 464 001a DFE804F0 		tbb	[pc, r4]
 465              	.L43:
 466 001e 02       		.byte	(.L46-.L43)/2
 467 001f 07       		.byte	(.L45-.L43)/2
 468 0020 0B       		.byte	(.L44-.L43)/2
 469 0021 0F       		.byte	(.L42-.L43)/2
 470              		.p2align 1
 471              	.L46:
 270:Libraries/ctrl_drv/i2c/mpu6050/MPU6050.c ****     {
 271:Libraries/ctrl_drv/i2c/mpu6050/MPU6050.c ****         case MPU6050_GYRO_FS_250:
 272:Libraries/ctrl_drv/i2c/mpu6050/MPU6050.c ****             mpu6050.gyroRangeScale = 32768 / 250.0f;
 472              		.loc 1 272 13 view .LVU49
 473              		.loc 1 272 36 is_stmt 0 view .LVU50
 474 0022 084B     		ldr	r3, .L49
 475 0024 084A     		ldr	r2, .L49+4
 476 0026 5A61     		str	r2, [r3, #20]	@ float
 273:Libraries/ctrl_drv/i2c/mpu6050/MPU6050.c ****             break;
 477              		.loc 1 273 13 is_stmt 1 view .LVU51
 478              	.L40:
 274:Libraries/ctrl_drv/i2c/mpu6050/MPU6050.c ****         case MPU6050_GYRO_FS_500:
 275:Libraries/ctrl_drv/i2c/mpu6050/MPU6050.c ****             mpu6050.gyroRangeScale = 32768 / 500.0f;
 276:Libraries/ctrl_drv/i2c/mpu6050/MPU6050.c ****             break;
 277:Libraries/ctrl_drv/i2c/mpu6050/MPU6050.c ****         case MPU6050_GYRO_FS_1000:
 278:Libraries/ctrl_drv/i2c/mpu6050/MPU6050.c ****             mpu6050.gyroRangeScale = 32768 / 1000.0f;
 279:Libraries/ctrl_drv/i2c/mpu6050/MPU6050.c ****             break;
 280:Libraries/ctrl_drv/i2c/mpu6050/MPU6050.c ****         case MPU6050_GYRO_FS_2000:
 281:Libraries/ctrl_drv/i2c/mpu6050/MPU6050.c ****             mpu6050.gyroRangeScale = 32768 / 2000.0f;
 282:Libraries/ctrl_drv/i2c/mpu6050/MPU6050.c ****             break;
 283:Libraries/ctrl_drv/i2c/mpu6050/MPU6050.c ****         default:
 284:Libraries/ctrl_drv/i2c/mpu6050/MPU6050.c ****             break;
ARM GAS  C:\Users\Mxuan\AppData\Local\Temp\ccfnFihP.s 			page 14


 285:Libraries/ctrl_drv/i2c/mpu6050/MPU6050.c ****     }
 286:Libraries/ctrl_drv/i2c/mpu6050/MPU6050.c **** }
 479              		.loc 1 286 1 is_stmt 0 view .LVU52
 480 0028 02B0     		add	sp, sp, #8
 481              	.LCFI21:
 482              		.cfi_remember_state
 483              		.cfi_def_cfa_offset 8
 484              		@ sp needed
 485 002a 10BD     		pop	{r4, pc}
 486              	.L45:
 487              	.LCFI22:
 488              		.cfi_restore_state
 275:Libraries/ctrl_drv/i2c/mpu6050/MPU6050.c ****             break;
 489              		.loc 1 275 13 is_stmt 1 view .LVU53
 275:Libraries/ctrl_drv/i2c/mpu6050/MPU6050.c ****             break;
 490              		.loc 1 275 36 is_stmt 0 view .LVU54
 491 002c 054B     		ldr	r3, .L49
 492 002e 074A     		ldr	r2, .L49+8
 493 0030 5A61     		str	r2, [r3, #20]	@ float
 276:Libraries/ctrl_drv/i2c/mpu6050/MPU6050.c ****         case MPU6050_GYRO_FS_1000:
 494              		.loc 1 276 13 is_stmt 1 view .LVU55
 495 0032 F9E7     		b	.L40
 496              	.L44:
 278:Libraries/ctrl_drv/i2c/mpu6050/MPU6050.c ****             break;
 497              		.loc 1 278 13 view .LVU56
 278:Libraries/ctrl_drv/i2c/mpu6050/MPU6050.c ****             break;
 498              		.loc 1 278 36 is_stmt 0 view .LVU57
 499 0034 034B     		ldr	r3, .L49
 500 0036 064A     		ldr	r2, .L49+12
 501 0038 5A61     		str	r2, [r3, #20]	@ float
 279:Libraries/ctrl_drv/i2c/mpu6050/MPU6050.c ****         case MPU6050_GYRO_FS_2000:
 502              		.loc 1 279 13 is_stmt 1 view .LVU58
 503 003a F5E7     		b	.L40
 504              	.L42:
 281:Libraries/ctrl_drv/i2c/mpu6050/MPU6050.c ****             break;
 505              		.loc 1 281 13 view .LVU59
 281:Libraries/ctrl_drv/i2c/mpu6050/MPU6050.c ****             break;
 506              		.loc 1 281 36 is_stmt 0 view .LVU60
 507 003c 014B     		ldr	r3, .L49
 508 003e 054A     		ldr	r2, .L49+16
 509 0040 5A61     		str	r2, [r3, #20]	@ float
 282:Libraries/ctrl_drv/i2c/mpu6050/MPU6050.c ****         default:
 510              		.loc 1 282 13 is_stmt 1 view .LVU61
 511              		.loc 1 286 1 is_stmt 0 view .LVU62
 512 0042 F1E7     		b	.L40
 513              	.L50:
 514              		.align	2
 515              	.L49:
 516 0044 00000000 		.word	mpu6050
 517 0048 6F120343 		.word	1124274799
 518 004c 6F128342 		.word	1115886191
 519 0050 6F120342 		.word	1107497583
 520 0054 6F128341 		.word	1099108975
 521              		.cfi_endproc
 522              	.LFE12:
 524              		.section	.text.MPU6050_getGyroRangeScale,"ax",%progbits
 525              		.align	1
ARM GAS  C:\Users\Mxuan\AppData\Local\Temp\ccfnFihP.s 			page 15


 526              		.global	MPU6050_getGyroRangeScale
 527              		.syntax unified
 528              		.thumb
 529              		.thumb_func
 531              	MPU6050_getGyroRangeScale:
 532              	.LFB13:
 287:Libraries/ctrl_drv/i2c/mpu6050/MPU6050.c **** 
 288:Libraries/ctrl_drv/i2c/mpu6050/MPU6050.c **** float MPU6050_getGyroRangeScale()
 289:Libraries/ctrl_drv/i2c/mpu6050/MPU6050.c **** {
 533              		.loc 1 289 1 is_stmt 1 view -0
 534              		.cfi_startproc
 535              		@ args = 0, pretend = 0, frame = 0
 536              		@ frame_needed = 0, uses_anonymous_args = 0
 537              		@ link register save eliminated.
 290:Libraries/ctrl_drv/i2c/mpu6050/MPU6050.c ****     return mpu6050.gyroRangeScale;
 538              		.loc 1 290 5 view .LVU64
 291:Libraries/ctrl_drv/i2c/mpu6050/MPU6050.c **** }
 539              		.loc 1 291 1 is_stmt 0 view .LVU65
 540 0000 014B     		ldr	r3, .L52
 541 0002 5869     		ldr	r0, [r3, #20]	@ float
 542 0004 7047     		bx	lr
 543              	.L53:
 544 0006 00BF     		.align	2
 545              	.L52:
 546 0008 00000000 		.word	mpu6050
 547              		.cfi_endproc
 548              	.LFE13:
 550              		.section	.text.MPU6050_getAccelXSelfTest,"ax",%progbits
 551              		.align	1
 552              		.global	MPU6050_getAccelXSelfTest
 553              		.syntax unified
 554              		.thumb
 555              		.thumb_func
 557              	MPU6050_getAccelXSelfTest:
 558              	.LFB14:
 292:Libraries/ctrl_drv/i2c/mpu6050/MPU6050.c **** 
 293:Libraries/ctrl_drv/i2c/mpu6050/MPU6050.c **** // ACCEL_CONFIG register
 294:Libraries/ctrl_drv/i2c/mpu6050/MPU6050.c **** 
 295:Libraries/ctrl_drv/i2c/mpu6050/MPU6050.c **** /** Get self-test enabled setting for accelerometer X axis.
 296:Libraries/ctrl_drv/i2c/mpu6050/MPU6050.c ****  * @return Self-test enabled value
 297:Libraries/ctrl_drv/i2c/mpu6050/MPU6050.c ****  * @see MPU6050_RA_ACCEL_CONFIG
 298:Libraries/ctrl_drv/i2c/mpu6050/MPU6050.c ****  */
 299:Libraries/ctrl_drv/i2c/mpu6050/MPU6050.c **** bool MPU6050_getAccelXSelfTest() {
 559              		.loc 1 299 34 is_stmt 1 view -0
 560              		.cfi_startproc
 561              		@ args = 0, pretend = 0, frame = 0
 562              		@ frame_needed = 0, uses_anonymous_args = 0
 563 0000 10B5     		push	{r4, lr}
 564              	.LCFI23:
 565              		.cfi_def_cfa_offset 8
 566              		.cfi_offset 4, -8
 567              		.cfi_offset 14, -4
 300:Libraries/ctrl_drv/i2c/mpu6050/MPU6050.c ****     I2Cdev_readBit(mpu6050.devAddr, MPU6050_RA_ACCEL_CONFIG, MPU6050_ACONFIG_XA_ST_BIT, mpu6050.buf
 568              		.loc 1 300 5 view .LVU67
 569 0002 064B     		ldr	r3, .L56
 570 0004 5C1E     		subs	r4, r3, #1
 571 0006 0722     		movs	r2, #7
ARM GAS  C:\Users\Mxuan\AppData\Local\Temp\ccfnFihP.s 			page 16


 572 0008 1C21     		movs	r1, #28
 573 000a 13F8010C 		ldrb	r0, [r3, #-1]	@ zero_extendqisi2
 574 000e FFF7FEFF 		bl	I2Cdev_readBit
 575              	.LVL21:
 301:Libraries/ctrl_drv/i2c/mpu6050/MPU6050.c ****     return mpu6050.buffer[0];
 576              		.loc 1 301 5 view .LVU68
 577              		.loc 1 301 26 is_stmt 0 view .LVU69
 578 0012 6078     		ldrb	r0, [r4, #1]	@ zero_extendqisi2
 302:Libraries/ctrl_drv/i2c/mpu6050/MPU6050.c **** }
 579              		.loc 1 302 1 view .LVU70
 580 0014 0038     		subs	r0, r0, #0
 581 0016 18BF     		it	ne
 582 0018 0120     		movne	r0, #1
 583 001a 10BD     		pop	{r4, pc}
 584              	.L57:
 585              		.align	2
 586              	.L56:
 587 001c 01000000 		.word	mpu6050+1
 588              		.cfi_endproc
 589              	.LFE14:
 591              		.section	.text.MPU6050_setAccelXSelfTest,"ax",%progbits
 592              		.align	1
 593              		.global	MPU6050_setAccelXSelfTest
 594              		.syntax unified
 595              		.thumb
 596              		.thumb_func
 598              	MPU6050_setAccelXSelfTest:
 599              	.LVL22:
 600              	.LFB15:
 303:Libraries/ctrl_drv/i2c/mpu6050/MPU6050.c **** /** Get self-test enabled setting for accelerometer X axis.
 304:Libraries/ctrl_drv/i2c/mpu6050/MPU6050.c ****  * @param enabled Self-test enabled value
 305:Libraries/ctrl_drv/i2c/mpu6050/MPU6050.c ****  * @see MPU6050_RA_ACCEL_CONFIG
 306:Libraries/ctrl_drv/i2c/mpu6050/MPU6050.c ****  */
 307:Libraries/ctrl_drv/i2c/mpu6050/MPU6050.c **** void MPU6050_setAccelXSelfTest(bool enabled) {
 601              		.loc 1 307 46 is_stmt 1 view -0
 602              		.cfi_startproc
 603              		@ args = 0, pretend = 0, frame = 0
 604              		@ frame_needed = 0, uses_anonymous_args = 0
 605              		.loc 1 307 46 is_stmt 0 view .LVU72
 606 0000 08B5     		push	{r3, lr}
 607              	.LCFI24:
 608              		.cfi_def_cfa_offset 8
 609              		.cfi_offset 3, -8
 610              		.cfi_offset 14, -4
 611 0002 0346     		mov	r3, r0
 308:Libraries/ctrl_drv/i2c/mpu6050/MPU6050.c ****     I2Cdev_writeBit(mpu6050.devAddr, MPU6050_RA_ACCEL_CONFIG, MPU6050_ACONFIG_XA_ST_BIT, enabled);
 612              		.loc 1 308 5 is_stmt 1 view .LVU73
 613 0004 0722     		movs	r2, #7
 614 0006 1C21     		movs	r1, #28
 615 0008 0248     		ldr	r0, .L60
 616              	.LVL23:
 617              		.loc 1 308 5 is_stmt 0 view .LVU74
 618 000a 0078     		ldrb	r0, [r0]	@ zero_extendqisi2
 619 000c FFF7FEFF 		bl	I2Cdev_writeBit
 620              	.LVL24:
 309:Libraries/ctrl_drv/i2c/mpu6050/MPU6050.c **** }
 621              		.loc 1 309 1 view .LVU75
ARM GAS  C:\Users\Mxuan\AppData\Local\Temp\ccfnFihP.s 			page 17


 622 0010 08BD     		pop	{r3, pc}
 623              	.L61:
 624 0012 00BF     		.align	2
 625              	.L60:
 626 0014 00000000 		.word	mpu6050
 627              		.cfi_endproc
 628              	.LFE15:
 630              		.section	.text.MPU6050_getAccelYSelfTest,"ax",%progbits
 631              		.align	1
 632              		.global	MPU6050_getAccelYSelfTest
 633              		.syntax unified
 634              		.thumb
 635              		.thumb_func
 637              	MPU6050_getAccelYSelfTest:
 638              	.LFB16:
 310:Libraries/ctrl_drv/i2c/mpu6050/MPU6050.c **** /** Get self-test enabled value for accelerometer Y axis.
 311:Libraries/ctrl_drv/i2c/mpu6050/MPU6050.c ****  * @return Self-test enabled value
 312:Libraries/ctrl_drv/i2c/mpu6050/MPU6050.c ****  * @see MPU6050_RA_ACCEL_CONFIG
 313:Libraries/ctrl_drv/i2c/mpu6050/MPU6050.c ****  */
 314:Libraries/ctrl_drv/i2c/mpu6050/MPU6050.c **** bool MPU6050_getAccelYSelfTest() {
 639              		.loc 1 314 34 is_stmt 1 view -0
 640              		.cfi_startproc
 641              		@ args = 0, pretend = 0, frame = 0
 642              		@ frame_needed = 0, uses_anonymous_args = 0
 643 0000 10B5     		push	{r4, lr}
 644              	.LCFI25:
 645              		.cfi_def_cfa_offset 8
 646              		.cfi_offset 4, -8
 647              		.cfi_offset 14, -4
 315:Libraries/ctrl_drv/i2c/mpu6050/MPU6050.c ****     I2Cdev_readBit(mpu6050.devAddr, MPU6050_RA_ACCEL_CONFIG, MPU6050_ACONFIG_YA_ST_BIT, mpu6050.buf
 648              		.loc 1 315 5 view .LVU77
 649 0002 064B     		ldr	r3, .L64
 650 0004 5C1E     		subs	r4, r3, #1
 651 0006 0622     		movs	r2, #6
 652 0008 1C21     		movs	r1, #28
 653 000a 13F8010C 		ldrb	r0, [r3, #-1]	@ zero_extendqisi2
 654 000e FFF7FEFF 		bl	I2Cdev_readBit
 655              	.LVL25:
 316:Libraries/ctrl_drv/i2c/mpu6050/MPU6050.c ****     return mpu6050.buffer[0];
 656              		.loc 1 316 5 view .LVU78
 657              		.loc 1 316 26 is_stmt 0 view .LVU79
 658 0012 6078     		ldrb	r0, [r4, #1]	@ zero_extendqisi2
 317:Libraries/ctrl_drv/i2c/mpu6050/MPU6050.c **** }
 659              		.loc 1 317 1 view .LVU80
 660 0014 0038     		subs	r0, r0, #0
 661 0016 18BF     		it	ne
 662 0018 0120     		movne	r0, #1
 663 001a 10BD     		pop	{r4, pc}
 664              	.L65:
 665              		.align	2
 666              	.L64:
 667 001c 01000000 		.word	mpu6050+1
 668              		.cfi_endproc
 669              	.LFE16:
 671              		.section	.text.MPU6050_setAccelYSelfTest,"ax",%progbits
 672              		.align	1
 673              		.global	MPU6050_setAccelYSelfTest
ARM GAS  C:\Users\Mxuan\AppData\Local\Temp\ccfnFihP.s 			page 18


 674              		.syntax unified
 675              		.thumb
 676              		.thumb_func
 678              	MPU6050_setAccelYSelfTest:
 679              	.LVL26:
 680              	.LFB17:
 318:Libraries/ctrl_drv/i2c/mpu6050/MPU6050.c **** /** Get self-test enabled value for accelerometer Y axis.
 319:Libraries/ctrl_drv/i2c/mpu6050/MPU6050.c ****  * @param enabled Self-test enabled value
 320:Libraries/ctrl_drv/i2c/mpu6050/MPU6050.c ****  * @see MPU6050_RA_ACCEL_CONFIG
 321:Libraries/ctrl_drv/i2c/mpu6050/MPU6050.c ****  */
 322:Libraries/ctrl_drv/i2c/mpu6050/MPU6050.c **** void MPU6050_setAccelYSelfTest(bool enabled) {
 681              		.loc 1 322 46 is_stmt 1 view -0
 682              		.cfi_startproc
 683              		@ args = 0, pretend = 0, frame = 0
 684              		@ frame_needed = 0, uses_anonymous_args = 0
 685              		.loc 1 322 46 is_stmt 0 view .LVU82
 686 0000 08B5     		push	{r3, lr}
 687              	.LCFI26:
 688              		.cfi_def_cfa_offset 8
 689              		.cfi_offset 3, -8
 690              		.cfi_offset 14, -4
 691 0002 0346     		mov	r3, r0
 323:Libraries/ctrl_drv/i2c/mpu6050/MPU6050.c ****     I2Cdev_writeBit(mpu6050.devAddr, MPU6050_RA_ACCEL_CONFIG, MPU6050_ACONFIG_YA_ST_BIT, enabled);
 692              		.loc 1 323 5 is_stmt 1 view .LVU83
 693 0004 0622     		movs	r2, #6
 694 0006 1C21     		movs	r1, #28
 695 0008 0248     		ldr	r0, .L68
 696              	.LVL27:
 697              		.loc 1 323 5 is_stmt 0 view .LVU84
 698 000a 0078     		ldrb	r0, [r0]	@ zero_extendqisi2
 699 000c FFF7FEFF 		bl	I2Cdev_writeBit
 700              	.LVL28:
 324:Libraries/ctrl_drv/i2c/mpu6050/MPU6050.c **** }
 701              		.loc 1 324 1 view .LVU85
 702 0010 08BD     		pop	{r3, pc}
 703              	.L69:
 704 0012 00BF     		.align	2
 705              	.L68:
 706 0014 00000000 		.word	mpu6050
 707              		.cfi_endproc
 708              	.LFE17:
 710              		.section	.text.MPU6050_getAccelZSelfTest,"ax",%progbits
 711              		.align	1
 712              		.global	MPU6050_getAccelZSelfTest
 713              		.syntax unified
 714              		.thumb
 715              		.thumb_func
 717              	MPU6050_getAccelZSelfTest:
 718              	.LFB18:
 325:Libraries/ctrl_drv/i2c/mpu6050/MPU6050.c **** /** Get self-test enabled value for accelerometer Z axis.
 326:Libraries/ctrl_drv/i2c/mpu6050/MPU6050.c ****  * @return Self-test enabled value
 327:Libraries/ctrl_drv/i2c/mpu6050/MPU6050.c ****  * @see MPU6050_RA_ACCEL_CONFIG
 328:Libraries/ctrl_drv/i2c/mpu6050/MPU6050.c ****  */
 329:Libraries/ctrl_drv/i2c/mpu6050/MPU6050.c **** bool MPU6050_getAccelZSelfTest() {
 719              		.loc 1 329 34 is_stmt 1 view -0
 720              		.cfi_startproc
 721              		@ args = 0, pretend = 0, frame = 0
ARM GAS  C:\Users\Mxuan\AppData\Local\Temp\ccfnFihP.s 			page 19


 722              		@ frame_needed = 0, uses_anonymous_args = 0
 723 0000 10B5     		push	{r4, lr}
 724              	.LCFI27:
 725              		.cfi_def_cfa_offset 8
 726              		.cfi_offset 4, -8
 727              		.cfi_offset 14, -4
 330:Libraries/ctrl_drv/i2c/mpu6050/MPU6050.c ****     I2Cdev_readBit(mpu6050.devAddr, MPU6050_RA_ACCEL_CONFIG, MPU6050_ACONFIG_ZA_ST_BIT, mpu6050.buf
 728              		.loc 1 330 5 view .LVU87
 729 0002 064B     		ldr	r3, .L72
 730 0004 5C1E     		subs	r4, r3, #1
 731 0006 0522     		movs	r2, #5
 732 0008 1C21     		movs	r1, #28
 733 000a 13F8010C 		ldrb	r0, [r3, #-1]	@ zero_extendqisi2
 734 000e FFF7FEFF 		bl	I2Cdev_readBit
 735              	.LVL29:
 331:Libraries/ctrl_drv/i2c/mpu6050/MPU6050.c ****     return mpu6050.buffer[0];
 736              		.loc 1 331 5 view .LVU88
 737              		.loc 1 331 26 is_stmt 0 view .LVU89
 738 0012 6078     		ldrb	r0, [r4, #1]	@ zero_extendqisi2
 332:Libraries/ctrl_drv/i2c/mpu6050/MPU6050.c **** }
 739              		.loc 1 332 1 view .LVU90
 740 0014 0038     		subs	r0, r0, #0
 741 0016 18BF     		it	ne
 742 0018 0120     		movne	r0, #1
 743 001a 10BD     		pop	{r4, pc}
 744              	.L73:
 745              		.align	2
 746              	.L72:
 747 001c 01000000 		.word	mpu6050+1
 748              		.cfi_endproc
 749              	.LFE18:
 751              		.section	.text.MPU6050_setAccelZSelfTest,"ax",%progbits
 752              		.align	1
 753              		.global	MPU6050_setAccelZSelfTest
 754              		.syntax unified
 755              		.thumb
 756              		.thumb_func
 758              	MPU6050_setAccelZSelfTest:
 759              	.LVL30:
 760              	.LFB19:
 333:Libraries/ctrl_drv/i2c/mpu6050/MPU6050.c **** /** Set self-test enabled value for accelerometer Z axis.
 334:Libraries/ctrl_drv/i2c/mpu6050/MPU6050.c ****  * @param enabled Self-test enabled value
 335:Libraries/ctrl_drv/i2c/mpu6050/MPU6050.c ****  * @see MPU6050_RA_ACCEL_CONFIG
 336:Libraries/ctrl_drv/i2c/mpu6050/MPU6050.c ****  */
 337:Libraries/ctrl_drv/i2c/mpu6050/MPU6050.c **** void MPU6050_setAccelZSelfTest(bool enabled) {
 761              		.loc 1 337 46 is_stmt 1 view -0
 762              		.cfi_startproc
 763              		@ args = 0, pretend = 0, frame = 0
 764              		@ frame_needed = 0, uses_anonymous_args = 0
 765              		.loc 1 337 46 is_stmt 0 view .LVU92
 766 0000 08B5     		push	{r3, lr}
 767              	.LCFI28:
 768              		.cfi_def_cfa_offset 8
 769              		.cfi_offset 3, -8
 770              		.cfi_offset 14, -4
 771 0002 0346     		mov	r3, r0
 338:Libraries/ctrl_drv/i2c/mpu6050/MPU6050.c ****     I2Cdev_writeBit(mpu6050.devAddr, MPU6050_RA_ACCEL_CONFIG, MPU6050_ACONFIG_ZA_ST_BIT, enabled);
ARM GAS  C:\Users\Mxuan\AppData\Local\Temp\ccfnFihP.s 			page 20


 772              		.loc 1 338 5 is_stmt 1 view .LVU93
 773 0004 0522     		movs	r2, #5
 774 0006 1C21     		movs	r1, #28
 775 0008 0248     		ldr	r0, .L76
 776              	.LVL31:
 777              		.loc 1 338 5 is_stmt 0 view .LVU94
 778 000a 0078     		ldrb	r0, [r0]	@ zero_extendqisi2
 779 000c FFF7FEFF 		bl	I2Cdev_writeBit
 780              	.LVL32:
 339:Libraries/ctrl_drv/i2c/mpu6050/MPU6050.c **** }
 781              		.loc 1 339 1 view .LVU95
 782 0010 08BD     		pop	{r3, pc}
 783              	.L77:
 784 0012 00BF     		.align	2
 785              	.L76:
 786 0014 00000000 		.word	mpu6050
 787              		.cfi_endproc
 788              	.LFE19:
 790              		.section	.text.MPU6050_getFullScaleAccelRange,"ax",%progbits
 791              		.align	1
 792              		.global	MPU6050_getFullScaleAccelRange
 793              		.syntax unified
 794              		.thumb
 795              		.thumb_func
 797              	MPU6050_getFullScaleAccelRange:
 798              	.LFB20:
 340:Libraries/ctrl_drv/i2c/mpu6050/MPU6050.c **** /** Get full-scale accelerometer range.
 341:Libraries/ctrl_drv/i2c/mpu6050/MPU6050.c ****  * The FS_SEL parameter allows setting the full-scale range of the accelerometer
 342:Libraries/ctrl_drv/i2c/mpu6050/MPU6050.c ****  * sensors, as described in the table below.
 343:Libraries/ctrl_drv/i2c/mpu6050/MPU6050.c ****  *
 344:Libraries/ctrl_drv/i2c/mpu6050/MPU6050.c ****  * <pre>
 345:Libraries/ctrl_drv/i2c/mpu6050/MPU6050.c ****  * 0 = +/- 2g
 346:Libraries/ctrl_drv/i2c/mpu6050/MPU6050.c ****  * 1 = +/- 4g
 347:Libraries/ctrl_drv/i2c/mpu6050/MPU6050.c ****  * 2 = +/- 8g
 348:Libraries/ctrl_drv/i2c/mpu6050/MPU6050.c ****  * 3 = +/- 16g
 349:Libraries/ctrl_drv/i2c/mpu6050/MPU6050.c ****  * </pre>
 350:Libraries/ctrl_drv/i2c/mpu6050/MPU6050.c ****  *
 351:Libraries/ctrl_drv/i2c/mpu6050/MPU6050.c ****  * @return Current full-scale accelerometer range setting
 352:Libraries/ctrl_drv/i2c/mpu6050/MPU6050.c ****  * @see MPU6050_ACCEL_FS_2
 353:Libraries/ctrl_drv/i2c/mpu6050/MPU6050.c ****  * @see MPU6050_RA_ACCEL_CONFIG
 354:Libraries/ctrl_drv/i2c/mpu6050/MPU6050.c ****  * @see MPU6050_ACONFIG_AFS_SEL_BIT
 355:Libraries/ctrl_drv/i2c/mpu6050/MPU6050.c ****  * @see MPU6050_ACONFIG_AFS_SEL_LENGTH
 356:Libraries/ctrl_drv/i2c/mpu6050/MPU6050.c ****  */
 357:Libraries/ctrl_drv/i2c/mpu6050/MPU6050.c **** uint8_t MPU6050_getFullScaleAccelRange() {
 799              		.loc 1 357 42 is_stmt 1 view -0
 800              		.cfi_startproc
 801              		@ args = 0, pretend = 0, frame = 0
 802              		@ frame_needed = 0, uses_anonymous_args = 0
 803 0000 10B5     		push	{r4, lr}
 804              	.LCFI29:
 805              		.cfi_def_cfa_offset 8
 806              		.cfi_offset 4, -8
 807              		.cfi_offset 14, -4
 808 0002 82B0     		sub	sp, sp, #8
 809              	.LCFI30:
 810              		.cfi_def_cfa_offset 16
 358:Libraries/ctrl_drv/i2c/mpu6050/MPU6050.c ****     I2Cdev_readBits(mpu6050.devAddr, MPU6050_RA_ACCEL_CONFIG, MPU6050_ACONFIG_AFS_SEL_BIT, MPU6050_
ARM GAS  C:\Users\Mxuan\AppData\Local\Temp\ccfnFihP.s 			page 21


 811              		.loc 1 358 5 view .LVU97
 812 0004 064C     		ldr	r4, .L80
 813 0006 2346     		mov	r3, r4
 814 0008 13F8010B 		ldrb	r0, [r3], #1	@ zero_extendqisi2
 815 000c 0093     		str	r3, [sp]
 816 000e 0223     		movs	r3, #2
 817 0010 0422     		movs	r2, #4
 818 0012 1C21     		movs	r1, #28
 819 0014 FFF7FEFF 		bl	I2Cdev_readBits
 820              	.LVL33:
 359:Libraries/ctrl_drv/i2c/mpu6050/MPU6050.c ****     return mpu6050.buffer[0];
 821              		.loc 1 359 5 view .LVU98
 360:Libraries/ctrl_drv/i2c/mpu6050/MPU6050.c **** }
 822              		.loc 1 360 1 is_stmt 0 view .LVU99
 823 0018 6078     		ldrb	r0, [r4, #1]	@ zero_extendqisi2
 824 001a 02B0     		add	sp, sp, #8
 825              	.LCFI31:
 826              		.cfi_def_cfa_offset 8
 827              		@ sp needed
 828 001c 10BD     		pop	{r4, pc}
 829              	.L81:
 830 001e 00BF     		.align	2
 831              	.L80:
 832 0020 00000000 		.word	mpu6050
 833              		.cfi_endproc
 834              	.LFE20:
 836              		.section	.text.MPU6050_setFullScaleAccelRange,"ax",%progbits
 837              		.align	1
 838              		.global	MPU6050_setFullScaleAccelRange
 839              		.syntax unified
 840              		.thumb
 841              		.thumb_func
 843              	MPU6050_setFullScaleAccelRange:
 844              	.LVL34:
 845              	.LFB21:
 361:Libraries/ctrl_drv/i2c/mpu6050/MPU6050.c **** /** Set full-scale accelerometer range.
 362:Libraries/ctrl_drv/i2c/mpu6050/MPU6050.c ****  * @param range New full-scale accelerometer range setting
 363:Libraries/ctrl_drv/i2c/mpu6050/MPU6050.c ****  * @see getFullScaleAccelRange()
 364:Libraries/ctrl_drv/i2c/mpu6050/MPU6050.c ****  */
 365:Libraries/ctrl_drv/i2c/mpu6050/MPU6050.c **** void MPU6050_setFullScaleAccelRange(uint8_t range) {
 846              		.loc 1 365 52 is_stmt 1 view -0
 847              		.cfi_startproc
 848              		@ args = 0, pretend = 0, frame = 0
 849              		@ frame_needed = 0, uses_anonymous_args = 0
 850              		.loc 1 365 52 is_stmt 0 view .LVU101
 851 0000 10B5     		push	{r4, lr}
 852              	.LCFI32:
 853              		.cfi_def_cfa_offset 8
 854              		.cfi_offset 4, -8
 855              		.cfi_offset 14, -4
 856 0002 82B0     		sub	sp, sp, #8
 857              	.LCFI33:
 858              		.cfi_def_cfa_offset 16
 859 0004 0446     		mov	r4, r0
 366:Libraries/ctrl_drv/i2c/mpu6050/MPU6050.c ****     I2Cdev_writeBits(mpu6050.devAddr, MPU6050_RA_ACCEL_CONFIG, MPU6050_ACONFIG_AFS_SEL_BIT, MPU6050
 860              		.loc 1 366 5 is_stmt 1 view .LVU102
 861 0006 0090     		str	r0, [sp]
ARM GAS  C:\Users\Mxuan\AppData\Local\Temp\ccfnFihP.s 			page 22


 862 0008 0223     		movs	r3, #2
 863 000a 0422     		movs	r2, #4
 864 000c 1C21     		movs	r1, #28
 865 000e 0F48     		ldr	r0, .L91
 866              	.LVL35:
 867              		.loc 1 366 5 is_stmt 0 view .LVU103
 868 0010 0078     		ldrb	r0, [r0]	@ zero_extendqisi2
 869 0012 FFF7FEFF 		bl	I2Cdev_writeBits
 870              	.LVL36:
 367:Libraries/ctrl_drv/i2c/mpu6050/MPU6050.c ****     switch (range)
 871              		.loc 1 367 5 is_stmt 1 view .LVU104
 872 0016 032C     		cmp	r4, #3
 873 0018 07D8     		bhi	.L82
 874 001a DFE804F0 		tbb	[pc, r4]
 875              	.L85:
 876 001e 02       		.byte	(.L88-.L85)/2
 877 001f 08       		.byte	(.L87-.L85)/2
 878 0020 0D       		.byte	(.L86-.L85)/2
 879 0021 12       		.byte	(.L84-.L85)/2
 880              		.p2align 1
 881              	.L88:
 368:Libraries/ctrl_drv/i2c/mpu6050/MPU6050.c ****     {
 369:Libraries/ctrl_drv/i2c/mpu6050/MPU6050.c ****         case MPU6050_ACCEL_FS_2:
 370:Libraries/ctrl_drv/i2c/mpu6050/MPU6050.c ****             mpu6050.accRangeScale = 32768 / 2.0;
 882              		.loc 1 370 13 view .LVU105
 883              		.loc 1 370 35 is_stmt 0 view .LVU106
 884 0022 0A4B     		ldr	r3, .L91
 885 0024 4FF08D42 		mov	r2, #1182793728
 886 0028 1A61     		str	r2, [r3, #16]	@ float
 371:Libraries/ctrl_drv/i2c/mpu6050/MPU6050.c ****             break;
 887              		.loc 1 371 13 is_stmt 1 view .LVU107
 888              	.L82:
 372:Libraries/ctrl_drv/i2c/mpu6050/MPU6050.c ****         case MPU6050_ACCEL_FS_4:
 373:Libraries/ctrl_drv/i2c/mpu6050/MPU6050.c ****             mpu6050.accRangeScale = 32768 / 4.0;
 374:Libraries/ctrl_drv/i2c/mpu6050/MPU6050.c ****             break;
 375:Libraries/ctrl_drv/i2c/mpu6050/MPU6050.c ****         case MPU6050_ACCEL_FS_8:
 376:Libraries/ctrl_drv/i2c/mpu6050/MPU6050.c ****             mpu6050.accRangeScale = 32768 / 8.0;
 377:Libraries/ctrl_drv/i2c/mpu6050/MPU6050.c ****             break;
 378:Libraries/ctrl_drv/i2c/mpu6050/MPU6050.c ****         case MPU6050_ACCEL_FS_16:
 379:Libraries/ctrl_drv/i2c/mpu6050/MPU6050.c ****             mpu6050.accRangeScale = 32768 / 16.0;
 380:Libraries/ctrl_drv/i2c/mpu6050/MPU6050.c ****             break;
 381:Libraries/ctrl_drv/i2c/mpu6050/MPU6050.c ****         default:
 382:Libraries/ctrl_drv/i2c/mpu6050/MPU6050.c ****             break;
 383:Libraries/ctrl_drv/i2c/mpu6050/MPU6050.c ****     }
 384:Libraries/ctrl_drv/i2c/mpu6050/MPU6050.c **** }
 889              		.loc 1 384 1 is_stmt 0 view .LVU108
 890 002a 02B0     		add	sp, sp, #8
 891              	.LCFI34:
 892              		.cfi_remember_state
 893              		.cfi_def_cfa_offset 8
 894              		@ sp needed
 895 002c 10BD     		pop	{r4, pc}
 896              	.L87:
 897              	.LCFI35:
 898              		.cfi_restore_state
 373:Libraries/ctrl_drv/i2c/mpu6050/MPU6050.c ****             break;
 899              		.loc 1 373 13 is_stmt 1 view .LVU109
ARM GAS  C:\Users\Mxuan\AppData\Local\Temp\ccfnFihP.s 			page 23


 373:Libraries/ctrl_drv/i2c/mpu6050/MPU6050.c ****             break;
 900              		.loc 1 373 35 is_stmt 0 view .LVU110
 901 002e 074B     		ldr	r3, .L91
 902 0030 4FF08C42 		mov	r2, #1174405120
 903 0034 1A61     		str	r2, [r3, #16]	@ float
 374:Libraries/ctrl_drv/i2c/mpu6050/MPU6050.c ****         case MPU6050_ACCEL_FS_8:
 904              		.loc 1 374 13 is_stmt 1 view .LVU111
 905 0036 F8E7     		b	.L82
 906              	.L86:
 376:Libraries/ctrl_drv/i2c/mpu6050/MPU6050.c ****             break;
 907              		.loc 1 376 13 view .LVU112
 376:Libraries/ctrl_drv/i2c/mpu6050/MPU6050.c ****             break;
 908              		.loc 1 376 35 is_stmt 0 view .LVU113
 909 0038 044B     		ldr	r3, .L91
 910 003a 4FF08B42 		mov	r2, #1166016512
 911 003e 1A61     		str	r2, [r3, #16]	@ float
 377:Libraries/ctrl_drv/i2c/mpu6050/MPU6050.c ****         case MPU6050_ACCEL_FS_16:
 912              		.loc 1 377 13 is_stmt 1 view .LVU114
 913 0040 F3E7     		b	.L82
 914              	.L84:
 379:Libraries/ctrl_drv/i2c/mpu6050/MPU6050.c ****             break;
 915              		.loc 1 379 13 view .LVU115
 379:Libraries/ctrl_drv/i2c/mpu6050/MPU6050.c ****             break;
 916              		.loc 1 379 35 is_stmt 0 view .LVU116
 917 0042 024B     		ldr	r3, .L91
 918 0044 4FF08A42 		mov	r2, #1157627904
 919 0048 1A61     		str	r2, [r3, #16]	@ float
 380:Libraries/ctrl_drv/i2c/mpu6050/MPU6050.c ****         default:
 920              		.loc 1 380 13 is_stmt 1 view .LVU117
 921              		.loc 1 384 1 is_stmt 0 view .LVU118
 922 004a EEE7     		b	.L82
 923              	.L92:
 924              		.align	2
 925              	.L91:
 926 004c 00000000 		.word	mpu6050
 927              		.cfi_endproc
 928              	.LFE21:
 930              		.section	.text.MPU6050_getAccRangeScale,"ax",%progbits
 931              		.align	1
 932              		.global	MPU6050_getAccRangeScale
 933              		.syntax unified
 934              		.thumb
 935              		.thumb_func
 937              	MPU6050_getAccRangeScale:
 938              	.LFB22:
 385:Libraries/ctrl_drv/i2c/mpu6050/MPU6050.c **** 
 386:Libraries/ctrl_drv/i2c/mpu6050/MPU6050.c **** float MPU6050_getAccRangeScale(void)
 387:Libraries/ctrl_drv/i2c/mpu6050/MPU6050.c **** {
 939              		.loc 1 387 1 is_stmt 1 view -0
 940              		.cfi_startproc
 941              		@ args = 0, pretend = 0, frame = 0
 942              		@ frame_needed = 0, uses_anonymous_args = 0
 943              		@ link register save eliminated.
 388:Libraries/ctrl_drv/i2c/mpu6050/MPU6050.c ****     return mpu6050.accRangeScale;
 944              		.loc 1 388 5 view .LVU120
 389:Libraries/ctrl_drv/i2c/mpu6050/MPU6050.c **** }
 945              		.loc 1 389 1 is_stmt 0 view .LVU121
ARM GAS  C:\Users\Mxuan\AppData\Local\Temp\ccfnFihP.s 			page 24


 946 0000 014B     		ldr	r3, .L94
 947 0002 1869     		ldr	r0, [r3, #16]	@ float
 948 0004 7047     		bx	lr
 949              	.L95:
 950 0006 00BF     		.align	2
 951              	.L94:
 952 0008 00000000 		.word	mpu6050
 953              		.cfi_endproc
 954              	.LFE22:
 956              		.section	.text.MPU6050_getDHPFMode,"ax",%progbits
 957              		.align	1
 958              		.global	MPU6050_getDHPFMode
 959              		.syntax unified
 960              		.thumb
 961              		.thumb_func
 963              	MPU6050_getDHPFMode:
 964              	.LFB23:
 390:Libraries/ctrl_drv/i2c/mpu6050/MPU6050.c **** 
 391:Libraries/ctrl_drv/i2c/mpu6050/MPU6050.c **** 
 392:Libraries/ctrl_drv/i2c/mpu6050/MPU6050.c **** 
 393:Libraries/ctrl_drv/i2c/mpu6050/MPU6050.c **** /** Get the high-pass filter configuration.
 394:Libraries/ctrl_drv/i2c/mpu6050/MPU6050.c ****  * The DHPF is a filter module in the path leading to motion detectors (Free
 395:Libraries/ctrl_drv/i2c/mpu6050/MPU6050.c ****  * Fall, Motion threshold, and Zero Motion). The high pass filter output is not
 396:Libraries/ctrl_drv/i2c/mpu6050/MPU6050.c ****  * available to the data registers (see Figure in Section 8 of the MPU-6000/
 397:Libraries/ctrl_drv/i2c/mpu6050/MPU6050.c ****  * MPU-6050 Product Specification document).
 398:Libraries/ctrl_drv/i2c/mpu6050/MPU6050.c ****  *
 399:Libraries/ctrl_drv/i2c/mpu6050/MPU6050.c ****  * The high pass filter has three modes:
 400:Libraries/ctrl_drv/i2c/mpu6050/MPU6050.c ****  *
 401:Libraries/ctrl_drv/i2c/mpu6050/MPU6050.c ****  * <pre>
 402:Libraries/ctrl_drv/i2c/mpu6050/MPU6050.c ****  *    Reset: The filter output settles to zero within one sample. This
 403:Libraries/ctrl_drv/i2c/mpu6050/MPU6050.c ****  *           effectively disables the high pass filter. This mode may be toggled
 404:Libraries/ctrl_drv/i2c/mpu6050/MPU6050.c ****  *           to quickly settle the filter.
 405:Libraries/ctrl_drv/i2c/mpu6050/MPU6050.c ****  *
 406:Libraries/ctrl_drv/i2c/mpu6050/MPU6050.c ****  *    On:    The high pass filter will pass signals above the cut off frequency.
 407:Libraries/ctrl_drv/i2c/mpu6050/MPU6050.c ****  *
 408:Libraries/ctrl_drv/i2c/mpu6050/MPU6050.c ****  *    Hold:  When triggered, the filter holds the present sample. The filter
 409:Libraries/ctrl_drv/i2c/mpu6050/MPU6050.c ****  *           output will be the difference between the input sample and the held
 410:Libraries/ctrl_drv/i2c/mpu6050/MPU6050.c ****  *           sample.
 411:Libraries/ctrl_drv/i2c/mpu6050/MPU6050.c ****  * </pre>
 412:Libraries/ctrl_drv/i2c/mpu6050/MPU6050.c ****  *
 413:Libraries/ctrl_drv/i2c/mpu6050/MPU6050.c ****  * <pre>
 414:Libraries/ctrl_drv/i2c/mpu6050/MPU6050.c ****  * ACCEL_HPF | Filter Mode | Cut-off Frequency
 415:Libraries/ctrl_drv/i2c/mpu6050/MPU6050.c ****  * ----------+-------------+------------------
 416:Libraries/ctrl_drv/i2c/mpu6050/MPU6050.c ****  * 0         | Reset       | None
 417:Libraries/ctrl_drv/i2c/mpu6050/MPU6050.c ****  * 1         | On          | 5Hz
 418:Libraries/ctrl_drv/i2c/mpu6050/MPU6050.c ****  * 2         | On          | 2.5Hz
 419:Libraries/ctrl_drv/i2c/mpu6050/MPU6050.c ****  * 3         | On          | 1.25Hz
 420:Libraries/ctrl_drv/i2c/mpu6050/MPU6050.c ****  * 4         | On          | 0.63Hz
 421:Libraries/ctrl_drv/i2c/mpu6050/MPU6050.c ****  * 7         | Hold        | None
 422:Libraries/ctrl_drv/i2c/mpu6050/MPU6050.c ****  * </pre>
 423:Libraries/ctrl_drv/i2c/mpu6050/MPU6050.c ****  *
 424:Libraries/ctrl_drv/i2c/mpu6050/MPU6050.c ****  * @return Current high-pass filter configuration
 425:Libraries/ctrl_drv/i2c/mpu6050/MPU6050.c ****  * @see MPU6050_DHPF_RESET
 426:Libraries/ctrl_drv/i2c/mpu6050/MPU6050.c ****  * @see MPU6050_RA_ACCEL_CONFIG
 427:Libraries/ctrl_drv/i2c/mpu6050/MPU6050.c ****  */
 428:Libraries/ctrl_drv/i2c/mpu6050/MPU6050.c **** uint8_t MPU6050_getDHPFMode() {
 965              		.loc 1 428 31 is_stmt 1 view -0
ARM GAS  C:\Users\Mxuan\AppData\Local\Temp\ccfnFihP.s 			page 25


 966              		.cfi_startproc
 967              		@ args = 0, pretend = 0, frame = 0
 968              		@ frame_needed = 0, uses_anonymous_args = 0
 969 0000 10B5     		push	{r4, lr}
 970              	.LCFI36:
 971              		.cfi_def_cfa_offset 8
 972              		.cfi_offset 4, -8
 973              		.cfi_offset 14, -4
 974 0002 82B0     		sub	sp, sp, #8
 975              	.LCFI37:
 976              		.cfi_def_cfa_offset 16
 429:Libraries/ctrl_drv/i2c/mpu6050/MPU6050.c ****     I2Cdev_readBits(mpu6050.devAddr, MPU6050_RA_ACCEL_CONFIG, MPU6050_ACONFIG_ACCEL_HPF_BIT, MPU605
 977              		.loc 1 429 5 view .LVU123
 978 0004 064C     		ldr	r4, .L98
 979 0006 2346     		mov	r3, r4
 980 0008 13F8010B 		ldrb	r0, [r3], #1	@ zero_extendqisi2
 981 000c 0093     		str	r3, [sp]
 982 000e 0323     		movs	r3, #3
 983 0010 0222     		movs	r2, #2
 984 0012 1C21     		movs	r1, #28
 985 0014 FFF7FEFF 		bl	I2Cdev_readBits
 986              	.LVL37:
 430:Libraries/ctrl_drv/i2c/mpu6050/MPU6050.c ****     return mpu6050.buffer[0];
 987              		.loc 1 430 5 view .LVU124
 431:Libraries/ctrl_drv/i2c/mpu6050/MPU6050.c **** }
 988              		.loc 1 431 1 is_stmt 0 view .LVU125
 989 0018 6078     		ldrb	r0, [r4, #1]	@ zero_extendqisi2
 990 001a 02B0     		add	sp, sp, #8
 991              	.LCFI38:
 992              		.cfi_def_cfa_offset 8
 993              		@ sp needed
 994 001c 10BD     		pop	{r4, pc}
 995              	.L99:
 996 001e 00BF     		.align	2
 997              	.L98:
 998 0020 00000000 		.word	mpu6050
 999              		.cfi_endproc
 1000              	.LFE23:
 1002              		.section	.text.MPU6050_setDHPFMode,"ax",%progbits
 1003              		.align	1
 1004              		.global	MPU6050_setDHPFMode
 1005              		.syntax unified
 1006              		.thumb
 1007              		.thumb_func
 1009              	MPU6050_setDHPFMode:
 1010              	.LVL38:
 1011              	.LFB24:
 432:Libraries/ctrl_drv/i2c/mpu6050/MPU6050.c **** /** Set the high-pass filter configuration.
 433:Libraries/ctrl_drv/i2c/mpu6050/MPU6050.c ****  * @param bandwidth New high-pass filter configuration
 434:Libraries/ctrl_drv/i2c/mpu6050/MPU6050.c ****  * @see setDHPFMode()
 435:Libraries/ctrl_drv/i2c/mpu6050/MPU6050.c ****  * @see MPU6050_DHPF_RESET
 436:Libraries/ctrl_drv/i2c/mpu6050/MPU6050.c ****  * @see MPU6050_RA_ACCEL_CONFIG
 437:Libraries/ctrl_drv/i2c/mpu6050/MPU6050.c ****  */
 438:Libraries/ctrl_drv/i2c/mpu6050/MPU6050.c **** void MPU6050_setDHPFMode(uint8_t bandwidth) {
 1012              		.loc 1 438 45 is_stmt 1 view -0
 1013              		.cfi_startproc
 1014              		@ args = 0, pretend = 0, frame = 0
ARM GAS  C:\Users\Mxuan\AppData\Local\Temp\ccfnFihP.s 			page 26


 1015              		@ frame_needed = 0, uses_anonymous_args = 0
 1016              		.loc 1 438 45 is_stmt 0 view .LVU127
 1017 0000 00B5     		push	{lr}
 1018              	.LCFI39:
 1019              		.cfi_def_cfa_offset 4
 1020              		.cfi_offset 14, -4
 1021 0002 83B0     		sub	sp, sp, #12
 1022              	.LCFI40:
 1023              		.cfi_def_cfa_offset 16
 439:Libraries/ctrl_drv/i2c/mpu6050/MPU6050.c ****     I2Cdev_writeBits(mpu6050.devAddr, MPU6050_RA_ACCEL_CONFIG, MPU6050_ACONFIG_ACCEL_HPF_BIT, MPU60
 1024              		.loc 1 439 5 is_stmt 1 view .LVU128
 1025 0004 0090     		str	r0, [sp]
 1026 0006 0323     		movs	r3, #3
 1027 0008 0222     		movs	r2, #2
 1028 000a 1C21     		movs	r1, #28
 1029 000c 0348     		ldr	r0, .L102
 1030              	.LVL39:
 1031              		.loc 1 439 5 is_stmt 0 view .LVU129
 1032 000e 0078     		ldrb	r0, [r0]	@ zero_extendqisi2
 1033 0010 FFF7FEFF 		bl	I2Cdev_writeBits
 1034              	.LVL40:
 440:Libraries/ctrl_drv/i2c/mpu6050/MPU6050.c **** }
 1035              		.loc 1 440 1 view .LVU130
 1036 0014 03B0     		add	sp, sp, #12
 1037              	.LCFI41:
 1038              		.cfi_def_cfa_offset 4
 1039              		@ sp needed
 1040 0016 5DF804FB 		ldr	pc, [sp], #4
 1041              	.L103:
 1042 001a 00BF     		.align	2
 1043              	.L102:
 1044 001c 00000000 		.word	mpu6050
 1045              		.cfi_endproc
 1046              	.LFE24:
 1048              		.section	.text.MPU6050_getFreefallDetectionThreshold,"ax",%progbits
 1049              		.align	1
 1050              		.global	MPU6050_getFreefallDetectionThreshold
 1051              		.syntax unified
 1052              		.thumb
 1053              		.thumb_func
 1055              	MPU6050_getFreefallDetectionThreshold:
 1056              	.LFB25:
 441:Libraries/ctrl_drv/i2c/mpu6050/MPU6050.c **** 
 442:Libraries/ctrl_drv/i2c/mpu6050/MPU6050.c **** // FF_THR register
 443:Libraries/ctrl_drv/i2c/mpu6050/MPU6050.c **** 
 444:Libraries/ctrl_drv/i2c/mpu6050/MPU6050.c **** /** Get free-fall event acceleration threshold.
 445:Libraries/ctrl_drv/i2c/mpu6050/MPU6050.c ****  * This register configures the detection threshold for Free Fall event
 446:Libraries/ctrl_drv/i2c/mpu6050/MPU6050.c ****  * detection. The unit of FF_THR is 1LSB = 2mg. Free Fall is detected when the
 447:Libraries/ctrl_drv/i2c/mpu6050/MPU6050.c ****  * absolute value of the accelerometer measurements for the three axes are each
 448:Libraries/ctrl_drv/i2c/mpu6050/MPU6050.c ****  * less than the detection threshold. This condition increments the Free Fall
 449:Libraries/ctrl_drv/i2c/mpu6050/MPU6050.c ****  * duration counter (Register 30). The Free Fall interrupt is triggered when the
 450:Libraries/ctrl_drv/i2c/mpu6050/MPU6050.c ****  * Free Fall duration counter reaches the time specified in FF_DUR.
 451:Libraries/ctrl_drv/i2c/mpu6050/MPU6050.c ****  *
 452:Libraries/ctrl_drv/i2c/mpu6050/MPU6050.c ****  * For more details on the Free Fall detection interrupt, see Section 8.2 of the
 453:Libraries/ctrl_drv/i2c/mpu6050/MPU6050.c ****  * MPU-6000/MPU-6050 Product Specification document as well as Registers 56 and
 454:Libraries/ctrl_drv/i2c/mpu6050/MPU6050.c ****  * 58 of this document.
 455:Libraries/ctrl_drv/i2c/mpu6050/MPU6050.c ****  *
ARM GAS  C:\Users\Mxuan\AppData\Local\Temp\ccfnFihP.s 			page 27


 456:Libraries/ctrl_drv/i2c/mpu6050/MPU6050.c ****  * @return Current free-fall acceleration threshold value (LSB = 2mg)
 457:Libraries/ctrl_drv/i2c/mpu6050/MPU6050.c ****  * @see MPU6050_RA_FF_THR
 458:Libraries/ctrl_drv/i2c/mpu6050/MPU6050.c ****  */
 459:Libraries/ctrl_drv/i2c/mpu6050/MPU6050.c **** uint8_t MPU6050_getFreefallDetectionThreshold() {
 1057              		.loc 1 459 49 is_stmt 1 view -0
 1058              		.cfi_startproc
 1059              		@ args = 0, pretend = 0, frame = 0
 1060              		@ frame_needed = 0, uses_anonymous_args = 0
 1061 0000 10B5     		push	{r4, lr}
 1062              	.LCFI42:
 1063              		.cfi_def_cfa_offset 8
 1064              		.cfi_offset 4, -8
 1065              		.cfi_offset 14, -4
 460:Libraries/ctrl_drv/i2c/mpu6050/MPU6050.c ****     I2Cdev_readByte(mpu6050.devAddr, MPU6050_RA_FF_THR, mpu6050.buffer);
 1066              		.loc 1 460 5 view .LVU132
 1067 0002 044A     		ldr	r2, .L106
 1068 0004 541E     		subs	r4, r2, #1
 1069 0006 1D21     		movs	r1, #29
 1070 0008 12F8010C 		ldrb	r0, [r2, #-1]	@ zero_extendqisi2
 1071 000c FFF7FEFF 		bl	I2Cdev_readByte
 1072              	.LVL41:
 461:Libraries/ctrl_drv/i2c/mpu6050/MPU6050.c ****     return mpu6050.buffer[0];
 1073              		.loc 1 461 5 view .LVU133
 462:Libraries/ctrl_drv/i2c/mpu6050/MPU6050.c **** }
 1074              		.loc 1 462 1 is_stmt 0 view .LVU134
 1075 0010 6078     		ldrb	r0, [r4, #1]	@ zero_extendqisi2
 1076 0012 10BD     		pop	{r4, pc}
 1077              	.L107:
 1078              		.align	2
 1079              	.L106:
 1080 0014 01000000 		.word	mpu6050+1
 1081              		.cfi_endproc
 1082              	.LFE25:
 1084              		.section	.text.MPU6050_setFreefallDetectionThreshold,"ax",%progbits
 1085              		.align	1
 1086              		.global	MPU6050_setFreefallDetectionThreshold
 1087              		.syntax unified
 1088              		.thumb
 1089              		.thumb_func
 1091              	MPU6050_setFreefallDetectionThreshold:
 1092              	.LVL42:
 1093              	.LFB26:
 463:Libraries/ctrl_drv/i2c/mpu6050/MPU6050.c **** /** Get free-fall event acceleration threshold.
 464:Libraries/ctrl_drv/i2c/mpu6050/MPU6050.c ****  * @param threshold New free-fall acceleration threshold value (LSB = 2mg)
 465:Libraries/ctrl_drv/i2c/mpu6050/MPU6050.c ****  * @see getFreefallDetectionThreshold()
 466:Libraries/ctrl_drv/i2c/mpu6050/MPU6050.c ****  * @see MPU6050_RA_FF_THR
 467:Libraries/ctrl_drv/i2c/mpu6050/MPU6050.c ****  */
 468:Libraries/ctrl_drv/i2c/mpu6050/MPU6050.c **** void MPU6050_setFreefallDetectionThreshold(uint8_t threshold) {
 1094              		.loc 1 468 63 is_stmt 1 view -0
 1095              		.cfi_startproc
 1096              		@ args = 0, pretend = 0, frame = 0
 1097              		@ frame_needed = 0, uses_anonymous_args = 0
 1098              		.loc 1 468 63 is_stmt 0 view .LVU136
 1099 0000 08B5     		push	{r3, lr}
 1100              	.LCFI43:
 1101              		.cfi_def_cfa_offset 8
 1102              		.cfi_offset 3, -8
ARM GAS  C:\Users\Mxuan\AppData\Local\Temp\ccfnFihP.s 			page 28


 1103              		.cfi_offset 14, -4
 1104 0002 0246     		mov	r2, r0
 469:Libraries/ctrl_drv/i2c/mpu6050/MPU6050.c ****     I2Cdev_writeByte(mpu6050.devAddr, MPU6050_RA_FF_THR, threshold);
 1105              		.loc 1 469 5 is_stmt 1 view .LVU137
 1106 0004 1D21     		movs	r1, #29
 1107 0006 024B     		ldr	r3, .L110
 1108 0008 1878     		ldrb	r0, [r3]	@ zero_extendqisi2
 1109              	.LVL43:
 1110              		.loc 1 469 5 is_stmt 0 view .LVU138
 1111 000a FFF7FEFF 		bl	I2Cdev_writeByte
 1112              	.LVL44:
 470:Libraries/ctrl_drv/i2c/mpu6050/MPU6050.c **** }
 1113              		.loc 1 470 1 view .LVU139
 1114 000e 08BD     		pop	{r3, pc}
 1115              	.L111:
 1116              		.align	2
 1117              	.L110:
 1118 0010 00000000 		.word	mpu6050
 1119              		.cfi_endproc
 1120              	.LFE26:
 1122              		.section	.text.MPU6050_getFreefallDetectionDuration,"ax",%progbits
 1123              		.align	1
 1124              		.global	MPU6050_getFreefallDetectionDuration
 1125              		.syntax unified
 1126              		.thumb
 1127              		.thumb_func
 1129              	MPU6050_getFreefallDetectionDuration:
 1130              	.LFB27:
 471:Libraries/ctrl_drv/i2c/mpu6050/MPU6050.c **** 
 472:Libraries/ctrl_drv/i2c/mpu6050/MPU6050.c **** // FF_DUR register
 473:Libraries/ctrl_drv/i2c/mpu6050/MPU6050.c **** 
 474:Libraries/ctrl_drv/i2c/mpu6050/MPU6050.c **** /** Get free-fall event duration threshold.
 475:Libraries/ctrl_drv/i2c/mpu6050/MPU6050.c ****  * This register configures the duration counter threshold for Free Fall event
 476:Libraries/ctrl_drv/i2c/mpu6050/MPU6050.c ****  * detection. The duration counter ticks at 1kHz, therefore FF_DUR has a unit
 477:Libraries/ctrl_drv/i2c/mpu6050/MPU6050.c ****  * of 1 LSB = 1 ms.
 478:Libraries/ctrl_drv/i2c/mpu6050/MPU6050.c ****  *
 479:Libraries/ctrl_drv/i2c/mpu6050/MPU6050.c ****  * The Free Fall duration counter increments while the absolute value of the
 480:Libraries/ctrl_drv/i2c/mpu6050/MPU6050.c ****  * accelerometer measurements are each less than the detection threshold
 481:Libraries/ctrl_drv/i2c/mpu6050/MPU6050.c ****  * (Register 29). The Free Fall interrupt is triggered when the Free Fall
 482:Libraries/ctrl_drv/i2c/mpu6050/MPU6050.c ****  * duration counter reaches the time specified in this register.
 483:Libraries/ctrl_drv/i2c/mpu6050/MPU6050.c ****  *
 484:Libraries/ctrl_drv/i2c/mpu6050/MPU6050.c ****  * For more details on the Free Fall detection interrupt, see Section 8.2 of
 485:Libraries/ctrl_drv/i2c/mpu6050/MPU6050.c ****  * the MPU-6000/MPU-6050 Product Specification document as well as Registers 56
 486:Libraries/ctrl_drv/i2c/mpu6050/MPU6050.c ****  * and 58 of this document.
 487:Libraries/ctrl_drv/i2c/mpu6050/MPU6050.c ****  *
 488:Libraries/ctrl_drv/i2c/mpu6050/MPU6050.c ****  * @return Current free-fall duration threshold value (LSB = 1ms)
 489:Libraries/ctrl_drv/i2c/mpu6050/MPU6050.c ****  * @see MPU6050_RA_FF_DUR
 490:Libraries/ctrl_drv/i2c/mpu6050/MPU6050.c ****  */
 491:Libraries/ctrl_drv/i2c/mpu6050/MPU6050.c **** uint8_t MPU6050_getFreefallDetectionDuration() {
 1131              		.loc 1 491 48 is_stmt 1 view -0
 1132              		.cfi_startproc
 1133              		@ args = 0, pretend = 0, frame = 0
 1134              		@ frame_needed = 0, uses_anonymous_args = 0
 1135 0000 10B5     		push	{r4, lr}
 1136              	.LCFI44:
 1137              		.cfi_def_cfa_offset 8
 1138              		.cfi_offset 4, -8
ARM GAS  C:\Users\Mxuan\AppData\Local\Temp\ccfnFihP.s 			page 29


 1139              		.cfi_offset 14, -4
 492:Libraries/ctrl_drv/i2c/mpu6050/MPU6050.c ****     I2Cdev_readByte(mpu6050.devAddr, MPU6050_RA_FF_DUR, mpu6050.buffer);
 1140              		.loc 1 492 5 view .LVU141
 1141 0002 044A     		ldr	r2, .L114
 1142 0004 541E     		subs	r4, r2, #1
 1143 0006 1E21     		movs	r1, #30
 1144 0008 12F8010C 		ldrb	r0, [r2, #-1]	@ zero_extendqisi2
 1145 000c FFF7FEFF 		bl	I2Cdev_readByte
 1146              	.LVL45:
 493:Libraries/ctrl_drv/i2c/mpu6050/MPU6050.c ****     return mpu6050.buffer[0];
 1147              		.loc 1 493 5 view .LVU142
 494:Libraries/ctrl_drv/i2c/mpu6050/MPU6050.c **** }
 1148              		.loc 1 494 1 is_stmt 0 view .LVU143
 1149 0010 6078     		ldrb	r0, [r4, #1]	@ zero_extendqisi2
 1150 0012 10BD     		pop	{r4, pc}
 1151              	.L115:
 1152              		.align	2
 1153              	.L114:
 1154 0014 01000000 		.word	mpu6050+1
 1155              		.cfi_endproc
 1156              	.LFE27:
 1158              		.section	.text.MPU6050_setFreefallDetectionDuration,"ax",%progbits
 1159              		.align	1
 1160              		.global	MPU6050_setFreefallDetectionDuration
 1161              		.syntax unified
 1162              		.thumb
 1163              		.thumb_func
 1165              	MPU6050_setFreefallDetectionDuration:
 1166              	.LVL46:
 1167              	.LFB28:
 495:Libraries/ctrl_drv/i2c/mpu6050/MPU6050.c **** /** Get free-fall event duration threshold.
 496:Libraries/ctrl_drv/i2c/mpu6050/MPU6050.c ****  * @param duration New free-fall duration threshold value (LSB = 1ms)
 497:Libraries/ctrl_drv/i2c/mpu6050/MPU6050.c ****  * @see getFreefallDetectionDuration()
 498:Libraries/ctrl_drv/i2c/mpu6050/MPU6050.c ****  * @see MPU6050_RA_FF_DUR
 499:Libraries/ctrl_drv/i2c/mpu6050/MPU6050.c ****  */
 500:Libraries/ctrl_drv/i2c/mpu6050/MPU6050.c **** void MPU6050_setFreefallDetectionDuration(uint8_t duration) {
 1168              		.loc 1 500 61 is_stmt 1 view -0
 1169              		.cfi_startproc
 1170              		@ args = 0, pretend = 0, frame = 0
 1171              		@ frame_needed = 0, uses_anonymous_args = 0
 1172              		.loc 1 500 61 is_stmt 0 view .LVU145
 1173 0000 08B5     		push	{r3, lr}
 1174              	.LCFI45:
 1175              		.cfi_def_cfa_offset 8
 1176              		.cfi_offset 3, -8
 1177              		.cfi_offset 14, -4
 1178 0002 0246     		mov	r2, r0
 501:Libraries/ctrl_drv/i2c/mpu6050/MPU6050.c ****     I2Cdev_writeByte(mpu6050.devAddr, MPU6050_RA_FF_DUR, duration);
 1179              		.loc 1 501 5 is_stmt 1 view .LVU146
 1180 0004 1E21     		movs	r1, #30
 1181 0006 024B     		ldr	r3, .L118
 1182 0008 1878     		ldrb	r0, [r3]	@ zero_extendqisi2
 1183              	.LVL47:
 1184              		.loc 1 501 5 is_stmt 0 view .LVU147
 1185 000a FFF7FEFF 		bl	I2Cdev_writeByte
 1186              	.LVL48:
 502:Libraries/ctrl_drv/i2c/mpu6050/MPU6050.c **** }
ARM GAS  C:\Users\Mxuan\AppData\Local\Temp\ccfnFihP.s 			page 30


 1187              		.loc 1 502 1 view .LVU148
 1188 000e 08BD     		pop	{r3, pc}
 1189              	.L119:
 1190              		.align	2
 1191              	.L118:
 1192 0010 00000000 		.word	mpu6050
 1193              		.cfi_endproc
 1194              	.LFE28:
 1196              		.section	.text.MPU6050_getMotionDetectionThreshold,"ax",%progbits
 1197              		.align	1
 1198              		.global	MPU6050_getMotionDetectionThreshold
 1199              		.syntax unified
 1200              		.thumb
 1201              		.thumb_func
 1203              	MPU6050_getMotionDetectionThreshold:
 1204              	.LFB29:
 503:Libraries/ctrl_drv/i2c/mpu6050/MPU6050.c **** 
 504:Libraries/ctrl_drv/i2c/mpu6050/MPU6050.c **** // MOT_THR register
 505:Libraries/ctrl_drv/i2c/mpu6050/MPU6050.c **** 
 506:Libraries/ctrl_drv/i2c/mpu6050/MPU6050.c **** /** Get motion detection event acceleration threshold.
 507:Libraries/ctrl_drv/i2c/mpu6050/MPU6050.c ****  * This register configures the detection threshold for Motion interrupt
 508:Libraries/ctrl_drv/i2c/mpu6050/MPU6050.c ****  * generation. The unit of MOT_THR is 1LSB = 2mg. Motion is detected when the
 509:Libraries/ctrl_drv/i2c/mpu6050/MPU6050.c ****  * absolute value of any of the accelerometer measurements exceeds this Motion
 510:Libraries/ctrl_drv/i2c/mpu6050/MPU6050.c ****  * detection threshold. This condition increments the Motion detection duration
 511:Libraries/ctrl_drv/i2c/mpu6050/MPU6050.c ****  * counter (Register 32). The Motion detection interrupt is triggered when the
 512:Libraries/ctrl_drv/i2c/mpu6050/MPU6050.c ****  * Motion Detection counter reaches the time count specified in MOT_DUR
 513:Libraries/ctrl_drv/i2c/mpu6050/MPU6050.c ****  * (Register 32).
 514:Libraries/ctrl_drv/i2c/mpu6050/MPU6050.c ****  *
 515:Libraries/ctrl_drv/i2c/mpu6050/MPU6050.c ****  * The Motion interrupt will indicate the axis and polarity of detected motion
 516:Libraries/ctrl_drv/i2c/mpu6050/MPU6050.c ****  * in MOT_DETECT_STATUS (Register 97).
 517:Libraries/ctrl_drv/i2c/mpu6050/MPU6050.c ****  *
 518:Libraries/ctrl_drv/i2c/mpu6050/MPU6050.c ****  * For more details on the Motion detection interrupt, see Section 8.3 of the
 519:Libraries/ctrl_drv/i2c/mpu6050/MPU6050.c ****  * MPU-6000/MPU-6050 Product Specification document as well as Registers 56 and
 520:Libraries/ctrl_drv/i2c/mpu6050/MPU6050.c ****  * 58 of this document.
 521:Libraries/ctrl_drv/i2c/mpu6050/MPU6050.c ****  *
 522:Libraries/ctrl_drv/i2c/mpu6050/MPU6050.c ****  * @return Current motion detection acceleration threshold value (LSB = 2mg)
 523:Libraries/ctrl_drv/i2c/mpu6050/MPU6050.c ****  * @see MPU6050_RA_MOT_THR
 524:Libraries/ctrl_drv/i2c/mpu6050/MPU6050.c ****  */
 525:Libraries/ctrl_drv/i2c/mpu6050/MPU6050.c **** uint8_t MPU6050_getMotionDetectionThreshold() {
 1205              		.loc 1 525 47 is_stmt 1 view -0
 1206              		.cfi_startproc
 1207              		@ args = 0, pretend = 0, frame = 0
 1208              		@ frame_needed = 0, uses_anonymous_args = 0
 1209 0000 10B5     		push	{r4, lr}
 1210              	.LCFI46:
 1211              		.cfi_def_cfa_offset 8
 1212              		.cfi_offset 4, -8
 1213              		.cfi_offset 14, -4
 526:Libraries/ctrl_drv/i2c/mpu6050/MPU6050.c ****     I2Cdev_readByte(mpu6050.devAddr, MPU6050_RA_MOT_THR, mpu6050.buffer);
 1214              		.loc 1 526 5 view .LVU150
 1215 0002 044A     		ldr	r2, .L122
 1216 0004 541E     		subs	r4, r2, #1
 1217 0006 1F21     		movs	r1, #31
 1218 0008 12F8010C 		ldrb	r0, [r2, #-1]	@ zero_extendqisi2
 1219 000c FFF7FEFF 		bl	I2Cdev_readByte
 1220              	.LVL49:
 527:Libraries/ctrl_drv/i2c/mpu6050/MPU6050.c ****     return mpu6050.buffer[0];
ARM GAS  C:\Users\Mxuan\AppData\Local\Temp\ccfnFihP.s 			page 31


 1221              		.loc 1 527 5 view .LVU151
 528:Libraries/ctrl_drv/i2c/mpu6050/MPU6050.c **** }
 1222              		.loc 1 528 1 is_stmt 0 view .LVU152
 1223 0010 6078     		ldrb	r0, [r4, #1]	@ zero_extendqisi2
 1224 0012 10BD     		pop	{r4, pc}
 1225              	.L123:
 1226              		.align	2
 1227              	.L122:
 1228 0014 01000000 		.word	mpu6050+1
 1229              		.cfi_endproc
 1230              	.LFE29:
 1232              		.section	.text.MPU6050_setMotionDetectionThreshold,"ax",%progbits
 1233              		.align	1
 1234              		.global	MPU6050_setMotionDetectionThreshold
 1235              		.syntax unified
 1236              		.thumb
 1237              		.thumb_func
 1239              	MPU6050_setMotionDetectionThreshold:
 1240              	.LVL50:
 1241              	.LFB30:
 529:Libraries/ctrl_drv/i2c/mpu6050/MPU6050.c **** /** Set free-fall event acceleration threshold.
 530:Libraries/ctrl_drv/i2c/mpu6050/MPU6050.c ****  * @param threshold New motion detection acceleration threshold value (LSB = 2mg)
 531:Libraries/ctrl_drv/i2c/mpu6050/MPU6050.c ****  * @see getMotionDetectionThreshold()
 532:Libraries/ctrl_drv/i2c/mpu6050/MPU6050.c ****  * @see MPU6050_RA_MOT_THR
 533:Libraries/ctrl_drv/i2c/mpu6050/MPU6050.c ****  */
 534:Libraries/ctrl_drv/i2c/mpu6050/MPU6050.c **** void MPU6050_setMotionDetectionThreshold(uint8_t threshold) {
 1242              		.loc 1 534 61 is_stmt 1 view -0
 1243              		.cfi_startproc
 1244              		@ args = 0, pretend = 0, frame = 0
 1245              		@ frame_needed = 0, uses_anonymous_args = 0
 1246              		.loc 1 534 61 is_stmt 0 view .LVU154
 1247 0000 08B5     		push	{r3, lr}
 1248              	.LCFI47:
 1249              		.cfi_def_cfa_offset 8
 1250              		.cfi_offset 3, -8
 1251              		.cfi_offset 14, -4
 1252 0002 0246     		mov	r2, r0
 535:Libraries/ctrl_drv/i2c/mpu6050/MPU6050.c ****     I2Cdev_writeByte(mpu6050.devAddr, MPU6050_RA_MOT_THR, threshold);
 1253              		.loc 1 535 5 is_stmt 1 view .LVU155
 1254 0004 1F21     		movs	r1, #31
 1255 0006 024B     		ldr	r3, .L126
 1256 0008 1878     		ldrb	r0, [r3]	@ zero_extendqisi2
 1257              	.LVL51:
 1258              		.loc 1 535 5 is_stmt 0 view .LVU156
 1259 000a FFF7FEFF 		bl	I2Cdev_writeByte
 1260              	.LVL52:
 536:Libraries/ctrl_drv/i2c/mpu6050/MPU6050.c **** }
 1261              		.loc 1 536 1 view .LVU157
 1262 000e 08BD     		pop	{r3, pc}
 1263              	.L127:
 1264              		.align	2
 1265              	.L126:
 1266 0010 00000000 		.word	mpu6050
 1267              		.cfi_endproc
 1268              	.LFE30:
 1270              		.section	.text.MPU6050_getMotionDetectionDuration,"ax",%progbits
 1271              		.align	1
ARM GAS  C:\Users\Mxuan\AppData\Local\Temp\ccfnFihP.s 			page 32


 1272              		.global	MPU6050_getMotionDetectionDuration
 1273              		.syntax unified
 1274              		.thumb
 1275              		.thumb_func
 1277              	MPU6050_getMotionDetectionDuration:
 1278              	.LFB31:
 537:Libraries/ctrl_drv/i2c/mpu6050/MPU6050.c **** 
 538:Libraries/ctrl_drv/i2c/mpu6050/MPU6050.c **** // MOT_DUR register
 539:Libraries/ctrl_drv/i2c/mpu6050/MPU6050.c **** 
 540:Libraries/ctrl_drv/i2c/mpu6050/MPU6050.c **** /** Get motion detection event duration threshold.
 541:Libraries/ctrl_drv/i2c/mpu6050/MPU6050.c ****  * This register configures the duration counter threshold for Motion interrupt
 542:Libraries/ctrl_drv/i2c/mpu6050/MPU6050.c ****  * generation. The duration counter ticks at 1 kHz, therefore MOT_DUR has a unit
 543:Libraries/ctrl_drv/i2c/mpu6050/MPU6050.c ****  * of 1LSB = 1ms. The Motion detection duration counter increments when the
 544:Libraries/ctrl_drv/i2c/mpu6050/MPU6050.c ****  * absolute value of any of the accelerometer measurements exceeds the Motion
 545:Libraries/ctrl_drv/i2c/mpu6050/MPU6050.c ****  * detection threshold (Register 31). The Motion detection interrupt is
 546:Libraries/ctrl_drv/i2c/mpu6050/MPU6050.c ****  * triggered when the Motion detection counter reaches the time count specified
 547:Libraries/ctrl_drv/i2c/mpu6050/MPU6050.c ****  * in this register.
 548:Libraries/ctrl_drv/i2c/mpu6050/MPU6050.c ****  *
 549:Libraries/ctrl_drv/i2c/mpu6050/MPU6050.c ****  * For more details on the Motion detection interrupt, see Section 8.3 of the
 550:Libraries/ctrl_drv/i2c/mpu6050/MPU6050.c ****  * MPU-6000/MPU-6050 Product Specification document.
 551:Libraries/ctrl_drv/i2c/mpu6050/MPU6050.c ****  *
 552:Libraries/ctrl_drv/i2c/mpu6050/MPU6050.c ****  * @return Current motion detection duration threshold value (LSB = 1ms)
 553:Libraries/ctrl_drv/i2c/mpu6050/MPU6050.c ****  * @see MPU6050_RA_MOT_DUR
 554:Libraries/ctrl_drv/i2c/mpu6050/MPU6050.c ****  */
 555:Libraries/ctrl_drv/i2c/mpu6050/MPU6050.c **** uint8_t MPU6050_getMotionDetectionDuration() {
 1279              		.loc 1 555 46 is_stmt 1 view -0
 1280              		.cfi_startproc
 1281              		@ args = 0, pretend = 0, frame = 0
 1282              		@ frame_needed = 0, uses_anonymous_args = 0
 1283 0000 10B5     		push	{r4, lr}
 1284              	.LCFI48:
 1285              		.cfi_def_cfa_offset 8
 1286              		.cfi_offset 4, -8
 1287              		.cfi_offset 14, -4
 556:Libraries/ctrl_drv/i2c/mpu6050/MPU6050.c ****     I2Cdev_readByte(mpu6050.devAddr, MPU6050_RA_MOT_DUR, mpu6050.buffer);
 1288              		.loc 1 556 5 view .LVU159
 1289 0002 044A     		ldr	r2, .L130
 1290 0004 541E     		subs	r4, r2, #1
 1291 0006 2021     		movs	r1, #32
 1292 0008 12F8010C 		ldrb	r0, [r2, #-1]	@ zero_extendqisi2
 1293 000c FFF7FEFF 		bl	I2Cdev_readByte
 1294              	.LVL53:
 557:Libraries/ctrl_drv/i2c/mpu6050/MPU6050.c ****     return mpu6050.buffer[0];
 1295              		.loc 1 557 5 view .LVU160
 558:Libraries/ctrl_drv/i2c/mpu6050/MPU6050.c **** }
 1296              		.loc 1 558 1 is_stmt 0 view .LVU161
 1297 0010 6078     		ldrb	r0, [r4, #1]	@ zero_extendqisi2
 1298 0012 10BD     		pop	{r4, pc}
 1299              	.L131:
 1300              		.align	2
 1301              	.L130:
 1302 0014 01000000 		.word	mpu6050+1
 1303              		.cfi_endproc
 1304              	.LFE31:
 1306              		.section	.text.MPU6050_setMotionDetectionDuration,"ax",%progbits
 1307              		.align	1
 1308              		.global	MPU6050_setMotionDetectionDuration
ARM GAS  C:\Users\Mxuan\AppData\Local\Temp\ccfnFihP.s 			page 33


 1309              		.syntax unified
 1310              		.thumb
 1311              		.thumb_func
 1313              	MPU6050_setMotionDetectionDuration:
 1314              	.LVL54:
 1315              	.LFB32:
 559:Libraries/ctrl_drv/i2c/mpu6050/MPU6050.c **** /** Set motion detection event duration threshold.
 560:Libraries/ctrl_drv/i2c/mpu6050/MPU6050.c ****  * @param duration New motion detection duration threshold value (LSB = 1ms)
 561:Libraries/ctrl_drv/i2c/mpu6050/MPU6050.c ****  * @see getMotionDetectionDuration()
 562:Libraries/ctrl_drv/i2c/mpu6050/MPU6050.c ****  * @see MPU6050_RA_MOT_DUR
 563:Libraries/ctrl_drv/i2c/mpu6050/MPU6050.c ****  */
 564:Libraries/ctrl_drv/i2c/mpu6050/MPU6050.c **** void MPU6050_setMotionDetectionDuration(uint8_t duration) {
 1316              		.loc 1 564 59 is_stmt 1 view -0
 1317              		.cfi_startproc
 1318              		@ args = 0, pretend = 0, frame = 0
 1319              		@ frame_needed = 0, uses_anonymous_args = 0
 1320              		.loc 1 564 59 is_stmt 0 view .LVU163
 1321 0000 08B5     		push	{r3, lr}
 1322              	.LCFI49:
 1323              		.cfi_def_cfa_offset 8
 1324              		.cfi_offset 3, -8
 1325              		.cfi_offset 14, -4
 1326 0002 0246     		mov	r2, r0
 565:Libraries/ctrl_drv/i2c/mpu6050/MPU6050.c ****     I2Cdev_writeByte(mpu6050.devAddr, MPU6050_RA_MOT_DUR, duration);
 1327              		.loc 1 565 5 is_stmt 1 view .LVU164
 1328 0004 2021     		movs	r1, #32
 1329 0006 024B     		ldr	r3, .L134
 1330 0008 1878     		ldrb	r0, [r3]	@ zero_extendqisi2
 1331              	.LVL55:
 1332              		.loc 1 565 5 is_stmt 0 view .LVU165
 1333 000a FFF7FEFF 		bl	I2Cdev_writeByte
 1334              	.LVL56:
 566:Libraries/ctrl_drv/i2c/mpu6050/MPU6050.c **** }
 1335              		.loc 1 566 1 view .LVU166
 1336 000e 08BD     		pop	{r3, pc}
 1337              	.L135:
 1338              		.align	2
 1339              	.L134:
 1340 0010 00000000 		.word	mpu6050
 1341              		.cfi_endproc
 1342              	.LFE32:
 1344              		.section	.text.MPU6050_getZeroMotionDetectionThreshold,"ax",%progbits
 1345              		.align	1
 1346              		.global	MPU6050_getZeroMotionDetectionThreshold
 1347              		.syntax unified
 1348              		.thumb
 1349              		.thumb_func
 1351              	MPU6050_getZeroMotionDetectionThreshold:
 1352              	.LFB33:
 567:Libraries/ctrl_drv/i2c/mpu6050/MPU6050.c **** 
 568:Libraries/ctrl_drv/i2c/mpu6050/MPU6050.c **** // ZRMOT_THR register
 569:Libraries/ctrl_drv/i2c/mpu6050/MPU6050.c **** 
 570:Libraries/ctrl_drv/i2c/mpu6050/MPU6050.c **** /** Get zero motion detection event acceleration threshold.
 571:Libraries/ctrl_drv/i2c/mpu6050/MPU6050.c ****  * This register configures the detection threshold for Zero Motion interrupt
 572:Libraries/ctrl_drv/i2c/mpu6050/MPU6050.c ****  * generation. The unit of ZRMOT_THR is 1LSB = 2mg. Zero Motion is detected when
 573:Libraries/ctrl_drv/i2c/mpu6050/MPU6050.c ****  * the absolute value of the accelerometer measurements for the 3 axes are each
 574:Libraries/ctrl_drv/i2c/mpu6050/MPU6050.c ****  * less than the detection threshold. This condition increments the Zero Motion
ARM GAS  C:\Users\Mxuan\AppData\Local\Temp\ccfnFihP.s 			page 34


 575:Libraries/ctrl_drv/i2c/mpu6050/MPU6050.c ****  * duration counter (Register 34). The Zero Motion interrupt is triggered when
 576:Libraries/ctrl_drv/i2c/mpu6050/MPU6050.c ****  * the Zero Motion duration counter reaches the time count specified in
 577:Libraries/ctrl_drv/i2c/mpu6050/MPU6050.c ****  * ZRMOT_DUR (Register 34).
 578:Libraries/ctrl_drv/i2c/mpu6050/MPU6050.c ****  *
 579:Libraries/ctrl_drv/i2c/mpu6050/MPU6050.c ****  * Unlike Free Fall or Motion detection, Zero Motion detection triggers an
 580:Libraries/ctrl_drv/i2c/mpu6050/MPU6050.c ****  * interrupt both when Zero Motion is first detected and when Zero Motion is no
 581:Libraries/ctrl_drv/i2c/mpu6050/MPU6050.c ****  * longer detected.
 582:Libraries/ctrl_drv/i2c/mpu6050/MPU6050.c ****  *
 583:Libraries/ctrl_drv/i2c/mpu6050/MPU6050.c ****  * When a zero motion event is detected, a Zero Motion Status will be indicated
 584:Libraries/ctrl_drv/i2c/mpu6050/MPU6050.c ****  * in the MOT_DETECT_STATUS register (Register 97). When a motion-to-zero-motion
 585:Libraries/ctrl_drv/i2c/mpu6050/MPU6050.c ****  * condition is detected, the status bit is set to 1. When a zero-motion-to-
 586:Libraries/ctrl_drv/i2c/mpu6050/MPU6050.c ****  * motion condition is detected, the status bit is set to 0.
 587:Libraries/ctrl_drv/i2c/mpu6050/MPU6050.c ****  *
 588:Libraries/ctrl_drv/i2c/mpu6050/MPU6050.c ****  * For more details on the Zero Motion detection interrupt, see Section 8.4 of
 589:Libraries/ctrl_drv/i2c/mpu6050/MPU6050.c ****  * the MPU-6000/MPU-6050 Product Specification document as well as Registers 56
 590:Libraries/ctrl_drv/i2c/mpu6050/MPU6050.c ****  * and 58 of this document.
 591:Libraries/ctrl_drv/i2c/mpu6050/MPU6050.c ****  *
 592:Libraries/ctrl_drv/i2c/mpu6050/MPU6050.c ****  * @return Current zero motion detection acceleration threshold value (LSB = 2mg)
 593:Libraries/ctrl_drv/i2c/mpu6050/MPU6050.c ****  * @see MPU6050_RA_ZRMOT_THR
 594:Libraries/ctrl_drv/i2c/mpu6050/MPU6050.c ****  */
 595:Libraries/ctrl_drv/i2c/mpu6050/MPU6050.c **** uint8_t MPU6050_getZeroMotionDetectionThreshold() {
 1353              		.loc 1 595 51 is_stmt 1 view -0
 1354              		.cfi_startproc
 1355              		@ args = 0, pretend = 0, frame = 0
 1356              		@ frame_needed = 0, uses_anonymous_args = 0
 1357 0000 10B5     		push	{r4, lr}
 1358              	.LCFI50:
 1359              		.cfi_def_cfa_offset 8
 1360              		.cfi_offset 4, -8
 1361              		.cfi_offset 14, -4
 596:Libraries/ctrl_drv/i2c/mpu6050/MPU6050.c ****     I2Cdev_readByte(mpu6050.devAddr, MPU6050_RA_ZRMOT_THR, mpu6050.buffer);
 1362              		.loc 1 596 5 view .LVU168
 1363 0002 044A     		ldr	r2, .L138
 1364 0004 541E     		subs	r4, r2, #1
 1365 0006 2121     		movs	r1, #33
 1366 0008 12F8010C 		ldrb	r0, [r2, #-1]	@ zero_extendqisi2
 1367 000c FFF7FEFF 		bl	I2Cdev_readByte
 1368              	.LVL57:
 597:Libraries/ctrl_drv/i2c/mpu6050/MPU6050.c ****     return mpu6050.buffer[0];
 1369              		.loc 1 597 5 view .LVU169
 598:Libraries/ctrl_drv/i2c/mpu6050/MPU6050.c **** }
 1370              		.loc 1 598 1 is_stmt 0 view .LVU170
 1371 0010 6078     		ldrb	r0, [r4, #1]	@ zero_extendqisi2
 1372 0012 10BD     		pop	{r4, pc}
 1373              	.L139:
 1374              		.align	2
 1375              	.L138:
 1376 0014 01000000 		.word	mpu6050+1
 1377              		.cfi_endproc
 1378              	.LFE33:
 1380              		.section	.text.MPU6050_setZeroMotionDetectionThreshold,"ax",%progbits
 1381              		.align	1
 1382              		.global	MPU6050_setZeroMotionDetectionThreshold
 1383              		.syntax unified
 1384              		.thumb
 1385              		.thumb_func
 1387              	MPU6050_setZeroMotionDetectionThreshold:
ARM GAS  C:\Users\Mxuan\AppData\Local\Temp\ccfnFihP.s 			page 35


 1388              	.LVL58:
 1389              	.LFB34:
 599:Libraries/ctrl_drv/i2c/mpu6050/MPU6050.c **** /** Set zero motion detection event acceleration threshold.
 600:Libraries/ctrl_drv/i2c/mpu6050/MPU6050.c ****  * @param threshold New zero motion detection acceleration threshold value (LSB = 2mg)
 601:Libraries/ctrl_drv/i2c/mpu6050/MPU6050.c ****  * @see getZeroMotionDetectionThreshold()
 602:Libraries/ctrl_drv/i2c/mpu6050/MPU6050.c ****  * @see MPU6050_RA_ZRMOT_THR
 603:Libraries/ctrl_drv/i2c/mpu6050/MPU6050.c ****  */
 604:Libraries/ctrl_drv/i2c/mpu6050/MPU6050.c **** void MPU6050_setZeroMotionDetectionThreshold(uint8_t threshold) {
 1390              		.loc 1 604 65 is_stmt 1 view -0
 1391              		.cfi_startproc
 1392              		@ args = 0, pretend = 0, frame = 0
 1393              		@ frame_needed = 0, uses_anonymous_args = 0
 1394              		.loc 1 604 65 is_stmt 0 view .LVU172
 1395 0000 08B5     		push	{r3, lr}
 1396              	.LCFI51:
 1397              		.cfi_def_cfa_offset 8
 1398              		.cfi_offset 3, -8
 1399              		.cfi_offset 14, -4
 1400 0002 0246     		mov	r2, r0
 605:Libraries/ctrl_drv/i2c/mpu6050/MPU6050.c ****     I2Cdev_writeByte(mpu6050.devAddr, MPU6050_RA_ZRMOT_THR, threshold);
 1401              		.loc 1 605 5 is_stmt 1 view .LVU173
 1402 0004 2121     		movs	r1, #33
 1403 0006 024B     		ldr	r3, .L142
 1404 0008 1878     		ldrb	r0, [r3]	@ zero_extendqisi2
 1405              	.LVL59:
 1406              		.loc 1 605 5 is_stmt 0 view .LVU174
 1407 000a FFF7FEFF 		bl	I2Cdev_writeByte
 1408              	.LVL60:
 606:Libraries/ctrl_drv/i2c/mpu6050/MPU6050.c **** }
 1409              		.loc 1 606 1 view .LVU175
 1410 000e 08BD     		pop	{r3, pc}
 1411              	.L143:
 1412              		.align	2
 1413              	.L142:
 1414 0010 00000000 		.word	mpu6050
 1415              		.cfi_endproc
 1416              	.LFE34:
 1418              		.section	.text.MPU6050_getZeroMotionDetectionDuration,"ax",%progbits
 1419              		.align	1
 1420              		.global	MPU6050_getZeroMotionDetectionDuration
 1421              		.syntax unified
 1422              		.thumb
 1423              		.thumb_func
 1425              	MPU6050_getZeroMotionDetectionDuration:
 1426              	.LFB35:
 607:Libraries/ctrl_drv/i2c/mpu6050/MPU6050.c **** 
 608:Libraries/ctrl_drv/i2c/mpu6050/MPU6050.c **** // ZRMOT_DUR register
 609:Libraries/ctrl_drv/i2c/mpu6050/MPU6050.c **** 
 610:Libraries/ctrl_drv/i2c/mpu6050/MPU6050.c **** /** Get zero motion detection event duration threshold.
 611:Libraries/ctrl_drv/i2c/mpu6050/MPU6050.c ****  * This register configures the duration counter threshold for Zero Motion
 612:Libraries/ctrl_drv/i2c/mpu6050/MPU6050.c ****  * interrupt generation. The duration counter ticks at 16 Hz, therefore
 613:Libraries/ctrl_drv/i2c/mpu6050/MPU6050.c ****  * ZRMOT_DUR has a unit of 1 LSB = 64 ms. The Zero Motion duration counter
 614:Libraries/ctrl_drv/i2c/mpu6050/MPU6050.c ****  * increments while the absolute value of the accelerometer measurements are
 615:Libraries/ctrl_drv/i2c/mpu6050/MPU6050.c ****  * each less than the detection threshold (Register 33). The Zero Motion
 616:Libraries/ctrl_drv/i2c/mpu6050/MPU6050.c ****  * interrupt is triggered when the Zero Motion duration counter reaches the time
 617:Libraries/ctrl_drv/i2c/mpu6050/MPU6050.c ****  * count specified in this register.
 618:Libraries/ctrl_drv/i2c/mpu6050/MPU6050.c ****  *
ARM GAS  C:\Users\Mxuan\AppData\Local\Temp\ccfnFihP.s 			page 36


 619:Libraries/ctrl_drv/i2c/mpu6050/MPU6050.c ****  * For more details on the Zero Motion detection interrupt, see Section 8.4 of
 620:Libraries/ctrl_drv/i2c/mpu6050/MPU6050.c ****  * the MPU-6000/MPU-6050 Product Specification document, as well as Registers 56
 621:Libraries/ctrl_drv/i2c/mpu6050/MPU6050.c ****  * and 58 of this document.
 622:Libraries/ctrl_drv/i2c/mpu6050/MPU6050.c ****  *
 623:Libraries/ctrl_drv/i2c/mpu6050/MPU6050.c ****  * @return Current zero motion detection duration threshold value (LSB = 64ms)
 624:Libraries/ctrl_drv/i2c/mpu6050/MPU6050.c ****  * @see MPU6050_RA_ZRMOT_DUR
 625:Libraries/ctrl_drv/i2c/mpu6050/MPU6050.c ****  */
 626:Libraries/ctrl_drv/i2c/mpu6050/MPU6050.c **** uint8_t MPU6050_getZeroMotionDetectionDuration() {
 1427              		.loc 1 626 50 is_stmt 1 view -0
 1428              		.cfi_startproc
 1429              		@ args = 0, pretend = 0, frame = 0
 1430              		@ frame_needed = 0, uses_anonymous_args = 0
 1431 0000 10B5     		push	{r4, lr}
 1432              	.LCFI52:
 1433              		.cfi_def_cfa_offset 8
 1434              		.cfi_offset 4, -8
 1435              		.cfi_offset 14, -4
 627:Libraries/ctrl_drv/i2c/mpu6050/MPU6050.c ****     I2Cdev_readByte(mpu6050.devAddr, MPU6050_RA_ZRMOT_DUR, mpu6050.buffer);
 1436              		.loc 1 627 5 view .LVU177
 1437 0002 044A     		ldr	r2, .L146
 1438 0004 541E     		subs	r4, r2, #1
 1439 0006 2221     		movs	r1, #34
 1440 0008 12F8010C 		ldrb	r0, [r2, #-1]	@ zero_extendqisi2
 1441 000c FFF7FEFF 		bl	I2Cdev_readByte
 1442              	.LVL61:
 628:Libraries/ctrl_drv/i2c/mpu6050/MPU6050.c ****     return mpu6050.buffer[0];
 1443              		.loc 1 628 5 view .LVU178
 629:Libraries/ctrl_drv/i2c/mpu6050/MPU6050.c **** }
 1444              		.loc 1 629 1 is_stmt 0 view .LVU179
 1445 0010 6078     		ldrb	r0, [r4, #1]	@ zero_extendqisi2
 1446 0012 10BD     		pop	{r4, pc}
 1447              	.L147:
 1448              		.align	2
 1449              	.L146:
 1450 0014 01000000 		.word	mpu6050+1
 1451              		.cfi_endproc
 1452              	.LFE35:
 1454              		.section	.text.MPU6050_setZeroMotionDetectionDuration,"ax",%progbits
 1455              		.align	1
 1456              		.global	MPU6050_setZeroMotionDetectionDuration
 1457              		.syntax unified
 1458              		.thumb
 1459              		.thumb_func
 1461              	MPU6050_setZeroMotionDetectionDuration:
 1462              	.LVL62:
 1463              	.LFB36:
 630:Libraries/ctrl_drv/i2c/mpu6050/MPU6050.c **** /** Set zero motion detection event duration threshold.
 631:Libraries/ctrl_drv/i2c/mpu6050/MPU6050.c ****  * @param duration New zero motion detection duration threshold value (LSB = 1ms)
 632:Libraries/ctrl_drv/i2c/mpu6050/MPU6050.c ****  * @see getZeroMotionDetectionDuration()
 633:Libraries/ctrl_drv/i2c/mpu6050/MPU6050.c ****  * @see MPU6050_RA_ZRMOT_DUR
 634:Libraries/ctrl_drv/i2c/mpu6050/MPU6050.c ****  */
 635:Libraries/ctrl_drv/i2c/mpu6050/MPU6050.c **** void MPU6050_setZeroMotionDetectionDuration(uint8_t duration) {
 1464              		.loc 1 635 63 is_stmt 1 view -0
 1465              		.cfi_startproc
 1466              		@ args = 0, pretend = 0, frame = 0
 1467              		@ frame_needed = 0, uses_anonymous_args = 0
 1468              		.loc 1 635 63 is_stmt 0 view .LVU181
ARM GAS  C:\Users\Mxuan\AppData\Local\Temp\ccfnFihP.s 			page 37


 1469 0000 08B5     		push	{r3, lr}
 1470              	.LCFI53:
 1471              		.cfi_def_cfa_offset 8
 1472              		.cfi_offset 3, -8
 1473              		.cfi_offset 14, -4
 1474 0002 0246     		mov	r2, r0
 636:Libraries/ctrl_drv/i2c/mpu6050/MPU6050.c ****     I2Cdev_writeByte(mpu6050.devAddr, MPU6050_RA_ZRMOT_DUR, duration);
 1475              		.loc 1 636 5 is_stmt 1 view .LVU182
 1476 0004 2221     		movs	r1, #34
 1477 0006 024B     		ldr	r3, .L150
 1478 0008 1878     		ldrb	r0, [r3]	@ zero_extendqisi2
 1479              	.LVL63:
 1480              		.loc 1 636 5 is_stmt 0 view .LVU183
 1481 000a FFF7FEFF 		bl	I2Cdev_writeByte
 1482              	.LVL64:
 637:Libraries/ctrl_drv/i2c/mpu6050/MPU6050.c **** }
 1483              		.loc 1 637 1 view .LVU184
 1484 000e 08BD     		pop	{r3, pc}
 1485              	.L151:
 1486              		.align	2
 1487              	.L150:
 1488 0010 00000000 		.word	mpu6050
 1489              		.cfi_endproc
 1490              	.LFE36:
 1492              		.section	.text.MPU6050_getTempFIFOEnabled,"ax",%progbits
 1493              		.align	1
 1494              		.global	MPU6050_getTempFIFOEnabled
 1495              		.syntax unified
 1496              		.thumb
 1497              		.thumb_func
 1499              	MPU6050_getTempFIFOEnabled:
 1500              	.LFB37:
 638:Libraries/ctrl_drv/i2c/mpu6050/MPU6050.c **** 
 639:Libraries/ctrl_drv/i2c/mpu6050/MPU6050.c **** // FIFO_EN register
 640:Libraries/ctrl_drv/i2c/mpu6050/MPU6050.c **** 
 641:Libraries/ctrl_drv/i2c/mpu6050/MPU6050.c **** /** Get temperature FIFO enabled value.
 642:Libraries/ctrl_drv/i2c/mpu6050/MPU6050.c ****  * When set to 1, this bit enables TEMP_OUT_H and TEMP_OUT_L (Registers 65 and
 643:Libraries/ctrl_drv/i2c/mpu6050/MPU6050.c ****  * 66) to be written into the FIFO mpu6050.buffer.
 644:Libraries/ctrl_drv/i2c/mpu6050/MPU6050.c ****  * @return Current temperature FIFO enabled value
 645:Libraries/ctrl_drv/i2c/mpu6050/MPU6050.c ****  * @see MPU6050_RA_FIFO_EN
 646:Libraries/ctrl_drv/i2c/mpu6050/MPU6050.c ****  */
 647:Libraries/ctrl_drv/i2c/mpu6050/MPU6050.c **** bool MPU6050_getTempFIFOEnabled() {
 1501              		.loc 1 647 35 is_stmt 1 view -0
 1502              		.cfi_startproc
 1503              		@ args = 0, pretend = 0, frame = 0
 1504              		@ frame_needed = 0, uses_anonymous_args = 0
 1505 0000 10B5     		push	{r4, lr}
 1506              	.LCFI54:
 1507              		.cfi_def_cfa_offset 8
 1508              		.cfi_offset 4, -8
 1509              		.cfi_offset 14, -4
 648:Libraries/ctrl_drv/i2c/mpu6050/MPU6050.c ****     I2Cdev_readBit(mpu6050.devAddr, MPU6050_RA_FIFO_EN, MPU6050_TEMP_FIFO_EN_BIT, mpu6050.buffer);
 1510              		.loc 1 648 5 view .LVU186
 1511 0002 064B     		ldr	r3, .L154
 1512 0004 5C1E     		subs	r4, r3, #1
 1513 0006 0722     		movs	r2, #7
 1514 0008 2321     		movs	r1, #35
ARM GAS  C:\Users\Mxuan\AppData\Local\Temp\ccfnFihP.s 			page 38


 1515 000a 13F8010C 		ldrb	r0, [r3, #-1]	@ zero_extendqisi2
 1516 000e FFF7FEFF 		bl	I2Cdev_readBit
 1517              	.LVL65:
 649:Libraries/ctrl_drv/i2c/mpu6050/MPU6050.c ****     return mpu6050.buffer[0];
 1518              		.loc 1 649 5 view .LVU187
 1519              		.loc 1 649 26 is_stmt 0 view .LVU188
 1520 0012 6078     		ldrb	r0, [r4, #1]	@ zero_extendqisi2
 650:Libraries/ctrl_drv/i2c/mpu6050/MPU6050.c **** }
 1521              		.loc 1 650 1 view .LVU189
 1522 0014 0038     		subs	r0, r0, #0
 1523 0016 18BF     		it	ne
 1524 0018 0120     		movne	r0, #1
 1525 001a 10BD     		pop	{r4, pc}
 1526              	.L155:
 1527              		.align	2
 1528              	.L154:
 1529 001c 01000000 		.word	mpu6050+1
 1530              		.cfi_endproc
 1531              	.LFE37:
 1533              		.section	.text.MPU6050_setTempFIFOEnabled,"ax",%progbits
 1534              		.align	1
 1535              		.global	MPU6050_setTempFIFOEnabled
 1536              		.syntax unified
 1537              		.thumb
 1538              		.thumb_func
 1540              	MPU6050_setTempFIFOEnabled:
 1541              	.LVL66:
 1542              	.LFB38:
 651:Libraries/ctrl_drv/i2c/mpu6050/MPU6050.c **** /** Set temperature FIFO enabled value.
 652:Libraries/ctrl_drv/i2c/mpu6050/MPU6050.c ****  * @param enabled New temperature FIFO enabled value
 653:Libraries/ctrl_drv/i2c/mpu6050/MPU6050.c ****  * @see getTempFIFOEnabled()
 654:Libraries/ctrl_drv/i2c/mpu6050/MPU6050.c ****  * @see MPU6050_RA_FIFO_EN
 655:Libraries/ctrl_drv/i2c/mpu6050/MPU6050.c ****  */
 656:Libraries/ctrl_drv/i2c/mpu6050/MPU6050.c **** void MPU6050_setTempFIFOEnabled(bool enabled) {
 1543              		.loc 1 656 47 is_stmt 1 view -0
 1544              		.cfi_startproc
 1545              		@ args = 0, pretend = 0, frame = 0
 1546              		@ frame_needed = 0, uses_anonymous_args = 0
 1547              		.loc 1 656 47 is_stmt 0 view .LVU191
 1548 0000 08B5     		push	{r3, lr}
 1549              	.LCFI55:
 1550              		.cfi_def_cfa_offset 8
 1551              		.cfi_offset 3, -8
 1552              		.cfi_offset 14, -4
 1553 0002 0346     		mov	r3, r0
 657:Libraries/ctrl_drv/i2c/mpu6050/MPU6050.c ****     I2Cdev_writeBit(mpu6050.devAddr, MPU6050_RA_FIFO_EN, MPU6050_TEMP_FIFO_EN_BIT, enabled);
 1554              		.loc 1 657 5 is_stmt 1 view .LVU192
 1555 0004 0722     		movs	r2, #7
 1556 0006 2321     		movs	r1, #35
 1557 0008 0248     		ldr	r0, .L158
 1558              	.LVL67:
 1559              		.loc 1 657 5 is_stmt 0 view .LVU193
 1560 000a 0078     		ldrb	r0, [r0]	@ zero_extendqisi2
 1561 000c FFF7FEFF 		bl	I2Cdev_writeBit
 1562              	.LVL68:
 658:Libraries/ctrl_drv/i2c/mpu6050/MPU6050.c **** }
 1563              		.loc 1 658 1 view .LVU194
ARM GAS  C:\Users\Mxuan\AppData\Local\Temp\ccfnFihP.s 			page 39


 1564 0010 08BD     		pop	{r3, pc}
 1565              	.L159:
 1566 0012 00BF     		.align	2
 1567              	.L158:
 1568 0014 00000000 		.word	mpu6050
 1569              		.cfi_endproc
 1570              	.LFE38:
 1572              		.section	.text.MPU6050_getXGyroFIFOEnabled,"ax",%progbits
 1573              		.align	1
 1574              		.global	MPU6050_getXGyroFIFOEnabled
 1575              		.syntax unified
 1576              		.thumb
 1577              		.thumb_func
 1579              	MPU6050_getXGyroFIFOEnabled:
 1580              	.LFB39:
 659:Libraries/ctrl_drv/i2c/mpu6050/MPU6050.c **** /** Get gyroscope X-axis FIFO enabled value.
 660:Libraries/ctrl_drv/i2c/mpu6050/MPU6050.c ****  * When set to 1, this bit enables GYRO_XOUT_H and GYRO_XOUT_L (Registers 67 and
 661:Libraries/ctrl_drv/i2c/mpu6050/MPU6050.c ****  * 68) to be written into the FIFO mpu6050.buffer.
 662:Libraries/ctrl_drv/i2c/mpu6050/MPU6050.c ****  * @return Current gyroscope X-axis FIFO enabled value
 663:Libraries/ctrl_drv/i2c/mpu6050/MPU6050.c ****  * @see MPU6050_RA_FIFO_EN
 664:Libraries/ctrl_drv/i2c/mpu6050/MPU6050.c ****  */
 665:Libraries/ctrl_drv/i2c/mpu6050/MPU6050.c **** bool MPU6050_getXGyroFIFOEnabled() {
 1581              		.loc 1 665 36 is_stmt 1 view -0
 1582              		.cfi_startproc
 1583              		@ args = 0, pretend = 0, frame = 0
 1584              		@ frame_needed = 0, uses_anonymous_args = 0
 1585 0000 10B5     		push	{r4, lr}
 1586              	.LCFI56:
 1587              		.cfi_def_cfa_offset 8
 1588              		.cfi_offset 4, -8
 1589              		.cfi_offset 14, -4
 666:Libraries/ctrl_drv/i2c/mpu6050/MPU6050.c ****     I2Cdev_readBit(mpu6050.devAddr, MPU6050_RA_FIFO_EN, MPU6050_XG_FIFO_EN_BIT, mpu6050.buffer);
 1590              		.loc 1 666 5 view .LVU196
 1591 0002 064B     		ldr	r3, .L162
 1592 0004 5C1E     		subs	r4, r3, #1
 1593 0006 0622     		movs	r2, #6
 1594 0008 2321     		movs	r1, #35
 1595 000a 13F8010C 		ldrb	r0, [r3, #-1]	@ zero_extendqisi2
 1596 000e FFF7FEFF 		bl	I2Cdev_readBit
 1597              	.LVL69:
 667:Libraries/ctrl_drv/i2c/mpu6050/MPU6050.c ****     return mpu6050.buffer[0];
 1598              		.loc 1 667 5 view .LVU197
 1599              		.loc 1 667 26 is_stmt 0 view .LVU198
 1600 0012 6078     		ldrb	r0, [r4, #1]	@ zero_extendqisi2
 668:Libraries/ctrl_drv/i2c/mpu6050/MPU6050.c **** }
 1601              		.loc 1 668 1 view .LVU199
 1602 0014 0038     		subs	r0, r0, #0
 1603 0016 18BF     		it	ne
 1604 0018 0120     		movne	r0, #1
 1605 001a 10BD     		pop	{r4, pc}
 1606              	.L163:
 1607              		.align	2
 1608              	.L162:
 1609 001c 01000000 		.word	mpu6050+1
 1610              		.cfi_endproc
 1611              	.LFE39:
 1613              		.section	.text.MPU6050_setXGyroFIFOEnabled,"ax",%progbits
ARM GAS  C:\Users\Mxuan\AppData\Local\Temp\ccfnFihP.s 			page 40


 1614              		.align	1
 1615              		.global	MPU6050_setXGyroFIFOEnabled
 1616              		.syntax unified
 1617              		.thumb
 1618              		.thumb_func
 1620              	MPU6050_setXGyroFIFOEnabled:
 1621              	.LVL70:
 1622              	.LFB40:
 669:Libraries/ctrl_drv/i2c/mpu6050/MPU6050.c **** /** Set gyroscope X-axis FIFO enabled value.
 670:Libraries/ctrl_drv/i2c/mpu6050/MPU6050.c ****  * @param enabled New gyroscope X-axis FIFO enabled value
 671:Libraries/ctrl_drv/i2c/mpu6050/MPU6050.c ****  * @see getXGyroFIFOEnabled()
 672:Libraries/ctrl_drv/i2c/mpu6050/MPU6050.c ****  * @see MPU6050_RA_FIFO_EN
 673:Libraries/ctrl_drv/i2c/mpu6050/MPU6050.c ****  */
 674:Libraries/ctrl_drv/i2c/mpu6050/MPU6050.c **** void MPU6050_setXGyroFIFOEnabled(bool enabled) {
 1623              		.loc 1 674 48 is_stmt 1 view -0
 1624              		.cfi_startproc
 1625              		@ args = 0, pretend = 0, frame = 0
 1626              		@ frame_needed = 0, uses_anonymous_args = 0
 1627              		.loc 1 674 48 is_stmt 0 view .LVU201
 1628 0000 08B5     		push	{r3, lr}
 1629              	.LCFI57:
 1630              		.cfi_def_cfa_offset 8
 1631              		.cfi_offset 3, -8
 1632              		.cfi_offset 14, -4
 1633 0002 0346     		mov	r3, r0
 675:Libraries/ctrl_drv/i2c/mpu6050/MPU6050.c ****     I2Cdev_writeBit(mpu6050.devAddr, MPU6050_RA_FIFO_EN, MPU6050_XG_FIFO_EN_BIT, enabled);
 1634              		.loc 1 675 5 is_stmt 1 view .LVU202
 1635 0004 0622     		movs	r2, #6
 1636 0006 2321     		movs	r1, #35
 1637 0008 0248     		ldr	r0, .L166
 1638              	.LVL71:
 1639              		.loc 1 675 5 is_stmt 0 view .LVU203
 1640 000a 0078     		ldrb	r0, [r0]	@ zero_extendqisi2
 1641 000c FFF7FEFF 		bl	I2Cdev_writeBit
 1642              	.LVL72:
 676:Libraries/ctrl_drv/i2c/mpu6050/MPU6050.c **** }
 1643              		.loc 1 676 1 view .LVU204
 1644 0010 08BD     		pop	{r3, pc}
 1645              	.L167:
 1646 0012 00BF     		.align	2
 1647              	.L166:
 1648 0014 00000000 		.word	mpu6050
 1649              		.cfi_endproc
 1650              	.LFE40:
 1652              		.section	.text.MPU6050_getYGyroFIFOEnabled,"ax",%progbits
 1653              		.align	1
 1654              		.global	MPU6050_getYGyroFIFOEnabled
 1655              		.syntax unified
 1656              		.thumb
 1657              		.thumb_func
 1659              	MPU6050_getYGyroFIFOEnabled:
 1660              	.LFB41:
 677:Libraries/ctrl_drv/i2c/mpu6050/MPU6050.c **** /** Get gyroscope Y-axis FIFO enabled value.
 678:Libraries/ctrl_drv/i2c/mpu6050/MPU6050.c ****  * When set to 1, this bit enables GYRO_YOUT_H and GYRO_YOUT_L (Registers 69 and
 679:Libraries/ctrl_drv/i2c/mpu6050/MPU6050.c ****  * 70) to be written into the FIFO mpu6050.buffer.
 680:Libraries/ctrl_drv/i2c/mpu6050/MPU6050.c ****  * @return Current gyroscope Y-axis FIFO enabled value
 681:Libraries/ctrl_drv/i2c/mpu6050/MPU6050.c ****  * @see MPU6050_RA_FIFO_EN
ARM GAS  C:\Users\Mxuan\AppData\Local\Temp\ccfnFihP.s 			page 41


 682:Libraries/ctrl_drv/i2c/mpu6050/MPU6050.c ****  */
 683:Libraries/ctrl_drv/i2c/mpu6050/MPU6050.c **** bool MPU6050_getYGyroFIFOEnabled() {
 1661              		.loc 1 683 36 is_stmt 1 view -0
 1662              		.cfi_startproc
 1663              		@ args = 0, pretend = 0, frame = 0
 1664              		@ frame_needed = 0, uses_anonymous_args = 0
 1665 0000 10B5     		push	{r4, lr}
 1666              	.LCFI58:
 1667              		.cfi_def_cfa_offset 8
 1668              		.cfi_offset 4, -8
 1669              		.cfi_offset 14, -4
 684:Libraries/ctrl_drv/i2c/mpu6050/MPU6050.c ****     I2Cdev_readBit(mpu6050.devAddr, MPU6050_RA_FIFO_EN, MPU6050_YG_FIFO_EN_BIT, mpu6050.buffer);
 1670              		.loc 1 684 5 view .LVU206
 1671 0002 064B     		ldr	r3, .L170
 1672 0004 5C1E     		subs	r4, r3, #1
 1673 0006 0522     		movs	r2, #5
 1674 0008 2321     		movs	r1, #35
 1675 000a 13F8010C 		ldrb	r0, [r3, #-1]	@ zero_extendqisi2
 1676 000e FFF7FEFF 		bl	I2Cdev_readBit
 1677              	.LVL73:
 685:Libraries/ctrl_drv/i2c/mpu6050/MPU6050.c ****     return mpu6050.buffer[0];
 1678              		.loc 1 685 5 view .LVU207
 1679              		.loc 1 685 26 is_stmt 0 view .LVU208
 1680 0012 6078     		ldrb	r0, [r4, #1]	@ zero_extendqisi2
 686:Libraries/ctrl_drv/i2c/mpu6050/MPU6050.c **** }
 1681              		.loc 1 686 1 view .LVU209
 1682 0014 0038     		subs	r0, r0, #0
 1683 0016 18BF     		it	ne
 1684 0018 0120     		movne	r0, #1
 1685 001a 10BD     		pop	{r4, pc}
 1686              	.L171:
 1687              		.align	2
 1688              	.L170:
 1689 001c 01000000 		.word	mpu6050+1
 1690              		.cfi_endproc
 1691              	.LFE41:
 1693              		.section	.text.MPU6050_setYGyroFIFOEnabled,"ax",%progbits
 1694              		.align	1
 1695              		.global	MPU6050_setYGyroFIFOEnabled
 1696              		.syntax unified
 1697              		.thumb
 1698              		.thumb_func
 1700              	MPU6050_setYGyroFIFOEnabled:
 1701              	.LVL74:
 1702              	.LFB42:
 687:Libraries/ctrl_drv/i2c/mpu6050/MPU6050.c **** /** Set gyroscope Y-axis FIFO enabled value.
 688:Libraries/ctrl_drv/i2c/mpu6050/MPU6050.c ****  * @param enabled New gyroscope Y-axis FIFO enabled value
 689:Libraries/ctrl_drv/i2c/mpu6050/MPU6050.c ****  * @see getYGyroFIFOEnabled()
 690:Libraries/ctrl_drv/i2c/mpu6050/MPU6050.c ****  * @see MPU6050_RA_FIFO_EN
 691:Libraries/ctrl_drv/i2c/mpu6050/MPU6050.c ****  */
 692:Libraries/ctrl_drv/i2c/mpu6050/MPU6050.c **** void MPU6050_setYGyroFIFOEnabled(bool enabled) {
 1703              		.loc 1 692 48 is_stmt 1 view -0
 1704              		.cfi_startproc
 1705              		@ args = 0, pretend = 0, frame = 0
 1706              		@ frame_needed = 0, uses_anonymous_args = 0
 1707              		.loc 1 692 48 is_stmt 0 view .LVU211
 1708 0000 08B5     		push	{r3, lr}
ARM GAS  C:\Users\Mxuan\AppData\Local\Temp\ccfnFihP.s 			page 42


 1709              	.LCFI59:
 1710              		.cfi_def_cfa_offset 8
 1711              		.cfi_offset 3, -8
 1712              		.cfi_offset 14, -4
 1713 0002 0346     		mov	r3, r0
 693:Libraries/ctrl_drv/i2c/mpu6050/MPU6050.c ****     I2Cdev_writeBit(mpu6050.devAddr, MPU6050_RA_FIFO_EN, MPU6050_YG_FIFO_EN_BIT, enabled);
 1714              		.loc 1 693 5 is_stmt 1 view .LVU212
 1715 0004 0522     		movs	r2, #5
 1716 0006 2321     		movs	r1, #35
 1717 0008 0248     		ldr	r0, .L174
 1718              	.LVL75:
 1719              		.loc 1 693 5 is_stmt 0 view .LVU213
 1720 000a 0078     		ldrb	r0, [r0]	@ zero_extendqisi2
 1721 000c FFF7FEFF 		bl	I2Cdev_writeBit
 1722              	.LVL76:
 694:Libraries/ctrl_drv/i2c/mpu6050/MPU6050.c **** }
 1723              		.loc 1 694 1 view .LVU214
 1724 0010 08BD     		pop	{r3, pc}
 1725              	.L175:
 1726 0012 00BF     		.align	2
 1727              	.L174:
 1728 0014 00000000 		.word	mpu6050
 1729              		.cfi_endproc
 1730              	.LFE42:
 1732              		.section	.text.MPU6050_getZGyroFIFOEnabled,"ax",%progbits
 1733              		.align	1
 1734              		.global	MPU6050_getZGyroFIFOEnabled
 1735              		.syntax unified
 1736              		.thumb
 1737              		.thumb_func
 1739              	MPU6050_getZGyroFIFOEnabled:
 1740              	.LFB43:
 695:Libraries/ctrl_drv/i2c/mpu6050/MPU6050.c **** /** Get gyroscope Z-axis FIFO enabled value.
 696:Libraries/ctrl_drv/i2c/mpu6050/MPU6050.c ****  * When set to 1, this bit enables GYRO_ZOUT_H and GYRO_ZOUT_L (Registers 71 and
 697:Libraries/ctrl_drv/i2c/mpu6050/MPU6050.c ****  * 72) to be written into the FIFO mpu6050.buffer.
 698:Libraries/ctrl_drv/i2c/mpu6050/MPU6050.c ****  * @return Current gyroscope Z-axis FIFO enabled value
 699:Libraries/ctrl_drv/i2c/mpu6050/MPU6050.c ****  * @see MPU6050_RA_FIFO_EN
 700:Libraries/ctrl_drv/i2c/mpu6050/MPU6050.c ****  */
 701:Libraries/ctrl_drv/i2c/mpu6050/MPU6050.c **** bool MPU6050_getZGyroFIFOEnabled() {
 1741              		.loc 1 701 36 is_stmt 1 view -0
 1742              		.cfi_startproc
 1743              		@ args = 0, pretend = 0, frame = 0
 1744              		@ frame_needed = 0, uses_anonymous_args = 0
 1745 0000 10B5     		push	{r4, lr}
 1746              	.LCFI60:
 1747              		.cfi_def_cfa_offset 8
 1748              		.cfi_offset 4, -8
 1749              		.cfi_offset 14, -4
 702:Libraries/ctrl_drv/i2c/mpu6050/MPU6050.c ****     I2Cdev_readBit(mpu6050.devAddr, MPU6050_RA_FIFO_EN, MPU6050_ZG_FIFO_EN_BIT, mpu6050.buffer);
 1750              		.loc 1 702 5 view .LVU216
 1751 0002 064B     		ldr	r3, .L178
 1752 0004 5C1E     		subs	r4, r3, #1
 1753 0006 0422     		movs	r2, #4
 1754 0008 2321     		movs	r1, #35
 1755 000a 13F8010C 		ldrb	r0, [r3, #-1]	@ zero_extendqisi2
 1756 000e FFF7FEFF 		bl	I2Cdev_readBit
 1757              	.LVL77:
ARM GAS  C:\Users\Mxuan\AppData\Local\Temp\ccfnFihP.s 			page 43


 703:Libraries/ctrl_drv/i2c/mpu6050/MPU6050.c ****     return mpu6050.buffer[0];
 1758              		.loc 1 703 5 view .LVU217
 1759              		.loc 1 703 26 is_stmt 0 view .LVU218
 1760 0012 6078     		ldrb	r0, [r4, #1]	@ zero_extendqisi2
 704:Libraries/ctrl_drv/i2c/mpu6050/MPU6050.c **** }
 1761              		.loc 1 704 1 view .LVU219
 1762 0014 0038     		subs	r0, r0, #0
 1763 0016 18BF     		it	ne
 1764 0018 0120     		movne	r0, #1
 1765 001a 10BD     		pop	{r4, pc}
 1766              	.L179:
 1767              		.align	2
 1768              	.L178:
 1769 001c 01000000 		.word	mpu6050+1
 1770              		.cfi_endproc
 1771              	.LFE43:
 1773              		.section	.text.MPU6050_setZGyroFIFOEnabled,"ax",%progbits
 1774              		.align	1
 1775              		.global	MPU6050_setZGyroFIFOEnabled
 1776              		.syntax unified
 1777              		.thumb
 1778              		.thumb_func
 1780              	MPU6050_setZGyroFIFOEnabled:
 1781              	.LVL78:
 1782              	.LFB44:
 705:Libraries/ctrl_drv/i2c/mpu6050/MPU6050.c **** /** Set gyroscope Z-axis FIFO enabled value.
 706:Libraries/ctrl_drv/i2c/mpu6050/MPU6050.c ****  * @param enabled New gyroscope Z-axis FIFO enabled value
 707:Libraries/ctrl_drv/i2c/mpu6050/MPU6050.c ****  * @see getZGyroFIFOEnabled()
 708:Libraries/ctrl_drv/i2c/mpu6050/MPU6050.c ****  * @see MPU6050_RA_FIFO_EN
 709:Libraries/ctrl_drv/i2c/mpu6050/MPU6050.c ****  */
 710:Libraries/ctrl_drv/i2c/mpu6050/MPU6050.c **** void MPU6050_setZGyroFIFOEnabled(bool enabled) {
 1783              		.loc 1 710 48 is_stmt 1 view -0
 1784              		.cfi_startproc
 1785              		@ args = 0, pretend = 0, frame = 0
 1786              		@ frame_needed = 0, uses_anonymous_args = 0
 1787              		.loc 1 710 48 is_stmt 0 view .LVU221
 1788 0000 08B5     		push	{r3, lr}
 1789              	.LCFI61:
 1790              		.cfi_def_cfa_offset 8
 1791              		.cfi_offset 3, -8
 1792              		.cfi_offset 14, -4
 1793 0002 0346     		mov	r3, r0
 711:Libraries/ctrl_drv/i2c/mpu6050/MPU6050.c ****     I2Cdev_writeBit(mpu6050.devAddr, MPU6050_RA_FIFO_EN, MPU6050_ZG_FIFO_EN_BIT, enabled);
 1794              		.loc 1 711 5 is_stmt 1 view .LVU222
 1795 0004 0422     		movs	r2, #4
 1796 0006 2321     		movs	r1, #35
 1797 0008 0248     		ldr	r0, .L182
 1798              	.LVL79:
 1799              		.loc 1 711 5 is_stmt 0 view .LVU223
 1800 000a 0078     		ldrb	r0, [r0]	@ zero_extendqisi2
 1801 000c FFF7FEFF 		bl	I2Cdev_writeBit
 1802              	.LVL80:
 712:Libraries/ctrl_drv/i2c/mpu6050/MPU6050.c **** }
 1803              		.loc 1 712 1 view .LVU224
 1804 0010 08BD     		pop	{r3, pc}
 1805              	.L183:
 1806 0012 00BF     		.align	2
ARM GAS  C:\Users\Mxuan\AppData\Local\Temp\ccfnFihP.s 			page 44


 1807              	.L182:
 1808 0014 00000000 		.word	mpu6050
 1809              		.cfi_endproc
 1810              	.LFE44:
 1812              		.section	.text.MPU6050_getAccelFIFOEnabled,"ax",%progbits
 1813              		.align	1
 1814              		.global	MPU6050_getAccelFIFOEnabled
 1815              		.syntax unified
 1816              		.thumb
 1817              		.thumb_func
 1819              	MPU6050_getAccelFIFOEnabled:
 1820              	.LFB45:
 713:Libraries/ctrl_drv/i2c/mpu6050/MPU6050.c **** /** Get accelerometer FIFO enabled value.
 714:Libraries/ctrl_drv/i2c/mpu6050/MPU6050.c ****  * When set to 1, this bit enables ACCEL_XOUT_H, ACCEL_XOUT_L, ACCEL_YOUT_H,
 715:Libraries/ctrl_drv/i2c/mpu6050/MPU6050.c ****  * ACCEL_YOUT_L, ACCEL_ZOUT_H, and ACCEL_ZOUT_L (Registers 59 to 64) to be
 716:Libraries/ctrl_drv/i2c/mpu6050/MPU6050.c ****  * written into the FIFO mpu6050.buffer.
 717:Libraries/ctrl_drv/i2c/mpu6050/MPU6050.c ****  * @return Current accelerometer FIFO enabled value
 718:Libraries/ctrl_drv/i2c/mpu6050/MPU6050.c ****  * @see MPU6050_RA_FIFO_EN
 719:Libraries/ctrl_drv/i2c/mpu6050/MPU6050.c ****  */
 720:Libraries/ctrl_drv/i2c/mpu6050/MPU6050.c **** bool MPU6050_getAccelFIFOEnabled() {
 1821              		.loc 1 720 36 is_stmt 1 view -0
 1822              		.cfi_startproc
 1823              		@ args = 0, pretend = 0, frame = 0
 1824              		@ frame_needed = 0, uses_anonymous_args = 0
 1825 0000 10B5     		push	{r4, lr}
 1826              	.LCFI62:
 1827              		.cfi_def_cfa_offset 8
 1828              		.cfi_offset 4, -8
 1829              		.cfi_offset 14, -4
 721:Libraries/ctrl_drv/i2c/mpu6050/MPU6050.c ****     I2Cdev_readBit(mpu6050.devAddr, MPU6050_RA_FIFO_EN, MPU6050_ACCEL_FIFO_EN_BIT, mpu6050.buffer);
 1830              		.loc 1 721 5 view .LVU226
 1831 0002 064B     		ldr	r3, .L186
 1832 0004 5C1E     		subs	r4, r3, #1
 1833 0006 0322     		movs	r2, #3
 1834 0008 2321     		movs	r1, #35
 1835 000a 13F8010C 		ldrb	r0, [r3, #-1]	@ zero_extendqisi2
 1836 000e FFF7FEFF 		bl	I2Cdev_readBit
 1837              	.LVL81:
 722:Libraries/ctrl_drv/i2c/mpu6050/MPU6050.c ****     return mpu6050.buffer[0];
 1838              		.loc 1 722 5 view .LVU227
 1839              		.loc 1 722 26 is_stmt 0 view .LVU228
 1840 0012 6078     		ldrb	r0, [r4, #1]	@ zero_extendqisi2
 723:Libraries/ctrl_drv/i2c/mpu6050/MPU6050.c **** }
 1841              		.loc 1 723 1 view .LVU229
 1842 0014 0038     		subs	r0, r0, #0
 1843 0016 18BF     		it	ne
 1844 0018 0120     		movne	r0, #1
 1845 001a 10BD     		pop	{r4, pc}
 1846              	.L187:
 1847              		.align	2
 1848              	.L186:
 1849 001c 01000000 		.word	mpu6050+1
 1850              		.cfi_endproc
 1851              	.LFE45:
 1853              		.section	.text.MPU6050_setAccelFIFOEnabled,"ax",%progbits
 1854              		.align	1
 1855              		.global	MPU6050_setAccelFIFOEnabled
ARM GAS  C:\Users\Mxuan\AppData\Local\Temp\ccfnFihP.s 			page 45


 1856              		.syntax unified
 1857              		.thumb
 1858              		.thumb_func
 1860              	MPU6050_setAccelFIFOEnabled:
 1861              	.LVL82:
 1862              	.LFB46:
 724:Libraries/ctrl_drv/i2c/mpu6050/MPU6050.c **** /** Set accelerometer FIFO enabled value.
 725:Libraries/ctrl_drv/i2c/mpu6050/MPU6050.c ****  * @param enabled New accelerometer FIFO enabled value
 726:Libraries/ctrl_drv/i2c/mpu6050/MPU6050.c ****  * @see getAccelFIFOEnabled()
 727:Libraries/ctrl_drv/i2c/mpu6050/MPU6050.c ****  * @see MPU6050_RA_FIFO_EN
 728:Libraries/ctrl_drv/i2c/mpu6050/MPU6050.c ****  */
 729:Libraries/ctrl_drv/i2c/mpu6050/MPU6050.c **** void MPU6050_setAccelFIFOEnabled(bool enabled) {
 1863              		.loc 1 729 48 is_stmt 1 view -0
 1864              		.cfi_startproc
 1865              		@ args = 0, pretend = 0, frame = 0
 1866              		@ frame_needed = 0, uses_anonymous_args = 0
 1867              		.loc 1 729 48 is_stmt 0 view .LVU231
 1868 0000 08B5     		push	{r3, lr}
 1869              	.LCFI63:
 1870              		.cfi_def_cfa_offset 8
 1871              		.cfi_offset 3, -8
 1872              		.cfi_offset 14, -4
 1873 0002 0346     		mov	r3, r0
 730:Libraries/ctrl_drv/i2c/mpu6050/MPU6050.c ****     I2Cdev_writeBit(mpu6050.devAddr, MPU6050_RA_FIFO_EN, MPU6050_ACCEL_FIFO_EN_BIT, enabled);
 1874              		.loc 1 730 5 is_stmt 1 view .LVU232
 1875 0004 0322     		movs	r2, #3
 1876 0006 2321     		movs	r1, #35
 1877 0008 0248     		ldr	r0, .L190
 1878              	.LVL83:
 1879              		.loc 1 730 5 is_stmt 0 view .LVU233
 1880 000a 0078     		ldrb	r0, [r0]	@ zero_extendqisi2
 1881 000c FFF7FEFF 		bl	I2Cdev_writeBit
 1882              	.LVL84:
 731:Libraries/ctrl_drv/i2c/mpu6050/MPU6050.c **** }
 1883              		.loc 1 731 1 view .LVU234
 1884 0010 08BD     		pop	{r3, pc}
 1885              	.L191:
 1886 0012 00BF     		.align	2
 1887              	.L190:
 1888 0014 00000000 		.word	mpu6050
 1889              		.cfi_endproc
 1890              	.LFE46:
 1892              		.section	.text.MPU6050_getSlave2FIFOEnabled,"ax",%progbits
 1893              		.align	1
 1894              		.global	MPU6050_getSlave2FIFOEnabled
 1895              		.syntax unified
 1896              		.thumb
 1897              		.thumb_func
 1899              	MPU6050_getSlave2FIFOEnabled:
 1900              	.LFB47:
 732:Libraries/ctrl_drv/i2c/mpu6050/MPU6050.c **** /** Get Slave 2 FIFO enabled value.
 733:Libraries/ctrl_drv/i2c/mpu6050/MPU6050.c ****  * When set to 1, this bit enables EXT_SENS_DATA registers (Registers 73 to 96)
 734:Libraries/ctrl_drv/i2c/mpu6050/MPU6050.c ****  * associated with Slave 2 to be written into the FIFO mpu6050.buffer.
 735:Libraries/ctrl_drv/i2c/mpu6050/MPU6050.c ****  * @return Current Slave 2 FIFO enabled value
 736:Libraries/ctrl_drv/i2c/mpu6050/MPU6050.c ****  * @see MPU6050_RA_FIFO_EN
 737:Libraries/ctrl_drv/i2c/mpu6050/MPU6050.c ****  */
 738:Libraries/ctrl_drv/i2c/mpu6050/MPU6050.c **** bool MPU6050_getSlave2FIFOEnabled() {
ARM GAS  C:\Users\Mxuan\AppData\Local\Temp\ccfnFihP.s 			page 46


 1901              		.loc 1 738 37 is_stmt 1 view -0
 1902              		.cfi_startproc
 1903              		@ args = 0, pretend = 0, frame = 0
 1904              		@ frame_needed = 0, uses_anonymous_args = 0
 1905 0000 10B5     		push	{r4, lr}
 1906              	.LCFI64:
 1907              		.cfi_def_cfa_offset 8
 1908              		.cfi_offset 4, -8
 1909              		.cfi_offset 14, -4
 739:Libraries/ctrl_drv/i2c/mpu6050/MPU6050.c ****     I2Cdev_readBit(mpu6050.devAddr, MPU6050_RA_FIFO_EN, MPU6050_SLV2_FIFO_EN_BIT, mpu6050.buffer);
 1910              		.loc 1 739 5 view .LVU236
 1911 0002 064B     		ldr	r3, .L194
 1912 0004 5C1E     		subs	r4, r3, #1
 1913 0006 0222     		movs	r2, #2
 1914 0008 2321     		movs	r1, #35
 1915 000a 13F8010C 		ldrb	r0, [r3, #-1]	@ zero_extendqisi2
 1916 000e FFF7FEFF 		bl	I2Cdev_readBit
 1917              	.LVL85:
 740:Libraries/ctrl_drv/i2c/mpu6050/MPU6050.c ****     return mpu6050.buffer[0];
 1918              		.loc 1 740 5 view .LVU237
 1919              		.loc 1 740 26 is_stmt 0 view .LVU238
 1920 0012 6078     		ldrb	r0, [r4, #1]	@ zero_extendqisi2
 741:Libraries/ctrl_drv/i2c/mpu6050/MPU6050.c **** }
 1921              		.loc 1 741 1 view .LVU239
 1922 0014 0038     		subs	r0, r0, #0
 1923 0016 18BF     		it	ne
 1924 0018 0120     		movne	r0, #1
 1925 001a 10BD     		pop	{r4, pc}
 1926              	.L195:
 1927              		.align	2
 1928              	.L194:
 1929 001c 01000000 		.word	mpu6050+1
 1930              		.cfi_endproc
 1931              	.LFE47:
 1933              		.section	.text.MPU6050_setSlave2FIFOEnabled,"ax",%progbits
 1934              		.align	1
 1935              		.global	MPU6050_setSlave2FIFOEnabled
 1936              		.syntax unified
 1937              		.thumb
 1938              		.thumb_func
 1940              	MPU6050_setSlave2FIFOEnabled:
 1941              	.LVL86:
 1942              	.LFB48:
 742:Libraries/ctrl_drv/i2c/mpu6050/MPU6050.c **** /** Set Slave 2 FIFO enabled value.
 743:Libraries/ctrl_drv/i2c/mpu6050/MPU6050.c ****  * @param enabled New Slave 2 FIFO enabled value
 744:Libraries/ctrl_drv/i2c/mpu6050/MPU6050.c ****  * @see getSlave2FIFOEnabled()
 745:Libraries/ctrl_drv/i2c/mpu6050/MPU6050.c ****  * @see MPU6050_RA_FIFO_EN
 746:Libraries/ctrl_drv/i2c/mpu6050/MPU6050.c ****  */
 747:Libraries/ctrl_drv/i2c/mpu6050/MPU6050.c **** void MPU6050_setSlave2FIFOEnabled(bool enabled) {
 1943              		.loc 1 747 49 is_stmt 1 view -0
 1944              		.cfi_startproc
 1945              		@ args = 0, pretend = 0, frame = 0
 1946              		@ frame_needed = 0, uses_anonymous_args = 0
 1947              		.loc 1 747 49 is_stmt 0 view .LVU241
 1948 0000 08B5     		push	{r3, lr}
 1949              	.LCFI65:
 1950              		.cfi_def_cfa_offset 8
ARM GAS  C:\Users\Mxuan\AppData\Local\Temp\ccfnFihP.s 			page 47


 1951              		.cfi_offset 3, -8
 1952              		.cfi_offset 14, -4
 1953 0002 0346     		mov	r3, r0
 748:Libraries/ctrl_drv/i2c/mpu6050/MPU6050.c ****     I2Cdev_writeBit(mpu6050.devAddr, MPU6050_RA_FIFO_EN, MPU6050_SLV2_FIFO_EN_BIT, enabled);
 1954              		.loc 1 748 5 is_stmt 1 view .LVU242
 1955 0004 0222     		movs	r2, #2
 1956 0006 2321     		movs	r1, #35
 1957 0008 0248     		ldr	r0, .L198
 1958              	.LVL87:
 1959              		.loc 1 748 5 is_stmt 0 view .LVU243
 1960 000a 0078     		ldrb	r0, [r0]	@ zero_extendqisi2
 1961 000c FFF7FEFF 		bl	I2Cdev_writeBit
 1962              	.LVL88:
 749:Libraries/ctrl_drv/i2c/mpu6050/MPU6050.c **** }
 1963              		.loc 1 749 1 view .LVU244
 1964 0010 08BD     		pop	{r3, pc}
 1965              	.L199:
 1966 0012 00BF     		.align	2
 1967              	.L198:
 1968 0014 00000000 		.word	mpu6050
 1969              		.cfi_endproc
 1970              	.LFE48:
 1972              		.section	.text.MPU6050_getSlave1FIFOEnabled,"ax",%progbits
 1973              		.align	1
 1974              		.global	MPU6050_getSlave1FIFOEnabled
 1975              		.syntax unified
 1976              		.thumb
 1977              		.thumb_func
 1979              	MPU6050_getSlave1FIFOEnabled:
 1980              	.LFB49:
 750:Libraries/ctrl_drv/i2c/mpu6050/MPU6050.c **** /** Get Slave 1 FIFO enabled value.
 751:Libraries/ctrl_drv/i2c/mpu6050/MPU6050.c ****  * When set to 1, this bit enables EXT_SENS_DATA registers (Registers 73 to 96)
 752:Libraries/ctrl_drv/i2c/mpu6050/MPU6050.c ****  * associated with Slave 1 to be written into the FIFO mpu6050.buffer.
 753:Libraries/ctrl_drv/i2c/mpu6050/MPU6050.c ****  * @return Current Slave 1 FIFO enabled value
 754:Libraries/ctrl_drv/i2c/mpu6050/MPU6050.c ****  * @see MPU6050_RA_FIFO_EN
 755:Libraries/ctrl_drv/i2c/mpu6050/MPU6050.c ****  */
 756:Libraries/ctrl_drv/i2c/mpu6050/MPU6050.c **** bool MPU6050_getSlave1FIFOEnabled() {
 1981              		.loc 1 756 37 is_stmt 1 view -0
 1982              		.cfi_startproc
 1983              		@ args = 0, pretend = 0, frame = 0
 1984              		@ frame_needed = 0, uses_anonymous_args = 0
 1985 0000 10B5     		push	{r4, lr}
 1986              	.LCFI66:
 1987              		.cfi_def_cfa_offset 8
 1988              		.cfi_offset 4, -8
 1989              		.cfi_offset 14, -4
 757:Libraries/ctrl_drv/i2c/mpu6050/MPU6050.c ****     I2Cdev_readBit(mpu6050.devAddr, MPU6050_RA_FIFO_EN, MPU6050_SLV1_FIFO_EN_BIT, mpu6050.buffer);
 1990              		.loc 1 757 5 view .LVU246
 1991 0002 064B     		ldr	r3, .L202
 1992 0004 5C1E     		subs	r4, r3, #1
 1993 0006 0122     		movs	r2, #1
 1994 0008 2321     		movs	r1, #35
 1995 000a 13F8010C 		ldrb	r0, [r3, #-1]	@ zero_extendqisi2
 1996 000e FFF7FEFF 		bl	I2Cdev_readBit
 1997              	.LVL89:
 758:Libraries/ctrl_drv/i2c/mpu6050/MPU6050.c ****     return mpu6050.buffer[0];
 1998              		.loc 1 758 5 view .LVU247
ARM GAS  C:\Users\Mxuan\AppData\Local\Temp\ccfnFihP.s 			page 48


 1999              		.loc 1 758 26 is_stmt 0 view .LVU248
 2000 0012 6078     		ldrb	r0, [r4, #1]	@ zero_extendqisi2
 759:Libraries/ctrl_drv/i2c/mpu6050/MPU6050.c **** }
 2001              		.loc 1 759 1 view .LVU249
 2002 0014 0038     		subs	r0, r0, #0
 2003 0016 18BF     		it	ne
 2004 0018 0120     		movne	r0, #1
 2005 001a 10BD     		pop	{r4, pc}
 2006              	.L203:
 2007              		.align	2
 2008              	.L202:
 2009 001c 01000000 		.word	mpu6050+1
 2010              		.cfi_endproc
 2011              	.LFE49:
 2013              		.section	.text.MPU6050_setSlave1FIFOEnabled,"ax",%progbits
 2014              		.align	1
 2015              		.global	MPU6050_setSlave1FIFOEnabled
 2016              		.syntax unified
 2017              		.thumb
 2018              		.thumb_func
 2020              	MPU6050_setSlave1FIFOEnabled:
 2021              	.LVL90:
 2022              	.LFB50:
 760:Libraries/ctrl_drv/i2c/mpu6050/MPU6050.c **** /** Set Slave 1 FIFO enabled value.
 761:Libraries/ctrl_drv/i2c/mpu6050/MPU6050.c ****  * @param enabled New Slave 1 FIFO enabled value
 762:Libraries/ctrl_drv/i2c/mpu6050/MPU6050.c ****  * @see getSlave1FIFOEnabled()
 763:Libraries/ctrl_drv/i2c/mpu6050/MPU6050.c ****  * @see MPU6050_RA_FIFO_EN
 764:Libraries/ctrl_drv/i2c/mpu6050/MPU6050.c ****  */
 765:Libraries/ctrl_drv/i2c/mpu6050/MPU6050.c **** void MPU6050_setSlave1FIFOEnabled(bool enabled) {
 2023              		.loc 1 765 49 is_stmt 1 view -0
 2024              		.cfi_startproc
 2025              		@ args = 0, pretend = 0, frame = 0
 2026              		@ frame_needed = 0, uses_anonymous_args = 0
 2027              		.loc 1 765 49 is_stmt 0 view .LVU251
 2028 0000 08B5     		push	{r3, lr}
 2029              	.LCFI67:
 2030              		.cfi_def_cfa_offset 8
 2031              		.cfi_offset 3, -8
 2032              		.cfi_offset 14, -4
 2033 0002 0346     		mov	r3, r0
 766:Libraries/ctrl_drv/i2c/mpu6050/MPU6050.c ****     I2Cdev_writeBit(mpu6050.devAddr, MPU6050_RA_FIFO_EN, MPU6050_SLV1_FIFO_EN_BIT, enabled);
 2034              		.loc 1 766 5 is_stmt 1 view .LVU252
 2035 0004 0122     		movs	r2, #1
 2036 0006 2321     		movs	r1, #35
 2037 0008 0248     		ldr	r0, .L206
 2038              	.LVL91:
 2039              		.loc 1 766 5 is_stmt 0 view .LVU253
 2040 000a 0078     		ldrb	r0, [r0]	@ zero_extendqisi2
 2041 000c FFF7FEFF 		bl	I2Cdev_writeBit
 2042              	.LVL92:
 767:Libraries/ctrl_drv/i2c/mpu6050/MPU6050.c **** }
 2043              		.loc 1 767 1 view .LVU254
 2044 0010 08BD     		pop	{r3, pc}
 2045              	.L207:
 2046 0012 00BF     		.align	2
 2047              	.L206:
 2048 0014 00000000 		.word	mpu6050
ARM GAS  C:\Users\Mxuan\AppData\Local\Temp\ccfnFihP.s 			page 49


 2049              		.cfi_endproc
 2050              	.LFE50:
 2052              		.section	.text.MPU6050_getSlave0FIFOEnabled,"ax",%progbits
 2053              		.align	1
 2054              		.global	MPU6050_getSlave0FIFOEnabled
 2055              		.syntax unified
 2056              		.thumb
 2057              		.thumb_func
 2059              	MPU6050_getSlave0FIFOEnabled:
 2060              	.LFB51:
 768:Libraries/ctrl_drv/i2c/mpu6050/MPU6050.c **** /** Get Slave 0 FIFO enabled value.
 769:Libraries/ctrl_drv/i2c/mpu6050/MPU6050.c ****  * When set to 1, this bit enables EXT_SENS_DATA registers (Registers 73 to 96)
 770:Libraries/ctrl_drv/i2c/mpu6050/MPU6050.c ****  * associated with Slave 0 to be written into the FIFO mpu6050.buffer.
 771:Libraries/ctrl_drv/i2c/mpu6050/MPU6050.c ****  * @return Current Slave 0 FIFO enabled value
 772:Libraries/ctrl_drv/i2c/mpu6050/MPU6050.c ****  * @see MPU6050_RA_FIFO_EN
 773:Libraries/ctrl_drv/i2c/mpu6050/MPU6050.c ****  */
 774:Libraries/ctrl_drv/i2c/mpu6050/MPU6050.c **** bool MPU6050_getSlave0FIFOEnabled() {
 2061              		.loc 1 774 37 is_stmt 1 view -0
 2062              		.cfi_startproc
 2063              		@ args = 0, pretend = 0, frame = 0
 2064              		@ frame_needed = 0, uses_anonymous_args = 0
 2065 0000 10B5     		push	{r4, lr}
 2066              	.LCFI68:
 2067              		.cfi_def_cfa_offset 8
 2068              		.cfi_offset 4, -8
 2069              		.cfi_offset 14, -4
 775:Libraries/ctrl_drv/i2c/mpu6050/MPU6050.c ****     I2Cdev_readBit(mpu6050.devAddr, MPU6050_RA_FIFO_EN, MPU6050_SLV0_FIFO_EN_BIT, mpu6050.buffer);
 2070              		.loc 1 775 5 view .LVU256
 2071 0002 064B     		ldr	r3, .L210
 2072 0004 5C1E     		subs	r4, r3, #1
 2073 0006 0022     		movs	r2, #0
 2074 0008 2321     		movs	r1, #35
 2075 000a 13F8010C 		ldrb	r0, [r3, #-1]	@ zero_extendqisi2
 2076 000e FFF7FEFF 		bl	I2Cdev_readBit
 2077              	.LVL93:
 776:Libraries/ctrl_drv/i2c/mpu6050/MPU6050.c ****     return mpu6050.buffer[0];
 2078              		.loc 1 776 5 view .LVU257
 2079              		.loc 1 776 26 is_stmt 0 view .LVU258
 2080 0012 6078     		ldrb	r0, [r4, #1]	@ zero_extendqisi2
 777:Libraries/ctrl_drv/i2c/mpu6050/MPU6050.c **** }
 2081              		.loc 1 777 1 view .LVU259
 2082 0014 0038     		subs	r0, r0, #0
 2083 0016 18BF     		it	ne
 2084 0018 0120     		movne	r0, #1
 2085 001a 10BD     		pop	{r4, pc}
 2086              	.L211:
 2087              		.align	2
 2088              	.L210:
 2089 001c 01000000 		.word	mpu6050+1
 2090              		.cfi_endproc
 2091              	.LFE51:
 2093              		.section	.text.MPU6050_setSlave0FIFOEnabled,"ax",%progbits
 2094              		.align	1
 2095              		.global	MPU6050_setSlave0FIFOEnabled
 2096              		.syntax unified
 2097              		.thumb
 2098              		.thumb_func
ARM GAS  C:\Users\Mxuan\AppData\Local\Temp\ccfnFihP.s 			page 50


 2100              	MPU6050_setSlave0FIFOEnabled:
 2101              	.LVL94:
 2102              	.LFB52:
 778:Libraries/ctrl_drv/i2c/mpu6050/MPU6050.c **** /** Set Slave 0 FIFO enabled value.
 779:Libraries/ctrl_drv/i2c/mpu6050/MPU6050.c ****  * @param enabled New Slave 0 FIFO enabled value
 780:Libraries/ctrl_drv/i2c/mpu6050/MPU6050.c ****  * @see getSlave0FIFOEnabled()
 781:Libraries/ctrl_drv/i2c/mpu6050/MPU6050.c ****  * @see MPU6050_RA_FIFO_EN
 782:Libraries/ctrl_drv/i2c/mpu6050/MPU6050.c ****  */
 783:Libraries/ctrl_drv/i2c/mpu6050/MPU6050.c **** void MPU6050_setSlave0FIFOEnabled(bool enabled) {
 2103              		.loc 1 783 49 is_stmt 1 view -0
 2104              		.cfi_startproc
 2105              		@ args = 0, pretend = 0, frame = 0
 2106              		@ frame_needed = 0, uses_anonymous_args = 0
 2107              		.loc 1 783 49 is_stmt 0 view .LVU261
 2108 0000 08B5     		push	{r3, lr}
 2109              	.LCFI69:
 2110              		.cfi_def_cfa_offset 8
 2111              		.cfi_offset 3, -8
 2112              		.cfi_offset 14, -4
 2113 0002 0346     		mov	r3, r0
 784:Libraries/ctrl_drv/i2c/mpu6050/MPU6050.c ****     I2Cdev_writeBit(mpu6050.devAddr, MPU6050_RA_FIFO_EN, MPU6050_SLV0_FIFO_EN_BIT, enabled);
 2114              		.loc 1 784 5 is_stmt 1 view .LVU262
 2115 0004 0022     		movs	r2, #0
 2116 0006 2321     		movs	r1, #35
 2117 0008 0248     		ldr	r0, .L214
 2118              	.LVL95:
 2119              		.loc 1 784 5 is_stmt 0 view .LVU263
 2120 000a 0078     		ldrb	r0, [r0]	@ zero_extendqisi2
 2121 000c FFF7FEFF 		bl	I2Cdev_writeBit
 2122              	.LVL96:
 785:Libraries/ctrl_drv/i2c/mpu6050/MPU6050.c **** }
 2123              		.loc 1 785 1 view .LVU264
 2124 0010 08BD     		pop	{r3, pc}
 2125              	.L215:
 2126 0012 00BF     		.align	2
 2127              	.L214:
 2128 0014 00000000 		.word	mpu6050
 2129              		.cfi_endproc
 2130              	.LFE52:
 2132              		.section	.text.MPU6050_getMultiMasterEnabled,"ax",%progbits
 2133              		.align	1
 2134              		.global	MPU6050_getMultiMasterEnabled
 2135              		.syntax unified
 2136              		.thumb
 2137              		.thumb_func
 2139              	MPU6050_getMultiMasterEnabled:
 2140              	.LFB53:
 786:Libraries/ctrl_drv/i2c/mpu6050/MPU6050.c **** 
 787:Libraries/ctrl_drv/i2c/mpu6050/MPU6050.c **** // I2C_MST_CTRL register
 788:Libraries/ctrl_drv/i2c/mpu6050/MPU6050.c **** 
 789:Libraries/ctrl_drv/i2c/mpu6050/MPU6050.c **** /** Get multi-master enabled value.
 790:Libraries/ctrl_drv/i2c/mpu6050/MPU6050.c ****  * Multi-master capability allows multiple I2C masters to operate on the same
 791:Libraries/ctrl_drv/i2c/mpu6050/MPU6050.c ****  * bus. In circuits where multi-master capability is required, set MULT_MST_EN
 792:Libraries/ctrl_drv/i2c/mpu6050/MPU6050.c ****  * to 1. This will increase current drawn by approximately 30uA.
 793:Libraries/ctrl_drv/i2c/mpu6050/MPU6050.c ****  *
 794:Libraries/ctrl_drv/i2c/mpu6050/MPU6050.c ****  * In circuits where multi-master capability is required, the state of the I2C
 795:Libraries/ctrl_drv/i2c/mpu6050/MPU6050.c ****  * bus must always be monitored by each separate I2C Master. Before an I2C
ARM GAS  C:\Users\Mxuan\AppData\Local\Temp\ccfnFihP.s 			page 51


 796:Libraries/ctrl_drv/i2c/mpu6050/MPU6050.c ****  * Master can assume arbitration of the bus, it must first confirm that no other
 797:Libraries/ctrl_drv/i2c/mpu6050/MPU6050.c ****  * I2C Master has arbitration of the bus. When MULT_MST_EN is set to 1, the
 798:Libraries/ctrl_drv/i2c/mpu6050/MPU6050.c ****  * MPU-60X0's bus arbitration detection logic is turned on, enabling it to
 799:Libraries/ctrl_drv/i2c/mpu6050/MPU6050.c ****  * detect when the bus is available.
 800:Libraries/ctrl_drv/i2c/mpu6050/MPU6050.c ****  *
 801:Libraries/ctrl_drv/i2c/mpu6050/MPU6050.c ****  * @return Current multi-master enabled value
 802:Libraries/ctrl_drv/i2c/mpu6050/MPU6050.c ****  * @see MPU6050_RA_I2C_MST_CTRL
 803:Libraries/ctrl_drv/i2c/mpu6050/MPU6050.c ****  */
 804:Libraries/ctrl_drv/i2c/mpu6050/MPU6050.c **** bool MPU6050_getMultiMasterEnabled() {
 2141              		.loc 1 804 38 is_stmt 1 view -0
 2142              		.cfi_startproc
 2143              		@ args = 0, pretend = 0, frame = 0
 2144              		@ frame_needed = 0, uses_anonymous_args = 0
 2145 0000 10B5     		push	{r4, lr}
 2146              	.LCFI70:
 2147              		.cfi_def_cfa_offset 8
 2148              		.cfi_offset 4, -8
 2149              		.cfi_offset 14, -4
 805:Libraries/ctrl_drv/i2c/mpu6050/MPU6050.c ****     I2Cdev_readBit(mpu6050.devAddr, MPU6050_RA_I2C_MST_CTRL, MPU6050_MULT_MST_EN_BIT, mpu6050.buffe
 2150              		.loc 1 805 5 view .LVU266
 2151 0002 064B     		ldr	r3, .L218
 2152 0004 5C1E     		subs	r4, r3, #1
 2153 0006 0722     		movs	r2, #7
 2154 0008 2421     		movs	r1, #36
 2155 000a 13F8010C 		ldrb	r0, [r3, #-1]	@ zero_extendqisi2
 2156 000e FFF7FEFF 		bl	I2Cdev_readBit
 2157              	.LVL97:
 806:Libraries/ctrl_drv/i2c/mpu6050/MPU6050.c ****     return mpu6050.buffer[0];
 2158              		.loc 1 806 5 view .LVU267
 2159              		.loc 1 806 26 is_stmt 0 view .LVU268
 2160 0012 6078     		ldrb	r0, [r4, #1]	@ zero_extendqisi2
 807:Libraries/ctrl_drv/i2c/mpu6050/MPU6050.c **** }
 2161              		.loc 1 807 1 view .LVU269
 2162 0014 0038     		subs	r0, r0, #0
 2163 0016 18BF     		it	ne
 2164 0018 0120     		movne	r0, #1
 2165 001a 10BD     		pop	{r4, pc}
 2166              	.L219:
 2167              		.align	2
 2168              	.L218:
 2169 001c 01000000 		.word	mpu6050+1
 2170              		.cfi_endproc
 2171              	.LFE53:
 2173              		.section	.text.MPU6050_setMultiMasterEnabled,"ax",%progbits
 2174              		.align	1
 2175              		.global	MPU6050_setMultiMasterEnabled
 2176              		.syntax unified
 2177              		.thumb
 2178              		.thumb_func
 2180              	MPU6050_setMultiMasterEnabled:
 2181              	.LVL98:
 2182              	.LFB54:
 808:Libraries/ctrl_drv/i2c/mpu6050/MPU6050.c **** /** Set multi-master enabled value.
 809:Libraries/ctrl_drv/i2c/mpu6050/MPU6050.c ****  * @param enabled New multi-master enabled value
 810:Libraries/ctrl_drv/i2c/mpu6050/MPU6050.c ****  * @see getMultiMasterEnabled()
 811:Libraries/ctrl_drv/i2c/mpu6050/MPU6050.c ****  * @see MPU6050_RA_I2C_MST_CTRL
 812:Libraries/ctrl_drv/i2c/mpu6050/MPU6050.c ****  */
ARM GAS  C:\Users\Mxuan\AppData\Local\Temp\ccfnFihP.s 			page 52


 813:Libraries/ctrl_drv/i2c/mpu6050/MPU6050.c **** void MPU6050_setMultiMasterEnabled(bool enabled) {
 2183              		.loc 1 813 50 is_stmt 1 view -0
 2184              		.cfi_startproc
 2185              		@ args = 0, pretend = 0, frame = 0
 2186              		@ frame_needed = 0, uses_anonymous_args = 0
 2187              		.loc 1 813 50 is_stmt 0 view .LVU271
 2188 0000 08B5     		push	{r3, lr}
 2189              	.LCFI71:
 2190              		.cfi_def_cfa_offset 8
 2191              		.cfi_offset 3, -8
 2192              		.cfi_offset 14, -4
 2193 0002 0346     		mov	r3, r0
 814:Libraries/ctrl_drv/i2c/mpu6050/MPU6050.c ****     I2Cdev_writeBit(mpu6050.devAddr, MPU6050_RA_I2C_MST_CTRL, MPU6050_MULT_MST_EN_BIT, enabled);
 2194              		.loc 1 814 5 is_stmt 1 view .LVU272
 2195 0004 0722     		movs	r2, #7
 2196 0006 2421     		movs	r1, #36
 2197 0008 0248     		ldr	r0, .L222
 2198              	.LVL99:
 2199              		.loc 1 814 5 is_stmt 0 view .LVU273
 2200 000a 0078     		ldrb	r0, [r0]	@ zero_extendqisi2
 2201 000c FFF7FEFF 		bl	I2Cdev_writeBit
 2202              	.LVL100:
 815:Libraries/ctrl_drv/i2c/mpu6050/MPU6050.c **** }
 2203              		.loc 1 815 1 view .LVU274
 2204 0010 08BD     		pop	{r3, pc}
 2205              	.L223:
 2206 0012 00BF     		.align	2
 2207              	.L222:
 2208 0014 00000000 		.word	mpu6050
 2209              		.cfi_endproc
 2210              	.LFE54:
 2212              		.section	.text.MPU6050_getWaitForExternalSensorEnabled,"ax",%progbits
 2213              		.align	1
 2214              		.global	MPU6050_getWaitForExternalSensorEnabled
 2215              		.syntax unified
 2216              		.thumb
 2217              		.thumb_func
 2219              	MPU6050_getWaitForExternalSensorEnabled:
 2220              	.LFB55:
 816:Libraries/ctrl_drv/i2c/mpu6050/MPU6050.c **** /** Get wait-for-external-sensor-data enabled value.
 817:Libraries/ctrl_drv/i2c/mpu6050/MPU6050.c ****  * When the WAIT_FOR_ES bit is set to 1, the Data Ready interrupt will be
 818:Libraries/ctrl_drv/i2c/mpu6050/MPU6050.c ****  * delayed until External Sensor data from the Slave Devices are loaded into the
 819:Libraries/ctrl_drv/i2c/mpu6050/MPU6050.c ****  * EXT_SENS_DATA registers. This is used to ensure that both the internal sensor
 820:Libraries/ctrl_drv/i2c/mpu6050/MPU6050.c ****  * data (i.e. from gyro and accel) and external sensor data have been loaded to
 821:Libraries/ctrl_drv/i2c/mpu6050/MPU6050.c ****  * their respective data registers (i.e. the data is synced) when the Data Ready
 822:Libraries/ctrl_drv/i2c/mpu6050/MPU6050.c ****  * interrupt is triggered.
 823:Libraries/ctrl_drv/i2c/mpu6050/MPU6050.c ****  *
 824:Libraries/ctrl_drv/i2c/mpu6050/MPU6050.c ****  * @return Current wait-for-external-sensor-data enabled value
 825:Libraries/ctrl_drv/i2c/mpu6050/MPU6050.c ****  * @see MPU6050_RA_I2C_MST_CTRL
 826:Libraries/ctrl_drv/i2c/mpu6050/MPU6050.c ****  */
 827:Libraries/ctrl_drv/i2c/mpu6050/MPU6050.c **** bool MPU6050_getWaitForExternalSensorEnabled() {
 2221              		.loc 1 827 48 is_stmt 1 view -0
 2222              		.cfi_startproc
 2223              		@ args = 0, pretend = 0, frame = 0
 2224              		@ frame_needed = 0, uses_anonymous_args = 0
 2225 0000 10B5     		push	{r4, lr}
 2226              	.LCFI72:
ARM GAS  C:\Users\Mxuan\AppData\Local\Temp\ccfnFihP.s 			page 53


 2227              		.cfi_def_cfa_offset 8
 2228              		.cfi_offset 4, -8
 2229              		.cfi_offset 14, -4
 828:Libraries/ctrl_drv/i2c/mpu6050/MPU6050.c ****     I2Cdev_readBit(mpu6050.devAddr, MPU6050_RA_I2C_MST_CTRL, MPU6050_WAIT_FOR_ES_BIT, mpu6050.buffe
 2230              		.loc 1 828 5 view .LVU276
 2231 0002 064B     		ldr	r3, .L226
 2232 0004 5C1E     		subs	r4, r3, #1
 2233 0006 0622     		movs	r2, #6
 2234 0008 2421     		movs	r1, #36
 2235 000a 13F8010C 		ldrb	r0, [r3, #-1]	@ zero_extendqisi2
 2236 000e FFF7FEFF 		bl	I2Cdev_readBit
 2237              	.LVL101:
 829:Libraries/ctrl_drv/i2c/mpu6050/MPU6050.c ****     return mpu6050.buffer[0];
 2238              		.loc 1 829 5 view .LVU277
 2239              		.loc 1 829 26 is_stmt 0 view .LVU278
 2240 0012 6078     		ldrb	r0, [r4, #1]	@ zero_extendqisi2
 830:Libraries/ctrl_drv/i2c/mpu6050/MPU6050.c **** }
 2241              		.loc 1 830 1 view .LVU279
 2242 0014 0038     		subs	r0, r0, #0
 2243 0016 18BF     		it	ne
 2244 0018 0120     		movne	r0, #1
 2245 001a 10BD     		pop	{r4, pc}
 2246              	.L227:
 2247              		.align	2
 2248              	.L226:
 2249 001c 01000000 		.word	mpu6050+1
 2250              		.cfi_endproc
 2251              	.LFE55:
 2253              		.section	.text.MPU6050_setWaitForExternalSensorEnabled,"ax",%progbits
 2254              		.align	1
 2255              		.global	MPU6050_setWaitForExternalSensorEnabled
 2256              		.syntax unified
 2257              		.thumb
 2258              		.thumb_func
 2260              	MPU6050_setWaitForExternalSensorEnabled:
 2261              	.LVL102:
 2262              	.LFB56:
 831:Libraries/ctrl_drv/i2c/mpu6050/MPU6050.c **** /** Set wait-for-external-sensor-data enabled value.
 832:Libraries/ctrl_drv/i2c/mpu6050/MPU6050.c ****  * @param enabled New wait-for-external-sensor-data enabled value
 833:Libraries/ctrl_drv/i2c/mpu6050/MPU6050.c ****  * @see getWaitForExternalSensorEnabled()
 834:Libraries/ctrl_drv/i2c/mpu6050/MPU6050.c ****  * @see MPU6050_RA_I2C_MST_CTRL
 835:Libraries/ctrl_drv/i2c/mpu6050/MPU6050.c ****  */
 836:Libraries/ctrl_drv/i2c/mpu6050/MPU6050.c **** void MPU6050_setWaitForExternalSensorEnabled(bool enabled) {
 2263              		.loc 1 836 60 is_stmt 1 view -0
 2264              		.cfi_startproc
 2265              		@ args = 0, pretend = 0, frame = 0
 2266              		@ frame_needed = 0, uses_anonymous_args = 0
 2267              		.loc 1 836 60 is_stmt 0 view .LVU281
 2268 0000 08B5     		push	{r3, lr}
 2269              	.LCFI73:
 2270              		.cfi_def_cfa_offset 8
 2271              		.cfi_offset 3, -8
 2272              		.cfi_offset 14, -4
 2273 0002 0346     		mov	r3, r0
 837:Libraries/ctrl_drv/i2c/mpu6050/MPU6050.c ****     I2Cdev_writeBit(mpu6050.devAddr, MPU6050_RA_I2C_MST_CTRL, MPU6050_WAIT_FOR_ES_BIT, enabled);
 2274              		.loc 1 837 5 is_stmt 1 view .LVU282
 2275 0004 0622     		movs	r2, #6
ARM GAS  C:\Users\Mxuan\AppData\Local\Temp\ccfnFihP.s 			page 54


 2276 0006 2421     		movs	r1, #36
 2277 0008 0248     		ldr	r0, .L230
 2278              	.LVL103:
 2279              		.loc 1 837 5 is_stmt 0 view .LVU283
 2280 000a 0078     		ldrb	r0, [r0]	@ zero_extendqisi2
 2281 000c FFF7FEFF 		bl	I2Cdev_writeBit
 2282              	.LVL104:
 838:Libraries/ctrl_drv/i2c/mpu6050/MPU6050.c **** }
 2283              		.loc 1 838 1 view .LVU284
 2284 0010 08BD     		pop	{r3, pc}
 2285              	.L231:
 2286 0012 00BF     		.align	2
 2287              	.L230:
 2288 0014 00000000 		.word	mpu6050
 2289              		.cfi_endproc
 2290              	.LFE56:
 2292              		.section	.text.MPU6050_getSlave3FIFOEnabled,"ax",%progbits
 2293              		.align	1
 2294              		.global	MPU6050_getSlave3FIFOEnabled
 2295              		.syntax unified
 2296              		.thumb
 2297              		.thumb_func
 2299              	MPU6050_getSlave3FIFOEnabled:
 2300              	.LFB57:
 839:Libraries/ctrl_drv/i2c/mpu6050/MPU6050.c **** /** Get Slave 3 FIFO enabled value.
 840:Libraries/ctrl_drv/i2c/mpu6050/MPU6050.c ****  * When set to 1, this bit enables EXT_SENS_DATA registers (Registers 73 to 96)
 841:Libraries/ctrl_drv/i2c/mpu6050/MPU6050.c ****  * associated with Slave 3 to be written into the FIFO mpu6050.buffer.
 842:Libraries/ctrl_drv/i2c/mpu6050/MPU6050.c ****  * @return Current Slave 3 FIFO enabled value
 843:Libraries/ctrl_drv/i2c/mpu6050/MPU6050.c ****  * @see MPU6050_RA_MST_CTRL
 844:Libraries/ctrl_drv/i2c/mpu6050/MPU6050.c ****  */
 845:Libraries/ctrl_drv/i2c/mpu6050/MPU6050.c **** bool MPU6050_getSlave3FIFOEnabled() {
 2301              		.loc 1 845 37 is_stmt 1 view -0
 2302              		.cfi_startproc
 2303              		@ args = 0, pretend = 0, frame = 0
 2304              		@ frame_needed = 0, uses_anonymous_args = 0
 2305 0000 10B5     		push	{r4, lr}
 2306              	.LCFI74:
 2307              		.cfi_def_cfa_offset 8
 2308              		.cfi_offset 4, -8
 2309              		.cfi_offset 14, -4
 846:Libraries/ctrl_drv/i2c/mpu6050/MPU6050.c ****     I2Cdev_readBit(mpu6050.devAddr, MPU6050_RA_I2C_MST_CTRL, MPU6050_SLV_3_FIFO_EN_BIT, mpu6050.buf
 2310              		.loc 1 846 5 view .LVU286
 2311 0002 064B     		ldr	r3, .L234
 2312 0004 5C1E     		subs	r4, r3, #1
 2313 0006 0522     		movs	r2, #5
 2314 0008 2421     		movs	r1, #36
 2315 000a 13F8010C 		ldrb	r0, [r3, #-1]	@ zero_extendqisi2
 2316 000e FFF7FEFF 		bl	I2Cdev_readBit
 2317              	.LVL105:
 847:Libraries/ctrl_drv/i2c/mpu6050/MPU6050.c ****     return mpu6050.buffer[0];
 2318              		.loc 1 847 5 view .LVU287
 2319              		.loc 1 847 26 is_stmt 0 view .LVU288
 2320 0012 6078     		ldrb	r0, [r4, #1]	@ zero_extendqisi2
 848:Libraries/ctrl_drv/i2c/mpu6050/MPU6050.c **** }
 2321              		.loc 1 848 1 view .LVU289
 2322 0014 0038     		subs	r0, r0, #0
 2323 0016 18BF     		it	ne
ARM GAS  C:\Users\Mxuan\AppData\Local\Temp\ccfnFihP.s 			page 55


 2324 0018 0120     		movne	r0, #1
 2325 001a 10BD     		pop	{r4, pc}
 2326              	.L235:
 2327              		.align	2
 2328              	.L234:
 2329 001c 01000000 		.word	mpu6050+1
 2330              		.cfi_endproc
 2331              	.LFE57:
 2333              		.section	.text.MPU6050_setSlave3FIFOEnabled,"ax",%progbits
 2334              		.align	1
 2335              		.global	MPU6050_setSlave3FIFOEnabled
 2336              		.syntax unified
 2337              		.thumb
 2338              		.thumb_func
 2340              	MPU6050_setSlave3FIFOEnabled:
 2341              	.LVL106:
 2342              	.LFB58:
 849:Libraries/ctrl_drv/i2c/mpu6050/MPU6050.c **** /** Set Slave 3 FIFO enabled value.
 850:Libraries/ctrl_drv/i2c/mpu6050/MPU6050.c ****  * @param enabled New Slave 3 FIFO enabled value
 851:Libraries/ctrl_drv/i2c/mpu6050/MPU6050.c ****  * @see getSlave3FIFOEnabled()
 852:Libraries/ctrl_drv/i2c/mpu6050/MPU6050.c ****  * @see MPU6050_RA_MST_CTRL
 853:Libraries/ctrl_drv/i2c/mpu6050/MPU6050.c ****  */
 854:Libraries/ctrl_drv/i2c/mpu6050/MPU6050.c **** void MPU6050_setSlave3FIFOEnabled(bool enabled) {
 2343              		.loc 1 854 49 is_stmt 1 view -0
 2344              		.cfi_startproc
 2345              		@ args = 0, pretend = 0, frame = 0
 2346              		@ frame_needed = 0, uses_anonymous_args = 0
 2347              		.loc 1 854 49 is_stmt 0 view .LVU291
 2348 0000 08B5     		push	{r3, lr}
 2349              	.LCFI75:
 2350              		.cfi_def_cfa_offset 8
 2351              		.cfi_offset 3, -8
 2352              		.cfi_offset 14, -4
 2353 0002 0346     		mov	r3, r0
 855:Libraries/ctrl_drv/i2c/mpu6050/MPU6050.c ****     I2Cdev_writeBit(mpu6050.devAddr, MPU6050_RA_I2C_MST_CTRL, MPU6050_SLV_3_FIFO_EN_BIT, enabled);
 2354              		.loc 1 855 5 is_stmt 1 view .LVU292
 2355 0004 0522     		movs	r2, #5
 2356 0006 2421     		movs	r1, #36
 2357 0008 0248     		ldr	r0, .L238
 2358              	.LVL107:
 2359              		.loc 1 855 5 is_stmt 0 view .LVU293
 2360 000a 0078     		ldrb	r0, [r0]	@ zero_extendqisi2
 2361 000c FFF7FEFF 		bl	I2Cdev_writeBit
 2362              	.LVL108:
 856:Libraries/ctrl_drv/i2c/mpu6050/MPU6050.c **** }
 2363              		.loc 1 856 1 view .LVU294
 2364 0010 08BD     		pop	{r3, pc}
 2365              	.L239:
 2366 0012 00BF     		.align	2
 2367              	.L238:
 2368 0014 00000000 		.word	mpu6050
 2369              		.cfi_endproc
 2370              	.LFE58:
 2372              		.section	.text.MPU6050_getSlaveReadWriteTransitionEnabled,"ax",%progbits
 2373              		.align	1
 2374              		.global	MPU6050_getSlaveReadWriteTransitionEnabled
 2375              		.syntax unified
ARM GAS  C:\Users\Mxuan\AppData\Local\Temp\ccfnFihP.s 			page 56


 2376              		.thumb
 2377              		.thumb_func
 2379              	MPU6050_getSlaveReadWriteTransitionEnabled:
 2380              	.LFB59:
 857:Libraries/ctrl_drv/i2c/mpu6050/MPU6050.c **** /** Get slave read/write transition enabled value.
 858:Libraries/ctrl_drv/i2c/mpu6050/MPU6050.c ****  * The I2C_MST_P_NSR bit configures the I2C Master's transition from one slave
 859:Libraries/ctrl_drv/i2c/mpu6050/MPU6050.c ****  * read to the next slave read. If the bit equals 0, there will be a restart
 860:Libraries/ctrl_drv/i2c/mpu6050/MPU6050.c ****  * between reads. If the bit equals 1, there will be a stop followed by a start
 861:Libraries/ctrl_drv/i2c/mpu6050/MPU6050.c ****  * of the following read. When a write transaction follows a read transaction,
 862:Libraries/ctrl_drv/i2c/mpu6050/MPU6050.c ****  * the stop followed by a start of the successive write will be always used.
 863:Libraries/ctrl_drv/i2c/mpu6050/MPU6050.c ****  *
 864:Libraries/ctrl_drv/i2c/mpu6050/MPU6050.c ****  * @return Current slave read/write transition enabled value
 865:Libraries/ctrl_drv/i2c/mpu6050/MPU6050.c ****  * @see MPU6050_RA_I2C_MST_CTRL
 866:Libraries/ctrl_drv/i2c/mpu6050/MPU6050.c ****  */
 867:Libraries/ctrl_drv/i2c/mpu6050/MPU6050.c **** bool MPU6050_getSlaveReadWriteTransitionEnabled() {
 2381              		.loc 1 867 51 is_stmt 1 view -0
 2382              		.cfi_startproc
 2383              		@ args = 0, pretend = 0, frame = 0
 2384              		@ frame_needed = 0, uses_anonymous_args = 0
 2385 0000 10B5     		push	{r4, lr}
 2386              	.LCFI76:
 2387              		.cfi_def_cfa_offset 8
 2388              		.cfi_offset 4, -8
 2389              		.cfi_offset 14, -4
 868:Libraries/ctrl_drv/i2c/mpu6050/MPU6050.c ****     I2Cdev_readBit(mpu6050.devAddr, MPU6050_RA_I2C_MST_CTRL, MPU6050_I2C_MST_P_NSR_BIT, mpu6050.buf
 2390              		.loc 1 868 5 view .LVU296
 2391 0002 064B     		ldr	r3, .L242
 2392 0004 5C1E     		subs	r4, r3, #1
 2393 0006 0422     		movs	r2, #4
 2394 0008 2421     		movs	r1, #36
 2395 000a 13F8010C 		ldrb	r0, [r3, #-1]	@ zero_extendqisi2
 2396 000e FFF7FEFF 		bl	I2Cdev_readBit
 2397              	.LVL109:
 869:Libraries/ctrl_drv/i2c/mpu6050/MPU6050.c ****     return mpu6050.buffer[0];
 2398              		.loc 1 869 5 view .LVU297
 2399              		.loc 1 869 26 is_stmt 0 view .LVU298
 2400 0012 6078     		ldrb	r0, [r4, #1]	@ zero_extendqisi2
 870:Libraries/ctrl_drv/i2c/mpu6050/MPU6050.c **** }
 2401              		.loc 1 870 1 view .LVU299
 2402 0014 0038     		subs	r0, r0, #0
 2403 0016 18BF     		it	ne
 2404 0018 0120     		movne	r0, #1
 2405 001a 10BD     		pop	{r4, pc}
 2406              	.L243:
 2407              		.align	2
 2408              	.L242:
 2409 001c 01000000 		.word	mpu6050+1
 2410              		.cfi_endproc
 2411              	.LFE59:
 2413              		.section	.text.MPU6050_setSlaveReadWriteTransitionEnabled,"ax",%progbits
 2414              		.align	1
 2415              		.global	MPU6050_setSlaveReadWriteTransitionEnabled
 2416              		.syntax unified
 2417              		.thumb
 2418              		.thumb_func
 2420              	MPU6050_setSlaveReadWriteTransitionEnabled:
 2421              	.LVL110:
ARM GAS  C:\Users\Mxuan\AppData\Local\Temp\ccfnFihP.s 			page 57


 2422              	.LFB60:
 871:Libraries/ctrl_drv/i2c/mpu6050/MPU6050.c **** /** Set slave read/write transition enabled value.
 872:Libraries/ctrl_drv/i2c/mpu6050/MPU6050.c ****  * @param enabled New slave read/write transition enabled value
 873:Libraries/ctrl_drv/i2c/mpu6050/MPU6050.c ****  * @see getSlaveReadWriteTransitionEnabled()
 874:Libraries/ctrl_drv/i2c/mpu6050/MPU6050.c ****  * @see MPU6050_RA_I2C_MST_CTRL
 875:Libraries/ctrl_drv/i2c/mpu6050/MPU6050.c ****  */
 876:Libraries/ctrl_drv/i2c/mpu6050/MPU6050.c **** void MPU6050_setSlaveReadWriteTransitionEnabled(bool enabled) {
 2423              		.loc 1 876 63 is_stmt 1 view -0
 2424              		.cfi_startproc
 2425              		@ args = 0, pretend = 0, frame = 0
 2426              		@ frame_needed = 0, uses_anonymous_args = 0
 2427              		.loc 1 876 63 is_stmt 0 view .LVU301
 2428 0000 08B5     		push	{r3, lr}
 2429              	.LCFI77:
 2430              		.cfi_def_cfa_offset 8
 2431              		.cfi_offset 3, -8
 2432              		.cfi_offset 14, -4
 2433 0002 0346     		mov	r3, r0
 877:Libraries/ctrl_drv/i2c/mpu6050/MPU6050.c ****     I2Cdev_writeBit(mpu6050.devAddr, MPU6050_RA_I2C_MST_CTRL, MPU6050_I2C_MST_P_NSR_BIT, enabled);
 2434              		.loc 1 877 5 is_stmt 1 view .LVU302
 2435 0004 0422     		movs	r2, #4
 2436 0006 2421     		movs	r1, #36
 2437 0008 0248     		ldr	r0, .L246
 2438              	.LVL111:
 2439              		.loc 1 877 5 is_stmt 0 view .LVU303
 2440 000a 0078     		ldrb	r0, [r0]	@ zero_extendqisi2
 2441 000c FFF7FEFF 		bl	I2Cdev_writeBit
 2442              	.LVL112:
 878:Libraries/ctrl_drv/i2c/mpu6050/MPU6050.c **** }
 2443              		.loc 1 878 1 view .LVU304
 2444 0010 08BD     		pop	{r3, pc}
 2445              	.L247:
 2446 0012 00BF     		.align	2
 2447              	.L246:
 2448 0014 00000000 		.word	mpu6050
 2449              		.cfi_endproc
 2450              	.LFE60:
 2452              		.section	.text.MPU6050_getMasterClockSpeed,"ax",%progbits
 2453              		.align	1
 2454              		.global	MPU6050_getMasterClockSpeed
 2455              		.syntax unified
 2456              		.thumb
 2457              		.thumb_func
 2459              	MPU6050_getMasterClockSpeed:
 2460              	.LFB61:
 879:Libraries/ctrl_drv/i2c/mpu6050/MPU6050.c **** /** Get I2C master clock speed.
 880:Libraries/ctrl_drv/i2c/mpu6050/MPU6050.c ****  * I2C_MST_CLK is a 4 bit unsigned value which configures a divider on the
 881:Libraries/ctrl_drv/i2c/mpu6050/MPU6050.c ****  * MPU-60X0 internal 8MHz clock. It sets the I2C master clock speed according to
 882:Libraries/ctrl_drv/i2c/mpu6050/MPU6050.c ****  * the following table:
 883:Libraries/ctrl_drv/i2c/mpu6050/MPU6050.c ****  *
 884:Libraries/ctrl_drv/i2c/mpu6050/MPU6050.c ****  * <pre>
 885:Libraries/ctrl_drv/i2c/mpu6050/MPU6050.c ****  * I2C_MST_CLK | I2C Master Clock Speed | 8MHz Clock Divider
 886:Libraries/ctrl_drv/i2c/mpu6050/MPU6050.c ****  * ------------+------------------------+-------------------
 887:Libraries/ctrl_drv/i2c/mpu6050/MPU6050.c ****  * 0           | 348kHz                 | 23
 888:Libraries/ctrl_drv/i2c/mpu6050/MPU6050.c ****  * 1           | 333kHz                 | 24
 889:Libraries/ctrl_drv/i2c/mpu6050/MPU6050.c ****  * 2           | 320kHz                 | 25
 890:Libraries/ctrl_drv/i2c/mpu6050/MPU6050.c ****  * 3           | 308kHz                 | 26
ARM GAS  C:\Users\Mxuan\AppData\Local\Temp\ccfnFihP.s 			page 58


 891:Libraries/ctrl_drv/i2c/mpu6050/MPU6050.c ****  * 4           | 296kHz                 | 27
 892:Libraries/ctrl_drv/i2c/mpu6050/MPU6050.c ****  * 5           | 286kHz                 | 28
 893:Libraries/ctrl_drv/i2c/mpu6050/MPU6050.c ****  * 6           | 276kHz                 | 29
 894:Libraries/ctrl_drv/i2c/mpu6050/MPU6050.c ****  * 7           | 267kHz                 | 30
 895:Libraries/ctrl_drv/i2c/mpu6050/MPU6050.c ****  * 8           | 258kHz                 | 31
 896:Libraries/ctrl_drv/i2c/mpu6050/MPU6050.c ****  * 9           | 500kHz                 | 16
 897:Libraries/ctrl_drv/i2c/mpu6050/MPU6050.c ****  * 10          | 471kHz                 | 17
 898:Libraries/ctrl_drv/i2c/mpu6050/MPU6050.c ****  * 11          | 444kHz                 | 18
 899:Libraries/ctrl_drv/i2c/mpu6050/MPU6050.c ****  * 12          | 421kHz                 | 19
 900:Libraries/ctrl_drv/i2c/mpu6050/MPU6050.c ****  * 13          | 400kHz                 | 20
 901:Libraries/ctrl_drv/i2c/mpu6050/MPU6050.c ****  * 14          | 381kHz                 | 21
 902:Libraries/ctrl_drv/i2c/mpu6050/MPU6050.c ****  * 15          | 364kHz                 | 22
 903:Libraries/ctrl_drv/i2c/mpu6050/MPU6050.c ****  * </pre>
 904:Libraries/ctrl_drv/i2c/mpu6050/MPU6050.c ****  *
 905:Libraries/ctrl_drv/i2c/mpu6050/MPU6050.c ****  * @return Current I2C master clock speed
 906:Libraries/ctrl_drv/i2c/mpu6050/MPU6050.c ****  * @see MPU6050_RA_I2C_MST_CTRL
 907:Libraries/ctrl_drv/i2c/mpu6050/MPU6050.c ****  */
 908:Libraries/ctrl_drv/i2c/mpu6050/MPU6050.c **** uint8_t MPU6050_getMasterClockSpeed() {
 2461              		.loc 1 908 39 is_stmt 1 view -0
 2462              		.cfi_startproc
 2463              		@ args = 0, pretend = 0, frame = 0
 2464              		@ frame_needed = 0, uses_anonymous_args = 0
 2465 0000 10B5     		push	{r4, lr}
 2466              	.LCFI78:
 2467              		.cfi_def_cfa_offset 8
 2468              		.cfi_offset 4, -8
 2469              		.cfi_offset 14, -4
 2470 0002 82B0     		sub	sp, sp, #8
 2471              	.LCFI79:
 2472              		.cfi_def_cfa_offset 16
 909:Libraries/ctrl_drv/i2c/mpu6050/MPU6050.c ****     I2Cdev_readBits(mpu6050.devAddr, MPU6050_RA_I2C_MST_CTRL, MPU6050_I2C_MST_CLK_BIT, MPU6050_I2C_
 2473              		.loc 1 909 5 view .LVU306
 2474 0004 064C     		ldr	r4, .L250
 2475 0006 2346     		mov	r3, r4
 2476 0008 13F8010B 		ldrb	r0, [r3], #1	@ zero_extendqisi2
 2477 000c 0093     		str	r3, [sp]
 2478 000e 0423     		movs	r3, #4
 2479 0010 0322     		movs	r2, #3
 2480 0012 2421     		movs	r1, #36
 2481 0014 FFF7FEFF 		bl	I2Cdev_readBits
 2482              	.LVL113:
 910:Libraries/ctrl_drv/i2c/mpu6050/MPU6050.c ****     return mpu6050.buffer[0];
 2483              		.loc 1 910 5 view .LVU307
 911:Libraries/ctrl_drv/i2c/mpu6050/MPU6050.c **** }
 2484              		.loc 1 911 1 is_stmt 0 view .LVU308
 2485 0018 6078     		ldrb	r0, [r4, #1]	@ zero_extendqisi2
 2486 001a 02B0     		add	sp, sp, #8
 2487              	.LCFI80:
 2488              		.cfi_def_cfa_offset 8
 2489              		@ sp needed
 2490 001c 10BD     		pop	{r4, pc}
 2491              	.L251:
 2492 001e 00BF     		.align	2
 2493              	.L250:
 2494 0020 00000000 		.word	mpu6050
 2495              		.cfi_endproc
 2496              	.LFE61:
ARM GAS  C:\Users\Mxuan\AppData\Local\Temp\ccfnFihP.s 			page 59


 2498              		.section	.text.MPU6050_setMasterClockSpeed,"ax",%progbits
 2499              		.align	1
 2500              		.global	MPU6050_setMasterClockSpeed
 2501              		.syntax unified
 2502              		.thumb
 2503              		.thumb_func
 2505              	MPU6050_setMasterClockSpeed:
 2506              	.LVL114:
 2507              	.LFB62:
 912:Libraries/ctrl_drv/i2c/mpu6050/MPU6050.c **** /** Set I2C master clock speed.
 913:Libraries/ctrl_drv/i2c/mpu6050/MPU6050.c ****  * @reparam speed Current I2C master clock speed
 914:Libraries/ctrl_drv/i2c/mpu6050/MPU6050.c ****  * @see MPU6050_RA_I2C_MST_CTRL
 915:Libraries/ctrl_drv/i2c/mpu6050/MPU6050.c ****  */
 916:Libraries/ctrl_drv/i2c/mpu6050/MPU6050.c **** void MPU6050_setMasterClockSpeed(uint8_t speed) {
 2508              		.loc 1 916 49 is_stmt 1 view -0
 2509              		.cfi_startproc
 2510              		@ args = 0, pretend = 0, frame = 0
 2511              		@ frame_needed = 0, uses_anonymous_args = 0
 2512              		.loc 1 916 49 is_stmt 0 view .LVU310
 2513 0000 00B5     		push	{lr}
 2514              	.LCFI81:
 2515              		.cfi_def_cfa_offset 4
 2516              		.cfi_offset 14, -4
 2517 0002 83B0     		sub	sp, sp, #12
 2518              	.LCFI82:
 2519              		.cfi_def_cfa_offset 16
 917:Libraries/ctrl_drv/i2c/mpu6050/MPU6050.c ****     I2Cdev_writeBits(mpu6050.devAddr, MPU6050_RA_I2C_MST_CTRL, MPU6050_I2C_MST_CLK_BIT, MPU6050_I2C
 2520              		.loc 1 917 5 is_stmt 1 view .LVU311
 2521 0004 0090     		str	r0, [sp]
 2522 0006 0423     		movs	r3, #4
 2523 0008 0322     		movs	r2, #3
 2524 000a 2421     		movs	r1, #36
 2525 000c 0348     		ldr	r0, .L254
 2526              	.LVL115:
 2527              		.loc 1 917 5 is_stmt 0 view .LVU312
 2528 000e 0078     		ldrb	r0, [r0]	@ zero_extendqisi2
 2529 0010 FFF7FEFF 		bl	I2Cdev_writeBits
 2530              	.LVL116:
 918:Libraries/ctrl_drv/i2c/mpu6050/MPU6050.c **** }
 2531              		.loc 1 918 1 view .LVU313
 2532 0014 03B0     		add	sp, sp, #12
 2533              	.LCFI83:
 2534              		.cfi_def_cfa_offset 4
 2535              		@ sp needed
 2536 0016 5DF804FB 		ldr	pc, [sp], #4
 2537              	.L255:
 2538 001a 00BF     		.align	2
 2539              	.L254:
 2540 001c 00000000 		.word	mpu6050
 2541              		.cfi_endproc
 2542              	.LFE62:
 2544              		.section	.text.MPU6050_getSlaveAddress,"ax",%progbits
 2545              		.align	1
 2546              		.global	MPU6050_getSlaveAddress
 2547              		.syntax unified
 2548              		.thumb
 2549              		.thumb_func
ARM GAS  C:\Users\Mxuan\AppData\Local\Temp\ccfnFihP.s 			page 60


 2551              	MPU6050_getSlaveAddress:
 2552              	.LVL117:
 2553              	.LFB63:
 919:Libraries/ctrl_drv/i2c/mpu6050/MPU6050.c **** 
 920:Libraries/ctrl_drv/i2c/mpu6050/MPU6050.c **** // I2C_SLV* registers (Slave 0-3)
 921:Libraries/ctrl_drv/i2c/mpu6050/MPU6050.c **** 
 922:Libraries/ctrl_drv/i2c/mpu6050/MPU6050.c **** /** Get the I2C address of the specified slave (0-3).
 923:Libraries/ctrl_drv/i2c/mpu6050/MPU6050.c ****  * Note that Bit 7 (MSB) controls read/write mode. If Bit 7 is set, it's a read
 924:Libraries/ctrl_drv/i2c/mpu6050/MPU6050.c ****  * operation, and if it is cleared, then it's a write operation. The remaining
 925:Libraries/ctrl_drv/i2c/mpu6050/MPU6050.c ****  * bits (6-0) are the 7-bit device address of the slave device.
 926:Libraries/ctrl_drv/i2c/mpu6050/MPU6050.c ****  *
 927:Libraries/ctrl_drv/i2c/mpu6050/MPU6050.c ****  * In read mode, the result of the read is placed in the lowest available
 928:Libraries/ctrl_drv/i2c/mpu6050/MPU6050.c ****  * EXT_SENS_DATA register. For further information regarding the allocation of
 929:Libraries/ctrl_drv/i2c/mpu6050/MPU6050.c ****  * read results, please refer to the EXT_SENS_DATA register description
 930:Libraries/ctrl_drv/i2c/mpu6050/MPU6050.c ****  * (Registers 73 - 96).
 931:Libraries/ctrl_drv/i2c/mpu6050/MPU6050.c ****  *
 932:Libraries/ctrl_drv/i2c/mpu6050/MPU6050.c ****  * The MPU-6050 supports a total of five slaves, but Slave 4 has unique
 933:Libraries/ctrl_drv/i2c/mpu6050/MPU6050.c ****  * characteristics, and so it has its own functions (getSlave4* and setSlave4*).
 934:Libraries/ctrl_drv/i2c/mpu6050/MPU6050.c ****  *
 935:Libraries/ctrl_drv/i2c/mpu6050/MPU6050.c ****  * I2C data transactions are performed at the Sample Rate, as defined in
 936:Libraries/ctrl_drv/i2c/mpu6050/MPU6050.c ****  * Register 25. The user is responsible for ensuring that I2C data transactions
 937:Libraries/ctrl_drv/i2c/mpu6050/MPU6050.c ****  * to and from each enabled Slave can be completed within a single period of the
 938:Libraries/ctrl_drv/i2c/mpu6050/MPU6050.c ****  * Sample Rate.
 939:Libraries/ctrl_drv/i2c/mpu6050/MPU6050.c ****  *
 940:Libraries/ctrl_drv/i2c/mpu6050/MPU6050.c ****  * The I2C slave access rate can be reduced relative to the Sample Rate. This
 941:Libraries/ctrl_drv/i2c/mpu6050/MPU6050.c ****  * reduced access rate is determined by I2C_MST_DLY (Register 52). Whether a
 942:Libraries/ctrl_drv/i2c/mpu6050/MPU6050.c ****  * slave's access rate is reduced relative to the Sample Rate is determined by
 943:Libraries/ctrl_drv/i2c/mpu6050/MPU6050.c ****  * I2C_MST_DELAY_CTRL (Register 103).
 944:Libraries/ctrl_drv/i2c/mpu6050/MPU6050.c ****  *
 945:Libraries/ctrl_drv/i2c/mpu6050/MPU6050.c ****  * The processing order for the slaves is fixed. The sequence followed for
 946:Libraries/ctrl_drv/i2c/mpu6050/MPU6050.c ****  * processing the slaves is Slave 0, Slave 1, Slave 2, Slave 3 and Slave 4. If a
 947:Libraries/ctrl_drv/i2c/mpu6050/MPU6050.c ****  * particular Slave is disabled it will be skipped.
 948:Libraries/ctrl_drv/i2c/mpu6050/MPU6050.c ****  *
 949:Libraries/ctrl_drv/i2c/mpu6050/MPU6050.c ****  * Each slave can either be accessed at the sample rate or at a reduced sample
 950:Libraries/ctrl_drv/i2c/mpu6050/MPU6050.c ****  * rate. In a case where some slaves are accessed at the Sample Rate and some
 951:Libraries/ctrl_drv/i2c/mpu6050/MPU6050.c ****  * slaves are accessed at the reduced rate, the sequence of accessing the slaves
 952:Libraries/ctrl_drv/i2c/mpu6050/MPU6050.c ****  * (Slave 0 to Slave 4) is still followed. However, the reduced rate slaves will
 953:Libraries/ctrl_drv/i2c/mpu6050/MPU6050.c ****  * be skipped if their access rate dictates that they should not be accessed
 954:Libraries/ctrl_drv/i2c/mpu6050/MPU6050.c ****  * during that particular cycle. For further information regarding the reduced
 955:Libraries/ctrl_drv/i2c/mpu6050/MPU6050.c ****  * access rate, please refer to Register 52. Whether a slave is accessed at the
 956:Libraries/ctrl_drv/i2c/mpu6050/MPU6050.c ****  * Sample Rate or at the reduced rate is determined by the Delay Enable bits in
 957:Libraries/ctrl_drv/i2c/mpu6050/MPU6050.c ****  * Register 103.
 958:Libraries/ctrl_drv/i2c/mpu6050/MPU6050.c ****  *
 959:Libraries/ctrl_drv/i2c/mpu6050/MPU6050.c ****  * @param num Slave number (0-3)
 960:Libraries/ctrl_drv/i2c/mpu6050/MPU6050.c ****  * @return Current address for specified slave
 961:Libraries/ctrl_drv/i2c/mpu6050/MPU6050.c ****  * @see MPU6050_RA_I2C_SLV0_ADDR
 962:Libraries/ctrl_drv/i2c/mpu6050/MPU6050.c ****  */
 963:Libraries/ctrl_drv/i2c/mpu6050/MPU6050.c **** uint8_t MPU6050_getSlaveAddress(uint8_t num) {
 2554              		.loc 1 963 46 is_stmt 1 view -0
 2555              		.cfi_startproc
 2556              		@ args = 0, pretend = 0, frame = 0
 2557              		@ frame_needed = 0, uses_anonymous_args = 0
 964:Libraries/ctrl_drv/i2c/mpu6050/MPU6050.c ****     if (num > 3) return 0;
 2558              		.loc 1 964 5 view .LVU315
 2559              		.loc 1 964 8 is_stmt 0 view .LVU316
 2560 0000 0328     		cmp	r0, #3
 2561 0002 01D9     		bls	.L263
ARM GAS  C:\Users\Mxuan\AppData\Local\Temp\ccfnFihP.s 			page 61


 2562              		.loc 1 964 25 view .LVU317
 2563 0004 0020     		movs	r0, #0
 2564              	.LVL118:
 965:Libraries/ctrl_drv/i2c/mpu6050/MPU6050.c ****     I2Cdev_readByte(mpu6050.devAddr, MPU6050_RA_I2C_SLV0_ADDR + num*3, mpu6050.buffer);
 966:Libraries/ctrl_drv/i2c/mpu6050/MPU6050.c ****     return mpu6050.buffer[0];
 967:Libraries/ctrl_drv/i2c/mpu6050/MPU6050.c **** }
 2565              		.loc 1 967 1 view .LVU318
 2566 0006 7047     		bx	lr
 2567              	.LVL119:
 2568              	.L263:
 963:Libraries/ctrl_drv/i2c/mpu6050/MPU6050.c ****     if (num > 3) return 0;
 2569              		.loc 1 963 46 view .LVU319
 2570 0008 10B5     		push	{r4, lr}
 2571              	.LCFI84:
 2572              		.cfi_def_cfa_offset 8
 2573              		.cfi_offset 4, -8
 2574              		.cfi_offset 14, -4
 965:Libraries/ctrl_drv/i2c/mpu6050/MPU6050.c ****     I2Cdev_readByte(mpu6050.devAddr, MPU6050_RA_I2C_SLV0_ADDR + num*3, mpu6050.buffer);
 2575              		.loc 1 965 5 is_stmt 1 view .LVU320
 2576 000a 064A     		ldr	r2, .L264
 2577 000c 00EB4000 		add	r0, r0, r0, lsl #1
 2578              	.LVL120:
 965:Libraries/ctrl_drv/i2c/mpu6050/MPU6050.c ****     I2Cdev_readByte(mpu6050.devAddr, MPU6050_RA_I2C_SLV0_ADDR + num*3, mpu6050.buffer);
 2579              		.loc 1 965 5 is_stmt 0 view .LVU321
 2580 0010 00F12501 		add	r1, r0, #37
 2581 0014 541E     		subs	r4, r2, #1
 2582 0016 C9B2     		uxtb	r1, r1
 2583 0018 12F8010C 		ldrb	r0, [r2, #-1]	@ zero_extendqisi2
 2584 001c FFF7FEFF 		bl	I2Cdev_readByte
 2585              	.LVL121:
 966:Libraries/ctrl_drv/i2c/mpu6050/MPU6050.c **** }
 2586              		.loc 1 966 5 is_stmt 1 view .LVU322
 966:Libraries/ctrl_drv/i2c/mpu6050/MPU6050.c **** }
 2587              		.loc 1 966 26 is_stmt 0 view .LVU323
 2588 0020 6078     		ldrb	r0, [r4, #1]	@ zero_extendqisi2
 2589              		.loc 1 967 1 view .LVU324
 2590 0022 10BD     		pop	{r4, pc}
 2591              	.L265:
 2592              		.align	2
 2593              	.L264:
 2594 0024 01000000 		.word	mpu6050+1
 2595              		.cfi_endproc
 2596              	.LFE63:
 2598              		.section	.text.MPU6050_setSlaveAddress,"ax",%progbits
 2599              		.align	1
 2600              		.global	MPU6050_setSlaveAddress
 2601              		.syntax unified
 2602              		.thumb
 2603              		.thumb_func
 2605              	MPU6050_setSlaveAddress:
 2606              	.LVL122:
 2607              	.LFB64:
 968:Libraries/ctrl_drv/i2c/mpu6050/MPU6050.c **** /** Set the I2C address of the specified slave (0-3).
 969:Libraries/ctrl_drv/i2c/mpu6050/MPU6050.c ****  * @param num Slave number (0-3)
 970:Libraries/ctrl_drv/i2c/mpu6050/MPU6050.c ****  * @param address New address for specified slave
 971:Libraries/ctrl_drv/i2c/mpu6050/MPU6050.c ****  * @see getSlaveAddress()
 972:Libraries/ctrl_drv/i2c/mpu6050/MPU6050.c ****  * @see MPU6050_RA_I2C_SLV0_ADDR
ARM GAS  C:\Users\Mxuan\AppData\Local\Temp\ccfnFihP.s 			page 62


 973:Libraries/ctrl_drv/i2c/mpu6050/MPU6050.c ****  */
 974:Libraries/ctrl_drv/i2c/mpu6050/MPU6050.c **** void MPU6050_setSlaveAddress(uint8_t num, uint8_t address) {
 2608              		.loc 1 974 60 is_stmt 1 view -0
 2609              		.cfi_startproc
 2610              		@ args = 0, pretend = 0, frame = 0
 2611              		@ frame_needed = 0, uses_anonymous_args = 0
 975:Libraries/ctrl_drv/i2c/mpu6050/MPU6050.c ****     if (num > 3) return;
 2612              		.loc 1 975 5 view .LVU326
 2613              		.loc 1 975 8 is_stmt 0 view .LVU327
 2614 0000 0328     		cmp	r0, #3
 2615 0002 00D9     		bls	.L272
 2616 0004 7047     		bx	lr
 2617              	.L272:
 974:Libraries/ctrl_drv/i2c/mpu6050/MPU6050.c ****     if (num > 3) return;
 2618              		.loc 1 974 60 view .LVU328
 2619 0006 08B5     		push	{r3, lr}
 2620              	.LCFI85:
 2621              		.cfi_def_cfa_offset 8
 2622              		.cfi_offset 3, -8
 2623              		.cfi_offset 14, -4
 976:Libraries/ctrl_drv/i2c/mpu6050/MPU6050.c ****     I2Cdev_writeByte(mpu6050.devAddr, MPU6050_RA_I2C_SLV0_ADDR + num*3, address);
 2624              		.loc 1 976 5 is_stmt 1 view .LVU329
 2625 0008 00EB4000 		add	r0, r0, r0, lsl #1
 2626              	.LVL123:
 2627              		.loc 1 976 5 is_stmt 0 view .LVU330
 2628 000c 2530     		adds	r0, r0, #37
 2629 000e 0A46     		mov	r2, r1
 2630 0010 C1B2     		uxtb	r1, r0
 2631              	.LVL124:
 2632              		.loc 1 976 5 view .LVU331
 2633 0012 024B     		ldr	r3, .L273
 2634 0014 1878     		ldrb	r0, [r3]	@ zero_extendqisi2
 2635 0016 FFF7FEFF 		bl	I2Cdev_writeByte
 2636              	.LVL125:
 977:Libraries/ctrl_drv/i2c/mpu6050/MPU6050.c **** }
 2637              		.loc 1 977 1 view .LVU332
 2638 001a 08BD     		pop	{r3, pc}
 2639              	.L274:
 2640              		.align	2
 2641              	.L273:
 2642 001c 00000000 		.word	mpu6050
 2643              		.cfi_endproc
 2644              	.LFE64:
 2646              		.section	.text.MPU6050_getSlaveRegister,"ax",%progbits
 2647              		.align	1
 2648              		.global	MPU6050_getSlaveRegister
 2649              		.syntax unified
 2650              		.thumb
 2651              		.thumb_func
 2653              	MPU6050_getSlaveRegister:
 2654              	.LVL126:
 2655              	.LFB65:
 978:Libraries/ctrl_drv/i2c/mpu6050/MPU6050.c **** /** Get the active internal register for the specified slave (0-3).
 979:Libraries/ctrl_drv/i2c/mpu6050/MPU6050.c ****  * Read/write operations for this slave will be done to whatever internal
 980:Libraries/ctrl_drv/i2c/mpu6050/MPU6050.c ****  * register address is stored in this MPU register.
 981:Libraries/ctrl_drv/i2c/mpu6050/MPU6050.c ****  *
 982:Libraries/ctrl_drv/i2c/mpu6050/MPU6050.c ****  * The MPU-6050 supports a total of five slaves, but Slave 4 has unique
ARM GAS  C:\Users\Mxuan\AppData\Local\Temp\ccfnFihP.s 			page 63


 983:Libraries/ctrl_drv/i2c/mpu6050/MPU6050.c ****  * characteristics, and so it has its own functions.
 984:Libraries/ctrl_drv/i2c/mpu6050/MPU6050.c ****  *
 985:Libraries/ctrl_drv/i2c/mpu6050/MPU6050.c ****  * @param num Slave number (0-3)
 986:Libraries/ctrl_drv/i2c/mpu6050/MPU6050.c ****  * @return Current active register for specified slave
 987:Libraries/ctrl_drv/i2c/mpu6050/MPU6050.c ****  * @see MPU6050_RA_I2C_SLV0_REG
 988:Libraries/ctrl_drv/i2c/mpu6050/MPU6050.c ****  */
 989:Libraries/ctrl_drv/i2c/mpu6050/MPU6050.c **** uint8_t MPU6050_getSlaveRegister(uint8_t num) {
 2656              		.loc 1 989 47 is_stmt 1 view -0
 2657              		.cfi_startproc
 2658              		@ args = 0, pretend = 0, frame = 0
 2659              		@ frame_needed = 0, uses_anonymous_args = 0
 990:Libraries/ctrl_drv/i2c/mpu6050/MPU6050.c ****     if (num > 3) return 0;
 2660              		.loc 1 990 5 view .LVU334
 2661              		.loc 1 990 8 is_stmt 0 view .LVU335
 2662 0000 0328     		cmp	r0, #3
 2663 0002 01D9     		bls	.L282
 2664              		.loc 1 990 25 view .LVU336
 2665 0004 0020     		movs	r0, #0
 2666              	.LVL127:
 991:Libraries/ctrl_drv/i2c/mpu6050/MPU6050.c ****     I2Cdev_readByte(mpu6050.devAddr, MPU6050_RA_I2C_SLV0_REG + num*3, mpu6050.buffer);
 992:Libraries/ctrl_drv/i2c/mpu6050/MPU6050.c ****     return mpu6050.buffer[0];
 993:Libraries/ctrl_drv/i2c/mpu6050/MPU6050.c **** }
 2667              		.loc 1 993 1 view .LVU337
 2668 0006 7047     		bx	lr
 2669              	.LVL128:
 2670              	.L282:
 989:Libraries/ctrl_drv/i2c/mpu6050/MPU6050.c ****     if (num > 3) return 0;
 2671              		.loc 1 989 47 view .LVU338
 2672 0008 10B5     		push	{r4, lr}
 2673              	.LCFI86:
 2674              		.cfi_def_cfa_offset 8
 2675              		.cfi_offset 4, -8
 2676              		.cfi_offset 14, -4
 991:Libraries/ctrl_drv/i2c/mpu6050/MPU6050.c ****     I2Cdev_readByte(mpu6050.devAddr, MPU6050_RA_I2C_SLV0_REG + num*3, mpu6050.buffer);
 2677              		.loc 1 991 5 is_stmt 1 view .LVU339
 2678 000a 064A     		ldr	r2, .L283
 2679 000c 00EB4000 		add	r0, r0, r0, lsl #1
 2680              	.LVL129:
 991:Libraries/ctrl_drv/i2c/mpu6050/MPU6050.c ****     I2Cdev_readByte(mpu6050.devAddr, MPU6050_RA_I2C_SLV0_REG + num*3, mpu6050.buffer);
 2681              		.loc 1 991 5 is_stmt 0 view .LVU340
 2682 0010 00F12601 		add	r1, r0, #38
 2683 0014 541E     		subs	r4, r2, #1
 2684 0016 C9B2     		uxtb	r1, r1
 2685 0018 12F8010C 		ldrb	r0, [r2, #-1]	@ zero_extendqisi2
 2686 001c FFF7FEFF 		bl	I2Cdev_readByte
 2687              	.LVL130:
 992:Libraries/ctrl_drv/i2c/mpu6050/MPU6050.c **** }
 2688              		.loc 1 992 5 is_stmt 1 view .LVU341
 992:Libraries/ctrl_drv/i2c/mpu6050/MPU6050.c **** }
 2689              		.loc 1 992 26 is_stmt 0 view .LVU342
 2690 0020 6078     		ldrb	r0, [r4, #1]	@ zero_extendqisi2
 2691              		.loc 1 993 1 view .LVU343
 2692 0022 10BD     		pop	{r4, pc}
 2693              	.L284:
 2694              		.align	2
 2695              	.L283:
 2696 0024 01000000 		.word	mpu6050+1
ARM GAS  C:\Users\Mxuan\AppData\Local\Temp\ccfnFihP.s 			page 64


 2697              		.cfi_endproc
 2698              	.LFE65:
 2700              		.section	.text.MPU6050_setSlaveRegister,"ax",%progbits
 2701              		.align	1
 2702              		.global	MPU6050_setSlaveRegister
 2703              		.syntax unified
 2704              		.thumb
 2705              		.thumb_func
 2707              	MPU6050_setSlaveRegister:
 2708              	.LVL131:
 2709              	.LFB66:
 994:Libraries/ctrl_drv/i2c/mpu6050/MPU6050.c **** /** Set the active internal register for the specified slave (0-3).
 995:Libraries/ctrl_drv/i2c/mpu6050/MPU6050.c ****  * @param num Slave number (0-3)
 996:Libraries/ctrl_drv/i2c/mpu6050/MPU6050.c ****  * @param reg New active register for specified slave
 997:Libraries/ctrl_drv/i2c/mpu6050/MPU6050.c ****  * @see getSlaveRegister()
 998:Libraries/ctrl_drv/i2c/mpu6050/MPU6050.c ****  * @see MPU6050_RA_I2C_SLV0_REG
 999:Libraries/ctrl_drv/i2c/mpu6050/MPU6050.c ****  */
1000:Libraries/ctrl_drv/i2c/mpu6050/MPU6050.c **** void MPU6050_setSlaveRegister(uint8_t num, uint8_t reg) {
 2710              		.loc 1 1000 57 is_stmt 1 view -0
 2711              		.cfi_startproc
 2712              		@ args = 0, pretend = 0, frame = 0
 2713              		@ frame_needed = 0, uses_anonymous_args = 0
1001:Libraries/ctrl_drv/i2c/mpu6050/MPU6050.c ****     if (num > 3) return;
 2714              		.loc 1 1001 5 view .LVU345
 2715              		.loc 1 1001 8 is_stmt 0 view .LVU346
 2716 0000 0328     		cmp	r0, #3
 2717 0002 00D9     		bls	.L291
 2718 0004 7047     		bx	lr
 2719              	.L291:
1000:Libraries/ctrl_drv/i2c/mpu6050/MPU6050.c ****     if (num > 3) return;
 2720              		.loc 1 1000 57 view .LVU347
 2721 0006 08B5     		push	{r3, lr}
 2722              	.LCFI87:
 2723              		.cfi_def_cfa_offset 8
 2724              		.cfi_offset 3, -8
 2725              		.cfi_offset 14, -4
1002:Libraries/ctrl_drv/i2c/mpu6050/MPU6050.c ****     I2Cdev_writeByte(mpu6050.devAddr, MPU6050_RA_I2C_SLV0_REG + num*3, reg);
 2726              		.loc 1 1002 5 is_stmt 1 view .LVU348
 2727 0008 00EB4000 		add	r0, r0, r0, lsl #1
 2728              	.LVL132:
 2729              		.loc 1 1002 5 is_stmt 0 view .LVU349
 2730 000c 2630     		adds	r0, r0, #38
 2731 000e 0A46     		mov	r2, r1
 2732 0010 C1B2     		uxtb	r1, r0
 2733              	.LVL133:
 2734              		.loc 1 1002 5 view .LVU350
 2735 0012 024B     		ldr	r3, .L292
 2736 0014 1878     		ldrb	r0, [r3]	@ zero_extendqisi2
 2737 0016 FFF7FEFF 		bl	I2Cdev_writeByte
 2738              	.LVL134:
1003:Libraries/ctrl_drv/i2c/mpu6050/MPU6050.c **** }
 2739              		.loc 1 1003 1 view .LVU351
 2740 001a 08BD     		pop	{r3, pc}
 2741              	.L293:
 2742              		.align	2
 2743              	.L292:
 2744 001c 00000000 		.word	mpu6050
ARM GAS  C:\Users\Mxuan\AppData\Local\Temp\ccfnFihP.s 			page 65


 2745              		.cfi_endproc
 2746              	.LFE66:
 2748              		.section	.text.MPU6050_getSlaveEnabled,"ax",%progbits
 2749              		.align	1
 2750              		.global	MPU6050_getSlaveEnabled
 2751              		.syntax unified
 2752              		.thumb
 2753              		.thumb_func
 2755              	MPU6050_getSlaveEnabled:
 2756              	.LVL135:
 2757              	.LFB67:
1004:Libraries/ctrl_drv/i2c/mpu6050/MPU6050.c **** /** Get the enabled value for the specified slave (0-3).
1005:Libraries/ctrl_drv/i2c/mpu6050/MPU6050.c ****  * When set to 1, this bit enables Slave 0 for data transfer operations. When
1006:Libraries/ctrl_drv/i2c/mpu6050/MPU6050.c ****  * cleared to 0, this bit disables Slave 0 from data transfer operations.
1007:Libraries/ctrl_drv/i2c/mpu6050/MPU6050.c ****  * @param num Slave number (0-3)
1008:Libraries/ctrl_drv/i2c/mpu6050/MPU6050.c ****  * @return Current enabled value for specified slave
1009:Libraries/ctrl_drv/i2c/mpu6050/MPU6050.c ****  * @see MPU6050_RA_I2C_SLV0_CTRL
1010:Libraries/ctrl_drv/i2c/mpu6050/MPU6050.c ****  */
1011:Libraries/ctrl_drv/i2c/mpu6050/MPU6050.c **** bool MPU6050_getSlaveEnabled(uint8_t num) {
 2758              		.loc 1 1011 43 is_stmt 1 view -0
 2759              		.cfi_startproc
 2760              		@ args = 0, pretend = 0, frame = 0
 2761              		@ frame_needed = 0, uses_anonymous_args = 0
1012:Libraries/ctrl_drv/i2c/mpu6050/MPU6050.c ****     if (num > 3) return 0;
 2762              		.loc 1 1012 5 view .LVU353
 2763              		.loc 1 1012 8 is_stmt 0 view .LVU354
 2764 0000 0328     		cmp	r0, #3
 2765 0002 01D9     		bls	.L301
 2766              		.loc 1 1012 25 view .LVU355
 2767 0004 0020     		movs	r0, #0
 2768              	.LVL136:
1013:Libraries/ctrl_drv/i2c/mpu6050/MPU6050.c ****     I2Cdev_readBit(mpu6050.devAddr, MPU6050_RA_I2C_SLV0_CTRL + num*3, MPU6050_I2C_SLV_EN_BIT, mpu60
1014:Libraries/ctrl_drv/i2c/mpu6050/MPU6050.c ****     return mpu6050.buffer[0];
1015:Libraries/ctrl_drv/i2c/mpu6050/MPU6050.c **** }
 2769              		.loc 1 1015 1 view .LVU356
 2770 0006 7047     		bx	lr
 2771              	.LVL137:
 2772              	.L301:
1011:Libraries/ctrl_drv/i2c/mpu6050/MPU6050.c ****     if (num > 3) return 0;
 2773              		.loc 1 1011 43 view .LVU357
 2774 0008 10B5     		push	{r4, lr}
 2775              	.LCFI88:
 2776              		.cfi_def_cfa_offset 8
 2777              		.cfi_offset 4, -8
 2778              		.cfi_offset 14, -4
1013:Libraries/ctrl_drv/i2c/mpu6050/MPU6050.c ****     I2Cdev_readBit(mpu6050.devAddr, MPU6050_RA_I2C_SLV0_CTRL + num*3, MPU6050_I2C_SLV_EN_BIT, mpu60
 2779              		.loc 1 1013 5 is_stmt 1 view .LVU358
 2780 000a 084B     		ldr	r3, .L302
 2781 000c 00EB4000 		add	r0, r0, r0, lsl #1
 2782              	.LVL138:
1013:Libraries/ctrl_drv/i2c/mpu6050/MPU6050.c ****     I2Cdev_readBit(mpu6050.devAddr, MPU6050_RA_I2C_SLV0_CTRL + num*3, MPU6050_I2C_SLV_EN_BIT, mpu60
 2783              		.loc 1 1013 5 is_stmt 0 view .LVU359
 2784 0010 00F12701 		add	r1, r0, #39
 2785 0014 5C1E     		subs	r4, r3, #1
 2786 0016 0722     		movs	r2, #7
 2787 0018 C9B2     		uxtb	r1, r1
 2788 001a 13F8010C 		ldrb	r0, [r3, #-1]	@ zero_extendqisi2
ARM GAS  C:\Users\Mxuan\AppData\Local\Temp\ccfnFihP.s 			page 66


 2789 001e FFF7FEFF 		bl	I2Cdev_readBit
 2790              	.LVL139:
1014:Libraries/ctrl_drv/i2c/mpu6050/MPU6050.c **** }
 2791              		.loc 1 1014 5 is_stmt 1 view .LVU360
1014:Libraries/ctrl_drv/i2c/mpu6050/MPU6050.c **** }
 2792              		.loc 1 1014 26 is_stmt 0 view .LVU361
 2793 0022 6078     		ldrb	r0, [r4, #1]	@ zero_extendqisi2
 2794 0024 0038     		subs	r0, r0, #0
 2795 0026 18BF     		it	ne
 2796 0028 0120     		movne	r0, #1
 2797              		.loc 1 1015 1 view .LVU362
 2798 002a 10BD     		pop	{r4, pc}
 2799              	.L303:
 2800              		.align	2
 2801              	.L302:
 2802 002c 01000000 		.word	mpu6050+1
 2803              		.cfi_endproc
 2804              	.LFE67:
 2806              		.section	.text.MPU6050_setSlaveEnabled,"ax",%progbits
 2807              		.align	1
 2808              		.global	MPU6050_setSlaveEnabled
 2809              		.syntax unified
 2810              		.thumb
 2811              		.thumb_func
 2813              	MPU6050_setSlaveEnabled:
 2814              	.LVL140:
 2815              	.LFB68:
1016:Libraries/ctrl_drv/i2c/mpu6050/MPU6050.c **** /** Set the enabled value for the specified slave (0-3).
1017:Libraries/ctrl_drv/i2c/mpu6050/MPU6050.c ****  * @param num Slave number (0-3)
1018:Libraries/ctrl_drv/i2c/mpu6050/MPU6050.c ****  * @param enabled New enabled value for specified slave
1019:Libraries/ctrl_drv/i2c/mpu6050/MPU6050.c ****  * @see getSlaveEnabled()
1020:Libraries/ctrl_drv/i2c/mpu6050/MPU6050.c ****  * @see MPU6050_RA_I2C_SLV0_CTRL
1021:Libraries/ctrl_drv/i2c/mpu6050/MPU6050.c ****  */
1022:Libraries/ctrl_drv/i2c/mpu6050/MPU6050.c **** void MPU6050_setSlaveEnabled(uint8_t num, bool enabled) {
 2816              		.loc 1 1022 57 is_stmt 1 view -0
 2817              		.cfi_startproc
 2818              		@ args = 0, pretend = 0, frame = 0
 2819              		@ frame_needed = 0, uses_anonymous_args = 0
1023:Libraries/ctrl_drv/i2c/mpu6050/MPU6050.c ****     if (num > 3) return;
 2820              		.loc 1 1023 5 view .LVU364
 2821              		.loc 1 1023 8 is_stmt 0 view .LVU365
 2822 0000 0328     		cmp	r0, #3
 2823 0002 00D9     		bls	.L310
 2824 0004 7047     		bx	lr
 2825              	.L310:
1022:Libraries/ctrl_drv/i2c/mpu6050/MPU6050.c ****     if (num > 3) return;
 2826              		.loc 1 1022 57 view .LVU366
 2827 0006 08B5     		push	{r3, lr}
 2828              	.LCFI89:
 2829              		.cfi_def_cfa_offset 8
 2830              		.cfi_offset 3, -8
 2831              		.cfi_offset 14, -4
1024:Libraries/ctrl_drv/i2c/mpu6050/MPU6050.c ****     I2Cdev_writeBit(mpu6050.devAddr, MPU6050_RA_I2C_SLV0_CTRL + num*3, MPU6050_I2C_SLV_EN_BIT, enab
 2832              		.loc 1 1024 5 is_stmt 1 view .LVU367
 2833 0008 00EB4000 		add	r0, r0, r0, lsl #1
 2834              	.LVL141:
 2835              		.loc 1 1024 5 is_stmt 0 view .LVU368
ARM GAS  C:\Users\Mxuan\AppData\Local\Temp\ccfnFihP.s 			page 67


 2836 000c 2730     		adds	r0, r0, #39
 2837 000e 0B46     		mov	r3, r1
 2838 0010 0722     		movs	r2, #7
 2839 0012 C1B2     		uxtb	r1, r0
 2840              	.LVL142:
 2841              		.loc 1 1024 5 view .LVU369
 2842 0014 0248     		ldr	r0, .L311
 2843 0016 0078     		ldrb	r0, [r0]	@ zero_extendqisi2
 2844 0018 FFF7FEFF 		bl	I2Cdev_writeBit
 2845              	.LVL143:
1025:Libraries/ctrl_drv/i2c/mpu6050/MPU6050.c **** }
 2846              		.loc 1 1025 1 view .LVU370
 2847 001c 08BD     		pop	{r3, pc}
 2848              	.L312:
 2849 001e 00BF     		.align	2
 2850              	.L311:
 2851 0020 00000000 		.word	mpu6050
 2852              		.cfi_endproc
 2853              	.LFE68:
 2855              		.section	.text.MPU6050_getSlaveWordByteSwap,"ax",%progbits
 2856              		.align	1
 2857              		.global	MPU6050_getSlaveWordByteSwap
 2858              		.syntax unified
 2859              		.thumb
 2860              		.thumb_func
 2862              	MPU6050_getSlaveWordByteSwap:
 2863              	.LVL144:
 2864              	.LFB69:
1026:Libraries/ctrl_drv/i2c/mpu6050/MPU6050.c **** /** Get word pair byte-swapping enabled for the specified slave (0-3).
1027:Libraries/ctrl_drv/i2c/mpu6050/MPU6050.c ****  * When set to 1, this bit enables byte swapping. When byte swapping is enabled,
1028:Libraries/ctrl_drv/i2c/mpu6050/MPU6050.c ****  * the high and low bytes of a word pair are swapped. Please refer to
1029:Libraries/ctrl_drv/i2c/mpu6050/MPU6050.c ****  * I2C_SLV0_GRP for the pairing convention of the word pairs. When cleared to 0,
1030:Libraries/ctrl_drv/i2c/mpu6050/MPU6050.c ****  * bytes transferred to and from Slave 0 will be written to EXT_SENS_DATA
1031:Libraries/ctrl_drv/i2c/mpu6050/MPU6050.c ****  * registers in the order they were transferred.
1032:Libraries/ctrl_drv/i2c/mpu6050/MPU6050.c ****  *
1033:Libraries/ctrl_drv/i2c/mpu6050/MPU6050.c ****  * @param num Slave number (0-3)
1034:Libraries/ctrl_drv/i2c/mpu6050/MPU6050.c ****  * @return Current word pair byte-swapping enabled value for specified slave
1035:Libraries/ctrl_drv/i2c/mpu6050/MPU6050.c ****  * @see MPU6050_RA_I2C_SLV0_CTRL
1036:Libraries/ctrl_drv/i2c/mpu6050/MPU6050.c ****  */
1037:Libraries/ctrl_drv/i2c/mpu6050/MPU6050.c **** bool MPU6050_getSlaveWordByteSwap(uint8_t num) {
 2865              		.loc 1 1037 48 is_stmt 1 view -0
 2866              		.cfi_startproc
 2867              		@ args = 0, pretend = 0, frame = 0
 2868              		@ frame_needed = 0, uses_anonymous_args = 0
1038:Libraries/ctrl_drv/i2c/mpu6050/MPU6050.c ****     if (num > 3) return 0;
 2869              		.loc 1 1038 5 view .LVU372
 2870              		.loc 1 1038 8 is_stmt 0 view .LVU373
 2871 0000 0328     		cmp	r0, #3
 2872 0002 01D9     		bls	.L320
 2873              		.loc 1 1038 25 view .LVU374
 2874 0004 0020     		movs	r0, #0
 2875              	.LVL145:
1039:Libraries/ctrl_drv/i2c/mpu6050/MPU6050.c ****     I2Cdev_readBit(mpu6050.devAddr, MPU6050_RA_I2C_SLV0_CTRL + num*3, MPU6050_I2C_SLV_BYTE_SW_BIT, 
1040:Libraries/ctrl_drv/i2c/mpu6050/MPU6050.c ****     return mpu6050.buffer[0];
1041:Libraries/ctrl_drv/i2c/mpu6050/MPU6050.c **** }
 2876              		.loc 1 1041 1 view .LVU375
 2877 0006 7047     		bx	lr
ARM GAS  C:\Users\Mxuan\AppData\Local\Temp\ccfnFihP.s 			page 68


 2878              	.LVL146:
 2879              	.L320:
1037:Libraries/ctrl_drv/i2c/mpu6050/MPU6050.c ****     if (num > 3) return 0;
 2880              		.loc 1 1037 48 view .LVU376
 2881 0008 10B5     		push	{r4, lr}
 2882              	.LCFI90:
 2883              		.cfi_def_cfa_offset 8
 2884              		.cfi_offset 4, -8
 2885              		.cfi_offset 14, -4
1039:Libraries/ctrl_drv/i2c/mpu6050/MPU6050.c ****     I2Cdev_readBit(mpu6050.devAddr, MPU6050_RA_I2C_SLV0_CTRL + num*3, MPU6050_I2C_SLV_BYTE_SW_BIT, 
 2886              		.loc 1 1039 5 is_stmt 1 view .LVU377
 2887 000a 084B     		ldr	r3, .L321
 2888 000c 00EB4000 		add	r0, r0, r0, lsl #1
 2889              	.LVL147:
1039:Libraries/ctrl_drv/i2c/mpu6050/MPU6050.c ****     I2Cdev_readBit(mpu6050.devAddr, MPU6050_RA_I2C_SLV0_CTRL + num*3, MPU6050_I2C_SLV_BYTE_SW_BIT, 
 2890              		.loc 1 1039 5 is_stmt 0 view .LVU378
 2891 0010 00F12701 		add	r1, r0, #39
 2892 0014 5C1E     		subs	r4, r3, #1
 2893 0016 0622     		movs	r2, #6
 2894 0018 C9B2     		uxtb	r1, r1
 2895 001a 13F8010C 		ldrb	r0, [r3, #-1]	@ zero_extendqisi2
 2896 001e FFF7FEFF 		bl	I2Cdev_readBit
 2897              	.LVL148:
1040:Libraries/ctrl_drv/i2c/mpu6050/MPU6050.c **** }
 2898              		.loc 1 1040 5 is_stmt 1 view .LVU379
1040:Libraries/ctrl_drv/i2c/mpu6050/MPU6050.c **** }
 2899              		.loc 1 1040 26 is_stmt 0 view .LVU380
 2900 0022 6078     		ldrb	r0, [r4, #1]	@ zero_extendqisi2
 2901 0024 0038     		subs	r0, r0, #0
 2902 0026 18BF     		it	ne
 2903 0028 0120     		movne	r0, #1
 2904              		.loc 1 1041 1 view .LVU381
 2905 002a 10BD     		pop	{r4, pc}
 2906              	.L322:
 2907              		.align	2
 2908              	.L321:
 2909 002c 01000000 		.word	mpu6050+1
 2910              		.cfi_endproc
 2911              	.LFE69:
 2913              		.section	.text.MPU6050_setSlaveWordByteSwap,"ax",%progbits
 2914              		.align	1
 2915              		.global	MPU6050_setSlaveWordByteSwap
 2916              		.syntax unified
 2917              		.thumb
 2918              		.thumb_func
 2920              	MPU6050_setSlaveWordByteSwap:
 2921              	.LVL149:
 2922              	.LFB70:
1042:Libraries/ctrl_drv/i2c/mpu6050/MPU6050.c **** /** Set word pair byte-swapping enabled for the specified slave (0-3).
1043:Libraries/ctrl_drv/i2c/mpu6050/MPU6050.c ****  * @param num Slave number (0-3)
1044:Libraries/ctrl_drv/i2c/mpu6050/MPU6050.c ****  * @param enabled New word pair byte-swapping enabled value for specified slave
1045:Libraries/ctrl_drv/i2c/mpu6050/MPU6050.c ****  * @see getSlaveWordByteSwap()
1046:Libraries/ctrl_drv/i2c/mpu6050/MPU6050.c ****  * @see MPU6050_RA_I2C_SLV0_CTRL
1047:Libraries/ctrl_drv/i2c/mpu6050/MPU6050.c ****  */
1048:Libraries/ctrl_drv/i2c/mpu6050/MPU6050.c **** void MPU6050_setSlaveWordByteSwap(uint8_t num, bool enabled) {
 2923              		.loc 1 1048 62 is_stmt 1 view -0
 2924              		.cfi_startproc
ARM GAS  C:\Users\Mxuan\AppData\Local\Temp\ccfnFihP.s 			page 69


 2925              		@ args = 0, pretend = 0, frame = 0
 2926              		@ frame_needed = 0, uses_anonymous_args = 0
1049:Libraries/ctrl_drv/i2c/mpu6050/MPU6050.c ****     if (num > 3) return;
 2927              		.loc 1 1049 5 view .LVU383
 2928              		.loc 1 1049 8 is_stmt 0 view .LVU384
 2929 0000 0328     		cmp	r0, #3
 2930 0002 00D9     		bls	.L329
 2931 0004 7047     		bx	lr
 2932              	.L329:
1048:Libraries/ctrl_drv/i2c/mpu6050/MPU6050.c ****     if (num > 3) return;
 2933              		.loc 1 1048 62 view .LVU385
 2934 0006 08B5     		push	{r3, lr}
 2935              	.LCFI91:
 2936              		.cfi_def_cfa_offset 8
 2937              		.cfi_offset 3, -8
 2938              		.cfi_offset 14, -4
1050:Libraries/ctrl_drv/i2c/mpu6050/MPU6050.c ****     I2Cdev_writeBit(mpu6050.devAddr, MPU6050_RA_I2C_SLV0_CTRL + num*3, MPU6050_I2C_SLV_BYTE_SW_BIT,
 2939              		.loc 1 1050 5 is_stmt 1 view .LVU386
 2940 0008 00EB4000 		add	r0, r0, r0, lsl #1
 2941              	.LVL150:
 2942              		.loc 1 1050 5 is_stmt 0 view .LVU387
 2943 000c 2730     		adds	r0, r0, #39
 2944 000e 0B46     		mov	r3, r1
 2945 0010 0622     		movs	r2, #6
 2946 0012 C1B2     		uxtb	r1, r0
 2947              	.LVL151:
 2948              		.loc 1 1050 5 view .LVU388
 2949 0014 0248     		ldr	r0, .L330
 2950 0016 0078     		ldrb	r0, [r0]	@ zero_extendqisi2
 2951 0018 FFF7FEFF 		bl	I2Cdev_writeBit
 2952              	.LVL152:
1051:Libraries/ctrl_drv/i2c/mpu6050/MPU6050.c **** }
 2953              		.loc 1 1051 1 view .LVU389
 2954 001c 08BD     		pop	{r3, pc}
 2955              	.L331:
 2956 001e 00BF     		.align	2
 2957              	.L330:
 2958 0020 00000000 		.word	mpu6050
 2959              		.cfi_endproc
 2960              	.LFE70:
 2962              		.section	.text.MPU6050_getSlaveWriteMode,"ax",%progbits
 2963              		.align	1
 2964              		.global	MPU6050_getSlaveWriteMode
 2965              		.syntax unified
 2966              		.thumb
 2967              		.thumb_func
 2969              	MPU6050_getSlaveWriteMode:
 2970              	.LVL153:
 2971              	.LFB71:
1052:Libraries/ctrl_drv/i2c/mpu6050/MPU6050.c **** /** Get write mode for the specified slave (0-3).
1053:Libraries/ctrl_drv/i2c/mpu6050/MPU6050.c ****  * When set to 1, the transaction will read or write data only. When cleared to
1054:Libraries/ctrl_drv/i2c/mpu6050/MPU6050.c ****  * 0, the transaction will write a register address prior to reading or writing
1055:Libraries/ctrl_drv/i2c/mpu6050/MPU6050.c ****  * data. This should equal 0 when specifying the register address within the
1056:Libraries/ctrl_drv/i2c/mpu6050/MPU6050.c ****  * Slave device to/from which the ensuing data transaction will take place.
1057:Libraries/ctrl_drv/i2c/mpu6050/MPU6050.c ****  *
1058:Libraries/ctrl_drv/i2c/mpu6050/MPU6050.c ****  * @param num Slave number (0-3)
1059:Libraries/ctrl_drv/i2c/mpu6050/MPU6050.c ****  * @return Current write mode for specified slave (0 = register address + data, 1 = data only)
ARM GAS  C:\Users\Mxuan\AppData\Local\Temp\ccfnFihP.s 			page 70


1060:Libraries/ctrl_drv/i2c/mpu6050/MPU6050.c ****  * @see MPU6050_RA_I2C_SLV0_CTRL
1061:Libraries/ctrl_drv/i2c/mpu6050/MPU6050.c ****  */
1062:Libraries/ctrl_drv/i2c/mpu6050/MPU6050.c **** bool MPU6050_getSlaveWriteMode(uint8_t num) {
 2972              		.loc 1 1062 45 is_stmt 1 view -0
 2973              		.cfi_startproc
 2974              		@ args = 0, pretend = 0, frame = 0
 2975              		@ frame_needed = 0, uses_anonymous_args = 0
1063:Libraries/ctrl_drv/i2c/mpu6050/MPU6050.c ****     if (num > 3) return 0;
 2976              		.loc 1 1063 5 view .LVU391
 2977              		.loc 1 1063 8 is_stmt 0 view .LVU392
 2978 0000 0328     		cmp	r0, #3
 2979 0002 01D9     		bls	.L339
 2980              		.loc 1 1063 25 view .LVU393
 2981 0004 0020     		movs	r0, #0
 2982              	.LVL154:
1064:Libraries/ctrl_drv/i2c/mpu6050/MPU6050.c ****     I2Cdev_readBit(mpu6050.devAddr, MPU6050_RA_I2C_SLV0_CTRL + num*3, MPU6050_I2C_SLV_REG_DIS_BIT, 
1065:Libraries/ctrl_drv/i2c/mpu6050/MPU6050.c ****     return mpu6050.buffer[0];
1066:Libraries/ctrl_drv/i2c/mpu6050/MPU6050.c **** }
 2983              		.loc 1 1066 1 view .LVU394
 2984 0006 7047     		bx	lr
 2985              	.LVL155:
 2986              	.L339:
1062:Libraries/ctrl_drv/i2c/mpu6050/MPU6050.c ****     if (num > 3) return 0;
 2987              		.loc 1 1062 45 view .LVU395
 2988 0008 10B5     		push	{r4, lr}
 2989              	.LCFI92:
 2990              		.cfi_def_cfa_offset 8
 2991              		.cfi_offset 4, -8
 2992              		.cfi_offset 14, -4
1064:Libraries/ctrl_drv/i2c/mpu6050/MPU6050.c ****     I2Cdev_readBit(mpu6050.devAddr, MPU6050_RA_I2C_SLV0_CTRL + num*3, MPU6050_I2C_SLV_REG_DIS_BIT, 
 2993              		.loc 1 1064 5 is_stmt 1 view .LVU396
 2994 000a 084B     		ldr	r3, .L340
 2995 000c 00EB4000 		add	r0, r0, r0, lsl #1
 2996              	.LVL156:
1064:Libraries/ctrl_drv/i2c/mpu6050/MPU6050.c ****     I2Cdev_readBit(mpu6050.devAddr, MPU6050_RA_I2C_SLV0_CTRL + num*3, MPU6050_I2C_SLV_REG_DIS_BIT, 
 2997              		.loc 1 1064 5 is_stmt 0 view .LVU397
 2998 0010 00F12701 		add	r1, r0, #39
 2999 0014 5C1E     		subs	r4, r3, #1
 3000 0016 0522     		movs	r2, #5
 3001 0018 C9B2     		uxtb	r1, r1
 3002 001a 13F8010C 		ldrb	r0, [r3, #-1]	@ zero_extendqisi2
 3003 001e FFF7FEFF 		bl	I2Cdev_readBit
 3004              	.LVL157:
1065:Libraries/ctrl_drv/i2c/mpu6050/MPU6050.c **** }
 3005              		.loc 1 1065 5 is_stmt 1 view .LVU398
1065:Libraries/ctrl_drv/i2c/mpu6050/MPU6050.c **** }
 3006              		.loc 1 1065 26 is_stmt 0 view .LVU399
 3007 0022 6078     		ldrb	r0, [r4, #1]	@ zero_extendqisi2
 3008 0024 0038     		subs	r0, r0, #0
 3009 0026 18BF     		it	ne
 3010 0028 0120     		movne	r0, #1
 3011              		.loc 1 1066 1 view .LVU400
 3012 002a 10BD     		pop	{r4, pc}
 3013              	.L341:
 3014              		.align	2
 3015              	.L340:
 3016 002c 01000000 		.word	mpu6050+1
ARM GAS  C:\Users\Mxuan\AppData\Local\Temp\ccfnFihP.s 			page 71


 3017              		.cfi_endproc
 3018              	.LFE71:
 3020              		.section	.text.MPU6050_setSlaveWriteMode,"ax",%progbits
 3021              		.align	1
 3022              		.global	MPU6050_setSlaveWriteMode
 3023              		.syntax unified
 3024              		.thumb
 3025              		.thumb_func
 3027              	MPU6050_setSlaveWriteMode:
 3028              	.LVL158:
 3029              	.LFB72:
1067:Libraries/ctrl_drv/i2c/mpu6050/MPU6050.c **** /** Set write mode for the specified slave (0-3).
1068:Libraries/ctrl_drv/i2c/mpu6050/MPU6050.c ****  * @param num Slave number (0-3)
1069:Libraries/ctrl_drv/i2c/mpu6050/MPU6050.c ****  * @param mode New write mode for specified slave (0 = register address + data, 1 = data only)
1070:Libraries/ctrl_drv/i2c/mpu6050/MPU6050.c ****  * @see getSlaveWriteMode()
1071:Libraries/ctrl_drv/i2c/mpu6050/MPU6050.c ****  * @see MPU6050_RA_I2C_SLV0_CTRL
1072:Libraries/ctrl_drv/i2c/mpu6050/MPU6050.c ****  */
1073:Libraries/ctrl_drv/i2c/mpu6050/MPU6050.c **** void MPU6050_setSlaveWriteMode(uint8_t num, bool mode) {
 3030              		.loc 1 1073 56 is_stmt 1 view -0
 3031              		.cfi_startproc
 3032              		@ args = 0, pretend = 0, frame = 0
 3033              		@ frame_needed = 0, uses_anonymous_args = 0
1074:Libraries/ctrl_drv/i2c/mpu6050/MPU6050.c ****     if (num > 3) return;
 3034              		.loc 1 1074 5 view .LVU402
 3035              		.loc 1 1074 8 is_stmt 0 view .LVU403
 3036 0000 0328     		cmp	r0, #3
 3037 0002 00D9     		bls	.L348
 3038 0004 7047     		bx	lr
 3039              	.L348:
1073:Libraries/ctrl_drv/i2c/mpu6050/MPU6050.c ****     if (num > 3) return;
 3040              		.loc 1 1073 56 view .LVU404
 3041 0006 08B5     		push	{r3, lr}
 3042              	.LCFI93:
 3043              		.cfi_def_cfa_offset 8
 3044              		.cfi_offset 3, -8
 3045              		.cfi_offset 14, -4
1075:Libraries/ctrl_drv/i2c/mpu6050/MPU6050.c ****     I2Cdev_writeBit(mpu6050.devAddr, MPU6050_RA_I2C_SLV0_CTRL + num*3, MPU6050_I2C_SLV_REG_DIS_BIT,
 3046              		.loc 1 1075 5 is_stmt 1 view .LVU405
 3047 0008 00EB4000 		add	r0, r0, r0, lsl #1
 3048              	.LVL159:
 3049              		.loc 1 1075 5 is_stmt 0 view .LVU406
 3050 000c 2730     		adds	r0, r0, #39
 3051 000e 0B46     		mov	r3, r1
 3052 0010 0522     		movs	r2, #5
 3053 0012 C1B2     		uxtb	r1, r0
 3054              	.LVL160:
 3055              		.loc 1 1075 5 view .LVU407
 3056 0014 0248     		ldr	r0, .L349
 3057 0016 0078     		ldrb	r0, [r0]	@ zero_extendqisi2
 3058 0018 FFF7FEFF 		bl	I2Cdev_writeBit
 3059              	.LVL161:
1076:Libraries/ctrl_drv/i2c/mpu6050/MPU6050.c **** }
 3060              		.loc 1 1076 1 view .LVU408
 3061 001c 08BD     		pop	{r3, pc}
 3062              	.L350:
 3063 001e 00BF     		.align	2
 3064              	.L349:
ARM GAS  C:\Users\Mxuan\AppData\Local\Temp\ccfnFihP.s 			page 72


 3065 0020 00000000 		.word	mpu6050
 3066              		.cfi_endproc
 3067              	.LFE72:
 3069              		.section	.text.MPU6050_getSlaveWordGroupOffset,"ax",%progbits
 3070              		.align	1
 3071              		.global	MPU6050_getSlaveWordGroupOffset
 3072              		.syntax unified
 3073              		.thumb
 3074              		.thumb_func
 3076              	MPU6050_getSlaveWordGroupOffset:
 3077              	.LVL162:
 3078              	.LFB73:
1077:Libraries/ctrl_drv/i2c/mpu6050/MPU6050.c **** /** Get word pair grouping order offset for the specified slave (0-3).
1078:Libraries/ctrl_drv/i2c/mpu6050/MPU6050.c ****  * This sets specifies the grouping order of word pairs received from registers.
1079:Libraries/ctrl_drv/i2c/mpu6050/MPU6050.c ****  * When cleared to 0, bytes from register addresses 0 and 1, 2 and 3, etc (even,
1080:Libraries/ctrl_drv/i2c/mpu6050/MPU6050.c ****  * then odd register addresses) are paired to form a word. When set to 1, bytes
1081:Libraries/ctrl_drv/i2c/mpu6050/MPU6050.c ****  * from register addresses are paired 1 and 2, 3 and 4, etc. (odd, then even
1082:Libraries/ctrl_drv/i2c/mpu6050/MPU6050.c ****  * register addresses) are paired to form a word.
1083:Libraries/ctrl_drv/i2c/mpu6050/MPU6050.c ****  *
1084:Libraries/ctrl_drv/i2c/mpu6050/MPU6050.c ****  * @param num Slave number (0-3)
1085:Libraries/ctrl_drv/i2c/mpu6050/MPU6050.c ****  * @return Current word pair grouping order offset for specified slave
1086:Libraries/ctrl_drv/i2c/mpu6050/MPU6050.c ****  * @see MPU6050_RA_I2C_SLV0_CTRL
1087:Libraries/ctrl_drv/i2c/mpu6050/MPU6050.c ****  */
1088:Libraries/ctrl_drv/i2c/mpu6050/MPU6050.c **** bool MPU6050_getSlaveWordGroupOffset(uint8_t num) {
 3079              		.loc 1 1088 51 is_stmt 1 view -0
 3080              		.cfi_startproc
 3081              		@ args = 0, pretend = 0, frame = 0
 3082              		@ frame_needed = 0, uses_anonymous_args = 0
1089:Libraries/ctrl_drv/i2c/mpu6050/MPU6050.c ****     if (num > 3) return 0;
 3083              		.loc 1 1089 5 view .LVU410
 3084              		.loc 1 1089 8 is_stmt 0 view .LVU411
 3085 0000 0328     		cmp	r0, #3
 3086 0002 01D9     		bls	.L358
 3087              		.loc 1 1089 25 view .LVU412
 3088 0004 0020     		movs	r0, #0
 3089              	.LVL163:
1090:Libraries/ctrl_drv/i2c/mpu6050/MPU6050.c ****     I2Cdev_readBit(mpu6050.devAddr, MPU6050_RA_I2C_SLV0_CTRL + num*3, MPU6050_I2C_SLV_GRP_BIT, mpu6
1091:Libraries/ctrl_drv/i2c/mpu6050/MPU6050.c ****     return mpu6050.buffer[0];
1092:Libraries/ctrl_drv/i2c/mpu6050/MPU6050.c **** }
 3090              		.loc 1 1092 1 view .LVU413
 3091 0006 7047     		bx	lr
 3092              	.LVL164:
 3093              	.L358:
1088:Libraries/ctrl_drv/i2c/mpu6050/MPU6050.c ****     if (num > 3) return 0;
 3094              		.loc 1 1088 51 view .LVU414
 3095 0008 10B5     		push	{r4, lr}
 3096              	.LCFI94:
 3097              		.cfi_def_cfa_offset 8
 3098              		.cfi_offset 4, -8
 3099              		.cfi_offset 14, -4
1090:Libraries/ctrl_drv/i2c/mpu6050/MPU6050.c ****     I2Cdev_readBit(mpu6050.devAddr, MPU6050_RA_I2C_SLV0_CTRL + num*3, MPU6050_I2C_SLV_GRP_BIT, mpu6
 3100              		.loc 1 1090 5 is_stmt 1 view .LVU415
 3101 000a 084B     		ldr	r3, .L359
 3102 000c 00EB4000 		add	r0, r0, r0, lsl #1
 3103              	.LVL165:
1090:Libraries/ctrl_drv/i2c/mpu6050/MPU6050.c ****     I2Cdev_readBit(mpu6050.devAddr, MPU6050_RA_I2C_SLV0_CTRL + num*3, MPU6050_I2C_SLV_GRP_BIT, mpu6
 3104              		.loc 1 1090 5 is_stmt 0 view .LVU416
ARM GAS  C:\Users\Mxuan\AppData\Local\Temp\ccfnFihP.s 			page 73


 3105 0010 00F12701 		add	r1, r0, #39
 3106 0014 5C1E     		subs	r4, r3, #1
 3107 0016 0422     		movs	r2, #4
 3108 0018 C9B2     		uxtb	r1, r1
 3109 001a 13F8010C 		ldrb	r0, [r3, #-1]	@ zero_extendqisi2
 3110 001e FFF7FEFF 		bl	I2Cdev_readBit
 3111              	.LVL166:
1091:Libraries/ctrl_drv/i2c/mpu6050/MPU6050.c **** }
 3112              		.loc 1 1091 5 is_stmt 1 view .LVU417
1091:Libraries/ctrl_drv/i2c/mpu6050/MPU6050.c **** }
 3113              		.loc 1 1091 26 is_stmt 0 view .LVU418
 3114 0022 6078     		ldrb	r0, [r4, #1]	@ zero_extendqisi2
 3115 0024 0038     		subs	r0, r0, #0
 3116 0026 18BF     		it	ne
 3117 0028 0120     		movne	r0, #1
 3118              		.loc 1 1092 1 view .LVU419
 3119 002a 10BD     		pop	{r4, pc}
 3120              	.L360:
 3121              		.align	2
 3122              	.L359:
 3123 002c 01000000 		.word	mpu6050+1
 3124              		.cfi_endproc
 3125              	.LFE73:
 3127              		.section	.text.MPU6050_setSlaveWordGroupOffset,"ax",%progbits
 3128              		.align	1
 3129              		.global	MPU6050_setSlaveWordGroupOffset
 3130              		.syntax unified
 3131              		.thumb
 3132              		.thumb_func
 3134              	MPU6050_setSlaveWordGroupOffset:
 3135              	.LVL167:
 3136              	.LFB74:
1093:Libraries/ctrl_drv/i2c/mpu6050/MPU6050.c **** /** Set word pair grouping order offset for the specified slave (0-3).
1094:Libraries/ctrl_drv/i2c/mpu6050/MPU6050.c ****  * @param num Slave number (0-3)
1095:Libraries/ctrl_drv/i2c/mpu6050/MPU6050.c ****  * @param enabled New word pair grouping order offset for specified slave
1096:Libraries/ctrl_drv/i2c/mpu6050/MPU6050.c ****  * @see getSlaveWordGroupOffset()
1097:Libraries/ctrl_drv/i2c/mpu6050/MPU6050.c ****  * @see MPU6050_RA_I2C_SLV0_CTRL
1098:Libraries/ctrl_drv/i2c/mpu6050/MPU6050.c ****  */
1099:Libraries/ctrl_drv/i2c/mpu6050/MPU6050.c **** void MPU6050_setSlaveWordGroupOffset(uint8_t num, bool enabled) {
 3137              		.loc 1 1099 65 is_stmt 1 view -0
 3138              		.cfi_startproc
 3139              		@ args = 0, pretend = 0, frame = 0
 3140              		@ frame_needed = 0, uses_anonymous_args = 0
1100:Libraries/ctrl_drv/i2c/mpu6050/MPU6050.c ****     if (num > 3) return;
 3141              		.loc 1 1100 5 view .LVU421
 3142              		.loc 1 1100 8 is_stmt 0 view .LVU422
 3143 0000 0328     		cmp	r0, #3
 3144 0002 00D9     		bls	.L367
 3145 0004 7047     		bx	lr
 3146              	.L367:
1099:Libraries/ctrl_drv/i2c/mpu6050/MPU6050.c ****     if (num > 3) return;
 3147              		.loc 1 1099 65 view .LVU423
 3148 0006 08B5     		push	{r3, lr}
 3149              	.LCFI95:
 3150              		.cfi_def_cfa_offset 8
 3151              		.cfi_offset 3, -8
 3152              		.cfi_offset 14, -4
ARM GAS  C:\Users\Mxuan\AppData\Local\Temp\ccfnFihP.s 			page 74


1101:Libraries/ctrl_drv/i2c/mpu6050/MPU6050.c ****     I2Cdev_writeBit(mpu6050.devAddr, MPU6050_RA_I2C_SLV0_CTRL + num*3, MPU6050_I2C_SLV_GRP_BIT, ena
 3153              		.loc 1 1101 5 is_stmt 1 view .LVU424
 3154 0008 00EB4000 		add	r0, r0, r0, lsl #1
 3155              	.LVL168:
 3156              		.loc 1 1101 5 is_stmt 0 view .LVU425
 3157 000c 2730     		adds	r0, r0, #39
 3158 000e 0B46     		mov	r3, r1
 3159 0010 0422     		movs	r2, #4
 3160 0012 C1B2     		uxtb	r1, r0
 3161              	.LVL169:
 3162              		.loc 1 1101 5 view .LVU426
 3163 0014 0248     		ldr	r0, .L368
 3164 0016 0078     		ldrb	r0, [r0]	@ zero_extendqisi2
 3165 0018 FFF7FEFF 		bl	I2Cdev_writeBit
 3166              	.LVL170:
1102:Libraries/ctrl_drv/i2c/mpu6050/MPU6050.c **** }
 3167              		.loc 1 1102 1 view .LVU427
 3168 001c 08BD     		pop	{r3, pc}
 3169              	.L369:
 3170 001e 00BF     		.align	2
 3171              	.L368:
 3172 0020 00000000 		.word	mpu6050
 3173              		.cfi_endproc
 3174              	.LFE74:
 3176              		.section	.text.MPU6050_getSlaveDataLength,"ax",%progbits
 3177              		.align	1
 3178              		.global	MPU6050_getSlaveDataLength
 3179              		.syntax unified
 3180              		.thumb
 3181              		.thumb_func
 3183              	MPU6050_getSlaveDataLength:
 3184              	.LVL171:
 3185              	.LFB75:
1103:Libraries/ctrl_drv/i2c/mpu6050/MPU6050.c **** /** Get number of bytes to read for the specified slave (0-3).
1104:Libraries/ctrl_drv/i2c/mpu6050/MPU6050.c ****  * Specifies the number of bytes transferred to and from Slave 0. Clearing this
1105:Libraries/ctrl_drv/i2c/mpu6050/MPU6050.c ****  * bit to 0 is equivalent to disabling the register by writing 0 to I2C_SLV0_EN.
1106:Libraries/ctrl_drv/i2c/mpu6050/MPU6050.c ****  * @param num Slave number (0-3)
1107:Libraries/ctrl_drv/i2c/mpu6050/MPU6050.c ****  * @return Number of bytes to read for specified slave
1108:Libraries/ctrl_drv/i2c/mpu6050/MPU6050.c ****  * @see MPU6050_RA_I2C_SLV0_CTRL
1109:Libraries/ctrl_drv/i2c/mpu6050/MPU6050.c ****  */
1110:Libraries/ctrl_drv/i2c/mpu6050/MPU6050.c **** uint8_t MPU6050_getSlaveDataLength(uint8_t num) {
 3186              		.loc 1 1110 49 is_stmt 1 view -0
 3187              		.cfi_startproc
 3188              		@ args = 0, pretend = 0, frame = 0
 3189              		@ frame_needed = 0, uses_anonymous_args = 0
1111:Libraries/ctrl_drv/i2c/mpu6050/MPU6050.c ****     if (num > 3) return 0;
 3190              		.loc 1 1111 5 view .LVU429
 3191              		.loc 1 1111 8 is_stmt 0 view .LVU430
 3192 0000 0328     		cmp	r0, #3
 3193 0002 01D9     		bls	.L377
 3194              		.loc 1 1111 25 view .LVU431
 3195 0004 0020     		movs	r0, #0
 3196              	.LVL172:
1112:Libraries/ctrl_drv/i2c/mpu6050/MPU6050.c ****     I2Cdev_readBits(mpu6050.devAddr, MPU6050_RA_I2C_SLV0_CTRL + num*3, MPU6050_I2C_SLV_LEN_BIT, MPU
1113:Libraries/ctrl_drv/i2c/mpu6050/MPU6050.c ****     return mpu6050.buffer[0];
1114:Libraries/ctrl_drv/i2c/mpu6050/MPU6050.c **** }
 3197              		.loc 1 1114 1 view .LVU432
ARM GAS  C:\Users\Mxuan\AppData\Local\Temp\ccfnFihP.s 			page 75


 3198 0006 7047     		bx	lr
 3199              	.LVL173:
 3200              	.L377:
1110:Libraries/ctrl_drv/i2c/mpu6050/MPU6050.c ****     if (num > 3) return 0;
 3201              		.loc 1 1110 49 view .LVU433
 3202 0008 10B5     		push	{r4, lr}
 3203              	.LCFI96:
 3204              		.cfi_def_cfa_offset 8
 3205              		.cfi_offset 4, -8
 3206              		.cfi_offset 14, -4
 3207 000a 82B0     		sub	sp, sp, #8
 3208              	.LCFI97:
 3209              		.cfi_def_cfa_offset 16
1112:Libraries/ctrl_drv/i2c/mpu6050/MPU6050.c ****     I2Cdev_readBits(mpu6050.devAddr, MPU6050_RA_I2C_SLV0_CTRL + num*3, MPU6050_I2C_SLV_LEN_BIT, MPU
 3210              		.loc 1 1112 5 is_stmt 1 view .LVU434
 3211 000c 00EB4000 		add	r0, r0, r0, lsl #1
 3212              	.LVL174:
1112:Libraries/ctrl_drv/i2c/mpu6050/MPU6050.c ****     I2Cdev_readBits(mpu6050.devAddr, MPU6050_RA_I2C_SLV0_CTRL + num*3, MPU6050_I2C_SLV_LEN_BIT, MPU
 3213              		.loc 1 1112 5 is_stmt 0 view .LVU435
 3214 0010 00F12701 		add	r1, r0, #39
 3215 0014 064C     		ldr	r4, .L378
 3216 0016 2346     		mov	r3, r4
 3217 0018 13F8010B 		ldrb	r0, [r3], #1	@ zero_extendqisi2
 3218 001c 0093     		str	r3, [sp]
 3219 001e 0423     		movs	r3, #4
 3220 0020 0322     		movs	r2, #3
 3221 0022 C9B2     		uxtb	r1, r1
 3222 0024 FFF7FEFF 		bl	I2Cdev_readBits
 3223              	.LVL175:
1113:Libraries/ctrl_drv/i2c/mpu6050/MPU6050.c **** }
 3224              		.loc 1 1113 5 is_stmt 1 view .LVU436
1113:Libraries/ctrl_drv/i2c/mpu6050/MPU6050.c **** }
 3225              		.loc 1 1113 26 is_stmt 0 view .LVU437
 3226 0028 6078     		ldrb	r0, [r4, #1]	@ zero_extendqisi2
 3227              		.loc 1 1114 1 view .LVU438
 3228 002a 02B0     		add	sp, sp, #8
 3229              	.LCFI98:
 3230              		.cfi_def_cfa_offset 8
 3231              		@ sp needed
 3232 002c 10BD     		pop	{r4, pc}
 3233              	.L379:
 3234 002e 00BF     		.align	2
 3235              	.L378:
 3236 0030 00000000 		.word	mpu6050
 3237              		.cfi_endproc
 3238              	.LFE75:
 3240              		.section	.text.MPU6050_setSlaveDataLength,"ax",%progbits
 3241              		.align	1
 3242              		.global	MPU6050_setSlaveDataLength
 3243              		.syntax unified
 3244              		.thumb
 3245              		.thumb_func
 3247              	MPU6050_setSlaveDataLength:
 3248              	.LVL176:
 3249              	.LFB76:
1115:Libraries/ctrl_drv/i2c/mpu6050/MPU6050.c **** /** Set number of bytes to read for the specified slave (0-3).
1116:Libraries/ctrl_drv/i2c/mpu6050/MPU6050.c ****  * @param num Slave number (0-3)
ARM GAS  C:\Users\Mxuan\AppData\Local\Temp\ccfnFihP.s 			page 76


1117:Libraries/ctrl_drv/i2c/mpu6050/MPU6050.c ****  * @param length Number of bytes to read for specified slave
1118:Libraries/ctrl_drv/i2c/mpu6050/MPU6050.c ****  * @see getSlaveDataLength()
1119:Libraries/ctrl_drv/i2c/mpu6050/MPU6050.c ****  * @see MPU6050_RA_I2C_SLV0_CTRL
1120:Libraries/ctrl_drv/i2c/mpu6050/MPU6050.c ****  */
1121:Libraries/ctrl_drv/i2c/mpu6050/MPU6050.c **** void MPU6050_setSlaveDataLength(uint8_t num, uint8_t length) {
 3250              		.loc 1 1121 62 is_stmt 1 view -0
 3251              		.cfi_startproc
 3252              		@ args = 0, pretend = 0, frame = 0
 3253              		@ frame_needed = 0, uses_anonymous_args = 0
1122:Libraries/ctrl_drv/i2c/mpu6050/MPU6050.c ****     if (num > 3) return;
 3254              		.loc 1 1122 5 view .LVU440
 3255              		.loc 1 1122 8 is_stmt 0 view .LVU441
 3256 0000 0328     		cmp	r0, #3
 3257 0002 00D9     		bls	.L386
 3258 0004 7047     		bx	lr
 3259              	.L386:
1121:Libraries/ctrl_drv/i2c/mpu6050/MPU6050.c ****     if (num > 3) return;
 3260              		.loc 1 1121 62 view .LVU442
 3261 0006 00B5     		push	{lr}
 3262              	.LCFI99:
 3263              		.cfi_def_cfa_offset 4
 3264              		.cfi_offset 14, -4
 3265 0008 83B0     		sub	sp, sp, #12
 3266              	.LCFI100:
 3267              		.cfi_def_cfa_offset 16
1123:Libraries/ctrl_drv/i2c/mpu6050/MPU6050.c ****     I2Cdev_writeBits(mpu6050.devAddr, MPU6050_RA_I2C_SLV0_CTRL + num*3, MPU6050_I2C_SLV_LEN_BIT, MP
 3268              		.loc 1 1123 5 is_stmt 1 view .LVU443
 3269 000a 00EB4000 		add	r0, r0, r0, lsl #1
 3270              	.LVL177:
 3271              		.loc 1 1123 5 is_stmt 0 view .LVU444
 3272 000e 2730     		adds	r0, r0, #39
 3273 0010 0091     		str	r1, [sp]
 3274 0012 0423     		movs	r3, #4
 3275 0014 0322     		movs	r2, #3
 3276 0016 C1B2     		uxtb	r1, r0
 3277              	.LVL178:
 3278              		.loc 1 1123 5 view .LVU445
 3279 0018 0348     		ldr	r0, .L387
 3280 001a 0078     		ldrb	r0, [r0]	@ zero_extendqisi2
 3281 001c FFF7FEFF 		bl	I2Cdev_writeBits
 3282              	.LVL179:
1124:Libraries/ctrl_drv/i2c/mpu6050/MPU6050.c **** }
 3283              		.loc 1 1124 1 view .LVU446
 3284 0020 03B0     		add	sp, sp, #12
 3285              	.LCFI101:
 3286              		.cfi_def_cfa_offset 4
 3287              		@ sp needed
 3288 0022 5DF804FB 		ldr	pc, [sp], #4
 3289              	.L388:
 3290 0026 00BF     		.align	2
 3291              	.L387:
 3292 0028 00000000 		.word	mpu6050
 3293              		.cfi_endproc
 3294              	.LFE76:
 3296              		.section	.text.MPU6050_getSlave4Address,"ax",%progbits
 3297              		.align	1
 3298              		.global	MPU6050_getSlave4Address
ARM GAS  C:\Users\Mxuan\AppData\Local\Temp\ccfnFihP.s 			page 77


 3299              		.syntax unified
 3300              		.thumb
 3301              		.thumb_func
 3303              	MPU6050_getSlave4Address:
 3304              	.LFB77:
1125:Libraries/ctrl_drv/i2c/mpu6050/MPU6050.c **** 
1126:Libraries/ctrl_drv/i2c/mpu6050/MPU6050.c **** // I2C_SLV* registers (Slave 4)
1127:Libraries/ctrl_drv/i2c/mpu6050/MPU6050.c **** 
1128:Libraries/ctrl_drv/i2c/mpu6050/MPU6050.c **** /** Get the I2C address of Slave 4.
1129:Libraries/ctrl_drv/i2c/mpu6050/MPU6050.c ****  * Note that Bit 7 (MSB) controls read/write mode. If Bit 7 is set, it's a read
1130:Libraries/ctrl_drv/i2c/mpu6050/MPU6050.c ****  * operation, and if it is cleared, then it's a write operation. The remaining
1131:Libraries/ctrl_drv/i2c/mpu6050/MPU6050.c ****  * bits (6-0) are the 7-bit device address of the slave device.
1132:Libraries/ctrl_drv/i2c/mpu6050/MPU6050.c ****  *
1133:Libraries/ctrl_drv/i2c/mpu6050/MPU6050.c ****  * @return Current address for Slave 4
1134:Libraries/ctrl_drv/i2c/mpu6050/MPU6050.c ****  * @see getSlaveAddress()
1135:Libraries/ctrl_drv/i2c/mpu6050/MPU6050.c ****  * @see MPU6050_RA_I2C_SLV4_ADDR
1136:Libraries/ctrl_drv/i2c/mpu6050/MPU6050.c ****  */
1137:Libraries/ctrl_drv/i2c/mpu6050/MPU6050.c **** uint8_t MPU6050_getSlave4Address() {
 3305              		.loc 1 1137 36 is_stmt 1 view -0
 3306              		.cfi_startproc
 3307              		@ args = 0, pretend = 0, frame = 0
 3308              		@ frame_needed = 0, uses_anonymous_args = 0
 3309 0000 10B5     		push	{r4, lr}
 3310              	.LCFI102:
 3311              		.cfi_def_cfa_offset 8
 3312              		.cfi_offset 4, -8
 3313              		.cfi_offset 14, -4
1138:Libraries/ctrl_drv/i2c/mpu6050/MPU6050.c ****     I2Cdev_readByte(mpu6050.devAddr, MPU6050_RA_I2C_SLV4_ADDR, mpu6050.buffer);
 3314              		.loc 1 1138 5 view .LVU448
 3315 0002 044A     		ldr	r2, .L391
 3316 0004 541E     		subs	r4, r2, #1
 3317 0006 3121     		movs	r1, #49
 3318 0008 12F8010C 		ldrb	r0, [r2, #-1]	@ zero_extendqisi2
 3319 000c FFF7FEFF 		bl	I2Cdev_readByte
 3320              	.LVL180:
1139:Libraries/ctrl_drv/i2c/mpu6050/MPU6050.c ****     return mpu6050.buffer[0];
 3321              		.loc 1 1139 5 view .LVU449
1140:Libraries/ctrl_drv/i2c/mpu6050/MPU6050.c **** }
 3322              		.loc 1 1140 1 is_stmt 0 view .LVU450
 3323 0010 6078     		ldrb	r0, [r4, #1]	@ zero_extendqisi2
 3324 0012 10BD     		pop	{r4, pc}
 3325              	.L392:
 3326              		.align	2
 3327              	.L391:
 3328 0014 01000000 		.word	mpu6050+1
 3329              		.cfi_endproc
 3330              	.LFE77:
 3332              		.section	.text.MPU6050_setSlave4Address,"ax",%progbits
 3333              		.align	1
 3334              		.global	MPU6050_setSlave4Address
 3335              		.syntax unified
 3336              		.thumb
 3337              		.thumb_func
 3339              	MPU6050_setSlave4Address:
 3340              	.LVL181:
 3341              	.LFB78:
1141:Libraries/ctrl_drv/i2c/mpu6050/MPU6050.c **** /** Set the I2C address of Slave 4.
ARM GAS  C:\Users\Mxuan\AppData\Local\Temp\ccfnFihP.s 			page 78


1142:Libraries/ctrl_drv/i2c/mpu6050/MPU6050.c ****  * @param address New address for Slave 4
1143:Libraries/ctrl_drv/i2c/mpu6050/MPU6050.c ****  * @see getSlave4Address()
1144:Libraries/ctrl_drv/i2c/mpu6050/MPU6050.c ****  * @see MPU6050_RA_I2C_SLV4_ADDR
1145:Libraries/ctrl_drv/i2c/mpu6050/MPU6050.c ****  */
1146:Libraries/ctrl_drv/i2c/mpu6050/MPU6050.c **** void MPU6050_setSlave4Address(uint8_t address) {
 3342              		.loc 1 1146 48 is_stmt 1 view -0
 3343              		.cfi_startproc
 3344              		@ args = 0, pretend = 0, frame = 0
 3345              		@ frame_needed = 0, uses_anonymous_args = 0
 3346              		.loc 1 1146 48 is_stmt 0 view .LVU452
 3347 0000 08B5     		push	{r3, lr}
 3348              	.LCFI103:
 3349              		.cfi_def_cfa_offset 8
 3350              		.cfi_offset 3, -8
 3351              		.cfi_offset 14, -4
 3352 0002 0246     		mov	r2, r0
1147:Libraries/ctrl_drv/i2c/mpu6050/MPU6050.c ****     I2Cdev_writeByte(mpu6050.devAddr, MPU6050_RA_I2C_SLV4_ADDR, address);
 3353              		.loc 1 1147 5 is_stmt 1 view .LVU453
 3354 0004 3121     		movs	r1, #49
 3355 0006 024B     		ldr	r3, .L395
 3356 0008 1878     		ldrb	r0, [r3]	@ zero_extendqisi2
 3357              	.LVL182:
 3358              		.loc 1 1147 5 is_stmt 0 view .LVU454
 3359 000a FFF7FEFF 		bl	I2Cdev_writeByte
 3360              	.LVL183:
1148:Libraries/ctrl_drv/i2c/mpu6050/MPU6050.c **** }
 3361              		.loc 1 1148 1 view .LVU455
 3362 000e 08BD     		pop	{r3, pc}
 3363              	.L396:
 3364              		.align	2
 3365              	.L395:
 3366 0010 00000000 		.word	mpu6050
 3367              		.cfi_endproc
 3368              	.LFE78:
 3370              		.section	.text.MPU6050_getSlave4Register,"ax",%progbits
 3371              		.align	1
 3372              		.global	MPU6050_getSlave4Register
 3373              		.syntax unified
 3374              		.thumb
 3375              		.thumb_func
 3377              	MPU6050_getSlave4Register:
 3378              	.LFB79:
1149:Libraries/ctrl_drv/i2c/mpu6050/MPU6050.c **** /** Get the active internal register for the Slave 4.
1150:Libraries/ctrl_drv/i2c/mpu6050/MPU6050.c ****  * Read/write operations for this slave will be done to whatever internal
1151:Libraries/ctrl_drv/i2c/mpu6050/MPU6050.c ****  * register address is stored in this MPU register.
1152:Libraries/ctrl_drv/i2c/mpu6050/MPU6050.c ****  *
1153:Libraries/ctrl_drv/i2c/mpu6050/MPU6050.c ****  * @return Current active register for Slave 4
1154:Libraries/ctrl_drv/i2c/mpu6050/MPU6050.c ****  * @see MPU6050_RA_I2C_SLV4_REG
1155:Libraries/ctrl_drv/i2c/mpu6050/MPU6050.c ****  */
1156:Libraries/ctrl_drv/i2c/mpu6050/MPU6050.c **** uint8_t MPU6050_getSlave4Register() {
 3379              		.loc 1 1156 37 is_stmt 1 view -0
 3380              		.cfi_startproc
 3381              		@ args = 0, pretend = 0, frame = 0
 3382              		@ frame_needed = 0, uses_anonymous_args = 0
 3383 0000 10B5     		push	{r4, lr}
 3384              	.LCFI104:
 3385              		.cfi_def_cfa_offset 8
ARM GAS  C:\Users\Mxuan\AppData\Local\Temp\ccfnFihP.s 			page 79


 3386              		.cfi_offset 4, -8
 3387              		.cfi_offset 14, -4
1157:Libraries/ctrl_drv/i2c/mpu6050/MPU6050.c ****     I2Cdev_readByte(mpu6050.devAddr, MPU6050_RA_I2C_SLV4_REG, mpu6050.buffer);
 3388              		.loc 1 1157 5 view .LVU457
 3389 0002 044A     		ldr	r2, .L399
 3390 0004 541E     		subs	r4, r2, #1
 3391 0006 3221     		movs	r1, #50
 3392 0008 12F8010C 		ldrb	r0, [r2, #-1]	@ zero_extendqisi2
 3393 000c FFF7FEFF 		bl	I2Cdev_readByte
 3394              	.LVL184:
1158:Libraries/ctrl_drv/i2c/mpu6050/MPU6050.c ****     return mpu6050.buffer[0];
 3395              		.loc 1 1158 5 view .LVU458
1159:Libraries/ctrl_drv/i2c/mpu6050/MPU6050.c **** }
 3396              		.loc 1 1159 1 is_stmt 0 view .LVU459
 3397 0010 6078     		ldrb	r0, [r4, #1]	@ zero_extendqisi2
 3398 0012 10BD     		pop	{r4, pc}
 3399              	.L400:
 3400              		.align	2
 3401              	.L399:
 3402 0014 01000000 		.word	mpu6050+1
 3403              		.cfi_endproc
 3404              	.LFE79:
 3406              		.section	.text.MPU6050_setSlave4Register,"ax",%progbits
 3407              		.align	1
 3408              		.global	MPU6050_setSlave4Register
 3409              		.syntax unified
 3410              		.thumb
 3411              		.thumb_func
 3413              	MPU6050_setSlave4Register:
 3414              	.LVL185:
 3415              	.LFB80:
1160:Libraries/ctrl_drv/i2c/mpu6050/MPU6050.c **** /** Set the active internal register for Slave 4.
1161:Libraries/ctrl_drv/i2c/mpu6050/MPU6050.c ****  * @param reg New active register for Slave 4
1162:Libraries/ctrl_drv/i2c/mpu6050/MPU6050.c ****  * @see getSlave4Register()
1163:Libraries/ctrl_drv/i2c/mpu6050/MPU6050.c ****  * @see MPU6050_RA_I2C_SLV4_REG
1164:Libraries/ctrl_drv/i2c/mpu6050/MPU6050.c ****  */
1165:Libraries/ctrl_drv/i2c/mpu6050/MPU6050.c **** void MPU6050_setSlave4Register(uint8_t reg) {
 3416              		.loc 1 1165 45 is_stmt 1 view -0
 3417              		.cfi_startproc
 3418              		@ args = 0, pretend = 0, frame = 0
 3419              		@ frame_needed = 0, uses_anonymous_args = 0
 3420              		.loc 1 1165 45 is_stmt 0 view .LVU461
 3421 0000 08B5     		push	{r3, lr}
 3422              	.LCFI105:
 3423              		.cfi_def_cfa_offset 8
 3424              		.cfi_offset 3, -8
 3425              		.cfi_offset 14, -4
 3426 0002 0246     		mov	r2, r0
1166:Libraries/ctrl_drv/i2c/mpu6050/MPU6050.c ****     I2Cdev_writeByte(mpu6050.devAddr, MPU6050_RA_I2C_SLV4_REG, reg);
 3427              		.loc 1 1166 5 is_stmt 1 view .LVU462
 3428 0004 3221     		movs	r1, #50
 3429 0006 024B     		ldr	r3, .L403
 3430 0008 1878     		ldrb	r0, [r3]	@ zero_extendqisi2
 3431              	.LVL186:
 3432              		.loc 1 1166 5 is_stmt 0 view .LVU463
 3433 000a FFF7FEFF 		bl	I2Cdev_writeByte
 3434              	.LVL187:
ARM GAS  C:\Users\Mxuan\AppData\Local\Temp\ccfnFihP.s 			page 80


1167:Libraries/ctrl_drv/i2c/mpu6050/MPU6050.c **** }
 3435              		.loc 1 1167 1 view .LVU464
 3436 000e 08BD     		pop	{r3, pc}
 3437              	.L404:
 3438              		.align	2
 3439              	.L403:
 3440 0010 00000000 		.word	mpu6050
 3441              		.cfi_endproc
 3442              	.LFE80:
 3444              		.section	.text.MPU6050_setSlave4OutputByte,"ax",%progbits
 3445              		.align	1
 3446              		.global	MPU6050_setSlave4OutputByte
 3447              		.syntax unified
 3448              		.thumb
 3449              		.thumb_func
 3451              	MPU6050_setSlave4OutputByte:
 3452              	.LVL188:
 3453              	.LFB81:
1168:Libraries/ctrl_drv/i2c/mpu6050/MPU6050.c **** /** Set new byte to write to Slave 4.
1169:Libraries/ctrl_drv/i2c/mpu6050/MPU6050.c ****  * This register stores the data to be written into the Slave 4. If I2C_SLV4_RW
1170:Libraries/ctrl_drv/i2c/mpu6050/MPU6050.c ****  * is set 1 (set to read), this register has no effect.
1171:Libraries/ctrl_drv/i2c/mpu6050/MPU6050.c ****  * @param data New byte to write to Slave 4
1172:Libraries/ctrl_drv/i2c/mpu6050/MPU6050.c ****  * @see MPU6050_RA_I2C_SLV4_DO
1173:Libraries/ctrl_drv/i2c/mpu6050/MPU6050.c ****  */
1174:Libraries/ctrl_drv/i2c/mpu6050/MPU6050.c **** void MPU6050_setSlave4OutputByte(uint8_t data) {
 3454              		.loc 1 1174 48 is_stmt 1 view -0
 3455              		.cfi_startproc
 3456              		@ args = 0, pretend = 0, frame = 0
 3457              		@ frame_needed = 0, uses_anonymous_args = 0
 3458              		.loc 1 1174 48 is_stmt 0 view .LVU466
 3459 0000 08B5     		push	{r3, lr}
 3460              	.LCFI106:
 3461              		.cfi_def_cfa_offset 8
 3462              		.cfi_offset 3, -8
 3463              		.cfi_offset 14, -4
 3464 0002 0246     		mov	r2, r0
1175:Libraries/ctrl_drv/i2c/mpu6050/MPU6050.c ****     I2Cdev_writeByte(mpu6050.devAddr, MPU6050_RA_I2C_SLV4_DO, data);
 3465              		.loc 1 1175 5 is_stmt 1 view .LVU467
 3466 0004 3321     		movs	r1, #51
 3467 0006 024B     		ldr	r3, .L407
 3468 0008 1878     		ldrb	r0, [r3]	@ zero_extendqisi2
 3469              	.LVL189:
 3470              		.loc 1 1175 5 is_stmt 0 view .LVU468
 3471 000a FFF7FEFF 		bl	I2Cdev_writeByte
 3472              	.LVL190:
1176:Libraries/ctrl_drv/i2c/mpu6050/MPU6050.c **** }
 3473              		.loc 1 1176 1 view .LVU469
 3474 000e 08BD     		pop	{r3, pc}
 3475              	.L408:
 3476              		.align	2
 3477              	.L407:
 3478 0010 00000000 		.word	mpu6050
 3479              		.cfi_endproc
 3480              	.LFE81:
 3482              		.section	.text.MPU6050_getSlave4Enabled,"ax",%progbits
 3483              		.align	1
 3484              		.global	MPU6050_getSlave4Enabled
ARM GAS  C:\Users\Mxuan\AppData\Local\Temp\ccfnFihP.s 			page 81


 3485              		.syntax unified
 3486              		.thumb
 3487              		.thumb_func
 3489              	MPU6050_getSlave4Enabled:
 3490              	.LFB82:
1177:Libraries/ctrl_drv/i2c/mpu6050/MPU6050.c **** /** Get the enabled value for the Slave 4.
1178:Libraries/ctrl_drv/i2c/mpu6050/MPU6050.c ****  * When set to 1, this bit enables Slave 4 for data transfer operations. When
1179:Libraries/ctrl_drv/i2c/mpu6050/MPU6050.c ****  * cleared to 0, this bit disables Slave 4 from data transfer operations.
1180:Libraries/ctrl_drv/i2c/mpu6050/MPU6050.c ****  * @return Current enabled value for Slave 4
1181:Libraries/ctrl_drv/i2c/mpu6050/MPU6050.c ****  * @see MPU6050_RA_I2C_SLV4_CTRL
1182:Libraries/ctrl_drv/i2c/mpu6050/MPU6050.c ****  */
1183:Libraries/ctrl_drv/i2c/mpu6050/MPU6050.c **** bool MPU6050_getSlave4Enabled() {
 3491              		.loc 1 1183 33 is_stmt 1 view -0
 3492              		.cfi_startproc
 3493              		@ args = 0, pretend = 0, frame = 0
 3494              		@ frame_needed = 0, uses_anonymous_args = 0
 3495 0000 10B5     		push	{r4, lr}
 3496              	.LCFI107:
 3497              		.cfi_def_cfa_offset 8
 3498              		.cfi_offset 4, -8
 3499              		.cfi_offset 14, -4
1184:Libraries/ctrl_drv/i2c/mpu6050/MPU6050.c ****     I2Cdev_readBit(mpu6050.devAddr, MPU6050_RA_I2C_SLV4_CTRL, MPU6050_I2C_SLV4_EN_BIT, mpu6050.buff
 3500              		.loc 1 1184 5 view .LVU471
 3501 0002 064B     		ldr	r3, .L411
 3502 0004 5C1E     		subs	r4, r3, #1
 3503 0006 0722     		movs	r2, #7
 3504 0008 3421     		movs	r1, #52
 3505 000a 13F8010C 		ldrb	r0, [r3, #-1]	@ zero_extendqisi2
 3506 000e FFF7FEFF 		bl	I2Cdev_readBit
 3507              	.LVL191:
1185:Libraries/ctrl_drv/i2c/mpu6050/MPU6050.c ****     return mpu6050.buffer[0];
 3508              		.loc 1 1185 5 view .LVU472
 3509              		.loc 1 1185 26 is_stmt 0 view .LVU473
 3510 0012 6078     		ldrb	r0, [r4, #1]	@ zero_extendqisi2
1186:Libraries/ctrl_drv/i2c/mpu6050/MPU6050.c **** }
 3511              		.loc 1 1186 1 view .LVU474
 3512 0014 0038     		subs	r0, r0, #0
 3513 0016 18BF     		it	ne
 3514 0018 0120     		movne	r0, #1
 3515 001a 10BD     		pop	{r4, pc}
 3516              	.L412:
 3517              		.align	2
 3518              	.L411:
 3519 001c 01000000 		.word	mpu6050+1
 3520              		.cfi_endproc
 3521              	.LFE82:
 3523              		.section	.text.MPU6050_setSlave4Enabled,"ax",%progbits
 3524              		.align	1
 3525              		.global	MPU6050_setSlave4Enabled
 3526              		.syntax unified
 3527              		.thumb
 3528              		.thumb_func
 3530              	MPU6050_setSlave4Enabled:
 3531              	.LVL192:
 3532              	.LFB83:
1187:Libraries/ctrl_drv/i2c/mpu6050/MPU6050.c **** /** Set the enabled value for Slave 4.
1188:Libraries/ctrl_drv/i2c/mpu6050/MPU6050.c ****  * @param enabled New enabled value for Slave 4
ARM GAS  C:\Users\Mxuan\AppData\Local\Temp\ccfnFihP.s 			page 82


1189:Libraries/ctrl_drv/i2c/mpu6050/MPU6050.c ****  * @see getSlave4Enabled()
1190:Libraries/ctrl_drv/i2c/mpu6050/MPU6050.c ****  * @see MPU6050_RA_I2C_SLV4_CTRL
1191:Libraries/ctrl_drv/i2c/mpu6050/MPU6050.c ****  */
1192:Libraries/ctrl_drv/i2c/mpu6050/MPU6050.c **** void MPU6050_setSlave4Enabled(bool enabled) {
 3533              		.loc 1 1192 45 is_stmt 1 view -0
 3534              		.cfi_startproc
 3535              		@ args = 0, pretend = 0, frame = 0
 3536              		@ frame_needed = 0, uses_anonymous_args = 0
 3537              		.loc 1 1192 45 is_stmt 0 view .LVU476
 3538 0000 08B5     		push	{r3, lr}
 3539              	.LCFI108:
 3540              		.cfi_def_cfa_offset 8
 3541              		.cfi_offset 3, -8
 3542              		.cfi_offset 14, -4
 3543 0002 0346     		mov	r3, r0
1193:Libraries/ctrl_drv/i2c/mpu6050/MPU6050.c ****     I2Cdev_writeBit(mpu6050.devAddr, MPU6050_RA_I2C_SLV4_CTRL, MPU6050_I2C_SLV4_EN_BIT, enabled);
 3544              		.loc 1 1193 5 is_stmt 1 view .LVU477
 3545 0004 0722     		movs	r2, #7
 3546 0006 3421     		movs	r1, #52
 3547 0008 0248     		ldr	r0, .L415
 3548              	.LVL193:
 3549              		.loc 1 1193 5 is_stmt 0 view .LVU478
 3550 000a 0078     		ldrb	r0, [r0]	@ zero_extendqisi2
 3551 000c FFF7FEFF 		bl	I2Cdev_writeBit
 3552              	.LVL194:
1194:Libraries/ctrl_drv/i2c/mpu6050/MPU6050.c **** }
 3553              		.loc 1 1194 1 view .LVU479
 3554 0010 08BD     		pop	{r3, pc}
 3555              	.L416:
 3556 0012 00BF     		.align	2
 3557              	.L415:
 3558 0014 00000000 		.word	mpu6050
 3559              		.cfi_endproc
 3560              	.LFE83:
 3562              		.section	.text.MPU6050_getSlave4InterruptEnabled,"ax",%progbits
 3563              		.align	1
 3564              		.global	MPU6050_getSlave4InterruptEnabled
 3565              		.syntax unified
 3566              		.thumb
 3567              		.thumb_func
 3569              	MPU6050_getSlave4InterruptEnabled:
 3570              	.LFB84:
1195:Libraries/ctrl_drv/i2c/mpu6050/MPU6050.c **** /** Get the enabled value for Slave 4 transaction interrupts.
1196:Libraries/ctrl_drv/i2c/mpu6050/MPU6050.c ****  * When set to 1, this bit enables the generation of an interrupt signal upon
1197:Libraries/ctrl_drv/i2c/mpu6050/MPU6050.c ****  * completion of a Slave 4 transaction. When cleared to 0, this bit disables the
1198:Libraries/ctrl_drv/i2c/mpu6050/MPU6050.c ****  * generation of an interrupt signal upon completion of a Slave 4 transaction.
1199:Libraries/ctrl_drv/i2c/mpu6050/MPU6050.c ****  * The interrupt status can be observed in Register 54.
1200:Libraries/ctrl_drv/i2c/mpu6050/MPU6050.c ****  *
1201:Libraries/ctrl_drv/i2c/mpu6050/MPU6050.c ****  * @return Current enabled value for Slave 4 transaction interrupts.
1202:Libraries/ctrl_drv/i2c/mpu6050/MPU6050.c ****  * @see MPU6050_RA_I2C_SLV4_CTRL
1203:Libraries/ctrl_drv/i2c/mpu6050/MPU6050.c ****  */
1204:Libraries/ctrl_drv/i2c/mpu6050/MPU6050.c **** bool MPU6050_getSlave4InterruptEnabled() {
 3571              		.loc 1 1204 42 is_stmt 1 view -0
 3572              		.cfi_startproc
 3573              		@ args = 0, pretend = 0, frame = 0
 3574              		@ frame_needed = 0, uses_anonymous_args = 0
 3575 0000 10B5     		push	{r4, lr}
ARM GAS  C:\Users\Mxuan\AppData\Local\Temp\ccfnFihP.s 			page 83


 3576              	.LCFI109:
 3577              		.cfi_def_cfa_offset 8
 3578              		.cfi_offset 4, -8
 3579              		.cfi_offset 14, -4
1205:Libraries/ctrl_drv/i2c/mpu6050/MPU6050.c ****     I2Cdev_readBit(mpu6050.devAddr, MPU6050_RA_I2C_SLV4_CTRL, MPU6050_I2C_SLV4_INT_EN_BIT, mpu6050.
 3580              		.loc 1 1205 5 view .LVU481
 3581 0002 064B     		ldr	r3, .L419
 3582 0004 5C1E     		subs	r4, r3, #1
 3583 0006 0622     		movs	r2, #6
 3584 0008 3421     		movs	r1, #52
 3585 000a 13F8010C 		ldrb	r0, [r3, #-1]	@ zero_extendqisi2
 3586 000e FFF7FEFF 		bl	I2Cdev_readBit
 3587              	.LVL195:
1206:Libraries/ctrl_drv/i2c/mpu6050/MPU6050.c ****     return mpu6050.buffer[0];
 3588              		.loc 1 1206 5 view .LVU482
 3589              		.loc 1 1206 26 is_stmt 0 view .LVU483
 3590 0012 6078     		ldrb	r0, [r4, #1]	@ zero_extendqisi2
1207:Libraries/ctrl_drv/i2c/mpu6050/MPU6050.c **** }
 3591              		.loc 1 1207 1 view .LVU484
 3592 0014 0038     		subs	r0, r0, #0
 3593 0016 18BF     		it	ne
 3594 0018 0120     		movne	r0, #1
 3595 001a 10BD     		pop	{r4, pc}
 3596              	.L420:
 3597              		.align	2
 3598              	.L419:
 3599 001c 01000000 		.word	mpu6050+1
 3600              		.cfi_endproc
 3601              	.LFE84:
 3603              		.section	.text.MPU6050_setSlave4InterruptEnabled,"ax",%progbits
 3604              		.align	1
 3605              		.global	MPU6050_setSlave4InterruptEnabled
 3606              		.syntax unified
 3607              		.thumb
 3608              		.thumb_func
 3610              	MPU6050_setSlave4InterruptEnabled:
 3611              	.LVL196:
 3612              	.LFB85:
1208:Libraries/ctrl_drv/i2c/mpu6050/MPU6050.c **** /** Set the enabled value for Slave 4 transaction interrupts.
1209:Libraries/ctrl_drv/i2c/mpu6050/MPU6050.c ****  * @param enabled New enabled value for Slave 4 transaction interrupts.
1210:Libraries/ctrl_drv/i2c/mpu6050/MPU6050.c ****  * @see getSlave4InterruptEnabled()
1211:Libraries/ctrl_drv/i2c/mpu6050/MPU6050.c ****  * @see MPU6050_RA_I2C_SLV4_CTRL
1212:Libraries/ctrl_drv/i2c/mpu6050/MPU6050.c ****  */
1213:Libraries/ctrl_drv/i2c/mpu6050/MPU6050.c **** void MPU6050_setSlave4InterruptEnabled(bool enabled) {
 3613              		.loc 1 1213 54 is_stmt 1 view -0
 3614              		.cfi_startproc
 3615              		@ args = 0, pretend = 0, frame = 0
 3616              		@ frame_needed = 0, uses_anonymous_args = 0
 3617              		.loc 1 1213 54 is_stmt 0 view .LVU486
 3618 0000 08B5     		push	{r3, lr}
 3619              	.LCFI110:
 3620              		.cfi_def_cfa_offset 8
 3621              		.cfi_offset 3, -8
 3622              		.cfi_offset 14, -4
 3623 0002 0346     		mov	r3, r0
1214:Libraries/ctrl_drv/i2c/mpu6050/MPU6050.c ****     I2Cdev_writeBit(mpu6050.devAddr, MPU6050_RA_I2C_SLV4_CTRL, MPU6050_I2C_SLV4_INT_EN_BIT, enabled
 3624              		.loc 1 1214 5 is_stmt 1 view .LVU487
ARM GAS  C:\Users\Mxuan\AppData\Local\Temp\ccfnFihP.s 			page 84


 3625 0004 0622     		movs	r2, #6
 3626 0006 3421     		movs	r1, #52
 3627 0008 0248     		ldr	r0, .L423
 3628              	.LVL197:
 3629              		.loc 1 1214 5 is_stmt 0 view .LVU488
 3630 000a 0078     		ldrb	r0, [r0]	@ zero_extendqisi2
 3631 000c FFF7FEFF 		bl	I2Cdev_writeBit
 3632              	.LVL198:
1215:Libraries/ctrl_drv/i2c/mpu6050/MPU6050.c **** }
 3633              		.loc 1 1215 1 view .LVU489
 3634 0010 08BD     		pop	{r3, pc}
 3635              	.L424:
 3636 0012 00BF     		.align	2
 3637              	.L423:
 3638 0014 00000000 		.word	mpu6050
 3639              		.cfi_endproc
 3640              	.LFE85:
 3642              		.section	.text.MPU6050_getSlave4WriteMode,"ax",%progbits
 3643              		.align	1
 3644              		.global	MPU6050_getSlave4WriteMode
 3645              		.syntax unified
 3646              		.thumb
 3647              		.thumb_func
 3649              	MPU6050_getSlave4WriteMode:
 3650              	.LFB86:
1216:Libraries/ctrl_drv/i2c/mpu6050/MPU6050.c **** /** Get write mode for Slave 4.
1217:Libraries/ctrl_drv/i2c/mpu6050/MPU6050.c ****  * When set to 1, the transaction will read or write data only. When cleared to
1218:Libraries/ctrl_drv/i2c/mpu6050/MPU6050.c ****  * 0, the transaction will write a register address prior to reading or writing
1219:Libraries/ctrl_drv/i2c/mpu6050/MPU6050.c ****  * data. This should equal 0 when specifying the register address within the
1220:Libraries/ctrl_drv/i2c/mpu6050/MPU6050.c ****  * Slave device to/from which the ensuing data transaction will take place.
1221:Libraries/ctrl_drv/i2c/mpu6050/MPU6050.c ****  *
1222:Libraries/ctrl_drv/i2c/mpu6050/MPU6050.c ****  * @return Current write mode for Slave 4 (0 = register address + data, 1 = data only)
1223:Libraries/ctrl_drv/i2c/mpu6050/MPU6050.c ****  * @see MPU6050_RA_I2C_SLV4_CTRL
1224:Libraries/ctrl_drv/i2c/mpu6050/MPU6050.c ****  */
1225:Libraries/ctrl_drv/i2c/mpu6050/MPU6050.c **** bool MPU6050_getSlave4WriteMode() {
 3651              		.loc 1 1225 35 is_stmt 1 view -0
 3652              		.cfi_startproc
 3653              		@ args = 0, pretend = 0, frame = 0
 3654              		@ frame_needed = 0, uses_anonymous_args = 0
 3655 0000 10B5     		push	{r4, lr}
 3656              	.LCFI111:
 3657              		.cfi_def_cfa_offset 8
 3658              		.cfi_offset 4, -8
 3659              		.cfi_offset 14, -4
1226:Libraries/ctrl_drv/i2c/mpu6050/MPU6050.c ****     I2Cdev_readBit(mpu6050.devAddr, MPU6050_RA_I2C_SLV4_CTRL, MPU6050_I2C_SLV4_REG_DIS_BIT, mpu6050
 3660              		.loc 1 1226 5 view .LVU491
 3661 0002 064B     		ldr	r3, .L427
 3662 0004 5C1E     		subs	r4, r3, #1
 3663 0006 0522     		movs	r2, #5
 3664 0008 3421     		movs	r1, #52
 3665 000a 13F8010C 		ldrb	r0, [r3, #-1]	@ zero_extendqisi2
 3666 000e FFF7FEFF 		bl	I2Cdev_readBit
 3667              	.LVL199:
1227:Libraries/ctrl_drv/i2c/mpu6050/MPU6050.c ****     return mpu6050.buffer[0];
 3668              		.loc 1 1227 5 view .LVU492
 3669              		.loc 1 1227 26 is_stmt 0 view .LVU493
 3670 0012 6078     		ldrb	r0, [r4, #1]	@ zero_extendqisi2
ARM GAS  C:\Users\Mxuan\AppData\Local\Temp\ccfnFihP.s 			page 85


1228:Libraries/ctrl_drv/i2c/mpu6050/MPU6050.c **** }
 3671              		.loc 1 1228 1 view .LVU494
 3672 0014 0038     		subs	r0, r0, #0
 3673 0016 18BF     		it	ne
 3674 0018 0120     		movne	r0, #1
 3675 001a 10BD     		pop	{r4, pc}
 3676              	.L428:
 3677              		.align	2
 3678              	.L427:
 3679 001c 01000000 		.word	mpu6050+1
 3680              		.cfi_endproc
 3681              	.LFE86:
 3683              		.section	.text.MPU6050_setSlave4WriteMode,"ax",%progbits
 3684              		.align	1
 3685              		.global	MPU6050_setSlave4WriteMode
 3686              		.syntax unified
 3687              		.thumb
 3688              		.thumb_func
 3690              	MPU6050_setSlave4WriteMode:
 3691              	.LVL200:
 3692              	.LFB87:
1229:Libraries/ctrl_drv/i2c/mpu6050/MPU6050.c **** /** Set write mode for the Slave 4.
1230:Libraries/ctrl_drv/i2c/mpu6050/MPU6050.c ****  * @param mode New write mode for Slave 4 (0 = register address + data, 1 = data only)
1231:Libraries/ctrl_drv/i2c/mpu6050/MPU6050.c ****  * @see getSlave4WriteMode()
1232:Libraries/ctrl_drv/i2c/mpu6050/MPU6050.c ****  * @see MPU6050_RA_I2C_SLV4_CTRL
1233:Libraries/ctrl_drv/i2c/mpu6050/MPU6050.c ****  */
1234:Libraries/ctrl_drv/i2c/mpu6050/MPU6050.c **** void MPU6050_setSlave4WriteMode(bool mode) {
 3693              		.loc 1 1234 44 is_stmt 1 view -0
 3694              		.cfi_startproc
 3695              		@ args = 0, pretend = 0, frame = 0
 3696              		@ frame_needed = 0, uses_anonymous_args = 0
 3697              		.loc 1 1234 44 is_stmt 0 view .LVU496
 3698 0000 08B5     		push	{r3, lr}
 3699              	.LCFI112:
 3700              		.cfi_def_cfa_offset 8
 3701              		.cfi_offset 3, -8
 3702              		.cfi_offset 14, -4
 3703 0002 0346     		mov	r3, r0
1235:Libraries/ctrl_drv/i2c/mpu6050/MPU6050.c ****     I2Cdev_writeBit(mpu6050.devAddr, MPU6050_RA_I2C_SLV4_CTRL, MPU6050_I2C_SLV4_REG_DIS_BIT, mode);
 3704              		.loc 1 1235 5 is_stmt 1 view .LVU497
 3705 0004 0522     		movs	r2, #5
 3706 0006 3421     		movs	r1, #52
 3707 0008 0248     		ldr	r0, .L431
 3708              	.LVL201:
 3709              		.loc 1 1235 5 is_stmt 0 view .LVU498
 3710 000a 0078     		ldrb	r0, [r0]	@ zero_extendqisi2
 3711 000c FFF7FEFF 		bl	I2Cdev_writeBit
 3712              	.LVL202:
1236:Libraries/ctrl_drv/i2c/mpu6050/MPU6050.c **** }
 3713              		.loc 1 1236 1 view .LVU499
 3714 0010 08BD     		pop	{r3, pc}
 3715              	.L432:
 3716 0012 00BF     		.align	2
 3717              	.L431:
 3718 0014 00000000 		.word	mpu6050
 3719              		.cfi_endproc
 3720              	.LFE87:
ARM GAS  C:\Users\Mxuan\AppData\Local\Temp\ccfnFihP.s 			page 86


 3722              		.section	.text.MPU6050_getSlave4MasterDelay,"ax",%progbits
 3723              		.align	1
 3724              		.global	MPU6050_getSlave4MasterDelay
 3725              		.syntax unified
 3726              		.thumb
 3727              		.thumb_func
 3729              	MPU6050_getSlave4MasterDelay:
 3730              	.LFB88:
1237:Libraries/ctrl_drv/i2c/mpu6050/MPU6050.c **** /** Get Slave 4 master delay value.
1238:Libraries/ctrl_drv/i2c/mpu6050/MPU6050.c ****  * This configures the reduced access rate of I2C slaves relative to the Sample
1239:Libraries/ctrl_drv/i2c/mpu6050/MPU6050.c ****  * Rate. When a slave's access rate is decreased relative to the Sample Rate,
1240:Libraries/ctrl_drv/i2c/mpu6050/MPU6050.c ****  * the slave is accessed every:
1241:Libraries/ctrl_drv/i2c/mpu6050/MPU6050.c ****  *
1242:Libraries/ctrl_drv/i2c/mpu6050/MPU6050.c ****  *     1 / (1 + I2C_MST_DLY) samples
1243:Libraries/ctrl_drv/i2c/mpu6050/MPU6050.c ****  *
1244:Libraries/ctrl_drv/i2c/mpu6050/MPU6050.c ****  * This base Sample Rate in turn is determined by SMPLRT_DIV (register 25) and
1245:Libraries/ctrl_drv/i2c/mpu6050/MPU6050.c ****  * DLPF_CFG (register 26). Whether a slave's access rate is reduced relative to
1246:Libraries/ctrl_drv/i2c/mpu6050/MPU6050.c ****  * the Sample Rate is determined by I2C_MST_DELAY_CTRL (register 103). For
1247:Libraries/ctrl_drv/i2c/mpu6050/MPU6050.c ****  * further information regarding the Sample Rate, please refer to register 25.
1248:Libraries/ctrl_drv/i2c/mpu6050/MPU6050.c ****  *
1249:Libraries/ctrl_drv/i2c/mpu6050/MPU6050.c ****  * @return Current Slave 4 master delay value
1250:Libraries/ctrl_drv/i2c/mpu6050/MPU6050.c ****  * @see MPU6050_RA_I2C_SLV4_CTRL
1251:Libraries/ctrl_drv/i2c/mpu6050/MPU6050.c ****  */
1252:Libraries/ctrl_drv/i2c/mpu6050/MPU6050.c **** uint8_t MPU6050_getSlave4MasterDelay() {
 3731              		.loc 1 1252 40 is_stmt 1 view -0
 3732              		.cfi_startproc
 3733              		@ args = 0, pretend = 0, frame = 0
 3734              		@ frame_needed = 0, uses_anonymous_args = 0
 3735 0000 10B5     		push	{r4, lr}
 3736              	.LCFI113:
 3737              		.cfi_def_cfa_offset 8
 3738              		.cfi_offset 4, -8
 3739              		.cfi_offset 14, -4
 3740 0002 82B0     		sub	sp, sp, #8
 3741              	.LCFI114:
 3742              		.cfi_def_cfa_offset 16
1253:Libraries/ctrl_drv/i2c/mpu6050/MPU6050.c ****     I2Cdev_readBits(mpu6050.devAddr, MPU6050_RA_I2C_SLV4_CTRL, MPU6050_I2C_SLV4_MST_DLY_BIT, MPU605
 3743              		.loc 1 1253 5 view .LVU501
 3744 0004 064C     		ldr	r4, .L435
 3745 0006 2346     		mov	r3, r4
 3746 0008 13F8010B 		ldrb	r0, [r3], #1	@ zero_extendqisi2
 3747 000c 0093     		str	r3, [sp]
 3748 000e 0523     		movs	r3, #5
 3749 0010 0422     		movs	r2, #4
 3750 0012 3421     		movs	r1, #52
 3751 0014 FFF7FEFF 		bl	I2Cdev_readBits
 3752              	.LVL203:
1254:Libraries/ctrl_drv/i2c/mpu6050/MPU6050.c ****     return mpu6050.buffer[0];
 3753              		.loc 1 1254 5 view .LVU502
1255:Libraries/ctrl_drv/i2c/mpu6050/MPU6050.c **** }
 3754              		.loc 1 1255 1 is_stmt 0 view .LVU503
 3755 0018 6078     		ldrb	r0, [r4, #1]	@ zero_extendqisi2
 3756 001a 02B0     		add	sp, sp, #8
 3757              	.LCFI115:
 3758              		.cfi_def_cfa_offset 8
 3759              		@ sp needed
 3760 001c 10BD     		pop	{r4, pc}
ARM GAS  C:\Users\Mxuan\AppData\Local\Temp\ccfnFihP.s 			page 87


 3761              	.L436:
 3762 001e 00BF     		.align	2
 3763              	.L435:
 3764 0020 00000000 		.word	mpu6050
 3765              		.cfi_endproc
 3766              	.LFE88:
 3768              		.section	.text.MPU6050_setSlave4MasterDelay,"ax",%progbits
 3769              		.align	1
 3770              		.global	MPU6050_setSlave4MasterDelay
 3771              		.syntax unified
 3772              		.thumb
 3773              		.thumb_func
 3775              	MPU6050_setSlave4MasterDelay:
 3776              	.LVL204:
 3777              	.LFB89:
1256:Libraries/ctrl_drv/i2c/mpu6050/MPU6050.c **** /** Set Slave 4 master delay value.
1257:Libraries/ctrl_drv/i2c/mpu6050/MPU6050.c ****  * @param delay New Slave 4 master delay value
1258:Libraries/ctrl_drv/i2c/mpu6050/MPU6050.c ****  * @see getSlave4MasterDelay()
1259:Libraries/ctrl_drv/i2c/mpu6050/MPU6050.c ****  * @see MPU6050_RA_I2C_SLV4_CTRL
1260:Libraries/ctrl_drv/i2c/mpu6050/MPU6050.c ****  */
1261:Libraries/ctrl_drv/i2c/mpu6050/MPU6050.c **** void MPU6050_setSlave4MasterDelay(uint8_t delay) {
 3778              		.loc 1 1261 50 is_stmt 1 view -0
 3779              		.cfi_startproc
 3780              		@ args = 0, pretend = 0, frame = 0
 3781              		@ frame_needed = 0, uses_anonymous_args = 0
 3782              		.loc 1 1261 50 is_stmt 0 view .LVU505
 3783 0000 00B5     		push	{lr}
 3784              	.LCFI116:
 3785              		.cfi_def_cfa_offset 4
 3786              		.cfi_offset 14, -4
 3787 0002 83B0     		sub	sp, sp, #12
 3788              	.LCFI117:
 3789              		.cfi_def_cfa_offset 16
1262:Libraries/ctrl_drv/i2c/mpu6050/MPU6050.c ****     I2Cdev_writeBits(mpu6050.devAddr, MPU6050_RA_I2C_SLV4_CTRL, MPU6050_I2C_SLV4_MST_DLY_BIT, MPU60
 3790              		.loc 1 1262 5 is_stmt 1 view .LVU506
 3791 0004 0090     		str	r0, [sp]
 3792 0006 0523     		movs	r3, #5
 3793 0008 0422     		movs	r2, #4
 3794 000a 3421     		movs	r1, #52
 3795 000c 0348     		ldr	r0, .L439
 3796              	.LVL205:
 3797              		.loc 1 1262 5 is_stmt 0 view .LVU507
 3798 000e 0078     		ldrb	r0, [r0]	@ zero_extendqisi2
 3799 0010 FFF7FEFF 		bl	I2Cdev_writeBits
 3800              	.LVL206:
1263:Libraries/ctrl_drv/i2c/mpu6050/MPU6050.c **** }
 3801              		.loc 1 1263 1 view .LVU508
 3802 0014 03B0     		add	sp, sp, #12
 3803              	.LCFI118:
 3804              		.cfi_def_cfa_offset 4
 3805              		@ sp needed
 3806 0016 5DF804FB 		ldr	pc, [sp], #4
 3807              	.L440:
 3808 001a 00BF     		.align	2
 3809              	.L439:
 3810 001c 00000000 		.word	mpu6050
 3811              		.cfi_endproc
ARM GAS  C:\Users\Mxuan\AppData\Local\Temp\ccfnFihP.s 			page 88


 3812              	.LFE89:
 3814              		.section	.text.MPU6050_getSlate4InputByte,"ax",%progbits
 3815              		.align	1
 3816              		.global	MPU6050_getSlate4InputByte
 3817              		.syntax unified
 3818              		.thumb
 3819              		.thumb_func
 3821              	MPU6050_getSlate4InputByte:
 3822              	.LFB90:
1264:Libraries/ctrl_drv/i2c/mpu6050/MPU6050.c **** /** Get last available byte read from Slave 4.
1265:Libraries/ctrl_drv/i2c/mpu6050/MPU6050.c ****  * This register stores the data read from Slave 4. This field is populated
1266:Libraries/ctrl_drv/i2c/mpu6050/MPU6050.c ****  * after a read transaction.
1267:Libraries/ctrl_drv/i2c/mpu6050/MPU6050.c ****  * @return Last available byte read from to Slave 4
1268:Libraries/ctrl_drv/i2c/mpu6050/MPU6050.c ****  * @see MPU6050_RA_I2C_SLV4_DI
1269:Libraries/ctrl_drv/i2c/mpu6050/MPU6050.c ****  */
1270:Libraries/ctrl_drv/i2c/mpu6050/MPU6050.c **** uint8_t MPU6050_getSlate4InputByte() {
 3823              		.loc 1 1270 38 is_stmt 1 view -0
 3824              		.cfi_startproc
 3825              		@ args = 0, pretend = 0, frame = 0
 3826              		@ frame_needed = 0, uses_anonymous_args = 0
 3827 0000 10B5     		push	{r4, lr}
 3828              	.LCFI119:
 3829              		.cfi_def_cfa_offset 8
 3830              		.cfi_offset 4, -8
 3831              		.cfi_offset 14, -4
1271:Libraries/ctrl_drv/i2c/mpu6050/MPU6050.c ****     I2Cdev_readByte(mpu6050.devAddr, MPU6050_RA_I2C_SLV4_DI, mpu6050.buffer);
 3832              		.loc 1 1271 5 view .LVU510
 3833 0002 044A     		ldr	r2, .L443
 3834 0004 541E     		subs	r4, r2, #1
 3835 0006 3521     		movs	r1, #53
 3836 0008 12F8010C 		ldrb	r0, [r2, #-1]	@ zero_extendqisi2
 3837 000c FFF7FEFF 		bl	I2Cdev_readByte
 3838              	.LVL207:
1272:Libraries/ctrl_drv/i2c/mpu6050/MPU6050.c ****     return mpu6050.buffer[0];
 3839              		.loc 1 1272 5 view .LVU511
1273:Libraries/ctrl_drv/i2c/mpu6050/MPU6050.c **** }
 3840              		.loc 1 1273 1 is_stmt 0 view .LVU512
 3841 0010 6078     		ldrb	r0, [r4, #1]	@ zero_extendqisi2
 3842 0012 10BD     		pop	{r4, pc}
 3843              	.L444:
 3844              		.align	2
 3845              	.L443:
 3846 0014 01000000 		.word	mpu6050+1
 3847              		.cfi_endproc
 3848              	.LFE90:
 3850              		.section	.text.MPU6050_getPassthroughStatus,"ax",%progbits
 3851              		.align	1
 3852              		.global	MPU6050_getPassthroughStatus
 3853              		.syntax unified
 3854              		.thumb
 3855              		.thumb_func
 3857              	MPU6050_getPassthroughStatus:
 3858              	.LFB91:
1274:Libraries/ctrl_drv/i2c/mpu6050/MPU6050.c **** 
1275:Libraries/ctrl_drv/i2c/mpu6050/MPU6050.c **** // I2C_MST_STATUS register
1276:Libraries/ctrl_drv/i2c/mpu6050/MPU6050.c **** 
1277:Libraries/ctrl_drv/i2c/mpu6050/MPU6050.c **** /** Get FSYNC interrupt status.
ARM GAS  C:\Users\Mxuan\AppData\Local\Temp\ccfnFihP.s 			page 89


1278:Libraries/ctrl_drv/i2c/mpu6050/MPU6050.c ****  * This bit reflects the status of the FSYNC interrupt from an external device
1279:Libraries/ctrl_drv/i2c/mpu6050/MPU6050.c ****  * into the MPU-60X0. This is used as a way to pass an external interrupt
1280:Libraries/ctrl_drv/i2c/mpu6050/MPU6050.c ****  * through the MPU-60X0 to the host application processor. When set to 1, this
1281:Libraries/ctrl_drv/i2c/mpu6050/MPU6050.c ****  * bit will cause an interrupt if FSYNC_INT_EN is asserted in INT_PIN_CFG
1282:Libraries/ctrl_drv/i2c/mpu6050/MPU6050.c ****  * (Register 55).
1283:Libraries/ctrl_drv/i2c/mpu6050/MPU6050.c ****  * @return FSYNC interrupt status
1284:Libraries/ctrl_drv/i2c/mpu6050/MPU6050.c ****  * @see MPU6050_RA_I2C_MST_STATUS
1285:Libraries/ctrl_drv/i2c/mpu6050/MPU6050.c ****  */
1286:Libraries/ctrl_drv/i2c/mpu6050/MPU6050.c **** bool MPU6050_getPassthroughStatus() {
 3859              		.loc 1 1286 37 is_stmt 1 view -0
 3860              		.cfi_startproc
 3861              		@ args = 0, pretend = 0, frame = 0
 3862              		@ frame_needed = 0, uses_anonymous_args = 0
 3863 0000 10B5     		push	{r4, lr}
 3864              	.LCFI120:
 3865              		.cfi_def_cfa_offset 8
 3866              		.cfi_offset 4, -8
 3867              		.cfi_offset 14, -4
1287:Libraries/ctrl_drv/i2c/mpu6050/MPU6050.c ****     I2Cdev_readBit(mpu6050.devAddr, MPU6050_RA_I2C_MST_STATUS, MPU6050_MST_PASS_THROUGH_BIT, mpu605
 3868              		.loc 1 1287 5 view .LVU514
 3869 0002 064B     		ldr	r3, .L447
 3870 0004 5C1E     		subs	r4, r3, #1
 3871 0006 0722     		movs	r2, #7
 3872 0008 3621     		movs	r1, #54
 3873 000a 13F8010C 		ldrb	r0, [r3, #-1]	@ zero_extendqisi2
 3874 000e FFF7FEFF 		bl	I2Cdev_readBit
 3875              	.LVL208:
1288:Libraries/ctrl_drv/i2c/mpu6050/MPU6050.c ****     return mpu6050.buffer[0];
 3876              		.loc 1 1288 5 view .LVU515
 3877              		.loc 1 1288 26 is_stmt 0 view .LVU516
 3878 0012 6078     		ldrb	r0, [r4, #1]	@ zero_extendqisi2
1289:Libraries/ctrl_drv/i2c/mpu6050/MPU6050.c **** }
 3879              		.loc 1 1289 1 view .LVU517
 3880 0014 0038     		subs	r0, r0, #0
 3881 0016 18BF     		it	ne
 3882 0018 0120     		movne	r0, #1
 3883 001a 10BD     		pop	{r4, pc}
 3884              	.L448:
 3885              		.align	2
 3886              	.L447:
 3887 001c 01000000 		.word	mpu6050+1
 3888              		.cfi_endproc
 3889              	.LFE91:
 3891              		.section	.text.MPU6050_getSlave4IsDone,"ax",%progbits
 3892              		.align	1
 3893              		.global	MPU6050_getSlave4IsDone
 3894              		.syntax unified
 3895              		.thumb
 3896              		.thumb_func
 3898              	MPU6050_getSlave4IsDone:
 3899              	.LFB92:
1290:Libraries/ctrl_drv/i2c/mpu6050/MPU6050.c **** /** Get Slave 4 transaction done status.
1291:Libraries/ctrl_drv/i2c/mpu6050/MPU6050.c ****  * Automatically sets to 1 when a Slave 4 transaction has completed. This
1292:Libraries/ctrl_drv/i2c/mpu6050/MPU6050.c ****  * triggers an interrupt if the I2C_MST_INT_EN bit in the INT_ENABLE register
1293:Libraries/ctrl_drv/i2c/mpu6050/MPU6050.c ****  * (Register 56) is asserted and if the SLV_4_DONE_INT bit is asserted in the
1294:Libraries/ctrl_drv/i2c/mpu6050/MPU6050.c ****  * I2C_SLV4_CTRL register (Register 52).
1295:Libraries/ctrl_drv/i2c/mpu6050/MPU6050.c ****  * @return Slave 4 transaction done status
ARM GAS  C:\Users\Mxuan\AppData\Local\Temp\ccfnFihP.s 			page 90


1296:Libraries/ctrl_drv/i2c/mpu6050/MPU6050.c ****  * @see MPU6050_RA_I2C_MST_STATUS
1297:Libraries/ctrl_drv/i2c/mpu6050/MPU6050.c ****  */
1298:Libraries/ctrl_drv/i2c/mpu6050/MPU6050.c **** bool MPU6050_getSlave4IsDone() {
 3900              		.loc 1 1298 32 is_stmt 1 view -0
 3901              		.cfi_startproc
 3902              		@ args = 0, pretend = 0, frame = 0
 3903              		@ frame_needed = 0, uses_anonymous_args = 0
 3904 0000 10B5     		push	{r4, lr}
 3905              	.LCFI121:
 3906              		.cfi_def_cfa_offset 8
 3907              		.cfi_offset 4, -8
 3908              		.cfi_offset 14, -4
1299:Libraries/ctrl_drv/i2c/mpu6050/MPU6050.c ****     I2Cdev_readBit(mpu6050.devAddr, MPU6050_RA_I2C_MST_STATUS, MPU6050_MST_I2C_SLV4_DONE_BIT, mpu60
 3909              		.loc 1 1299 5 view .LVU519
 3910 0002 064B     		ldr	r3, .L451
 3911 0004 5C1E     		subs	r4, r3, #1
 3912 0006 0622     		movs	r2, #6
 3913 0008 3621     		movs	r1, #54
 3914 000a 13F8010C 		ldrb	r0, [r3, #-1]	@ zero_extendqisi2
 3915 000e FFF7FEFF 		bl	I2Cdev_readBit
 3916              	.LVL209:
1300:Libraries/ctrl_drv/i2c/mpu6050/MPU6050.c ****     return mpu6050.buffer[0];
 3917              		.loc 1 1300 5 view .LVU520
 3918              		.loc 1 1300 26 is_stmt 0 view .LVU521
 3919 0012 6078     		ldrb	r0, [r4, #1]	@ zero_extendqisi2
1301:Libraries/ctrl_drv/i2c/mpu6050/MPU6050.c **** }
 3920              		.loc 1 1301 1 view .LVU522
 3921 0014 0038     		subs	r0, r0, #0
 3922 0016 18BF     		it	ne
 3923 0018 0120     		movne	r0, #1
 3924 001a 10BD     		pop	{r4, pc}
 3925              	.L452:
 3926              		.align	2
 3927              	.L451:
 3928 001c 01000000 		.word	mpu6050+1
 3929              		.cfi_endproc
 3930              	.LFE92:
 3932              		.section	.text.MPU6050_getLostArbitration,"ax",%progbits
 3933              		.align	1
 3934              		.global	MPU6050_getLostArbitration
 3935              		.syntax unified
 3936              		.thumb
 3937              		.thumb_func
 3939              	MPU6050_getLostArbitration:
 3940              	.LFB93:
1302:Libraries/ctrl_drv/i2c/mpu6050/MPU6050.c **** /** Get master arbitration lost status.
1303:Libraries/ctrl_drv/i2c/mpu6050/MPU6050.c ****  * This bit automatically sets to 1 when the I2C Master has lost arbitration of
1304:Libraries/ctrl_drv/i2c/mpu6050/MPU6050.c ****  * the auxiliary I2C bus (an error condition). This triggers an interrupt if the
1305:Libraries/ctrl_drv/i2c/mpu6050/MPU6050.c ****  * I2C_MST_INT_EN bit in the INT_ENABLE register (Register 56) is asserted.
1306:Libraries/ctrl_drv/i2c/mpu6050/MPU6050.c ****  * @return Master arbitration lost status
1307:Libraries/ctrl_drv/i2c/mpu6050/MPU6050.c ****  * @see MPU6050_RA_I2C_MST_STATUS
1308:Libraries/ctrl_drv/i2c/mpu6050/MPU6050.c ****  */
1309:Libraries/ctrl_drv/i2c/mpu6050/MPU6050.c **** bool MPU6050_getLostArbitration() {
 3941              		.loc 1 1309 35 is_stmt 1 view -0
 3942              		.cfi_startproc
 3943              		@ args = 0, pretend = 0, frame = 0
 3944              		@ frame_needed = 0, uses_anonymous_args = 0
ARM GAS  C:\Users\Mxuan\AppData\Local\Temp\ccfnFihP.s 			page 91


 3945 0000 10B5     		push	{r4, lr}
 3946              	.LCFI122:
 3947              		.cfi_def_cfa_offset 8
 3948              		.cfi_offset 4, -8
 3949              		.cfi_offset 14, -4
1310:Libraries/ctrl_drv/i2c/mpu6050/MPU6050.c ****     I2Cdev_readBit(mpu6050.devAddr, MPU6050_RA_I2C_MST_STATUS, MPU6050_MST_I2C_LOST_ARB_BIT, mpu605
 3950              		.loc 1 1310 5 view .LVU524
 3951 0002 064B     		ldr	r3, .L455
 3952 0004 5C1E     		subs	r4, r3, #1
 3953 0006 0522     		movs	r2, #5
 3954 0008 3621     		movs	r1, #54
 3955 000a 13F8010C 		ldrb	r0, [r3, #-1]	@ zero_extendqisi2
 3956 000e FFF7FEFF 		bl	I2Cdev_readBit
 3957              	.LVL210:
1311:Libraries/ctrl_drv/i2c/mpu6050/MPU6050.c ****     return mpu6050.buffer[0];
 3958              		.loc 1 1311 5 view .LVU525
 3959              		.loc 1 1311 26 is_stmt 0 view .LVU526
 3960 0012 6078     		ldrb	r0, [r4, #1]	@ zero_extendqisi2
1312:Libraries/ctrl_drv/i2c/mpu6050/MPU6050.c **** }
 3961              		.loc 1 1312 1 view .LVU527
 3962 0014 0038     		subs	r0, r0, #0
 3963 0016 18BF     		it	ne
 3964 0018 0120     		movne	r0, #1
 3965 001a 10BD     		pop	{r4, pc}
 3966              	.L456:
 3967              		.align	2
 3968              	.L455:
 3969 001c 01000000 		.word	mpu6050+1
 3970              		.cfi_endproc
 3971              	.LFE93:
 3973              		.section	.text.MPU6050_getSlave4Nack,"ax",%progbits
 3974              		.align	1
 3975              		.global	MPU6050_getSlave4Nack
 3976              		.syntax unified
 3977              		.thumb
 3978              		.thumb_func
 3980              	MPU6050_getSlave4Nack:
 3981              	.LFB94:
1313:Libraries/ctrl_drv/i2c/mpu6050/MPU6050.c **** /** Get Slave 4 NACK status.
1314:Libraries/ctrl_drv/i2c/mpu6050/MPU6050.c ****  * This bit automatically sets to 1 when the I2C Master receives a NACK in a
1315:Libraries/ctrl_drv/i2c/mpu6050/MPU6050.c ****  * transaction with Slave 4. This triggers an interrupt if the I2C_MST_INT_EN
1316:Libraries/ctrl_drv/i2c/mpu6050/MPU6050.c ****  * bit in the INT_ENABLE register (Register 56) is asserted.
1317:Libraries/ctrl_drv/i2c/mpu6050/MPU6050.c ****  * @return Slave 4 NACK interrupt status
1318:Libraries/ctrl_drv/i2c/mpu6050/MPU6050.c ****  * @see MPU6050_RA_I2C_MST_STATUS
1319:Libraries/ctrl_drv/i2c/mpu6050/MPU6050.c ****  */
1320:Libraries/ctrl_drv/i2c/mpu6050/MPU6050.c **** bool MPU6050_getSlave4Nack() {
 3982              		.loc 1 1320 30 is_stmt 1 view -0
 3983              		.cfi_startproc
 3984              		@ args = 0, pretend = 0, frame = 0
 3985              		@ frame_needed = 0, uses_anonymous_args = 0
 3986 0000 10B5     		push	{r4, lr}
 3987              	.LCFI123:
 3988              		.cfi_def_cfa_offset 8
 3989              		.cfi_offset 4, -8
 3990              		.cfi_offset 14, -4
1321:Libraries/ctrl_drv/i2c/mpu6050/MPU6050.c ****     I2Cdev_readBit(mpu6050.devAddr, MPU6050_RA_I2C_MST_STATUS, MPU6050_MST_I2C_SLV4_NACK_BIT, mpu60
 3991              		.loc 1 1321 5 view .LVU529
ARM GAS  C:\Users\Mxuan\AppData\Local\Temp\ccfnFihP.s 			page 92


 3992 0002 064B     		ldr	r3, .L459
 3993 0004 5C1E     		subs	r4, r3, #1
 3994 0006 0422     		movs	r2, #4
 3995 0008 3621     		movs	r1, #54
 3996 000a 13F8010C 		ldrb	r0, [r3, #-1]	@ zero_extendqisi2
 3997 000e FFF7FEFF 		bl	I2Cdev_readBit
 3998              	.LVL211:
1322:Libraries/ctrl_drv/i2c/mpu6050/MPU6050.c ****     return mpu6050.buffer[0];
 3999              		.loc 1 1322 5 view .LVU530
 4000              		.loc 1 1322 26 is_stmt 0 view .LVU531
 4001 0012 6078     		ldrb	r0, [r4, #1]	@ zero_extendqisi2
1323:Libraries/ctrl_drv/i2c/mpu6050/MPU6050.c **** }
 4002              		.loc 1 1323 1 view .LVU532
 4003 0014 0038     		subs	r0, r0, #0
 4004 0016 18BF     		it	ne
 4005 0018 0120     		movne	r0, #1
 4006 001a 10BD     		pop	{r4, pc}
 4007              	.L460:
 4008              		.align	2
 4009              	.L459:
 4010 001c 01000000 		.word	mpu6050+1
 4011              		.cfi_endproc
 4012              	.LFE94:
 4014              		.section	.text.MPU6050_getSlave3Nack,"ax",%progbits
 4015              		.align	1
 4016              		.global	MPU6050_getSlave3Nack
 4017              		.syntax unified
 4018              		.thumb
 4019              		.thumb_func
 4021              	MPU6050_getSlave3Nack:
 4022              	.LFB95:
1324:Libraries/ctrl_drv/i2c/mpu6050/MPU6050.c **** /** Get Slave 3 NACK status.
1325:Libraries/ctrl_drv/i2c/mpu6050/MPU6050.c ****  * This bit automatically sets to 1 when the I2C Master receives a NACK in a
1326:Libraries/ctrl_drv/i2c/mpu6050/MPU6050.c ****  * transaction with Slave 3. This triggers an interrupt if the I2C_MST_INT_EN
1327:Libraries/ctrl_drv/i2c/mpu6050/MPU6050.c ****  * bit in the INT_ENABLE register (Register 56) is asserted.
1328:Libraries/ctrl_drv/i2c/mpu6050/MPU6050.c ****  * @return Slave 3 NACK interrupt status
1329:Libraries/ctrl_drv/i2c/mpu6050/MPU6050.c ****  * @see MPU6050_RA_I2C_MST_STATUS
1330:Libraries/ctrl_drv/i2c/mpu6050/MPU6050.c ****  */
1331:Libraries/ctrl_drv/i2c/mpu6050/MPU6050.c **** bool MPU6050_getSlave3Nack() {
 4023              		.loc 1 1331 30 is_stmt 1 view -0
 4024              		.cfi_startproc
 4025              		@ args = 0, pretend = 0, frame = 0
 4026              		@ frame_needed = 0, uses_anonymous_args = 0
 4027 0000 10B5     		push	{r4, lr}
 4028              	.LCFI124:
 4029              		.cfi_def_cfa_offset 8
 4030              		.cfi_offset 4, -8
 4031              		.cfi_offset 14, -4
1332:Libraries/ctrl_drv/i2c/mpu6050/MPU6050.c ****     I2Cdev_readBit(mpu6050.devAddr, MPU6050_RA_I2C_MST_STATUS, MPU6050_MST_I2C_SLV3_NACK_BIT, mpu60
 4032              		.loc 1 1332 5 view .LVU534
 4033 0002 064B     		ldr	r3, .L463
 4034 0004 5C1E     		subs	r4, r3, #1
 4035 0006 0322     		movs	r2, #3
 4036 0008 3621     		movs	r1, #54
 4037 000a 13F8010C 		ldrb	r0, [r3, #-1]	@ zero_extendqisi2
 4038 000e FFF7FEFF 		bl	I2Cdev_readBit
 4039              	.LVL212:
ARM GAS  C:\Users\Mxuan\AppData\Local\Temp\ccfnFihP.s 			page 93


1333:Libraries/ctrl_drv/i2c/mpu6050/MPU6050.c ****     return mpu6050.buffer[0];
 4040              		.loc 1 1333 5 view .LVU535
 4041              		.loc 1 1333 26 is_stmt 0 view .LVU536
 4042 0012 6078     		ldrb	r0, [r4, #1]	@ zero_extendqisi2
1334:Libraries/ctrl_drv/i2c/mpu6050/MPU6050.c **** }
 4043              		.loc 1 1334 1 view .LVU537
 4044 0014 0038     		subs	r0, r0, #0
 4045 0016 18BF     		it	ne
 4046 0018 0120     		movne	r0, #1
 4047 001a 10BD     		pop	{r4, pc}
 4048              	.L464:
 4049              		.align	2
 4050              	.L463:
 4051 001c 01000000 		.word	mpu6050+1
 4052              		.cfi_endproc
 4053              	.LFE95:
 4055              		.section	.text.MPU6050_getSlave2Nack,"ax",%progbits
 4056              		.align	1
 4057              		.global	MPU6050_getSlave2Nack
 4058              		.syntax unified
 4059              		.thumb
 4060              		.thumb_func
 4062              	MPU6050_getSlave2Nack:
 4063              	.LFB96:
1335:Libraries/ctrl_drv/i2c/mpu6050/MPU6050.c **** /** Get Slave 2 NACK status.
1336:Libraries/ctrl_drv/i2c/mpu6050/MPU6050.c ****  * This bit automatically sets to 1 when the I2C Master receives a NACK in a
1337:Libraries/ctrl_drv/i2c/mpu6050/MPU6050.c ****  * transaction with Slave 2. This triggers an interrupt if the I2C_MST_INT_EN
1338:Libraries/ctrl_drv/i2c/mpu6050/MPU6050.c ****  * bit in the INT_ENABLE register (Register 56) is asserted.
1339:Libraries/ctrl_drv/i2c/mpu6050/MPU6050.c ****  * @return Slave 2 NACK interrupt status
1340:Libraries/ctrl_drv/i2c/mpu6050/MPU6050.c ****  * @see MPU6050_RA_I2C_MST_STATUS
1341:Libraries/ctrl_drv/i2c/mpu6050/MPU6050.c ****  */
1342:Libraries/ctrl_drv/i2c/mpu6050/MPU6050.c **** bool MPU6050_getSlave2Nack() {
 4064              		.loc 1 1342 30 is_stmt 1 view -0
 4065              		.cfi_startproc
 4066              		@ args = 0, pretend = 0, frame = 0
 4067              		@ frame_needed = 0, uses_anonymous_args = 0
 4068 0000 10B5     		push	{r4, lr}
 4069              	.LCFI125:
 4070              		.cfi_def_cfa_offset 8
 4071              		.cfi_offset 4, -8
 4072              		.cfi_offset 14, -4
1343:Libraries/ctrl_drv/i2c/mpu6050/MPU6050.c ****     I2Cdev_readBit(mpu6050.devAddr, MPU6050_RA_I2C_MST_STATUS, MPU6050_MST_I2C_SLV2_NACK_BIT, mpu60
 4073              		.loc 1 1343 5 view .LVU539
 4074 0002 064B     		ldr	r3, .L467
 4075 0004 5C1E     		subs	r4, r3, #1
 4076 0006 0222     		movs	r2, #2
 4077 0008 3621     		movs	r1, #54
 4078 000a 13F8010C 		ldrb	r0, [r3, #-1]	@ zero_extendqisi2
 4079 000e FFF7FEFF 		bl	I2Cdev_readBit
 4080              	.LVL213:
1344:Libraries/ctrl_drv/i2c/mpu6050/MPU6050.c ****     return mpu6050.buffer[0];
 4081              		.loc 1 1344 5 view .LVU540
 4082              		.loc 1 1344 26 is_stmt 0 view .LVU541
 4083 0012 6078     		ldrb	r0, [r4, #1]	@ zero_extendqisi2
1345:Libraries/ctrl_drv/i2c/mpu6050/MPU6050.c **** }
 4084              		.loc 1 1345 1 view .LVU542
 4085 0014 0038     		subs	r0, r0, #0
ARM GAS  C:\Users\Mxuan\AppData\Local\Temp\ccfnFihP.s 			page 94


 4086 0016 18BF     		it	ne
 4087 0018 0120     		movne	r0, #1
 4088 001a 10BD     		pop	{r4, pc}
 4089              	.L468:
 4090              		.align	2
 4091              	.L467:
 4092 001c 01000000 		.word	mpu6050+1
 4093              		.cfi_endproc
 4094              	.LFE96:
 4096              		.section	.text.MPU6050_getSlave1Nack,"ax",%progbits
 4097              		.align	1
 4098              		.global	MPU6050_getSlave1Nack
 4099              		.syntax unified
 4100              		.thumb
 4101              		.thumb_func
 4103              	MPU6050_getSlave1Nack:
 4104              	.LFB97:
1346:Libraries/ctrl_drv/i2c/mpu6050/MPU6050.c **** /** Get Slave 1 NACK status.
1347:Libraries/ctrl_drv/i2c/mpu6050/MPU6050.c ****  * This bit automatically sets to 1 when the I2C Master receives a NACK in a
1348:Libraries/ctrl_drv/i2c/mpu6050/MPU6050.c ****  * transaction with Slave 1. This triggers an interrupt if the I2C_MST_INT_EN
1349:Libraries/ctrl_drv/i2c/mpu6050/MPU6050.c ****  * bit in the INT_ENABLE register (Register 56) is asserted.
1350:Libraries/ctrl_drv/i2c/mpu6050/MPU6050.c ****  * @return Slave 1 NACK interrupt status
1351:Libraries/ctrl_drv/i2c/mpu6050/MPU6050.c ****  * @see MPU6050_RA_I2C_MST_STATUS
1352:Libraries/ctrl_drv/i2c/mpu6050/MPU6050.c ****  */
1353:Libraries/ctrl_drv/i2c/mpu6050/MPU6050.c **** bool MPU6050_getSlave1Nack() {
 4105              		.loc 1 1353 30 is_stmt 1 view -0
 4106              		.cfi_startproc
 4107              		@ args = 0, pretend = 0, frame = 0
 4108              		@ frame_needed = 0, uses_anonymous_args = 0
 4109 0000 10B5     		push	{r4, lr}
 4110              	.LCFI126:
 4111              		.cfi_def_cfa_offset 8
 4112              		.cfi_offset 4, -8
 4113              		.cfi_offset 14, -4
1354:Libraries/ctrl_drv/i2c/mpu6050/MPU6050.c ****     I2Cdev_readBit(mpu6050.devAddr, MPU6050_RA_I2C_MST_STATUS, MPU6050_MST_I2C_SLV1_NACK_BIT, mpu60
 4114              		.loc 1 1354 5 view .LVU544
 4115 0002 064B     		ldr	r3, .L471
 4116 0004 5C1E     		subs	r4, r3, #1
 4117 0006 0122     		movs	r2, #1
 4118 0008 3621     		movs	r1, #54
 4119 000a 13F8010C 		ldrb	r0, [r3, #-1]	@ zero_extendqisi2
 4120 000e FFF7FEFF 		bl	I2Cdev_readBit
 4121              	.LVL214:
1355:Libraries/ctrl_drv/i2c/mpu6050/MPU6050.c ****     return mpu6050.buffer[0];
 4122              		.loc 1 1355 5 view .LVU545
 4123              		.loc 1 1355 26 is_stmt 0 view .LVU546
 4124 0012 6078     		ldrb	r0, [r4, #1]	@ zero_extendqisi2
1356:Libraries/ctrl_drv/i2c/mpu6050/MPU6050.c **** }
 4125              		.loc 1 1356 1 view .LVU547
 4126 0014 0038     		subs	r0, r0, #0
 4127 0016 18BF     		it	ne
 4128 0018 0120     		movne	r0, #1
 4129 001a 10BD     		pop	{r4, pc}
 4130              	.L472:
 4131              		.align	2
 4132              	.L471:
 4133 001c 01000000 		.word	mpu6050+1
ARM GAS  C:\Users\Mxuan\AppData\Local\Temp\ccfnFihP.s 			page 95


 4134              		.cfi_endproc
 4135              	.LFE97:
 4137              		.section	.text.MPU6050_getSlave0Nack,"ax",%progbits
 4138              		.align	1
 4139              		.global	MPU6050_getSlave0Nack
 4140              		.syntax unified
 4141              		.thumb
 4142              		.thumb_func
 4144              	MPU6050_getSlave0Nack:
 4145              	.LFB98:
1357:Libraries/ctrl_drv/i2c/mpu6050/MPU6050.c **** /** Get Slave 0 NACK status.
1358:Libraries/ctrl_drv/i2c/mpu6050/MPU6050.c ****  * This bit automatically sets to 1 when the I2C Master receives a NACK in a
1359:Libraries/ctrl_drv/i2c/mpu6050/MPU6050.c ****  * transaction with Slave 0. This triggers an interrupt if the I2C_MST_INT_EN
1360:Libraries/ctrl_drv/i2c/mpu6050/MPU6050.c ****  * bit in the INT_ENABLE register (Register 56) is asserted.
1361:Libraries/ctrl_drv/i2c/mpu6050/MPU6050.c ****  * @return Slave 0 NACK interrupt status
1362:Libraries/ctrl_drv/i2c/mpu6050/MPU6050.c ****  * @see MPU6050_RA_I2C_MST_STATUS
1363:Libraries/ctrl_drv/i2c/mpu6050/MPU6050.c ****  */
1364:Libraries/ctrl_drv/i2c/mpu6050/MPU6050.c **** bool MPU6050_getSlave0Nack() {
 4146              		.loc 1 1364 30 is_stmt 1 view -0
 4147              		.cfi_startproc
 4148              		@ args = 0, pretend = 0, frame = 0
 4149              		@ frame_needed = 0, uses_anonymous_args = 0
 4150 0000 10B5     		push	{r4, lr}
 4151              	.LCFI127:
 4152              		.cfi_def_cfa_offset 8
 4153              		.cfi_offset 4, -8
 4154              		.cfi_offset 14, -4
1365:Libraries/ctrl_drv/i2c/mpu6050/MPU6050.c ****     I2Cdev_readBit(mpu6050.devAddr, MPU6050_RA_I2C_MST_STATUS, MPU6050_MST_I2C_SLV0_NACK_BIT, mpu60
 4155              		.loc 1 1365 5 view .LVU549
 4156 0002 064B     		ldr	r3, .L475
 4157 0004 5C1E     		subs	r4, r3, #1
 4158 0006 0022     		movs	r2, #0
 4159 0008 3621     		movs	r1, #54
 4160 000a 13F8010C 		ldrb	r0, [r3, #-1]	@ zero_extendqisi2
 4161 000e FFF7FEFF 		bl	I2Cdev_readBit
 4162              	.LVL215:
1366:Libraries/ctrl_drv/i2c/mpu6050/MPU6050.c ****     return mpu6050.buffer[0];
 4163              		.loc 1 1366 5 view .LVU550
 4164              		.loc 1 1366 26 is_stmt 0 view .LVU551
 4165 0012 6078     		ldrb	r0, [r4, #1]	@ zero_extendqisi2
1367:Libraries/ctrl_drv/i2c/mpu6050/MPU6050.c **** }
 4166              		.loc 1 1367 1 view .LVU552
 4167 0014 0038     		subs	r0, r0, #0
 4168 0016 18BF     		it	ne
 4169 0018 0120     		movne	r0, #1
 4170 001a 10BD     		pop	{r4, pc}
 4171              	.L476:
 4172              		.align	2
 4173              	.L475:
 4174 001c 01000000 		.word	mpu6050+1
 4175              		.cfi_endproc
 4176              	.LFE98:
 4178              		.section	.text.MPU6050_getInterruptMode,"ax",%progbits
 4179              		.align	1
 4180              		.global	MPU6050_getInterruptMode
 4181              		.syntax unified
 4182              		.thumb
ARM GAS  C:\Users\Mxuan\AppData\Local\Temp\ccfnFihP.s 			page 96


 4183              		.thumb_func
 4185              	MPU6050_getInterruptMode:
 4186              	.LFB99:
1368:Libraries/ctrl_drv/i2c/mpu6050/MPU6050.c **** 
1369:Libraries/ctrl_drv/i2c/mpu6050/MPU6050.c **** // INT_PIN_CFG register
1370:Libraries/ctrl_drv/i2c/mpu6050/MPU6050.c **** 
1371:Libraries/ctrl_drv/i2c/mpu6050/MPU6050.c **** /** Get interrupt logic level mode.
1372:Libraries/ctrl_drv/i2c/mpu6050/MPU6050.c ****  * Will be set 0 for active-high, 1 for active-low.
1373:Libraries/ctrl_drv/i2c/mpu6050/MPU6050.c ****  * @return Current interrupt mode (0=active-high, 1=active-low)
1374:Libraries/ctrl_drv/i2c/mpu6050/MPU6050.c ****  * @see MPU6050_RA_INT_PIN_CFG
1375:Libraries/ctrl_drv/i2c/mpu6050/MPU6050.c ****  * @see MPU6050_INTCFG_INT_LEVEL_BIT
1376:Libraries/ctrl_drv/i2c/mpu6050/MPU6050.c ****  */
1377:Libraries/ctrl_drv/i2c/mpu6050/MPU6050.c **** bool MPU6050_getInterruptMode() {
 4187              		.loc 1 1377 33 is_stmt 1 view -0
 4188              		.cfi_startproc
 4189              		@ args = 0, pretend = 0, frame = 0
 4190              		@ frame_needed = 0, uses_anonymous_args = 0
 4191 0000 10B5     		push	{r4, lr}
 4192              	.LCFI128:
 4193              		.cfi_def_cfa_offset 8
 4194              		.cfi_offset 4, -8
 4195              		.cfi_offset 14, -4
1378:Libraries/ctrl_drv/i2c/mpu6050/MPU6050.c ****     I2Cdev_readBit(mpu6050.devAddr, MPU6050_RA_INT_PIN_CFG, MPU6050_INTCFG_INT_LEVEL_BIT, mpu6050.b
 4196              		.loc 1 1378 5 view .LVU554
 4197 0002 064B     		ldr	r3, .L479
 4198 0004 5C1E     		subs	r4, r3, #1
 4199 0006 0722     		movs	r2, #7
 4200 0008 3721     		movs	r1, #55
 4201 000a 13F8010C 		ldrb	r0, [r3, #-1]	@ zero_extendqisi2
 4202 000e FFF7FEFF 		bl	I2Cdev_readBit
 4203              	.LVL216:
1379:Libraries/ctrl_drv/i2c/mpu6050/MPU6050.c ****     return mpu6050.buffer[0];
 4204              		.loc 1 1379 5 view .LVU555
 4205              		.loc 1 1379 26 is_stmt 0 view .LVU556
 4206 0012 6078     		ldrb	r0, [r4, #1]	@ zero_extendqisi2
1380:Libraries/ctrl_drv/i2c/mpu6050/MPU6050.c **** }
 4207              		.loc 1 1380 1 view .LVU557
 4208 0014 0038     		subs	r0, r0, #0
 4209 0016 18BF     		it	ne
 4210 0018 0120     		movne	r0, #1
 4211 001a 10BD     		pop	{r4, pc}
 4212              	.L480:
 4213              		.align	2
 4214              	.L479:
 4215 001c 01000000 		.word	mpu6050+1
 4216              		.cfi_endproc
 4217              	.LFE99:
 4219              		.section	.text.MPU6050_setInterruptMode,"ax",%progbits
 4220              		.align	1
 4221              		.global	MPU6050_setInterruptMode
 4222              		.syntax unified
 4223              		.thumb
 4224              		.thumb_func
 4226              	MPU6050_setInterruptMode:
 4227              	.LVL217:
 4228              	.LFB100:
1381:Libraries/ctrl_drv/i2c/mpu6050/MPU6050.c **** /** Set interrupt logic level mode.
ARM GAS  C:\Users\Mxuan\AppData\Local\Temp\ccfnFihP.s 			page 97


1382:Libraries/ctrl_drv/i2c/mpu6050/MPU6050.c ****  * @param mode New interrupt mode (0=active-high, 1=active-low)
1383:Libraries/ctrl_drv/i2c/mpu6050/MPU6050.c ****  * @see getInterruptMode()
1384:Libraries/ctrl_drv/i2c/mpu6050/MPU6050.c ****  * @see MPU6050_RA_INT_PIN_CFG
1385:Libraries/ctrl_drv/i2c/mpu6050/MPU6050.c ****  * @see MPU6050_INTCFG_INT_LEVEL_BIT
1386:Libraries/ctrl_drv/i2c/mpu6050/MPU6050.c ****  */
1387:Libraries/ctrl_drv/i2c/mpu6050/MPU6050.c **** void MPU6050_setInterruptMode(bool mode) {
 4229              		.loc 1 1387 42 is_stmt 1 view -0
 4230              		.cfi_startproc
 4231              		@ args = 0, pretend = 0, frame = 0
 4232              		@ frame_needed = 0, uses_anonymous_args = 0
 4233              		.loc 1 1387 42 is_stmt 0 view .LVU559
 4234 0000 08B5     		push	{r3, lr}
 4235              	.LCFI129:
 4236              		.cfi_def_cfa_offset 8
 4237              		.cfi_offset 3, -8
 4238              		.cfi_offset 14, -4
 4239 0002 0346     		mov	r3, r0
1388:Libraries/ctrl_drv/i2c/mpu6050/MPU6050.c ****    I2Cdev_writeBit(mpu6050.devAddr, MPU6050_RA_INT_PIN_CFG, MPU6050_INTCFG_INT_LEVEL_BIT, mode);
 4240              		.loc 1 1388 4 is_stmt 1 view .LVU560
 4241 0004 0722     		movs	r2, #7
 4242 0006 3721     		movs	r1, #55
 4243 0008 0248     		ldr	r0, .L483
 4244              	.LVL218:
 4245              		.loc 1 1388 4 is_stmt 0 view .LVU561
 4246 000a 0078     		ldrb	r0, [r0]	@ zero_extendqisi2
 4247 000c FFF7FEFF 		bl	I2Cdev_writeBit
 4248              	.LVL219:
1389:Libraries/ctrl_drv/i2c/mpu6050/MPU6050.c **** }
 4249              		.loc 1 1389 1 view .LVU562
 4250 0010 08BD     		pop	{r3, pc}
 4251              	.L484:
 4252 0012 00BF     		.align	2
 4253              	.L483:
 4254 0014 00000000 		.word	mpu6050
 4255              		.cfi_endproc
 4256              	.LFE100:
 4258              		.section	.text.MPU6050_getInterruptDrive,"ax",%progbits
 4259              		.align	1
 4260              		.global	MPU6050_getInterruptDrive
 4261              		.syntax unified
 4262              		.thumb
 4263              		.thumb_func
 4265              	MPU6050_getInterruptDrive:
 4266              	.LFB101:
1390:Libraries/ctrl_drv/i2c/mpu6050/MPU6050.c **** /** Get interrupt drive mode.
1391:Libraries/ctrl_drv/i2c/mpu6050/MPU6050.c ****  * Will be set 0 for push-pull, 1 for open-drain.
1392:Libraries/ctrl_drv/i2c/mpu6050/MPU6050.c ****  * @return Current interrupt drive mode (0=push-pull, 1=open-drain)
1393:Libraries/ctrl_drv/i2c/mpu6050/MPU6050.c ****  * @see MPU6050_RA_INT_PIN_CFG
1394:Libraries/ctrl_drv/i2c/mpu6050/MPU6050.c ****  * @see MPU6050_INTCFG_INT_OPEN_BIT
1395:Libraries/ctrl_drv/i2c/mpu6050/MPU6050.c ****  */
1396:Libraries/ctrl_drv/i2c/mpu6050/MPU6050.c **** bool MPU6050_getInterruptDrive() {
 4267              		.loc 1 1396 34 is_stmt 1 view -0
 4268              		.cfi_startproc
 4269              		@ args = 0, pretend = 0, frame = 0
 4270              		@ frame_needed = 0, uses_anonymous_args = 0
 4271 0000 10B5     		push	{r4, lr}
 4272              	.LCFI130:
ARM GAS  C:\Users\Mxuan\AppData\Local\Temp\ccfnFihP.s 			page 98


 4273              		.cfi_def_cfa_offset 8
 4274              		.cfi_offset 4, -8
 4275              		.cfi_offset 14, -4
1397:Libraries/ctrl_drv/i2c/mpu6050/MPU6050.c ****     I2Cdev_readBit(mpu6050.devAddr, MPU6050_RA_INT_PIN_CFG, MPU6050_INTCFG_INT_OPEN_BIT, mpu6050.bu
 4276              		.loc 1 1397 5 view .LVU564
 4277 0002 064B     		ldr	r3, .L487
 4278 0004 5C1E     		subs	r4, r3, #1
 4279 0006 0622     		movs	r2, #6
 4280 0008 3721     		movs	r1, #55
 4281 000a 13F8010C 		ldrb	r0, [r3, #-1]	@ zero_extendqisi2
 4282 000e FFF7FEFF 		bl	I2Cdev_readBit
 4283              	.LVL220:
1398:Libraries/ctrl_drv/i2c/mpu6050/MPU6050.c ****     return mpu6050.buffer[0];
 4284              		.loc 1 1398 5 view .LVU565
 4285              		.loc 1 1398 26 is_stmt 0 view .LVU566
 4286 0012 6078     		ldrb	r0, [r4, #1]	@ zero_extendqisi2
1399:Libraries/ctrl_drv/i2c/mpu6050/MPU6050.c **** }
 4287              		.loc 1 1399 1 view .LVU567
 4288 0014 0038     		subs	r0, r0, #0
 4289 0016 18BF     		it	ne
 4290 0018 0120     		movne	r0, #1
 4291 001a 10BD     		pop	{r4, pc}
 4292              	.L488:
 4293              		.align	2
 4294              	.L487:
 4295 001c 01000000 		.word	mpu6050+1
 4296              		.cfi_endproc
 4297              	.LFE101:
 4299              		.section	.text.MPU6050_setInterruptDrive,"ax",%progbits
 4300              		.align	1
 4301              		.global	MPU6050_setInterruptDrive
 4302              		.syntax unified
 4303              		.thumb
 4304              		.thumb_func
 4306              	MPU6050_setInterruptDrive:
 4307              	.LVL221:
 4308              	.LFB102:
1400:Libraries/ctrl_drv/i2c/mpu6050/MPU6050.c **** /** Set interrupt drive mode.
1401:Libraries/ctrl_drv/i2c/mpu6050/MPU6050.c ****  * @param drive New interrupt drive mode (0=push-pull, 1=open-drain)
1402:Libraries/ctrl_drv/i2c/mpu6050/MPU6050.c ****  * @see getInterruptDrive()
1403:Libraries/ctrl_drv/i2c/mpu6050/MPU6050.c ****  * @see MPU6050_RA_INT_PIN_CFG
1404:Libraries/ctrl_drv/i2c/mpu6050/MPU6050.c ****  * @see MPU6050_INTCFG_INT_OPEN_BIT
1405:Libraries/ctrl_drv/i2c/mpu6050/MPU6050.c ****  */
1406:Libraries/ctrl_drv/i2c/mpu6050/MPU6050.c **** void MPU6050_setInterruptDrive(bool drive) {
 4309              		.loc 1 1406 44 is_stmt 1 view -0
 4310              		.cfi_startproc
 4311              		@ args = 0, pretend = 0, frame = 0
 4312              		@ frame_needed = 0, uses_anonymous_args = 0
 4313              		.loc 1 1406 44 is_stmt 0 view .LVU569
 4314 0000 08B5     		push	{r3, lr}
 4315              	.LCFI131:
 4316              		.cfi_def_cfa_offset 8
 4317              		.cfi_offset 3, -8
 4318              		.cfi_offset 14, -4
 4319 0002 0346     		mov	r3, r0
1407:Libraries/ctrl_drv/i2c/mpu6050/MPU6050.c ****     I2Cdev_writeBit(mpu6050.devAddr, MPU6050_RA_INT_PIN_CFG, MPU6050_INTCFG_INT_OPEN_BIT, drive);
 4320              		.loc 1 1407 5 is_stmt 1 view .LVU570
ARM GAS  C:\Users\Mxuan\AppData\Local\Temp\ccfnFihP.s 			page 99


 4321 0004 0622     		movs	r2, #6
 4322 0006 3721     		movs	r1, #55
 4323 0008 0248     		ldr	r0, .L491
 4324              	.LVL222:
 4325              		.loc 1 1407 5 is_stmt 0 view .LVU571
 4326 000a 0078     		ldrb	r0, [r0]	@ zero_extendqisi2
 4327 000c FFF7FEFF 		bl	I2Cdev_writeBit
 4328              	.LVL223:
1408:Libraries/ctrl_drv/i2c/mpu6050/MPU6050.c **** }
 4329              		.loc 1 1408 1 view .LVU572
 4330 0010 08BD     		pop	{r3, pc}
 4331              	.L492:
 4332 0012 00BF     		.align	2
 4333              	.L491:
 4334 0014 00000000 		.word	mpu6050
 4335              		.cfi_endproc
 4336              	.LFE102:
 4338              		.section	.text.MPU6050_getInterruptLatch,"ax",%progbits
 4339              		.align	1
 4340              		.global	MPU6050_getInterruptLatch
 4341              		.syntax unified
 4342              		.thumb
 4343              		.thumb_func
 4345              	MPU6050_getInterruptLatch:
 4346              	.LFB103:
1409:Libraries/ctrl_drv/i2c/mpu6050/MPU6050.c **** /** Get interrupt latch mode.
1410:Libraries/ctrl_drv/i2c/mpu6050/MPU6050.c ****  * Will be set 0 for 50us-pulse, 1 for latch-until-int-cleared.
1411:Libraries/ctrl_drv/i2c/mpu6050/MPU6050.c ****  * @return Current latch mode (0=50us-pulse, 1=latch-until-int-cleared)
1412:Libraries/ctrl_drv/i2c/mpu6050/MPU6050.c ****  * @see MPU6050_RA_INT_PIN_CFG
1413:Libraries/ctrl_drv/i2c/mpu6050/MPU6050.c ****  * @see MPU6050_INTCFG_LATCH_INT_EN_BIT
1414:Libraries/ctrl_drv/i2c/mpu6050/MPU6050.c ****  */
1415:Libraries/ctrl_drv/i2c/mpu6050/MPU6050.c **** bool MPU6050_getInterruptLatch() {
 4347              		.loc 1 1415 34 is_stmt 1 view -0
 4348              		.cfi_startproc
 4349              		@ args = 0, pretend = 0, frame = 0
 4350              		@ frame_needed = 0, uses_anonymous_args = 0
 4351 0000 10B5     		push	{r4, lr}
 4352              	.LCFI132:
 4353              		.cfi_def_cfa_offset 8
 4354              		.cfi_offset 4, -8
 4355              		.cfi_offset 14, -4
1416:Libraries/ctrl_drv/i2c/mpu6050/MPU6050.c ****     I2Cdev_readBit(mpu6050.devAddr, MPU6050_RA_INT_PIN_CFG, MPU6050_INTCFG_LATCH_INT_EN_BIT, mpu605
 4356              		.loc 1 1416 5 view .LVU574
 4357 0002 064B     		ldr	r3, .L495
 4358 0004 5C1E     		subs	r4, r3, #1
 4359 0006 0522     		movs	r2, #5
 4360 0008 3721     		movs	r1, #55
 4361 000a 13F8010C 		ldrb	r0, [r3, #-1]	@ zero_extendqisi2
 4362 000e FFF7FEFF 		bl	I2Cdev_readBit
 4363              	.LVL224:
1417:Libraries/ctrl_drv/i2c/mpu6050/MPU6050.c ****     return mpu6050.buffer[0];
 4364              		.loc 1 1417 5 view .LVU575
 4365              		.loc 1 1417 26 is_stmt 0 view .LVU576
 4366 0012 6078     		ldrb	r0, [r4, #1]	@ zero_extendqisi2
1418:Libraries/ctrl_drv/i2c/mpu6050/MPU6050.c **** }
 4367              		.loc 1 1418 1 view .LVU577
 4368 0014 0038     		subs	r0, r0, #0
ARM GAS  C:\Users\Mxuan\AppData\Local\Temp\ccfnFihP.s 			page 100


 4369 0016 18BF     		it	ne
 4370 0018 0120     		movne	r0, #1
 4371 001a 10BD     		pop	{r4, pc}
 4372              	.L496:
 4373              		.align	2
 4374              	.L495:
 4375 001c 01000000 		.word	mpu6050+1
 4376              		.cfi_endproc
 4377              	.LFE103:
 4379              		.section	.text.MPU6050_setInterruptLatch,"ax",%progbits
 4380              		.align	1
 4381              		.global	MPU6050_setInterruptLatch
 4382              		.syntax unified
 4383              		.thumb
 4384              		.thumb_func
 4386              	MPU6050_setInterruptLatch:
 4387              	.LVL225:
 4388              	.LFB104:
1419:Libraries/ctrl_drv/i2c/mpu6050/MPU6050.c **** /** Set interrupt latch mode.
1420:Libraries/ctrl_drv/i2c/mpu6050/MPU6050.c ****  * @param latch New latch mode (0=50us-pulse, 1=latch-until-int-cleared)
1421:Libraries/ctrl_drv/i2c/mpu6050/MPU6050.c ****  * @see getInterruptLatch()
1422:Libraries/ctrl_drv/i2c/mpu6050/MPU6050.c ****  * @see MPU6050_RA_INT_PIN_CFG
1423:Libraries/ctrl_drv/i2c/mpu6050/MPU6050.c ****  * @see MPU6050_INTCFG_LATCH_INT_EN_BIT
1424:Libraries/ctrl_drv/i2c/mpu6050/MPU6050.c ****  */
1425:Libraries/ctrl_drv/i2c/mpu6050/MPU6050.c **** void MPU6050_setInterruptLatch(bool latch) {
 4389              		.loc 1 1425 44 is_stmt 1 view -0
 4390              		.cfi_startproc
 4391              		@ args = 0, pretend = 0, frame = 0
 4392              		@ frame_needed = 0, uses_anonymous_args = 0
 4393              		.loc 1 1425 44 is_stmt 0 view .LVU579
 4394 0000 08B5     		push	{r3, lr}
 4395              	.LCFI133:
 4396              		.cfi_def_cfa_offset 8
 4397              		.cfi_offset 3, -8
 4398              		.cfi_offset 14, -4
 4399 0002 0346     		mov	r3, r0
1426:Libraries/ctrl_drv/i2c/mpu6050/MPU6050.c ****     I2Cdev_writeBit(mpu6050.devAddr, MPU6050_RA_INT_PIN_CFG, MPU6050_INTCFG_LATCH_INT_EN_BIT, latch
 4400              		.loc 1 1426 5 is_stmt 1 view .LVU580
 4401 0004 0522     		movs	r2, #5
 4402 0006 3721     		movs	r1, #55
 4403 0008 0248     		ldr	r0, .L499
 4404              	.LVL226:
 4405              		.loc 1 1426 5 is_stmt 0 view .LVU581
 4406 000a 0078     		ldrb	r0, [r0]	@ zero_extendqisi2
 4407 000c FFF7FEFF 		bl	I2Cdev_writeBit
 4408              	.LVL227:
1427:Libraries/ctrl_drv/i2c/mpu6050/MPU6050.c **** }
 4409              		.loc 1 1427 1 view .LVU582
 4410 0010 08BD     		pop	{r3, pc}
 4411              	.L500:
 4412 0012 00BF     		.align	2
 4413              	.L499:
 4414 0014 00000000 		.word	mpu6050
 4415              		.cfi_endproc
 4416              	.LFE104:
 4418              		.section	.text.MPU6050_getInterruptLatchClear,"ax",%progbits
 4419              		.align	1
ARM GAS  C:\Users\Mxuan\AppData\Local\Temp\ccfnFihP.s 			page 101


 4420              		.global	MPU6050_getInterruptLatchClear
 4421              		.syntax unified
 4422              		.thumb
 4423              		.thumb_func
 4425              	MPU6050_getInterruptLatchClear:
 4426              	.LFB105:
1428:Libraries/ctrl_drv/i2c/mpu6050/MPU6050.c **** /** Get interrupt latch clear mode.
1429:Libraries/ctrl_drv/i2c/mpu6050/MPU6050.c ****  * Will be set 0 for status-read-only, 1 for any-register-read.
1430:Libraries/ctrl_drv/i2c/mpu6050/MPU6050.c ****  * @return Current latch clear mode (0=status-read-only, 1=any-register-read)
1431:Libraries/ctrl_drv/i2c/mpu6050/MPU6050.c ****  * @see MPU6050_RA_INT_PIN_CFG
1432:Libraries/ctrl_drv/i2c/mpu6050/MPU6050.c ****  * @see MPU6050_INTCFG_INT_RD_CLEAR_BIT
1433:Libraries/ctrl_drv/i2c/mpu6050/MPU6050.c ****  */
1434:Libraries/ctrl_drv/i2c/mpu6050/MPU6050.c **** bool MPU6050_getInterruptLatchClear() {
 4427              		.loc 1 1434 39 is_stmt 1 view -0
 4428              		.cfi_startproc
 4429              		@ args = 0, pretend = 0, frame = 0
 4430              		@ frame_needed = 0, uses_anonymous_args = 0
 4431 0000 10B5     		push	{r4, lr}
 4432              	.LCFI134:
 4433              		.cfi_def_cfa_offset 8
 4434              		.cfi_offset 4, -8
 4435              		.cfi_offset 14, -4
1435:Libraries/ctrl_drv/i2c/mpu6050/MPU6050.c ****     I2Cdev_readBit(mpu6050.devAddr, MPU6050_RA_INT_PIN_CFG, MPU6050_INTCFG_INT_RD_CLEAR_BIT, mpu605
 4436              		.loc 1 1435 5 view .LVU584
 4437 0002 064B     		ldr	r3, .L503
 4438 0004 5C1E     		subs	r4, r3, #1
 4439 0006 0422     		movs	r2, #4
 4440 0008 3721     		movs	r1, #55
 4441 000a 13F8010C 		ldrb	r0, [r3, #-1]	@ zero_extendqisi2
 4442 000e FFF7FEFF 		bl	I2Cdev_readBit
 4443              	.LVL228:
1436:Libraries/ctrl_drv/i2c/mpu6050/MPU6050.c ****     return mpu6050.buffer[0];
 4444              		.loc 1 1436 5 view .LVU585
 4445              		.loc 1 1436 26 is_stmt 0 view .LVU586
 4446 0012 6078     		ldrb	r0, [r4, #1]	@ zero_extendqisi2
1437:Libraries/ctrl_drv/i2c/mpu6050/MPU6050.c **** }
 4447              		.loc 1 1437 1 view .LVU587
 4448 0014 0038     		subs	r0, r0, #0
 4449 0016 18BF     		it	ne
 4450 0018 0120     		movne	r0, #1
 4451 001a 10BD     		pop	{r4, pc}
 4452              	.L504:
 4453              		.align	2
 4454              	.L503:
 4455 001c 01000000 		.word	mpu6050+1
 4456              		.cfi_endproc
 4457              	.LFE105:
 4459              		.section	.text.MPU6050_setInterruptLatchClear,"ax",%progbits
 4460              		.align	1
 4461              		.global	MPU6050_setInterruptLatchClear
 4462              		.syntax unified
 4463              		.thumb
 4464              		.thumb_func
 4466              	MPU6050_setInterruptLatchClear:
 4467              	.LVL229:
 4468              	.LFB106:
1438:Libraries/ctrl_drv/i2c/mpu6050/MPU6050.c **** /** Set interrupt latch clear mode.
ARM GAS  C:\Users\Mxuan\AppData\Local\Temp\ccfnFihP.s 			page 102


1439:Libraries/ctrl_drv/i2c/mpu6050/MPU6050.c ****  * @param clear New latch clear mode (0=status-read-only, 1=any-register-read)
1440:Libraries/ctrl_drv/i2c/mpu6050/MPU6050.c ****  * @see getInterruptLatchClear()
1441:Libraries/ctrl_drv/i2c/mpu6050/MPU6050.c ****  * @see MPU6050_RA_INT_PIN_CFG
1442:Libraries/ctrl_drv/i2c/mpu6050/MPU6050.c ****  * @see MPU6050_INTCFG_INT_RD_CLEAR_BIT
1443:Libraries/ctrl_drv/i2c/mpu6050/MPU6050.c ****  */
1444:Libraries/ctrl_drv/i2c/mpu6050/MPU6050.c **** void MPU6050_setInterruptLatchClear(bool clear) {
 4469              		.loc 1 1444 49 is_stmt 1 view -0
 4470              		.cfi_startproc
 4471              		@ args = 0, pretend = 0, frame = 0
 4472              		@ frame_needed = 0, uses_anonymous_args = 0
 4473              		.loc 1 1444 49 is_stmt 0 view .LVU589
 4474 0000 08B5     		push	{r3, lr}
 4475              	.LCFI135:
 4476              		.cfi_def_cfa_offset 8
 4477              		.cfi_offset 3, -8
 4478              		.cfi_offset 14, -4
 4479 0002 0346     		mov	r3, r0
1445:Libraries/ctrl_drv/i2c/mpu6050/MPU6050.c ****     I2Cdev_writeBit(mpu6050.devAddr, MPU6050_RA_INT_PIN_CFG, MPU6050_INTCFG_INT_RD_CLEAR_BIT, clear
 4480              		.loc 1 1445 5 is_stmt 1 view .LVU590
 4481 0004 0422     		movs	r2, #4
 4482 0006 3721     		movs	r1, #55
 4483 0008 0248     		ldr	r0, .L507
 4484              	.LVL230:
 4485              		.loc 1 1445 5 is_stmt 0 view .LVU591
 4486 000a 0078     		ldrb	r0, [r0]	@ zero_extendqisi2
 4487 000c FFF7FEFF 		bl	I2Cdev_writeBit
 4488              	.LVL231:
1446:Libraries/ctrl_drv/i2c/mpu6050/MPU6050.c **** }
 4489              		.loc 1 1446 1 view .LVU592
 4490 0010 08BD     		pop	{r3, pc}
 4491              	.L508:
 4492 0012 00BF     		.align	2
 4493              	.L507:
 4494 0014 00000000 		.word	mpu6050
 4495              		.cfi_endproc
 4496              	.LFE106:
 4498              		.section	.text.MPU6050_getFSyncInterruptLevel,"ax",%progbits
 4499              		.align	1
 4500              		.global	MPU6050_getFSyncInterruptLevel
 4501              		.syntax unified
 4502              		.thumb
 4503              		.thumb_func
 4505              	MPU6050_getFSyncInterruptLevel:
 4506              	.LFB107:
1447:Libraries/ctrl_drv/i2c/mpu6050/MPU6050.c **** /** Get FSYNC interrupt logic level mode.
1448:Libraries/ctrl_drv/i2c/mpu6050/MPU6050.c ****  * @return Current FSYNC interrupt mode (0=active-high, 1=active-low)
1449:Libraries/ctrl_drv/i2c/mpu6050/MPU6050.c ****  * @see getFSyncInterruptMode()
1450:Libraries/ctrl_drv/i2c/mpu6050/MPU6050.c ****  * @see MPU6050_RA_INT_PIN_CFG
1451:Libraries/ctrl_drv/i2c/mpu6050/MPU6050.c ****  * @see MPU6050_INTCFG_FSYNC_INT_LEVEL_BIT
1452:Libraries/ctrl_drv/i2c/mpu6050/MPU6050.c ****  */
1453:Libraries/ctrl_drv/i2c/mpu6050/MPU6050.c **** bool MPU6050_getFSyncInterruptLevel() {
 4507              		.loc 1 1453 39 is_stmt 1 view -0
 4508              		.cfi_startproc
 4509              		@ args = 0, pretend = 0, frame = 0
 4510              		@ frame_needed = 0, uses_anonymous_args = 0
 4511 0000 10B5     		push	{r4, lr}
 4512              	.LCFI136:
ARM GAS  C:\Users\Mxuan\AppData\Local\Temp\ccfnFihP.s 			page 103


 4513              		.cfi_def_cfa_offset 8
 4514              		.cfi_offset 4, -8
 4515              		.cfi_offset 14, -4
1454:Libraries/ctrl_drv/i2c/mpu6050/MPU6050.c ****     I2Cdev_readBit(mpu6050.devAddr, MPU6050_RA_INT_PIN_CFG, MPU6050_INTCFG_FSYNC_INT_LEVEL_BIT, mpu
 4516              		.loc 1 1454 5 view .LVU594
 4517 0002 064B     		ldr	r3, .L511
 4518 0004 5C1E     		subs	r4, r3, #1
 4519 0006 0322     		movs	r2, #3
 4520 0008 3721     		movs	r1, #55
 4521 000a 13F8010C 		ldrb	r0, [r3, #-1]	@ zero_extendqisi2
 4522 000e FFF7FEFF 		bl	I2Cdev_readBit
 4523              	.LVL232:
1455:Libraries/ctrl_drv/i2c/mpu6050/MPU6050.c ****     return mpu6050.buffer[0];
 4524              		.loc 1 1455 5 view .LVU595
 4525              		.loc 1 1455 26 is_stmt 0 view .LVU596
 4526 0012 6078     		ldrb	r0, [r4, #1]	@ zero_extendqisi2
1456:Libraries/ctrl_drv/i2c/mpu6050/MPU6050.c **** }
 4527              		.loc 1 1456 1 view .LVU597
 4528 0014 0038     		subs	r0, r0, #0
 4529 0016 18BF     		it	ne
 4530 0018 0120     		movne	r0, #1
 4531 001a 10BD     		pop	{r4, pc}
 4532              	.L512:
 4533              		.align	2
 4534              	.L511:
 4535 001c 01000000 		.word	mpu6050+1
 4536              		.cfi_endproc
 4537              	.LFE107:
 4539              		.section	.text.MPU6050_setFSyncInterruptLevel,"ax",%progbits
 4540              		.align	1
 4541              		.global	MPU6050_setFSyncInterruptLevel
 4542              		.syntax unified
 4543              		.thumb
 4544              		.thumb_func
 4546              	MPU6050_setFSyncInterruptLevel:
 4547              	.LVL233:
 4548              	.LFB108:
1457:Libraries/ctrl_drv/i2c/mpu6050/MPU6050.c **** /** Set FSYNC interrupt logic level mode.
1458:Libraries/ctrl_drv/i2c/mpu6050/MPU6050.c ****  * @param mode New FSYNC interrupt mode (0=active-high, 1=active-low)
1459:Libraries/ctrl_drv/i2c/mpu6050/MPU6050.c ****  * @see getFSyncInterruptMode()
1460:Libraries/ctrl_drv/i2c/mpu6050/MPU6050.c ****  * @see MPU6050_RA_INT_PIN_CFG
1461:Libraries/ctrl_drv/i2c/mpu6050/MPU6050.c ****  * @see MPU6050_INTCFG_FSYNC_INT_LEVEL_BIT
1462:Libraries/ctrl_drv/i2c/mpu6050/MPU6050.c ****  */
1463:Libraries/ctrl_drv/i2c/mpu6050/MPU6050.c **** void MPU6050_setFSyncInterruptLevel(bool level) {
 4549              		.loc 1 1463 49 is_stmt 1 view -0
 4550              		.cfi_startproc
 4551              		@ args = 0, pretend = 0, frame = 0
 4552              		@ frame_needed = 0, uses_anonymous_args = 0
 4553              		.loc 1 1463 49 is_stmt 0 view .LVU599
 4554 0000 08B5     		push	{r3, lr}
 4555              	.LCFI137:
 4556              		.cfi_def_cfa_offset 8
 4557              		.cfi_offset 3, -8
 4558              		.cfi_offset 14, -4
 4559 0002 0346     		mov	r3, r0
1464:Libraries/ctrl_drv/i2c/mpu6050/MPU6050.c ****     I2Cdev_writeBit(mpu6050.devAddr, MPU6050_RA_INT_PIN_CFG, MPU6050_INTCFG_FSYNC_INT_LEVEL_BIT, le
 4560              		.loc 1 1464 5 is_stmt 1 view .LVU600
ARM GAS  C:\Users\Mxuan\AppData\Local\Temp\ccfnFihP.s 			page 104


 4561 0004 0322     		movs	r2, #3
 4562 0006 3721     		movs	r1, #55
 4563 0008 0248     		ldr	r0, .L515
 4564              	.LVL234:
 4565              		.loc 1 1464 5 is_stmt 0 view .LVU601
 4566 000a 0078     		ldrb	r0, [r0]	@ zero_extendqisi2
 4567 000c FFF7FEFF 		bl	I2Cdev_writeBit
 4568              	.LVL235:
1465:Libraries/ctrl_drv/i2c/mpu6050/MPU6050.c **** }
 4569              		.loc 1 1465 1 view .LVU602
 4570 0010 08BD     		pop	{r3, pc}
 4571              	.L516:
 4572 0012 00BF     		.align	2
 4573              	.L515:
 4574 0014 00000000 		.word	mpu6050
 4575              		.cfi_endproc
 4576              	.LFE108:
 4578              		.section	.text.MPU6050_getFSyncInterruptEnabled,"ax",%progbits
 4579              		.align	1
 4580              		.global	MPU6050_getFSyncInterruptEnabled
 4581              		.syntax unified
 4582              		.thumb
 4583              		.thumb_func
 4585              	MPU6050_getFSyncInterruptEnabled:
 4586              	.LFB109:
1466:Libraries/ctrl_drv/i2c/mpu6050/MPU6050.c **** /** Get FSYNC pin interrupt enabled setting.
1467:Libraries/ctrl_drv/i2c/mpu6050/MPU6050.c ****  * Will be set 0 for disabled, 1 for enabled.
1468:Libraries/ctrl_drv/i2c/mpu6050/MPU6050.c ****  * @return Current interrupt enabled setting
1469:Libraries/ctrl_drv/i2c/mpu6050/MPU6050.c ****  * @see MPU6050_RA_INT_PIN_CFG
1470:Libraries/ctrl_drv/i2c/mpu6050/MPU6050.c ****  * @see MPU6050_INTCFG_FSYNC_INT_EN_BIT
1471:Libraries/ctrl_drv/i2c/mpu6050/MPU6050.c ****  */
1472:Libraries/ctrl_drv/i2c/mpu6050/MPU6050.c **** bool MPU6050_getFSyncInterruptEnabled() {
 4587              		.loc 1 1472 41 is_stmt 1 view -0
 4588              		.cfi_startproc
 4589              		@ args = 0, pretend = 0, frame = 0
 4590              		@ frame_needed = 0, uses_anonymous_args = 0
 4591 0000 10B5     		push	{r4, lr}
 4592              	.LCFI138:
 4593              		.cfi_def_cfa_offset 8
 4594              		.cfi_offset 4, -8
 4595              		.cfi_offset 14, -4
1473:Libraries/ctrl_drv/i2c/mpu6050/MPU6050.c ****     I2Cdev_readBit(mpu6050.devAddr, MPU6050_RA_INT_PIN_CFG, MPU6050_INTCFG_FSYNC_INT_EN_BIT, mpu605
 4596              		.loc 1 1473 5 view .LVU604
 4597 0002 064B     		ldr	r3, .L519
 4598 0004 5C1E     		subs	r4, r3, #1
 4599 0006 0222     		movs	r2, #2
 4600 0008 3721     		movs	r1, #55
 4601 000a 13F8010C 		ldrb	r0, [r3, #-1]	@ zero_extendqisi2
 4602 000e FFF7FEFF 		bl	I2Cdev_readBit
 4603              	.LVL236:
1474:Libraries/ctrl_drv/i2c/mpu6050/MPU6050.c ****     return mpu6050.buffer[0];
 4604              		.loc 1 1474 5 view .LVU605
 4605              		.loc 1 1474 26 is_stmt 0 view .LVU606
 4606 0012 6078     		ldrb	r0, [r4, #1]	@ zero_extendqisi2
1475:Libraries/ctrl_drv/i2c/mpu6050/MPU6050.c **** }
 4607              		.loc 1 1475 1 view .LVU607
 4608 0014 0038     		subs	r0, r0, #0
ARM GAS  C:\Users\Mxuan\AppData\Local\Temp\ccfnFihP.s 			page 105


 4609 0016 18BF     		it	ne
 4610 0018 0120     		movne	r0, #1
 4611 001a 10BD     		pop	{r4, pc}
 4612              	.L520:
 4613              		.align	2
 4614              	.L519:
 4615 001c 01000000 		.word	mpu6050+1
 4616              		.cfi_endproc
 4617              	.LFE109:
 4619              		.section	.text.MPU6050_setFSyncInterruptEnabled,"ax",%progbits
 4620              		.align	1
 4621              		.global	MPU6050_setFSyncInterruptEnabled
 4622              		.syntax unified
 4623              		.thumb
 4624              		.thumb_func
 4626              	MPU6050_setFSyncInterruptEnabled:
 4627              	.LVL237:
 4628              	.LFB110:
1476:Libraries/ctrl_drv/i2c/mpu6050/MPU6050.c **** /** Set FSYNC pin interrupt enabled setting.
1477:Libraries/ctrl_drv/i2c/mpu6050/MPU6050.c ****  * @param enabled New FSYNC pin interrupt enabled setting
1478:Libraries/ctrl_drv/i2c/mpu6050/MPU6050.c ****  * @see getFSyncInterruptEnabled()
1479:Libraries/ctrl_drv/i2c/mpu6050/MPU6050.c ****  * @see MPU6050_RA_INT_PIN_CFG
1480:Libraries/ctrl_drv/i2c/mpu6050/MPU6050.c ****  * @see MPU6050_INTCFG_FSYNC_INT_EN_BIT
1481:Libraries/ctrl_drv/i2c/mpu6050/MPU6050.c ****  */
1482:Libraries/ctrl_drv/i2c/mpu6050/MPU6050.c **** void MPU6050_setFSyncInterruptEnabled(bool enabled) {
 4629              		.loc 1 1482 53 is_stmt 1 view -0
 4630              		.cfi_startproc
 4631              		@ args = 0, pretend = 0, frame = 0
 4632              		@ frame_needed = 0, uses_anonymous_args = 0
 4633              		.loc 1 1482 53 is_stmt 0 view .LVU609
 4634 0000 08B5     		push	{r3, lr}
 4635              	.LCFI139:
 4636              		.cfi_def_cfa_offset 8
 4637              		.cfi_offset 3, -8
 4638              		.cfi_offset 14, -4
 4639 0002 0346     		mov	r3, r0
1483:Libraries/ctrl_drv/i2c/mpu6050/MPU6050.c ****     I2Cdev_writeBit(mpu6050.devAddr, MPU6050_RA_INT_PIN_CFG, MPU6050_INTCFG_FSYNC_INT_EN_BIT, enabl
 4640              		.loc 1 1483 5 is_stmt 1 view .LVU610
 4641 0004 0222     		movs	r2, #2
 4642 0006 3721     		movs	r1, #55
 4643 0008 0248     		ldr	r0, .L523
 4644              	.LVL238:
 4645              		.loc 1 1483 5 is_stmt 0 view .LVU611
 4646 000a 0078     		ldrb	r0, [r0]	@ zero_extendqisi2
 4647 000c FFF7FEFF 		bl	I2Cdev_writeBit
 4648              	.LVL239:
1484:Libraries/ctrl_drv/i2c/mpu6050/MPU6050.c **** }
 4649              		.loc 1 1484 1 view .LVU612
 4650 0010 08BD     		pop	{r3, pc}
 4651              	.L524:
 4652 0012 00BF     		.align	2
 4653              	.L523:
 4654 0014 00000000 		.word	mpu6050
 4655              		.cfi_endproc
 4656              	.LFE110:
 4658              		.section	.text.MPU6050_getI2CBypassEnabled,"ax",%progbits
 4659              		.align	1
ARM GAS  C:\Users\Mxuan\AppData\Local\Temp\ccfnFihP.s 			page 106


 4660              		.global	MPU6050_getI2CBypassEnabled
 4661              		.syntax unified
 4662              		.thumb
 4663              		.thumb_func
 4665              	MPU6050_getI2CBypassEnabled:
 4666              	.LFB111:
1485:Libraries/ctrl_drv/i2c/mpu6050/MPU6050.c **** /** Get I2C bypass enabled status.
1486:Libraries/ctrl_drv/i2c/mpu6050/MPU6050.c ****  * When this bit is equal to 1 and I2C_MST_EN (Register 106 bit[5]) is equal to
1487:Libraries/ctrl_drv/i2c/mpu6050/MPU6050.c ****  * 0, the host application processor will be able to directly access the
1488:Libraries/ctrl_drv/i2c/mpu6050/MPU6050.c ****  * auxiliary I2C bus of the MPU-60X0. When this bit is equal to 0, the host
1489:Libraries/ctrl_drv/i2c/mpu6050/MPU6050.c ****  * application processor will not be able to directly access the auxiliary I2C
1490:Libraries/ctrl_drv/i2c/mpu6050/MPU6050.c ****  * bus of the MPU-60X0 regardless of the state of I2C_MST_EN (Register 106
1491:Libraries/ctrl_drv/i2c/mpu6050/MPU6050.c ****  * bit[5]).
1492:Libraries/ctrl_drv/i2c/mpu6050/MPU6050.c ****  * @return Current I2C bypass enabled status
1493:Libraries/ctrl_drv/i2c/mpu6050/MPU6050.c ****  * @see MPU6050_RA_INT_PIN_CFG
1494:Libraries/ctrl_drv/i2c/mpu6050/MPU6050.c ****  * @see MPU6050_INTCFG_I2C_BYPASS_EN_BIT
1495:Libraries/ctrl_drv/i2c/mpu6050/MPU6050.c ****  */
1496:Libraries/ctrl_drv/i2c/mpu6050/MPU6050.c **** bool MPU6050_getI2CBypassEnabled() {
 4667              		.loc 1 1496 36 is_stmt 1 view -0
 4668              		.cfi_startproc
 4669              		@ args = 0, pretend = 0, frame = 0
 4670              		@ frame_needed = 0, uses_anonymous_args = 0
 4671 0000 10B5     		push	{r4, lr}
 4672              	.LCFI140:
 4673              		.cfi_def_cfa_offset 8
 4674              		.cfi_offset 4, -8
 4675              		.cfi_offset 14, -4
1497:Libraries/ctrl_drv/i2c/mpu6050/MPU6050.c ****     I2Cdev_readBit(mpu6050.devAddr, MPU6050_RA_INT_PIN_CFG, MPU6050_INTCFG_I2C_BYPASS_EN_BIT, mpu60
 4676              		.loc 1 1497 5 view .LVU614
 4677 0002 064B     		ldr	r3, .L527
 4678 0004 5C1E     		subs	r4, r3, #1
 4679 0006 0122     		movs	r2, #1
 4680 0008 3721     		movs	r1, #55
 4681 000a 13F8010C 		ldrb	r0, [r3, #-1]	@ zero_extendqisi2
 4682 000e FFF7FEFF 		bl	I2Cdev_readBit
 4683              	.LVL240:
1498:Libraries/ctrl_drv/i2c/mpu6050/MPU6050.c ****     return mpu6050.buffer[0];
 4684              		.loc 1 1498 5 view .LVU615
 4685              		.loc 1 1498 26 is_stmt 0 view .LVU616
 4686 0012 6078     		ldrb	r0, [r4, #1]	@ zero_extendqisi2
1499:Libraries/ctrl_drv/i2c/mpu6050/MPU6050.c **** }
 4687              		.loc 1 1499 1 view .LVU617
 4688 0014 0038     		subs	r0, r0, #0
 4689 0016 18BF     		it	ne
 4690 0018 0120     		movne	r0, #1
 4691 001a 10BD     		pop	{r4, pc}
 4692              	.L528:
 4693              		.align	2
 4694              	.L527:
 4695 001c 01000000 		.word	mpu6050+1
 4696              		.cfi_endproc
 4697              	.LFE111:
 4699              		.section	.text.MPU6050_setI2CBypassEnabled,"ax",%progbits
 4700              		.align	1
 4701              		.global	MPU6050_setI2CBypassEnabled
 4702              		.syntax unified
 4703              		.thumb
ARM GAS  C:\Users\Mxuan\AppData\Local\Temp\ccfnFihP.s 			page 107


 4704              		.thumb_func
 4706              	MPU6050_setI2CBypassEnabled:
 4707              	.LVL241:
 4708              	.LFB112:
1500:Libraries/ctrl_drv/i2c/mpu6050/MPU6050.c **** /** Set I2C bypass enabled status.
1501:Libraries/ctrl_drv/i2c/mpu6050/MPU6050.c ****  * When this bit is equal to 1 and I2C_MST_EN (Register 106 bit[5]) is equal to
1502:Libraries/ctrl_drv/i2c/mpu6050/MPU6050.c ****  * 0, the host application processor will be able to directly access the
1503:Libraries/ctrl_drv/i2c/mpu6050/MPU6050.c ****  * auxiliary I2C bus of the MPU-60X0. When this bit is equal to 0, the host
1504:Libraries/ctrl_drv/i2c/mpu6050/MPU6050.c ****  * application processor will not be able to directly access the auxiliary I2C
1505:Libraries/ctrl_drv/i2c/mpu6050/MPU6050.c ****  * bus of the MPU-60X0 regardless of the state of I2C_MST_EN (Register 106
1506:Libraries/ctrl_drv/i2c/mpu6050/MPU6050.c ****  * bit[5]).
1507:Libraries/ctrl_drv/i2c/mpu6050/MPU6050.c ****  * @param enabled New I2C bypass enabled status
1508:Libraries/ctrl_drv/i2c/mpu6050/MPU6050.c ****  * @see MPU6050_RA_INT_PIN_CFG
1509:Libraries/ctrl_drv/i2c/mpu6050/MPU6050.c ****  * @see MPU6050_INTCFG_I2C_BYPASS_EN_BIT
1510:Libraries/ctrl_drv/i2c/mpu6050/MPU6050.c ****  */
1511:Libraries/ctrl_drv/i2c/mpu6050/MPU6050.c **** void MPU6050_setI2CBypassEnabled(bool enabled) {
 4709              		.loc 1 1511 48 is_stmt 1 view -0
 4710              		.cfi_startproc
 4711              		@ args = 0, pretend = 0, frame = 0
 4712              		@ frame_needed = 0, uses_anonymous_args = 0
 4713              		.loc 1 1511 48 is_stmt 0 view .LVU619
 4714 0000 08B5     		push	{r3, lr}
 4715              	.LCFI141:
 4716              		.cfi_def_cfa_offset 8
 4717              		.cfi_offset 3, -8
 4718              		.cfi_offset 14, -4
 4719 0002 0346     		mov	r3, r0
1512:Libraries/ctrl_drv/i2c/mpu6050/MPU6050.c ****     I2Cdev_writeBit(mpu6050.devAddr, MPU6050_RA_INT_PIN_CFG, MPU6050_INTCFG_I2C_BYPASS_EN_BIT, enab
 4720              		.loc 1 1512 5 is_stmt 1 view .LVU620
 4721 0004 0122     		movs	r2, #1
 4722 0006 3721     		movs	r1, #55
 4723 0008 0248     		ldr	r0, .L531
 4724              	.LVL242:
 4725              		.loc 1 1512 5 is_stmt 0 view .LVU621
 4726 000a 0078     		ldrb	r0, [r0]	@ zero_extendqisi2
 4727 000c FFF7FEFF 		bl	I2Cdev_writeBit
 4728              	.LVL243:
1513:Libraries/ctrl_drv/i2c/mpu6050/MPU6050.c **** }
 4729              		.loc 1 1513 1 view .LVU622
 4730 0010 08BD     		pop	{r3, pc}
 4731              	.L532:
 4732 0012 00BF     		.align	2
 4733              	.L531:
 4734 0014 00000000 		.word	mpu6050
 4735              		.cfi_endproc
 4736              	.LFE112:
 4738              		.section	.text.MPU6050_getClockOutputEnabled,"ax",%progbits
 4739              		.align	1
 4740              		.global	MPU6050_getClockOutputEnabled
 4741              		.syntax unified
 4742              		.thumb
 4743              		.thumb_func
 4745              	MPU6050_getClockOutputEnabled:
 4746              	.LFB113:
1514:Libraries/ctrl_drv/i2c/mpu6050/MPU6050.c **** /** Get reference clock output enabled status.
1515:Libraries/ctrl_drv/i2c/mpu6050/MPU6050.c ****  * When this bit is equal to 1, a reference clock output is provided at the
1516:Libraries/ctrl_drv/i2c/mpu6050/MPU6050.c ****  * CLKOUT pin. When this bit is equal to 0, the clock output is disabled. For
ARM GAS  C:\Users\Mxuan\AppData\Local\Temp\ccfnFihP.s 			page 108


1517:Libraries/ctrl_drv/i2c/mpu6050/MPU6050.c ****  * further information regarding CLKOUT, please refer to the MPU-60X0 Product
1518:Libraries/ctrl_drv/i2c/mpu6050/MPU6050.c ****  * Specification document.
1519:Libraries/ctrl_drv/i2c/mpu6050/MPU6050.c ****  * @return Current reference clock output enabled status
1520:Libraries/ctrl_drv/i2c/mpu6050/MPU6050.c ****  * @see MPU6050_RA_INT_PIN_CFG
1521:Libraries/ctrl_drv/i2c/mpu6050/MPU6050.c ****  * @see MPU6050_INTCFG_CLKOUT_EN_BIT
1522:Libraries/ctrl_drv/i2c/mpu6050/MPU6050.c ****  */
1523:Libraries/ctrl_drv/i2c/mpu6050/MPU6050.c **** bool MPU6050_getClockOutputEnabled() {
 4747              		.loc 1 1523 38 is_stmt 1 view -0
 4748              		.cfi_startproc
 4749              		@ args = 0, pretend = 0, frame = 0
 4750              		@ frame_needed = 0, uses_anonymous_args = 0
 4751 0000 10B5     		push	{r4, lr}
 4752              	.LCFI142:
 4753              		.cfi_def_cfa_offset 8
 4754              		.cfi_offset 4, -8
 4755              		.cfi_offset 14, -4
1524:Libraries/ctrl_drv/i2c/mpu6050/MPU6050.c ****     I2Cdev_readBit(mpu6050.devAddr, MPU6050_RA_INT_PIN_CFG, MPU6050_INTCFG_CLKOUT_EN_BIT, mpu6050.b
 4756              		.loc 1 1524 5 view .LVU624
 4757 0002 064B     		ldr	r3, .L535
 4758 0004 5C1E     		subs	r4, r3, #1
 4759 0006 0022     		movs	r2, #0
 4760 0008 3721     		movs	r1, #55
 4761 000a 13F8010C 		ldrb	r0, [r3, #-1]	@ zero_extendqisi2
 4762 000e FFF7FEFF 		bl	I2Cdev_readBit
 4763              	.LVL244:
1525:Libraries/ctrl_drv/i2c/mpu6050/MPU6050.c ****     return mpu6050.buffer[0];
 4764              		.loc 1 1525 5 view .LVU625
 4765              		.loc 1 1525 26 is_stmt 0 view .LVU626
 4766 0012 6078     		ldrb	r0, [r4, #1]	@ zero_extendqisi2
1526:Libraries/ctrl_drv/i2c/mpu6050/MPU6050.c **** }
 4767              		.loc 1 1526 1 view .LVU627
 4768 0014 0038     		subs	r0, r0, #0
 4769 0016 18BF     		it	ne
 4770 0018 0120     		movne	r0, #1
 4771 001a 10BD     		pop	{r4, pc}
 4772              	.L536:
 4773              		.align	2
 4774              	.L535:
 4775 001c 01000000 		.word	mpu6050+1
 4776              		.cfi_endproc
 4777              	.LFE113:
 4779              		.section	.text.MPU6050_setClockOutputEnabled,"ax",%progbits
 4780              		.align	1
 4781              		.global	MPU6050_setClockOutputEnabled
 4782              		.syntax unified
 4783              		.thumb
 4784              		.thumb_func
 4786              	MPU6050_setClockOutputEnabled:
 4787              	.LVL245:
 4788              	.LFB114:
1527:Libraries/ctrl_drv/i2c/mpu6050/MPU6050.c **** /** Set reference clock output enabled status.
1528:Libraries/ctrl_drv/i2c/mpu6050/MPU6050.c ****  * When this bit is equal to 1, a reference clock output is provided at the
1529:Libraries/ctrl_drv/i2c/mpu6050/MPU6050.c ****  * CLKOUT pin. When this bit is equal to 0, the clock output is disabled. For
1530:Libraries/ctrl_drv/i2c/mpu6050/MPU6050.c ****  * further information regarding CLKOUT, please refer to the MPU-60X0 Product
1531:Libraries/ctrl_drv/i2c/mpu6050/MPU6050.c ****  * Specification document.
1532:Libraries/ctrl_drv/i2c/mpu6050/MPU6050.c ****  * @param enabled New reference clock output enabled status
1533:Libraries/ctrl_drv/i2c/mpu6050/MPU6050.c ****  * @see MPU6050_RA_INT_PIN_CFG
ARM GAS  C:\Users\Mxuan\AppData\Local\Temp\ccfnFihP.s 			page 109


1534:Libraries/ctrl_drv/i2c/mpu6050/MPU6050.c ****  * @see MPU6050_INTCFG_CLKOUT_EN_BIT
1535:Libraries/ctrl_drv/i2c/mpu6050/MPU6050.c ****  */
1536:Libraries/ctrl_drv/i2c/mpu6050/MPU6050.c **** void MPU6050_setClockOutputEnabled(bool enabled) {
 4789              		.loc 1 1536 50 is_stmt 1 view -0
 4790              		.cfi_startproc
 4791              		@ args = 0, pretend = 0, frame = 0
 4792              		@ frame_needed = 0, uses_anonymous_args = 0
 4793              		.loc 1 1536 50 is_stmt 0 view .LVU629
 4794 0000 08B5     		push	{r3, lr}
 4795              	.LCFI143:
 4796              		.cfi_def_cfa_offset 8
 4797              		.cfi_offset 3, -8
 4798              		.cfi_offset 14, -4
 4799 0002 0346     		mov	r3, r0
1537:Libraries/ctrl_drv/i2c/mpu6050/MPU6050.c ****     I2Cdev_writeBit(mpu6050.devAddr, MPU6050_RA_INT_PIN_CFG, MPU6050_INTCFG_CLKOUT_EN_BIT, enabled)
 4800              		.loc 1 1537 5 is_stmt 1 view .LVU630
 4801 0004 0022     		movs	r2, #0
 4802 0006 3721     		movs	r1, #55
 4803 0008 0248     		ldr	r0, .L539
 4804              	.LVL246:
 4805              		.loc 1 1537 5 is_stmt 0 view .LVU631
 4806 000a 0078     		ldrb	r0, [r0]	@ zero_extendqisi2
 4807 000c FFF7FEFF 		bl	I2Cdev_writeBit
 4808              	.LVL247:
1538:Libraries/ctrl_drv/i2c/mpu6050/MPU6050.c **** }
 4809              		.loc 1 1538 1 view .LVU632
 4810 0010 08BD     		pop	{r3, pc}
 4811              	.L540:
 4812 0012 00BF     		.align	2
 4813              	.L539:
 4814 0014 00000000 		.word	mpu6050
 4815              		.cfi_endproc
 4816              	.LFE114:
 4818              		.section	.text.MPU6050_getIntEnabled,"ax",%progbits
 4819              		.align	1
 4820              		.global	MPU6050_getIntEnabled
 4821              		.syntax unified
 4822              		.thumb
 4823              		.thumb_func
 4825              	MPU6050_getIntEnabled:
 4826              	.LFB115:
1539:Libraries/ctrl_drv/i2c/mpu6050/MPU6050.c **** 
1540:Libraries/ctrl_drv/i2c/mpu6050/MPU6050.c **** // INT_ENABLE register
1541:Libraries/ctrl_drv/i2c/mpu6050/MPU6050.c **** 
1542:Libraries/ctrl_drv/i2c/mpu6050/MPU6050.c **** /** Get full interrupt enabled status.
1543:Libraries/ctrl_drv/i2c/mpu6050/MPU6050.c ****  * Full register byte for all interrupts, for quick reading. Each bit will be
1544:Libraries/ctrl_drv/i2c/mpu6050/MPU6050.c ****  * set 0 for disabled, 1 for enabled.
1545:Libraries/ctrl_drv/i2c/mpu6050/MPU6050.c ****  * @return Current interrupt enabled status
1546:Libraries/ctrl_drv/i2c/mpu6050/MPU6050.c ****  * @see MPU6050_RA_INT_ENABLE
1547:Libraries/ctrl_drv/i2c/mpu6050/MPU6050.c ****  * @see MPU6050_INTERRUPT_FF_BIT
1548:Libraries/ctrl_drv/i2c/mpu6050/MPU6050.c ****  **/
1549:Libraries/ctrl_drv/i2c/mpu6050/MPU6050.c **** uint8_t MPU6050_getIntEnabled() {
 4827              		.loc 1 1549 33 is_stmt 1 view -0
 4828              		.cfi_startproc
 4829              		@ args = 0, pretend = 0, frame = 0
 4830              		@ frame_needed = 0, uses_anonymous_args = 0
 4831 0000 10B5     		push	{r4, lr}
ARM GAS  C:\Users\Mxuan\AppData\Local\Temp\ccfnFihP.s 			page 110


 4832              	.LCFI144:
 4833              		.cfi_def_cfa_offset 8
 4834              		.cfi_offset 4, -8
 4835              		.cfi_offset 14, -4
1550:Libraries/ctrl_drv/i2c/mpu6050/MPU6050.c ****     I2Cdev_readByte(mpu6050.devAddr, MPU6050_RA_INT_ENABLE, mpu6050.buffer);
 4836              		.loc 1 1550 5 view .LVU634
 4837 0002 044A     		ldr	r2, .L543
 4838 0004 541E     		subs	r4, r2, #1
 4839 0006 3821     		movs	r1, #56
 4840 0008 12F8010C 		ldrb	r0, [r2, #-1]	@ zero_extendqisi2
 4841 000c FFF7FEFF 		bl	I2Cdev_readByte
 4842              	.LVL248:
1551:Libraries/ctrl_drv/i2c/mpu6050/MPU6050.c ****     return mpu6050.buffer[0];
 4843              		.loc 1 1551 5 view .LVU635
1552:Libraries/ctrl_drv/i2c/mpu6050/MPU6050.c **** }
 4844              		.loc 1 1552 1 is_stmt 0 view .LVU636
 4845 0010 6078     		ldrb	r0, [r4, #1]	@ zero_extendqisi2
 4846 0012 10BD     		pop	{r4, pc}
 4847              	.L544:
 4848              		.align	2
 4849              	.L543:
 4850 0014 01000000 		.word	mpu6050+1
 4851              		.cfi_endproc
 4852              	.LFE115:
 4854              		.section	.text.MPU6050_setIntEnabled,"ax",%progbits
 4855              		.align	1
 4856              		.global	MPU6050_setIntEnabled
 4857              		.syntax unified
 4858              		.thumb
 4859              		.thumb_func
 4861              	MPU6050_setIntEnabled:
 4862              	.LVL249:
 4863              	.LFB116:
1553:Libraries/ctrl_drv/i2c/mpu6050/MPU6050.c **** /** Set full interrupt enabled status.
1554:Libraries/ctrl_drv/i2c/mpu6050/MPU6050.c ****  * Full register byte for all interrupts, for quick reading. Each bit should be
1555:Libraries/ctrl_drv/i2c/mpu6050/MPU6050.c ****  * set 0 for disabled, 1 for enabled.
1556:Libraries/ctrl_drv/i2c/mpu6050/MPU6050.c ****  * @param enabled New interrupt enabled status
1557:Libraries/ctrl_drv/i2c/mpu6050/MPU6050.c ****  * @see getIntFreefallEnabled()
1558:Libraries/ctrl_drv/i2c/mpu6050/MPU6050.c ****  * @see MPU6050_RA_INT_ENABLE
1559:Libraries/ctrl_drv/i2c/mpu6050/MPU6050.c ****  * @see MPU6050_INTERRUPT_FF_BIT
1560:Libraries/ctrl_drv/i2c/mpu6050/MPU6050.c ****  **/
1561:Libraries/ctrl_drv/i2c/mpu6050/MPU6050.c **** void MPU6050_setIntEnabled(uint8_t enabled) {
 4864              		.loc 1 1561 45 is_stmt 1 view -0
 4865              		.cfi_startproc
 4866              		@ args = 0, pretend = 0, frame = 0
 4867              		@ frame_needed = 0, uses_anonymous_args = 0
 4868              		.loc 1 1561 45 is_stmt 0 view .LVU638
 4869 0000 08B5     		push	{r3, lr}
 4870              	.LCFI145:
 4871              		.cfi_def_cfa_offset 8
 4872              		.cfi_offset 3, -8
 4873              		.cfi_offset 14, -4
 4874 0002 0246     		mov	r2, r0
1562:Libraries/ctrl_drv/i2c/mpu6050/MPU6050.c ****     I2Cdev_writeByte(mpu6050.devAddr, MPU6050_RA_INT_ENABLE, enabled);
 4875              		.loc 1 1562 5 is_stmt 1 view .LVU639
 4876 0004 3821     		movs	r1, #56
 4877 0006 024B     		ldr	r3, .L547
ARM GAS  C:\Users\Mxuan\AppData\Local\Temp\ccfnFihP.s 			page 111


 4878 0008 1878     		ldrb	r0, [r3]	@ zero_extendqisi2
 4879              	.LVL250:
 4880              		.loc 1 1562 5 is_stmt 0 view .LVU640
 4881 000a FFF7FEFF 		bl	I2Cdev_writeByte
 4882              	.LVL251:
1563:Libraries/ctrl_drv/i2c/mpu6050/MPU6050.c **** }
 4883              		.loc 1 1563 1 view .LVU641
 4884 000e 08BD     		pop	{r3, pc}
 4885              	.L548:
 4886              		.align	2
 4887              	.L547:
 4888 0010 00000000 		.word	mpu6050
 4889              		.cfi_endproc
 4890              	.LFE116:
 4892              		.section	.text.MPU6050_getIntFreefallEnabled,"ax",%progbits
 4893              		.align	1
 4894              		.global	MPU6050_getIntFreefallEnabled
 4895              		.syntax unified
 4896              		.thumb
 4897              		.thumb_func
 4899              	MPU6050_getIntFreefallEnabled:
 4900              	.LFB117:
1564:Libraries/ctrl_drv/i2c/mpu6050/MPU6050.c **** /** Get Free Fall interrupt enabled status.
1565:Libraries/ctrl_drv/i2c/mpu6050/MPU6050.c ****  * Will be set 0 for disabled, 1 for enabled.
1566:Libraries/ctrl_drv/i2c/mpu6050/MPU6050.c ****  * @return Current interrupt enabled status
1567:Libraries/ctrl_drv/i2c/mpu6050/MPU6050.c ****  * @see MPU6050_RA_INT_ENABLE
1568:Libraries/ctrl_drv/i2c/mpu6050/MPU6050.c ****  * @see MPU6050_INTERRUPT_FF_BIT
1569:Libraries/ctrl_drv/i2c/mpu6050/MPU6050.c ****  **/
1570:Libraries/ctrl_drv/i2c/mpu6050/MPU6050.c **** bool MPU6050_getIntFreefallEnabled() {
 4901              		.loc 1 1570 38 is_stmt 1 view -0
 4902              		.cfi_startproc
 4903              		@ args = 0, pretend = 0, frame = 0
 4904              		@ frame_needed = 0, uses_anonymous_args = 0
 4905 0000 10B5     		push	{r4, lr}
 4906              	.LCFI146:
 4907              		.cfi_def_cfa_offset 8
 4908              		.cfi_offset 4, -8
 4909              		.cfi_offset 14, -4
1571:Libraries/ctrl_drv/i2c/mpu6050/MPU6050.c ****     I2Cdev_readBit(mpu6050.devAddr, MPU6050_RA_INT_ENABLE, MPU6050_INTERRUPT_FF_BIT, mpu6050.buffer
 4910              		.loc 1 1571 5 view .LVU643
 4911 0002 064B     		ldr	r3, .L551
 4912 0004 5C1E     		subs	r4, r3, #1
 4913 0006 0722     		movs	r2, #7
 4914 0008 3821     		movs	r1, #56
 4915 000a 13F8010C 		ldrb	r0, [r3, #-1]	@ zero_extendqisi2
 4916 000e FFF7FEFF 		bl	I2Cdev_readBit
 4917              	.LVL252:
1572:Libraries/ctrl_drv/i2c/mpu6050/MPU6050.c ****     return mpu6050.buffer[0];
 4918              		.loc 1 1572 5 view .LVU644
 4919              		.loc 1 1572 26 is_stmt 0 view .LVU645
 4920 0012 6078     		ldrb	r0, [r4, #1]	@ zero_extendqisi2
1573:Libraries/ctrl_drv/i2c/mpu6050/MPU6050.c **** }
 4921              		.loc 1 1573 1 view .LVU646
 4922 0014 0038     		subs	r0, r0, #0
 4923 0016 18BF     		it	ne
 4924 0018 0120     		movne	r0, #1
 4925 001a 10BD     		pop	{r4, pc}
ARM GAS  C:\Users\Mxuan\AppData\Local\Temp\ccfnFihP.s 			page 112


 4926              	.L552:
 4927              		.align	2
 4928              	.L551:
 4929 001c 01000000 		.word	mpu6050+1
 4930              		.cfi_endproc
 4931              	.LFE117:
 4933              		.section	.text.MPU6050_setIntFreefallEnabled,"ax",%progbits
 4934              		.align	1
 4935              		.global	MPU6050_setIntFreefallEnabled
 4936              		.syntax unified
 4937              		.thumb
 4938              		.thumb_func
 4940              	MPU6050_setIntFreefallEnabled:
 4941              	.LVL253:
 4942              	.LFB118:
1574:Libraries/ctrl_drv/i2c/mpu6050/MPU6050.c **** /** Set Free Fall interrupt enabled status.
1575:Libraries/ctrl_drv/i2c/mpu6050/MPU6050.c ****  * @param enabled New interrupt enabled status
1576:Libraries/ctrl_drv/i2c/mpu6050/MPU6050.c ****  * @see getIntFreefallEnabled()
1577:Libraries/ctrl_drv/i2c/mpu6050/MPU6050.c ****  * @see MPU6050_RA_INT_ENABLE
1578:Libraries/ctrl_drv/i2c/mpu6050/MPU6050.c ****  * @see MPU6050_INTERRUPT_FF_BIT
1579:Libraries/ctrl_drv/i2c/mpu6050/MPU6050.c ****  **/
1580:Libraries/ctrl_drv/i2c/mpu6050/MPU6050.c **** void MPU6050_setIntFreefallEnabled(bool enabled) {
 4943              		.loc 1 1580 50 is_stmt 1 view -0
 4944              		.cfi_startproc
 4945              		@ args = 0, pretend = 0, frame = 0
 4946              		@ frame_needed = 0, uses_anonymous_args = 0
 4947              		.loc 1 1580 50 is_stmt 0 view .LVU648
 4948 0000 08B5     		push	{r3, lr}
 4949              	.LCFI147:
 4950              		.cfi_def_cfa_offset 8
 4951              		.cfi_offset 3, -8
 4952              		.cfi_offset 14, -4
 4953 0002 0346     		mov	r3, r0
1581:Libraries/ctrl_drv/i2c/mpu6050/MPU6050.c ****     I2Cdev_writeBit(mpu6050.devAddr, MPU6050_RA_INT_ENABLE, MPU6050_INTERRUPT_FF_BIT, enabled);
 4954              		.loc 1 1581 5 is_stmt 1 view .LVU649
 4955 0004 0722     		movs	r2, #7
 4956 0006 3821     		movs	r1, #56
 4957 0008 0248     		ldr	r0, .L555
 4958              	.LVL254:
 4959              		.loc 1 1581 5 is_stmt 0 view .LVU650
 4960 000a 0078     		ldrb	r0, [r0]	@ zero_extendqisi2
 4961 000c FFF7FEFF 		bl	I2Cdev_writeBit
 4962              	.LVL255:
1582:Libraries/ctrl_drv/i2c/mpu6050/MPU6050.c **** }
 4963              		.loc 1 1582 1 view .LVU651
 4964 0010 08BD     		pop	{r3, pc}
 4965              	.L556:
 4966 0012 00BF     		.align	2
 4967              	.L555:
 4968 0014 00000000 		.word	mpu6050
 4969              		.cfi_endproc
 4970              	.LFE118:
 4972              		.section	.text.MPU6050_getIntMotionEnabled,"ax",%progbits
 4973              		.align	1
 4974              		.global	MPU6050_getIntMotionEnabled
 4975              		.syntax unified
 4976              		.thumb
ARM GAS  C:\Users\Mxuan\AppData\Local\Temp\ccfnFihP.s 			page 113


 4977              		.thumb_func
 4979              	MPU6050_getIntMotionEnabled:
 4980              	.LFB119:
1583:Libraries/ctrl_drv/i2c/mpu6050/MPU6050.c **** /** Get Motion Detection interrupt enabled status.
1584:Libraries/ctrl_drv/i2c/mpu6050/MPU6050.c ****  * Will be set 0 for disabled, 1 for enabled.
1585:Libraries/ctrl_drv/i2c/mpu6050/MPU6050.c ****  * @return Current interrupt enabled status
1586:Libraries/ctrl_drv/i2c/mpu6050/MPU6050.c ****  * @see MPU6050_RA_INT_ENABLE
1587:Libraries/ctrl_drv/i2c/mpu6050/MPU6050.c ****  * @see MPU6050_INTERRUPT_MOT_BIT
1588:Libraries/ctrl_drv/i2c/mpu6050/MPU6050.c ****  **/
1589:Libraries/ctrl_drv/i2c/mpu6050/MPU6050.c **** bool MPU6050_getIntMotionEnabled() {
 4981              		.loc 1 1589 36 is_stmt 1 view -0
 4982              		.cfi_startproc
 4983              		@ args = 0, pretend = 0, frame = 0
 4984              		@ frame_needed = 0, uses_anonymous_args = 0
 4985 0000 10B5     		push	{r4, lr}
 4986              	.LCFI148:
 4987              		.cfi_def_cfa_offset 8
 4988              		.cfi_offset 4, -8
 4989              		.cfi_offset 14, -4
1590:Libraries/ctrl_drv/i2c/mpu6050/MPU6050.c ****     I2Cdev_readBit(mpu6050.devAddr, MPU6050_RA_INT_ENABLE, MPU6050_INTERRUPT_MOT_BIT, mpu6050.buffe
 4990              		.loc 1 1590 5 view .LVU653
 4991 0002 064B     		ldr	r3, .L559
 4992 0004 5C1E     		subs	r4, r3, #1
 4993 0006 0622     		movs	r2, #6
 4994 0008 3821     		movs	r1, #56
 4995 000a 13F8010C 		ldrb	r0, [r3, #-1]	@ zero_extendqisi2
 4996 000e FFF7FEFF 		bl	I2Cdev_readBit
 4997              	.LVL256:
1591:Libraries/ctrl_drv/i2c/mpu6050/MPU6050.c ****     return mpu6050.buffer[0];
 4998              		.loc 1 1591 5 view .LVU654
 4999              		.loc 1 1591 26 is_stmt 0 view .LVU655
 5000 0012 6078     		ldrb	r0, [r4, #1]	@ zero_extendqisi2
1592:Libraries/ctrl_drv/i2c/mpu6050/MPU6050.c **** }
 5001              		.loc 1 1592 1 view .LVU656
 5002 0014 0038     		subs	r0, r0, #0
 5003 0016 18BF     		it	ne
 5004 0018 0120     		movne	r0, #1
 5005 001a 10BD     		pop	{r4, pc}
 5006              	.L560:
 5007              		.align	2
 5008              	.L559:
 5009 001c 01000000 		.word	mpu6050+1
 5010              		.cfi_endproc
 5011              	.LFE119:
 5013              		.section	.text.MPU6050_setIntMotionEnabled,"ax",%progbits
 5014              		.align	1
 5015              		.global	MPU6050_setIntMotionEnabled
 5016              		.syntax unified
 5017              		.thumb
 5018              		.thumb_func
 5020              	MPU6050_setIntMotionEnabled:
 5021              	.LVL257:
 5022              	.LFB120:
1593:Libraries/ctrl_drv/i2c/mpu6050/MPU6050.c **** /** Set Motion Detection interrupt enabled status.
1594:Libraries/ctrl_drv/i2c/mpu6050/MPU6050.c ****  * @param enabled New interrupt enabled status
1595:Libraries/ctrl_drv/i2c/mpu6050/MPU6050.c ****  * @see getIntMotionEnabled()
1596:Libraries/ctrl_drv/i2c/mpu6050/MPU6050.c ****  * @see MPU6050_RA_INT_ENABLE
ARM GAS  C:\Users\Mxuan\AppData\Local\Temp\ccfnFihP.s 			page 114


1597:Libraries/ctrl_drv/i2c/mpu6050/MPU6050.c ****  * @see MPU6050_INTERRUPT_MOT_BIT
1598:Libraries/ctrl_drv/i2c/mpu6050/MPU6050.c ****  **/
1599:Libraries/ctrl_drv/i2c/mpu6050/MPU6050.c **** void MPU6050_setIntMotionEnabled(bool enabled) {
 5023              		.loc 1 1599 48 is_stmt 1 view -0
 5024              		.cfi_startproc
 5025              		@ args = 0, pretend = 0, frame = 0
 5026              		@ frame_needed = 0, uses_anonymous_args = 0
 5027              		.loc 1 1599 48 is_stmt 0 view .LVU658
 5028 0000 08B5     		push	{r3, lr}
 5029              	.LCFI149:
 5030              		.cfi_def_cfa_offset 8
 5031              		.cfi_offset 3, -8
 5032              		.cfi_offset 14, -4
 5033 0002 0346     		mov	r3, r0
1600:Libraries/ctrl_drv/i2c/mpu6050/MPU6050.c ****     I2Cdev_writeBit(mpu6050.devAddr, MPU6050_RA_INT_ENABLE, MPU6050_INTERRUPT_MOT_BIT, enabled);
 5034              		.loc 1 1600 5 is_stmt 1 view .LVU659
 5035 0004 0622     		movs	r2, #6
 5036 0006 3821     		movs	r1, #56
 5037 0008 0248     		ldr	r0, .L563
 5038              	.LVL258:
 5039              		.loc 1 1600 5 is_stmt 0 view .LVU660
 5040 000a 0078     		ldrb	r0, [r0]	@ zero_extendqisi2
 5041 000c FFF7FEFF 		bl	I2Cdev_writeBit
 5042              	.LVL259:
1601:Libraries/ctrl_drv/i2c/mpu6050/MPU6050.c **** }
 5043              		.loc 1 1601 1 view .LVU661
 5044 0010 08BD     		pop	{r3, pc}
 5045              	.L564:
 5046 0012 00BF     		.align	2
 5047              	.L563:
 5048 0014 00000000 		.word	mpu6050
 5049              		.cfi_endproc
 5050              	.LFE120:
 5052              		.section	.text.MPU6050_getIntZeroMotionEnabled,"ax",%progbits
 5053              		.align	1
 5054              		.global	MPU6050_getIntZeroMotionEnabled
 5055              		.syntax unified
 5056              		.thumb
 5057              		.thumb_func
 5059              	MPU6050_getIntZeroMotionEnabled:
 5060              	.LFB121:
1602:Libraries/ctrl_drv/i2c/mpu6050/MPU6050.c **** /** Get Zero Motion Detection interrupt enabled status.
1603:Libraries/ctrl_drv/i2c/mpu6050/MPU6050.c ****  * Will be set 0 for disabled, 1 for enabled.
1604:Libraries/ctrl_drv/i2c/mpu6050/MPU6050.c ****  * @return Current interrupt enabled status
1605:Libraries/ctrl_drv/i2c/mpu6050/MPU6050.c ****  * @see MPU6050_RA_INT_ENABLE
1606:Libraries/ctrl_drv/i2c/mpu6050/MPU6050.c ****  * @see MPU6050_INTERRUPT_ZMOT_BIT
1607:Libraries/ctrl_drv/i2c/mpu6050/MPU6050.c ****  **/
1608:Libraries/ctrl_drv/i2c/mpu6050/MPU6050.c **** bool MPU6050_getIntZeroMotionEnabled() {
 5061              		.loc 1 1608 40 is_stmt 1 view -0
 5062              		.cfi_startproc
 5063              		@ args = 0, pretend = 0, frame = 0
 5064              		@ frame_needed = 0, uses_anonymous_args = 0
 5065 0000 10B5     		push	{r4, lr}
 5066              	.LCFI150:
 5067              		.cfi_def_cfa_offset 8
 5068              		.cfi_offset 4, -8
 5069              		.cfi_offset 14, -4
ARM GAS  C:\Users\Mxuan\AppData\Local\Temp\ccfnFihP.s 			page 115


1609:Libraries/ctrl_drv/i2c/mpu6050/MPU6050.c ****     I2Cdev_readBit(mpu6050.devAddr, MPU6050_RA_INT_ENABLE, MPU6050_INTERRUPT_ZMOT_BIT, mpu6050.buff
 5070              		.loc 1 1609 5 view .LVU663
 5071 0002 064B     		ldr	r3, .L567
 5072 0004 5C1E     		subs	r4, r3, #1
 5073 0006 0522     		movs	r2, #5
 5074 0008 3821     		movs	r1, #56
 5075 000a 13F8010C 		ldrb	r0, [r3, #-1]	@ zero_extendqisi2
 5076 000e FFF7FEFF 		bl	I2Cdev_readBit
 5077              	.LVL260:
1610:Libraries/ctrl_drv/i2c/mpu6050/MPU6050.c ****     return mpu6050.buffer[0];
 5078              		.loc 1 1610 5 view .LVU664
 5079              		.loc 1 1610 26 is_stmt 0 view .LVU665
 5080 0012 6078     		ldrb	r0, [r4, #1]	@ zero_extendqisi2
1611:Libraries/ctrl_drv/i2c/mpu6050/MPU6050.c **** }
 5081              		.loc 1 1611 1 view .LVU666
 5082 0014 0038     		subs	r0, r0, #0
 5083 0016 18BF     		it	ne
 5084 0018 0120     		movne	r0, #1
 5085 001a 10BD     		pop	{r4, pc}
 5086              	.L568:
 5087              		.align	2
 5088              	.L567:
 5089 001c 01000000 		.word	mpu6050+1
 5090              		.cfi_endproc
 5091              	.LFE121:
 5093              		.section	.text.MPU6050_setIntZeroMotionEnabled,"ax",%progbits
 5094              		.align	1
 5095              		.global	MPU6050_setIntZeroMotionEnabled
 5096              		.syntax unified
 5097              		.thumb
 5098              		.thumb_func
 5100              	MPU6050_setIntZeroMotionEnabled:
 5101              	.LVL261:
 5102              	.LFB122:
1612:Libraries/ctrl_drv/i2c/mpu6050/MPU6050.c **** /** Set Zero Motion Detection interrupt enabled status.
1613:Libraries/ctrl_drv/i2c/mpu6050/MPU6050.c ****  * @param enabled New interrupt enabled status
1614:Libraries/ctrl_drv/i2c/mpu6050/MPU6050.c ****  * @see getIntZeroMotionEnabled()
1615:Libraries/ctrl_drv/i2c/mpu6050/MPU6050.c ****  * @see MPU6050_RA_INT_ENABLE
1616:Libraries/ctrl_drv/i2c/mpu6050/MPU6050.c ****  * @see MPU6050_INTERRUPT_ZMOT_BIT
1617:Libraries/ctrl_drv/i2c/mpu6050/MPU6050.c ****  **/
1618:Libraries/ctrl_drv/i2c/mpu6050/MPU6050.c **** void MPU6050_setIntZeroMotionEnabled(bool enabled) {
 5103              		.loc 1 1618 52 is_stmt 1 view -0
 5104              		.cfi_startproc
 5105              		@ args = 0, pretend = 0, frame = 0
 5106              		@ frame_needed = 0, uses_anonymous_args = 0
 5107              		.loc 1 1618 52 is_stmt 0 view .LVU668
 5108 0000 08B5     		push	{r3, lr}
 5109              	.LCFI151:
 5110              		.cfi_def_cfa_offset 8
 5111              		.cfi_offset 3, -8
 5112              		.cfi_offset 14, -4
 5113 0002 0346     		mov	r3, r0
1619:Libraries/ctrl_drv/i2c/mpu6050/MPU6050.c ****     I2Cdev_writeBit(mpu6050.devAddr, MPU6050_RA_INT_ENABLE, MPU6050_INTERRUPT_ZMOT_BIT, enabled);
 5114              		.loc 1 1619 5 is_stmt 1 view .LVU669
 5115 0004 0522     		movs	r2, #5
 5116 0006 3821     		movs	r1, #56
 5117 0008 0248     		ldr	r0, .L571
ARM GAS  C:\Users\Mxuan\AppData\Local\Temp\ccfnFihP.s 			page 116


 5118              	.LVL262:
 5119              		.loc 1 1619 5 is_stmt 0 view .LVU670
 5120 000a 0078     		ldrb	r0, [r0]	@ zero_extendqisi2
 5121 000c FFF7FEFF 		bl	I2Cdev_writeBit
 5122              	.LVL263:
1620:Libraries/ctrl_drv/i2c/mpu6050/MPU6050.c **** }
 5123              		.loc 1 1620 1 view .LVU671
 5124 0010 08BD     		pop	{r3, pc}
 5125              	.L572:
 5126 0012 00BF     		.align	2
 5127              	.L571:
 5128 0014 00000000 		.word	mpu6050
 5129              		.cfi_endproc
 5130              	.LFE122:
 5132              		.section	.text.MPU6050_getIntFIFOBufferOverflowEnabled,"ax",%progbits
 5133              		.align	1
 5134              		.global	MPU6050_getIntFIFOBufferOverflowEnabled
 5135              		.syntax unified
 5136              		.thumb
 5137              		.thumb_func
 5139              	MPU6050_getIntFIFOBufferOverflowEnabled:
 5140              	.LFB123:
1621:Libraries/ctrl_drv/i2c/mpu6050/MPU6050.c **** /** Get FIFO Buffer Overflow interrupt enabled status.
1622:Libraries/ctrl_drv/i2c/mpu6050/MPU6050.c ****  * Will be set 0 for disabled, 1 for enabled.
1623:Libraries/ctrl_drv/i2c/mpu6050/MPU6050.c ****  * @return Current interrupt enabled status
1624:Libraries/ctrl_drv/i2c/mpu6050/MPU6050.c ****  * @see MPU6050_RA_INT_ENABLE
1625:Libraries/ctrl_drv/i2c/mpu6050/MPU6050.c ****  * @see MPU6050_INTERRUPT_FIFO_OFLOW_BIT
1626:Libraries/ctrl_drv/i2c/mpu6050/MPU6050.c ****  **/
1627:Libraries/ctrl_drv/i2c/mpu6050/MPU6050.c **** bool MPU6050_getIntFIFOBufferOverflowEnabled() {
 5141              		.loc 1 1627 48 is_stmt 1 view -0
 5142              		.cfi_startproc
 5143              		@ args = 0, pretend = 0, frame = 0
 5144              		@ frame_needed = 0, uses_anonymous_args = 0
 5145 0000 10B5     		push	{r4, lr}
 5146              	.LCFI152:
 5147              		.cfi_def_cfa_offset 8
 5148              		.cfi_offset 4, -8
 5149              		.cfi_offset 14, -4
1628:Libraries/ctrl_drv/i2c/mpu6050/MPU6050.c ****     I2Cdev_readBit(mpu6050.devAddr, MPU6050_RA_INT_ENABLE, MPU6050_INTERRUPT_FIFO_OFLOW_BIT, mpu605
 5150              		.loc 1 1628 5 view .LVU673
 5151 0002 064B     		ldr	r3, .L575
 5152 0004 5C1E     		subs	r4, r3, #1
 5153 0006 0422     		movs	r2, #4
 5154 0008 3821     		movs	r1, #56
 5155 000a 13F8010C 		ldrb	r0, [r3, #-1]	@ zero_extendqisi2
 5156 000e FFF7FEFF 		bl	I2Cdev_readBit
 5157              	.LVL264:
1629:Libraries/ctrl_drv/i2c/mpu6050/MPU6050.c ****     return mpu6050.buffer[0];
 5158              		.loc 1 1629 5 view .LVU674
 5159              		.loc 1 1629 26 is_stmt 0 view .LVU675
 5160 0012 6078     		ldrb	r0, [r4, #1]	@ zero_extendqisi2
1630:Libraries/ctrl_drv/i2c/mpu6050/MPU6050.c **** }
 5161              		.loc 1 1630 1 view .LVU676
 5162 0014 0038     		subs	r0, r0, #0
 5163 0016 18BF     		it	ne
 5164 0018 0120     		movne	r0, #1
 5165 001a 10BD     		pop	{r4, pc}
ARM GAS  C:\Users\Mxuan\AppData\Local\Temp\ccfnFihP.s 			page 117


 5166              	.L576:
 5167              		.align	2
 5168              	.L575:
 5169 001c 01000000 		.word	mpu6050+1
 5170              		.cfi_endproc
 5171              	.LFE123:
 5173              		.section	.text.MPU6050_setIntFIFOBufferOverflowEnabled,"ax",%progbits
 5174              		.align	1
 5175              		.global	MPU6050_setIntFIFOBufferOverflowEnabled
 5176              		.syntax unified
 5177              		.thumb
 5178              		.thumb_func
 5180              	MPU6050_setIntFIFOBufferOverflowEnabled:
 5181              	.LVL265:
 5182              	.LFB124:
1631:Libraries/ctrl_drv/i2c/mpu6050/MPU6050.c **** /** Set FIFO Buffer Overflow interrupt enabled status.
1632:Libraries/ctrl_drv/i2c/mpu6050/MPU6050.c ****  * @param enabled New interrupt enabled status
1633:Libraries/ctrl_drv/i2c/mpu6050/MPU6050.c ****  * @see getIntFIFOBufferOverflowEnabled()
1634:Libraries/ctrl_drv/i2c/mpu6050/MPU6050.c ****  * @see MPU6050_RA_INT_ENABLE
1635:Libraries/ctrl_drv/i2c/mpu6050/MPU6050.c ****  * @see MPU6050_INTERRUPT_FIFO_OFLOW_BIT
1636:Libraries/ctrl_drv/i2c/mpu6050/MPU6050.c ****  **/
1637:Libraries/ctrl_drv/i2c/mpu6050/MPU6050.c **** void MPU6050_setIntFIFOBufferOverflowEnabled(bool enabled) {
 5183              		.loc 1 1637 60 is_stmt 1 view -0
 5184              		.cfi_startproc
 5185              		@ args = 0, pretend = 0, frame = 0
 5186              		@ frame_needed = 0, uses_anonymous_args = 0
 5187              		.loc 1 1637 60 is_stmt 0 view .LVU678
 5188 0000 08B5     		push	{r3, lr}
 5189              	.LCFI153:
 5190              		.cfi_def_cfa_offset 8
 5191              		.cfi_offset 3, -8
 5192              		.cfi_offset 14, -4
 5193 0002 0346     		mov	r3, r0
1638:Libraries/ctrl_drv/i2c/mpu6050/MPU6050.c ****     I2Cdev_writeBit(mpu6050.devAddr, MPU6050_RA_INT_ENABLE, MPU6050_INTERRUPT_FIFO_OFLOW_BIT, enabl
 5194              		.loc 1 1638 5 is_stmt 1 view .LVU679
 5195 0004 0422     		movs	r2, #4
 5196 0006 3821     		movs	r1, #56
 5197 0008 0248     		ldr	r0, .L579
 5198              	.LVL266:
 5199              		.loc 1 1638 5 is_stmt 0 view .LVU680
 5200 000a 0078     		ldrb	r0, [r0]	@ zero_extendqisi2
 5201 000c FFF7FEFF 		bl	I2Cdev_writeBit
 5202              	.LVL267:
1639:Libraries/ctrl_drv/i2c/mpu6050/MPU6050.c **** }
 5203              		.loc 1 1639 1 view .LVU681
 5204 0010 08BD     		pop	{r3, pc}
 5205              	.L580:
 5206 0012 00BF     		.align	2
 5207              	.L579:
 5208 0014 00000000 		.word	mpu6050
 5209              		.cfi_endproc
 5210              	.LFE124:
 5212              		.section	.text.MPU6050_getIntI2CMasterEnabled,"ax",%progbits
 5213              		.align	1
 5214              		.global	MPU6050_getIntI2CMasterEnabled
 5215              		.syntax unified
 5216              		.thumb
ARM GAS  C:\Users\Mxuan\AppData\Local\Temp\ccfnFihP.s 			page 118


 5217              		.thumb_func
 5219              	MPU6050_getIntI2CMasterEnabled:
 5220              	.LFB125:
1640:Libraries/ctrl_drv/i2c/mpu6050/MPU6050.c **** /** Get I2C Master interrupt enabled status.
1641:Libraries/ctrl_drv/i2c/mpu6050/MPU6050.c ****  * This enables any of the I2C Master interrupt sources to generate an
1642:Libraries/ctrl_drv/i2c/mpu6050/MPU6050.c ****  * interrupt. Will be set 0 for disabled, 1 for enabled.
1643:Libraries/ctrl_drv/i2c/mpu6050/MPU6050.c ****  * @return Current interrupt enabled status
1644:Libraries/ctrl_drv/i2c/mpu6050/MPU6050.c ****  * @see MPU6050_RA_INT_ENABLE
1645:Libraries/ctrl_drv/i2c/mpu6050/MPU6050.c ****  * @see MPU6050_INTERRUPT_I2C_MST_INT_BIT
1646:Libraries/ctrl_drv/i2c/mpu6050/MPU6050.c ****  **/
1647:Libraries/ctrl_drv/i2c/mpu6050/MPU6050.c **** bool MPU6050_getIntI2CMasterEnabled() {
 5221              		.loc 1 1647 39 is_stmt 1 view -0
 5222              		.cfi_startproc
 5223              		@ args = 0, pretend = 0, frame = 0
 5224              		@ frame_needed = 0, uses_anonymous_args = 0
 5225 0000 10B5     		push	{r4, lr}
 5226              	.LCFI154:
 5227              		.cfi_def_cfa_offset 8
 5228              		.cfi_offset 4, -8
 5229              		.cfi_offset 14, -4
1648:Libraries/ctrl_drv/i2c/mpu6050/MPU6050.c ****     I2Cdev_readBit(mpu6050.devAddr, MPU6050_RA_INT_ENABLE, MPU6050_INTERRUPT_I2C_MST_INT_BIT, mpu60
 5230              		.loc 1 1648 5 view .LVU683
 5231 0002 064B     		ldr	r3, .L583
 5232 0004 5C1E     		subs	r4, r3, #1
 5233 0006 0322     		movs	r2, #3
 5234 0008 3821     		movs	r1, #56
 5235 000a 13F8010C 		ldrb	r0, [r3, #-1]	@ zero_extendqisi2
 5236 000e FFF7FEFF 		bl	I2Cdev_readBit
 5237              	.LVL268:
1649:Libraries/ctrl_drv/i2c/mpu6050/MPU6050.c ****     return mpu6050.buffer[0];
 5238              		.loc 1 1649 5 view .LVU684
 5239              		.loc 1 1649 26 is_stmt 0 view .LVU685
 5240 0012 6078     		ldrb	r0, [r4, #1]	@ zero_extendqisi2
1650:Libraries/ctrl_drv/i2c/mpu6050/MPU6050.c **** }
 5241              		.loc 1 1650 1 view .LVU686
 5242 0014 0038     		subs	r0, r0, #0
 5243 0016 18BF     		it	ne
 5244 0018 0120     		movne	r0, #1
 5245 001a 10BD     		pop	{r4, pc}
 5246              	.L584:
 5247              		.align	2
 5248              	.L583:
 5249 001c 01000000 		.word	mpu6050+1
 5250              		.cfi_endproc
 5251              	.LFE125:
 5253              		.section	.text.MPU6050_setIntI2CMasterEnabled,"ax",%progbits
 5254              		.align	1
 5255              		.global	MPU6050_setIntI2CMasterEnabled
 5256              		.syntax unified
 5257              		.thumb
 5258              		.thumb_func
 5260              	MPU6050_setIntI2CMasterEnabled:
 5261              	.LVL269:
 5262              	.LFB126:
1651:Libraries/ctrl_drv/i2c/mpu6050/MPU6050.c **** /** Set I2C Master interrupt enabled status.
1652:Libraries/ctrl_drv/i2c/mpu6050/MPU6050.c ****  * @param enabled New interrupt enabled status
1653:Libraries/ctrl_drv/i2c/mpu6050/MPU6050.c ****  * @see getIntI2CMasterEnabled()
ARM GAS  C:\Users\Mxuan\AppData\Local\Temp\ccfnFihP.s 			page 119


1654:Libraries/ctrl_drv/i2c/mpu6050/MPU6050.c ****  * @see MPU6050_RA_INT_ENABLE
1655:Libraries/ctrl_drv/i2c/mpu6050/MPU6050.c ****  * @see MPU6050_INTERRUPT_I2C_MST_INT_BIT
1656:Libraries/ctrl_drv/i2c/mpu6050/MPU6050.c ****  **/
1657:Libraries/ctrl_drv/i2c/mpu6050/MPU6050.c **** void MPU6050_setIntI2CMasterEnabled(bool enabled) {
 5263              		.loc 1 1657 51 is_stmt 1 view -0
 5264              		.cfi_startproc
 5265              		@ args = 0, pretend = 0, frame = 0
 5266              		@ frame_needed = 0, uses_anonymous_args = 0
 5267              		.loc 1 1657 51 is_stmt 0 view .LVU688
 5268 0000 08B5     		push	{r3, lr}
 5269              	.LCFI155:
 5270              		.cfi_def_cfa_offset 8
 5271              		.cfi_offset 3, -8
 5272              		.cfi_offset 14, -4
 5273 0002 0346     		mov	r3, r0
1658:Libraries/ctrl_drv/i2c/mpu6050/MPU6050.c ****     I2Cdev_writeBit(mpu6050.devAddr, MPU6050_RA_INT_ENABLE, MPU6050_INTERRUPT_I2C_MST_INT_BIT, enab
 5274              		.loc 1 1658 5 is_stmt 1 view .LVU689
 5275 0004 0322     		movs	r2, #3
 5276 0006 3821     		movs	r1, #56
 5277 0008 0248     		ldr	r0, .L587
 5278              	.LVL270:
 5279              		.loc 1 1658 5 is_stmt 0 view .LVU690
 5280 000a 0078     		ldrb	r0, [r0]	@ zero_extendqisi2
 5281 000c FFF7FEFF 		bl	I2Cdev_writeBit
 5282              	.LVL271:
1659:Libraries/ctrl_drv/i2c/mpu6050/MPU6050.c **** }
 5283              		.loc 1 1659 1 view .LVU691
 5284 0010 08BD     		pop	{r3, pc}
 5285              	.L588:
 5286 0012 00BF     		.align	2
 5287              	.L587:
 5288 0014 00000000 		.word	mpu6050
 5289              		.cfi_endproc
 5290              	.LFE126:
 5292              		.section	.text.MPU6050_getIntDataReadyEnabled,"ax",%progbits
 5293              		.align	1
 5294              		.global	MPU6050_getIntDataReadyEnabled
 5295              		.syntax unified
 5296              		.thumb
 5297              		.thumb_func
 5299              	MPU6050_getIntDataReadyEnabled:
 5300              	.LFB127:
1660:Libraries/ctrl_drv/i2c/mpu6050/MPU6050.c **** /** Get Data Ready interrupt enabled setting.
1661:Libraries/ctrl_drv/i2c/mpu6050/MPU6050.c ****  * This event occurs each time a write operation to all of the sensor registers
1662:Libraries/ctrl_drv/i2c/mpu6050/MPU6050.c ****  * has been completed. Will be set 0 for disabled, 1 for enabled.
1663:Libraries/ctrl_drv/i2c/mpu6050/MPU6050.c ****  * @return Current interrupt enabled status
1664:Libraries/ctrl_drv/i2c/mpu6050/MPU6050.c ****  * @see MPU6050_RA_INT_ENABLE
1665:Libraries/ctrl_drv/i2c/mpu6050/MPU6050.c ****  * @see MPU6050_INTERRUPT_DATA_RDY_BIT
1666:Libraries/ctrl_drv/i2c/mpu6050/MPU6050.c ****  */
1667:Libraries/ctrl_drv/i2c/mpu6050/MPU6050.c **** bool MPU6050_getIntDataReadyEnabled() {
 5301              		.loc 1 1667 39 is_stmt 1 view -0
 5302              		.cfi_startproc
 5303              		@ args = 0, pretend = 0, frame = 0
 5304              		@ frame_needed = 0, uses_anonymous_args = 0
 5305 0000 10B5     		push	{r4, lr}
 5306              	.LCFI156:
 5307              		.cfi_def_cfa_offset 8
ARM GAS  C:\Users\Mxuan\AppData\Local\Temp\ccfnFihP.s 			page 120


 5308              		.cfi_offset 4, -8
 5309              		.cfi_offset 14, -4
1668:Libraries/ctrl_drv/i2c/mpu6050/MPU6050.c ****     I2Cdev_readBit(mpu6050.devAddr, MPU6050_RA_INT_ENABLE, MPU6050_INTERRUPT_DATA_RDY_BIT, mpu6050.
 5310              		.loc 1 1668 5 view .LVU693
 5311 0002 064B     		ldr	r3, .L591
 5312 0004 5C1E     		subs	r4, r3, #1
 5313 0006 0022     		movs	r2, #0
 5314 0008 3821     		movs	r1, #56
 5315 000a 13F8010C 		ldrb	r0, [r3, #-1]	@ zero_extendqisi2
 5316 000e FFF7FEFF 		bl	I2Cdev_readBit
 5317              	.LVL272:
1669:Libraries/ctrl_drv/i2c/mpu6050/MPU6050.c ****     return mpu6050.buffer[0];
 5318              		.loc 1 1669 5 view .LVU694
 5319              		.loc 1 1669 26 is_stmt 0 view .LVU695
 5320 0012 6078     		ldrb	r0, [r4, #1]	@ zero_extendqisi2
1670:Libraries/ctrl_drv/i2c/mpu6050/MPU6050.c **** }
 5321              		.loc 1 1670 1 view .LVU696
 5322 0014 0038     		subs	r0, r0, #0
 5323 0016 18BF     		it	ne
 5324 0018 0120     		movne	r0, #1
 5325 001a 10BD     		pop	{r4, pc}
 5326              	.L592:
 5327              		.align	2
 5328              	.L591:
 5329 001c 01000000 		.word	mpu6050+1
 5330              		.cfi_endproc
 5331              	.LFE127:
 5333              		.section	.text.MPU6050_setIntDataReadyEnabled,"ax",%progbits
 5334              		.align	1
 5335              		.global	MPU6050_setIntDataReadyEnabled
 5336              		.syntax unified
 5337              		.thumb
 5338              		.thumb_func
 5340              	MPU6050_setIntDataReadyEnabled:
 5341              	.LVL273:
 5342              	.LFB128:
1671:Libraries/ctrl_drv/i2c/mpu6050/MPU6050.c **** /** Set Data Ready interrupt enabled status.
1672:Libraries/ctrl_drv/i2c/mpu6050/MPU6050.c ****  * @param enabled New interrupt enabled status
1673:Libraries/ctrl_drv/i2c/mpu6050/MPU6050.c ****  * @see getIntDataReadyEnabled()
1674:Libraries/ctrl_drv/i2c/mpu6050/MPU6050.c ****  * @see MPU6050_RA_INT_CFG
1675:Libraries/ctrl_drv/i2c/mpu6050/MPU6050.c ****  * @see MPU6050_INTERRUPT_DATA_RDY_BIT
1676:Libraries/ctrl_drv/i2c/mpu6050/MPU6050.c ****  */
1677:Libraries/ctrl_drv/i2c/mpu6050/MPU6050.c **** void MPU6050_setIntDataReadyEnabled(bool enabled) {
 5343              		.loc 1 1677 51 is_stmt 1 view -0
 5344              		.cfi_startproc
 5345              		@ args = 0, pretend = 0, frame = 0
 5346              		@ frame_needed = 0, uses_anonymous_args = 0
 5347              		.loc 1 1677 51 is_stmt 0 view .LVU698
 5348 0000 08B5     		push	{r3, lr}
 5349              	.LCFI157:
 5350              		.cfi_def_cfa_offset 8
 5351              		.cfi_offset 3, -8
 5352              		.cfi_offset 14, -4
 5353 0002 0346     		mov	r3, r0
1678:Libraries/ctrl_drv/i2c/mpu6050/MPU6050.c ****     I2Cdev_writeBit(mpu6050.devAddr, MPU6050_RA_INT_ENABLE, MPU6050_INTERRUPT_DATA_RDY_BIT, enabled
 5354              		.loc 1 1678 5 is_stmt 1 view .LVU699
 5355 0004 0022     		movs	r2, #0
ARM GAS  C:\Users\Mxuan\AppData\Local\Temp\ccfnFihP.s 			page 121


 5356 0006 3821     		movs	r1, #56
 5357 0008 0248     		ldr	r0, .L595
 5358              	.LVL274:
 5359              		.loc 1 1678 5 is_stmt 0 view .LVU700
 5360 000a 0078     		ldrb	r0, [r0]	@ zero_extendqisi2
 5361 000c FFF7FEFF 		bl	I2Cdev_writeBit
 5362              	.LVL275:
1679:Libraries/ctrl_drv/i2c/mpu6050/MPU6050.c **** }
 5363              		.loc 1 1679 1 view .LVU701
 5364 0010 08BD     		pop	{r3, pc}
 5365              	.L596:
 5366 0012 00BF     		.align	2
 5367              	.L595:
 5368 0014 00000000 		.word	mpu6050
 5369              		.cfi_endproc
 5370              	.LFE128:
 5372              		.section	.text.MPU6050_getIntStatus,"ax",%progbits
 5373              		.align	1
 5374              		.global	MPU6050_getIntStatus
 5375              		.syntax unified
 5376              		.thumb
 5377              		.thumb_func
 5379              	MPU6050_getIntStatus:
 5380              	.LFB129:
1680:Libraries/ctrl_drv/i2c/mpu6050/MPU6050.c **** 
1681:Libraries/ctrl_drv/i2c/mpu6050/MPU6050.c **** // INT_STATUS register
1682:Libraries/ctrl_drv/i2c/mpu6050/MPU6050.c **** 
1683:Libraries/ctrl_drv/i2c/mpu6050/MPU6050.c **** /** Get full set of interrupt status bits.
1684:Libraries/ctrl_drv/i2c/mpu6050/MPU6050.c ****  * These bits clear to 0 after the register has been read. Very useful
1685:Libraries/ctrl_drv/i2c/mpu6050/MPU6050.c ****  * for getting multiple INT statuses, since each single bit read clears
1686:Libraries/ctrl_drv/i2c/mpu6050/MPU6050.c ****  * all of them because it has to read the whole byte.
1687:Libraries/ctrl_drv/i2c/mpu6050/MPU6050.c ****  * @return Current interrupt status
1688:Libraries/ctrl_drv/i2c/mpu6050/MPU6050.c ****  * @see MPU6050_RA_INT_STATUS
1689:Libraries/ctrl_drv/i2c/mpu6050/MPU6050.c ****  */
1690:Libraries/ctrl_drv/i2c/mpu6050/MPU6050.c **** uint8_t MPU6050_getIntStatus() {
 5381              		.loc 1 1690 32 is_stmt 1 view -0
 5382              		.cfi_startproc
 5383              		@ args = 0, pretend = 0, frame = 0
 5384              		@ frame_needed = 0, uses_anonymous_args = 0
 5385 0000 10B5     		push	{r4, lr}
 5386              	.LCFI158:
 5387              		.cfi_def_cfa_offset 8
 5388              		.cfi_offset 4, -8
 5389              		.cfi_offset 14, -4
1691:Libraries/ctrl_drv/i2c/mpu6050/MPU6050.c ****     I2Cdev_readByte(mpu6050.devAddr, MPU6050_RA_INT_STATUS, mpu6050.buffer);
 5390              		.loc 1 1691 5 view .LVU703
 5391 0002 044A     		ldr	r2, .L599
 5392 0004 541E     		subs	r4, r2, #1
 5393 0006 3A21     		movs	r1, #58
 5394 0008 12F8010C 		ldrb	r0, [r2, #-1]	@ zero_extendqisi2
 5395 000c FFF7FEFF 		bl	I2Cdev_readByte
 5396              	.LVL276:
1692:Libraries/ctrl_drv/i2c/mpu6050/MPU6050.c ****     return mpu6050.buffer[0];
 5397              		.loc 1 1692 5 view .LVU704
1693:Libraries/ctrl_drv/i2c/mpu6050/MPU6050.c **** }
 5398              		.loc 1 1693 1 is_stmt 0 view .LVU705
 5399 0010 6078     		ldrb	r0, [r4, #1]	@ zero_extendqisi2
ARM GAS  C:\Users\Mxuan\AppData\Local\Temp\ccfnFihP.s 			page 122


 5400 0012 10BD     		pop	{r4, pc}
 5401              	.L600:
 5402              		.align	2
 5403              	.L599:
 5404 0014 01000000 		.word	mpu6050+1
 5405              		.cfi_endproc
 5406              	.LFE129:
 5408              		.section	.text.MPU6050_getIntFreefallStatus,"ax",%progbits
 5409              		.align	1
 5410              		.global	MPU6050_getIntFreefallStatus
 5411              		.syntax unified
 5412              		.thumb
 5413              		.thumb_func
 5415              	MPU6050_getIntFreefallStatus:
 5416              	.LFB130:
1694:Libraries/ctrl_drv/i2c/mpu6050/MPU6050.c **** /** Get Free Fall interrupt status.
1695:Libraries/ctrl_drv/i2c/mpu6050/MPU6050.c ****  * This bit automatically sets to 1 when a Free Fall interrupt has been
1696:Libraries/ctrl_drv/i2c/mpu6050/MPU6050.c ****  * generated. The bit clears to 0 after the register has been read.
1697:Libraries/ctrl_drv/i2c/mpu6050/MPU6050.c ****  * @return Current interrupt status
1698:Libraries/ctrl_drv/i2c/mpu6050/MPU6050.c ****  * @see MPU6050_RA_INT_STATUS
1699:Libraries/ctrl_drv/i2c/mpu6050/MPU6050.c ****  * @see MPU6050_INTERRUPT_FF_BIT
1700:Libraries/ctrl_drv/i2c/mpu6050/MPU6050.c ****  */
1701:Libraries/ctrl_drv/i2c/mpu6050/MPU6050.c **** bool MPU6050_getIntFreefallStatus() {
 5417              		.loc 1 1701 37 is_stmt 1 view -0
 5418              		.cfi_startproc
 5419              		@ args = 0, pretend = 0, frame = 0
 5420              		@ frame_needed = 0, uses_anonymous_args = 0
 5421 0000 10B5     		push	{r4, lr}
 5422              	.LCFI159:
 5423              		.cfi_def_cfa_offset 8
 5424              		.cfi_offset 4, -8
 5425              		.cfi_offset 14, -4
1702:Libraries/ctrl_drv/i2c/mpu6050/MPU6050.c ****     I2Cdev_readBit(mpu6050.devAddr, MPU6050_RA_INT_STATUS, MPU6050_INTERRUPT_FF_BIT, mpu6050.buffer
 5426              		.loc 1 1702 5 view .LVU707
 5427 0002 064B     		ldr	r3, .L603
 5428 0004 5C1E     		subs	r4, r3, #1
 5429 0006 0722     		movs	r2, #7
 5430 0008 3A21     		movs	r1, #58
 5431 000a 13F8010C 		ldrb	r0, [r3, #-1]	@ zero_extendqisi2
 5432 000e FFF7FEFF 		bl	I2Cdev_readBit
 5433              	.LVL277:
1703:Libraries/ctrl_drv/i2c/mpu6050/MPU6050.c ****     return mpu6050.buffer[0];
 5434              		.loc 1 1703 5 view .LVU708
 5435              		.loc 1 1703 26 is_stmt 0 view .LVU709
 5436 0012 6078     		ldrb	r0, [r4, #1]	@ zero_extendqisi2
1704:Libraries/ctrl_drv/i2c/mpu6050/MPU6050.c **** }
 5437              		.loc 1 1704 1 view .LVU710
 5438 0014 0038     		subs	r0, r0, #0
 5439 0016 18BF     		it	ne
 5440 0018 0120     		movne	r0, #1
 5441 001a 10BD     		pop	{r4, pc}
 5442              	.L604:
 5443              		.align	2
 5444              	.L603:
 5445 001c 01000000 		.word	mpu6050+1
 5446              		.cfi_endproc
 5447              	.LFE130:
ARM GAS  C:\Users\Mxuan\AppData\Local\Temp\ccfnFihP.s 			page 123


 5449              		.section	.text.MPU6050_getIntMotionStatus,"ax",%progbits
 5450              		.align	1
 5451              		.global	MPU6050_getIntMotionStatus
 5452              		.syntax unified
 5453              		.thumb
 5454              		.thumb_func
 5456              	MPU6050_getIntMotionStatus:
 5457              	.LFB131:
1705:Libraries/ctrl_drv/i2c/mpu6050/MPU6050.c **** /** Get Motion Detection interrupt status.
1706:Libraries/ctrl_drv/i2c/mpu6050/MPU6050.c ****  * This bit automatically sets to 1 when a Motion Detection interrupt has been
1707:Libraries/ctrl_drv/i2c/mpu6050/MPU6050.c ****  * generated. The bit clears to 0 after the register has been read.
1708:Libraries/ctrl_drv/i2c/mpu6050/MPU6050.c ****  * @return Current interrupt status
1709:Libraries/ctrl_drv/i2c/mpu6050/MPU6050.c ****  * @see MPU6050_RA_INT_STATUS
1710:Libraries/ctrl_drv/i2c/mpu6050/MPU6050.c ****  * @see MPU6050_INTERRUPT_MOT_BIT
1711:Libraries/ctrl_drv/i2c/mpu6050/MPU6050.c ****  */
1712:Libraries/ctrl_drv/i2c/mpu6050/MPU6050.c **** bool MPU6050_getIntMotionStatus() {
 5458              		.loc 1 1712 35 is_stmt 1 view -0
 5459              		.cfi_startproc
 5460              		@ args = 0, pretend = 0, frame = 0
 5461              		@ frame_needed = 0, uses_anonymous_args = 0
 5462 0000 10B5     		push	{r4, lr}
 5463              	.LCFI160:
 5464              		.cfi_def_cfa_offset 8
 5465              		.cfi_offset 4, -8
 5466              		.cfi_offset 14, -4
1713:Libraries/ctrl_drv/i2c/mpu6050/MPU6050.c ****     I2Cdev_readBit(mpu6050.devAddr, MPU6050_RA_INT_STATUS, MPU6050_INTERRUPT_MOT_BIT, mpu6050.buffe
 5467              		.loc 1 1713 5 view .LVU712
 5468 0002 064B     		ldr	r3, .L607
 5469 0004 5C1E     		subs	r4, r3, #1
 5470 0006 0622     		movs	r2, #6
 5471 0008 3A21     		movs	r1, #58
 5472 000a 13F8010C 		ldrb	r0, [r3, #-1]	@ zero_extendqisi2
 5473 000e FFF7FEFF 		bl	I2Cdev_readBit
 5474              	.LVL278:
1714:Libraries/ctrl_drv/i2c/mpu6050/MPU6050.c ****     return mpu6050.buffer[0];
 5475              		.loc 1 1714 5 view .LVU713
 5476              		.loc 1 1714 26 is_stmt 0 view .LVU714
 5477 0012 6078     		ldrb	r0, [r4, #1]	@ zero_extendqisi2
1715:Libraries/ctrl_drv/i2c/mpu6050/MPU6050.c **** }
 5478              		.loc 1 1715 1 view .LVU715
 5479 0014 0038     		subs	r0, r0, #0
 5480 0016 18BF     		it	ne
 5481 0018 0120     		movne	r0, #1
 5482 001a 10BD     		pop	{r4, pc}
 5483              	.L608:
 5484              		.align	2
 5485              	.L607:
 5486 001c 01000000 		.word	mpu6050+1
 5487              		.cfi_endproc
 5488              	.LFE131:
 5490              		.section	.text.MPU6050_getIntZeroMotionStatus,"ax",%progbits
 5491              		.align	1
 5492              		.global	MPU6050_getIntZeroMotionStatus
 5493              		.syntax unified
 5494              		.thumb
 5495              		.thumb_func
 5497              	MPU6050_getIntZeroMotionStatus:
ARM GAS  C:\Users\Mxuan\AppData\Local\Temp\ccfnFihP.s 			page 124


 5498              	.LFB132:
1716:Libraries/ctrl_drv/i2c/mpu6050/MPU6050.c **** /** Get Zero Motion Detection interrupt status.
1717:Libraries/ctrl_drv/i2c/mpu6050/MPU6050.c ****  * This bit automatically sets to 1 when a Zero Motion Detection interrupt has
1718:Libraries/ctrl_drv/i2c/mpu6050/MPU6050.c ****  * been generated. The bit clears to 0 after the register has been read.
1719:Libraries/ctrl_drv/i2c/mpu6050/MPU6050.c ****  * @return Current interrupt status
1720:Libraries/ctrl_drv/i2c/mpu6050/MPU6050.c ****  * @see MPU6050_RA_INT_STATUS
1721:Libraries/ctrl_drv/i2c/mpu6050/MPU6050.c ****  * @see MPU6050_INTERRUPT_ZMOT_BIT
1722:Libraries/ctrl_drv/i2c/mpu6050/MPU6050.c ****  */
1723:Libraries/ctrl_drv/i2c/mpu6050/MPU6050.c **** bool MPU6050_getIntZeroMotionStatus() {
 5499              		.loc 1 1723 39 is_stmt 1 view -0
 5500              		.cfi_startproc
 5501              		@ args = 0, pretend = 0, frame = 0
 5502              		@ frame_needed = 0, uses_anonymous_args = 0
 5503 0000 10B5     		push	{r4, lr}
 5504              	.LCFI161:
 5505              		.cfi_def_cfa_offset 8
 5506              		.cfi_offset 4, -8
 5507              		.cfi_offset 14, -4
1724:Libraries/ctrl_drv/i2c/mpu6050/MPU6050.c ****     I2Cdev_readBit(mpu6050.devAddr, MPU6050_RA_INT_STATUS, MPU6050_INTERRUPT_ZMOT_BIT, mpu6050.buff
 5508              		.loc 1 1724 5 view .LVU717
 5509 0002 064B     		ldr	r3, .L611
 5510 0004 5C1E     		subs	r4, r3, #1
 5511 0006 0522     		movs	r2, #5
 5512 0008 3A21     		movs	r1, #58
 5513 000a 13F8010C 		ldrb	r0, [r3, #-1]	@ zero_extendqisi2
 5514 000e FFF7FEFF 		bl	I2Cdev_readBit
 5515              	.LVL279:
1725:Libraries/ctrl_drv/i2c/mpu6050/MPU6050.c ****     return mpu6050.buffer[0];
 5516              		.loc 1 1725 5 view .LVU718
 5517              		.loc 1 1725 26 is_stmt 0 view .LVU719
 5518 0012 6078     		ldrb	r0, [r4, #1]	@ zero_extendqisi2
1726:Libraries/ctrl_drv/i2c/mpu6050/MPU6050.c **** }
 5519              		.loc 1 1726 1 view .LVU720
 5520 0014 0038     		subs	r0, r0, #0
 5521 0016 18BF     		it	ne
 5522 0018 0120     		movne	r0, #1
 5523 001a 10BD     		pop	{r4, pc}
 5524              	.L612:
 5525              		.align	2
 5526              	.L611:
 5527 001c 01000000 		.word	mpu6050+1
 5528              		.cfi_endproc
 5529              	.LFE132:
 5531              		.section	.text.MPU6050_getIntFIFOBufferOverflowStatus,"ax",%progbits
 5532              		.align	1
 5533              		.global	MPU6050_getIntFIFOBufferOverflowStatus
 5534              		.syntax unified
 5535              		.thumb
 5536              		.thumb_func
 5538              	MPU6050_getIntFIFOBufferOverflowStatus:
 5539              	.LFB133:
1727:Libraries/ctrl_drv/i2c/mpu6050/MPU6050.c **** /** Get FIFO Buffer Overflow interrupt status.
1728:Libraries/ctrl_drv/i2c/mpu6050/MPU6050.c ****  * This bit automatically sets to 1 when a Free Fall interrupt has been
1729:Libraries/ctrl_drv/i2c/mpu6050/MPU6050.c ****  * generated. The bit clears to 0 after the register has been read.
1730:Libraries/ctrl_drv/i2c/mpu6050/MPU6050.c ****  * @return Current interrupt status
1731:Libraries/ctrl_drv/i2c/mpu6050/MPU6050.c ****  * @see MPU6050_RA_INT_STATUS
1732:Libraries/ctrl_drv/i2c/mpu6050/MPU6050.c ****  * @see MPU6050_INTERRUPT_FIFO_OFLOW_BIT
ARM GAS  C:\Users\Mxuan\AppData\Local\Temp\ccfnFihP.s 			page 125


1733:Libraries/ctrl_drv/i2c/mpu6050/MPU6050.c ****  */
1734:Libraries/ctrl_drv/i2c/mpu6050/MPU6050.c **** bool MPU6050_getIntFIFOBufferOverflowStatus() {
 5540              		.loc 1 1734 47 is_stmt 1 view -0
 5541              		.cfi_startproc
 5542              		@ args = 0, pretend = 0, frame = 0
 5543              		@ frame_needed = 0, uses_anonymous_args = 0
 5544 0000 10B5     		push	{r4, lr}
 5545              	.LCFI162:
 5546              		.cfi_def_cfa_offset 8
 5547              		.cfi_offset 4, -8
 5548              		.cfi_offset 14, -4
1735:Libraries/ctrl_drv/i2c/mpu6050/MPU6050.c ****     I2Cdev_readBit(mpu6050.devAddr, MPU6050_RA_INT_STATUS, MPU6050_INTERRUPT_FIFO_OFLOW_BIT, mpu605
 5549              		.loc 1 1735 5 view .LVU722
 5550 0002 064B     		ldr	r3, .L615
 5551 0004 5C1E     		subs	r4, r3, #1
 5552 0006 0422     		movs	r2, #4
 5553 0008 3A21     		movs	r1, #58
 5554 000a 13F8010C 		ldrb	r0, [r3, #-1]	@ zero_extendqisi2
 5555 000e FFF7FEFF 		bl	I2Cdev_readBit
 5556              	.LVL280:
1736:Libraries/ctrl_drv/i2c/mpu6050/MPU6050.c ****     return mpu6050.buffer[0];
 5557              		.loc 1 1736 5 view .LVU723
 5558              		.loc 1 1736 26 is_stmt 0 view .LVU724
 5559 0012 6078     		ldrb	r0, [r4, #1]	@ zero_extendqisi2
1737:Libraries/ctrl_drv/i2c/mpu6050/MPU6050.c **** }
 5560              		.loc 1 1737 1 view .LVU725
 5561 0014 0038     		subs	r0, r0, #0
 5562 0016 18BF     		it	ne
 5563 0018 0120     		movne	r0, #1
 5564 001a 10BD     		pop	{r4, pc}
 5565              	.L616:
 5566              		.align	2
 5567              	.L615:
 5568 001c 01000000 		.word	mpu6050+1
 5569              		.cfi_endproc
 5570              	.LFE133:
 5572              		.section	.text.MPU6050_getIntI2CMasterStatus,"ax",%progbits
 5573              		.align	1
 5574              		.global	MPU6050_getIntI2CMasterStatus
 5575              		.syntax unified
 5576              		.thumb
 5577              		.thumb_func
 5579              	MPU6050_getIntI2CMasterStatus:
 5580              	.LFB134:
1738:Libraries/ctrl_drv/i2c/mpu6050/MPU6050.c **** /** Get I2C Master interrupt status.
1739:Libraries/ctrl_drv/i2c/mpu6050/MPU6050.c ****  * This bit automatically sets to 1 when an I2C Master interrupt has been
1740:Libraries/ctrl_drv/i2c/mpu6050/MPU6050.c ****  * generated. For a list of I2C Master interrupts, please refer to Register 54.
1741:Libraries/ctrl_drv/i2c/mpu6050/MPU6050.c ****  * The bit clears to 0 after the register has been read.
1742:Libraries/ctrl_drv/i2c/mpu6050/MPU6050.c ****  * @return Current interrupt status
1743:Libraries/ctrl_drv/i2c/mpu6050/MPU6050.c ****  * @see MPU6050_RA_INT_STATUS
1744:Libraries/ctrl_drv/i2c/mpu6050/MPU6050.c ****  * @see MPU6050_INTERRUPT_I2C_MST_INT_BIT
1745:Libraries/ctrl_drv/i2c/mpu6050/MPU6050.c ****  */
1746:Libraries/ctrl_drv/i2c/mpu6050/MPU6050.c **** bool MPU6050_getIntI2CMasterStatus() {
 5581              		.loc 1 1746 38 is_stmt 1 view -0
 5582              		.cfi_startproc
 5583              		@ args = 0, pretend = 0, frame = 0
 5584              		@ frame_needed = 0, uses_anonymous_args = 0
ARM GAS  C:\Users\Mxuan\AppData\Local\Temp\ccfnFihP.s 			page 126


 5585 0000 10B5     		push	{r4, lr}
 5586              	.LCFI163:
 5587              		.cfi_def_cfa_offset 8
 5588              		.cfi_offset 4, -8
 5589              		.cfi_offset 14, -4
1747:Libraries/ctrl_drv/i2c/mpu6050/MPU6050.c ****     I2Cdev_readBit(mpu6050.devAddr, MPU6050_RA_INT_STATUS, MPU6050_INTERRUPT_I2C_MST_INT_BIT, mpu60
 5590              		.loc 1 1747 5 view .LVU727
 5591 0002 064B     		ldr	r3, .L619
 5592 0004 5C1E     		subs	r4, r3, #1
 5593 0006 0322     		movs	r2, #3
 5594 0008 3A21     		movs	r1, #58
 5595 000a 13F8010C 		ldrb	r0, [r3, #-1]	@ zero_extendqisi2
 5596 000e FFF7FEFF 		bl	I2Cdev_readBit
 5597              	.LVL281:
1748:Libraries/ctrl_drv/i2c/mpu6050/MPU6050.c ****     return mpu6050.buffer[0];
 5598              		.loc 1 1748 5 view .LVU728
 5599              		.loc 1 1748 26 is_stmt 0 view .LVU729
 5600 0012 6078     		ldrb	r0, [r4, #1]	@ zero_extendqisi2
1749:Libraries/ctrl_drv/i2c/mpu6050/MPU6050.c **** }
 5601              		.loc 1 1749 1 view .LVU730
 5602 0014 0038     		subs	r0, r0, #0
 5603 0016 18BF     		it	ne
 5604 0018 0120     		movne	r0, #1
 5605 001a 10BD     		pop	{r4, pc}
 5606              	.L620:
 5607              		.align	2
 5608              	.L619:
 5609 001c 01000000 		.word	mpu6050+1
 5610              		.cfi_endproc
 5611              	.LFE134:
 5613              		.section	.text.MPU6050_getIntDataReadyStatus,"ax",%progbits
 5614              		.align	1
 5615              		.global	MPU6050_getIntDataReadyStatus
 5616              		.syntax unified
 5617              		.thumb
 5618              		.thumb_func
 5620              	MPU6050_getIntDataReadyStatus:
 5621              	.LFB135:
1750:Libraries/ctrl_drv/i2c/mpu6050/MPU6050.c **** /** Get Data Ready interrupt status.
1751:Libraries/ctrl_drv/i2c/mpu6050/MPU6050.c ****  * This bit automatically sets to 1 when a Data Ready interrupt has been
1752:Libraries/ctrl_drv/i2c/mpu6050/MPU6050.c ****  * generated. The bit clears to 0 after the register has been read.
1753:Libraries/ctrl_drv/i2c/mpu6050/MPU6050.c ****  * @return Current interrupt status
1754:Libraries/ctrl_drv/i2c/mpu6050/MPU6050.c ****  * @see MPU6050_RA_INT_STATUS
1755:Libraries/ctrl_drv/i2c/mpu6050/MPU6050.c ****  * @see MPU6050_INTERRUPT_DATA_RDY_BIT
1756:Libraries/ctrl_drv/i2c/mpu6050/MPU6050.c ****  */
1757:Libraries/ctrl_drv/i2c/mpu6050/MPU6050.c **** bool MPU6050_getIntDataReadyStatus() {
 5622              		.loc 1 1757 38 is_stmt 1 view -0
 5623              		.cfi_startproc
 5624              		@ args = 0, pretend = 0, frame = 0
 5625              		@ frame_needed = 0, uses_anonymous_args = 0
 5626 0000 10B5     		push	{r4, lr}
 5627              	.LCFI164:
 5628              		.cfi_def_cfa_offset 8
 5629              		.cfi_offset 4, -8
 5630              		.cfi_offset 14, -4
1758:Libraries/ctrl_drv/i2c/mpu6050/MPU6050.c ****     I2Cdev_readBit(mpu6050.devAddr, MPU6050_RA_INT_STATUS, MPU6050_INTERRUPT_DATA_RDY_BIT, mpu6050.
 5631              		.loc 1 1758 5 view .LVU732
ARM GAS  C:\Users\Mxuan\AppData\Local\Temp\ccfnFihP.s 			page 127


 5632 0002 064B     		ldr	r3, .L623
 5633 0004 5C1E     		subs	r4, r3, #1
 5634 0006 0022     		movs	r2, #0
 5635 0008 3A21     		movs	r1, #58
 5636 000a 13F8010C 		ldrb	r0, [r3, #-1]	@ zero_extendqisi2
 5637 000e FFF7FEFF 		bl	I2Cdev_readBit
 5638              	.LVL282:
1759:Libraries/ctrl_drv/i2c/mpu6050/MPU6050.c ****     return mpu6050.buffer[0];
 5639              		.loc 1 1759 5 view .LVU733
 5640              		.loc 1 1759 26 is_stmt 0 view .LVU734
 5641 0012 6078     		ldrb	r0, [r4, #1]	@ zero_extendqisi2
1760:Libraries/ctrl_drv/i2c/mpu6050/MPU6050.c **** }
 5642              		.loc 1 1760 1 view .LVU735
 5643 0014 0038     		subs	r0, r0, #0
 5644 0016 18BF     		it	ne
 5645 0018 0120     		movne	r0, #1
 5646 001a 10BD     		pop	{r4, pc}
 5647              	.L624:
 5648              		.align	2
 5649              	.L623:
 5650 001c 01000000 		.word	mpu6050+1
 5651              		.cfi_endproc
 5652              	.LFE135:
 5654              		.section	.text.MPU6050_getMotion6,"ax",%progbits
 5655              		.align	1
 5656              		.global	MPU6050_getMotion6
 5657              		.syntax unified
 5658              		.thumb
 5659              		.thumb_func
 5661              	MPU6050_getMotion6:
 5662              	.LVL283:
 5663              	.LFB137:
1761:Libraries/ctrl_drv/i2c/mpu6050/MPU6050.c **** 
1762:Libraries/ctrl_drv/i2c/mpu6050/MPU6050.c **** // ACCEL_*OUT_* registers
1763:Libraries/ctrl_drv/i2c/mpu6050/MPU6050.c **** 
1764:Libraries/ctrl_drv/i2c/mpu6050/MPU6050.c **** /** Get raw 9-axis motion sensor readings (accel/gyro/compass).
1765:Libraries/ctrl_drv/i2c/mpu6050/MPU6050.c ****  * FUNCTION NOT FULLY IMPLEMENTED YET.
1766:Libraries/ctrl_drv/i2c/mpu6050/MPU6050.c ****  * @param ax 16-bit signed integer container for accelerometer X-axis value
1767:Libraries/ctrl_drv/i2c/mpu6050/MPU6050.c ****  * @param ay 16-bit signed integer container for accelerometer Y-axis value
1768:Libraries/ctrl_drv/i2c/mpu6050/MPU6050.c ****  * @param az 16-bit signed integer container for accelerometer Z-axis value
1769:Libraries/ctrl_drv/i2c/mpu6050/MPU6050.c ****  * @param gx 16-bit signed integer container for gyroscope X-axis value
1770:Libraries/ctrl_drv/i2c/mpu6050/MPU6050.c ****  * @param gy 16-bit signed integer container for gyroscope Y-axis value
1771:Libraries/ctrl_drv/i2c/mpu6050/MPU6050.c ****  * @param gz 16-bit signed integer container for gyroscope Z-axis value
1772:Libraries/ctrl_drv/i2c/mpu6050/MPU6050.c ****  * @param mx 16-bit signed integer container for magnetometer X-axis value
1773:Libraries/ctrl_drv/i2c/mpu6050/MPU6050.c ****  * @param my 16-bit signed integer container for magnetometer Y-axis value
1774:Libraries/ctrl_drv/i2c/mpu6050/MPU6050.c ****  * @param mz 16-bit signed integer container for magnetometer Z-axis value
1775:Libraries/ctrl_drv/i2c/mpu6050/MPU6050.c ****  * @see getMotion6()
1776:Libraries/ctrl_drv/i2c/mpu6050/MPU6050.c ****  * @see getAcceleration()
1777:Libraries/ctrl_drv/i2c/mpu6050/MPU6050.c ****  * @see getRotation()
1778:Libraries/ctrl_drv/i2c/mpu6050/MPU6050.c ****  * @see MPU6050_RA_ACCEL_XOUT_H
1779:Libraries/ctrl_drv/i2c/mpu6050/MPU6050.c ****  */
1780:Libraries/ctrl_drv/i2c/mpu6050/MPU6050.c **** void MPU6050_getMotion9(int16_t* ax, int16_t* ay, int16_t* az, int16_t* gx, int16_t* gy, int16_t* g
1781:Libraries/ctrl_drv/i2c/mpu6050/MPU6050.c ****     MPU6050_getMotion6(ax, ay, az, gx, gy, gz);
1782:Libraries/ctrl_drv/i2c/mpu6050/MPU6050.c ****     // TODO: magnetometer integration
1783:Libraries/ctrl_drv/i2c/mpu6050/MPU6050.c **** }
1784:Libraries/ctrl_drv/i2c/mpu6050/MPU6050.c **** /** Get raw 6-axis motion sensor readings (accel/gyro).
1785:Libraries/ctrl_drv/i2c/mpu6050/MPU6050.c ****  * Retrieves all currently available motion sensor values.
ARM GAS  C:\Users\Mxuan\AppData\Local\Temp\ccfnFihP.s 			page 128


1786:Libraries/ctrl_drv/i2c/mpu6050/MPU6050.c ****  * @param ax 16-bit signed integer container for accelerometer X-axis value
1787:Libraries/ctrl_drv/i2c/mpu6050/MPU6050.c ****  * @param ay 16-bit signed integer container for accelerometer Y-axis value
1788:Libraries/ctrl_drv/i2c/mpu6050/MPU6050.c ****  * @param az 16-bit signed integer container for accelerometer Z-axis value
1789:Libraries/ctrl_drv/i2c/mpu6050/MPU6050.c ****  * @param gx 16-bit signed integer container for gyroscope X-axis value
1790:Libraries/ctrl_drv/i2c/mpu6050/MPU6050.c ****  * @param gy 16-bit signed integer container for gyroscope Y-axis value
1791:Libraries/ctrl_drv/i2c/mpu6050/MPU6050.c ****  * @param gz 16-bit signed integer container for gyroscope Z-axis value
1792:Libraries/ctrl_drv/i2c/mpu6050/MPU6050.c ****  * @see getAcceleration()
1793:Libraries/ctrl_drv/i2c/mpu6050/MPU6050.c ****  * @see getRotation()
1794:Libraries/ctrl_drv/i2c/mpu6050/MPU6050.c ****  * @see MPU6050_RA_ACCEL_XOUT_H
1795:Libraries/ctrl_drv/i2c/mpu6050/MPU6050.c ****  */
1796:Libraries/ctrl_drv/i2c/mpu6050/MPU6050.c **** void MPU6050_getMotion6(int16_t* ax, int16_t* ay, int16_t* az, int16_t* gx, int16_t* gy, int16_t* g
 5664              		.loc 1 1796 103 is_stmt 1 view -0
 5665              		.cfi_startproc
 5666              		@ args = 8, pretend = 0, frame = 0
 5667              		@ frame_needed = 0, uses_anonymous_args = 0
 5668              		.loc 1 1796 103 is_stmt 0 view .LVU737
 5669 0000 2DE9F041 		push	{r4, r5, r6, r7, r8, lr}
 5670              	.LCFI165:
 5671              		.cfi_def_cfa_offset 24
 5672              		.cfi_offset 4, -24
 5673              		.cfi_offset 5, -20
 5674              		.cfi_offset 6, -16
 5675              		.cfi_offset 7, -12
 5676              		.cfi_offset 8, -8
 5677              		.cfi_offset 14, -4
 5678 0004 8046     		mov	r8, r0
 5679 0006 0F46     		mov	r7, r1
 5680 0008 1646     		mov	r6, r2
 5681 000a 1D46     		mov	r5, r3
1797:Libraries/ctrl_drv/i2c/mpu6050/MPU6050.c ****     I2Cdev_readBytes(mpu6050.devAddr, MPU6050_RA_ACCEL_XOUT_H, 14, mpu6050.buffer);
 5682              		.loc 1 1797 5 is_stmt 1 view .LVU738
 5683 000c 154B     		ldr	r3, .L627
 5684              	.LVL284:
 5685              		.loc 1 1797 5 is_stmt 0 view .LVU739
 5686 000e 1C46     		mov	r4, r3
 5687 0010 0E22     		movs	r2, #14
 5688              	.LVL285:
 5689              		.loc 1 1797 5 view .LVU740
 5690 0012 3B21     		movs	r1, #59
 5691              	.LVL286:
 5692              		.loc 1 1797 5 view .LVU741
 5693 0014 13F8010C 		ldrb	r0, [r3, #-1]	@ zero_extendqisi2
 5694              	.LVL287:
 5695              		.loc 1 1797 5 view .LVU742
 5696 0018 FFF7FEFF 		bl	I2Cdev_readBytes
 5697              	.LVL288:
1798:Libraries/ctrl_drv/i2c/mpu6050/MPU6050.c ****     *ax = (((int16_t)mpu6050.buffer[0]) << 8) | mpu6050.buffer[1];
 5698              		.loc 1 1798 5 is_stmt 1 view .LVU743
 5699              		.loc 1 1798 36 is_stmt 0 view .LVU744
 5700 001c 14F80129 		ldrb	r2, [r4], #-1	@ zero_extendqisi2
 5701              		.loc 1 1798 63 view .LVU745
 5702 0020 A378     		ldrb	r3, [r4, #2]	@ zero_extendqisi2
 5703              		.loc 1 1798 47 view .LVU746
 5704 0022 43EA0223 		orr	r3, r3, r2, lsl #8
 5705              		.loc 1 1798 9 view .LVU747
 5706 0026 A8F80030 		strh	r3, [r8]	@ movhi
1799:Libraries/ctrl_drv/i2c/mpu6050/MPU6050.c ****     *ay = (((int16_t)mpu6050.buffer[2]) << 8) | mpu6050.buffer[3];
ARM GAS  C:\Users\Mxuan\AppData\Local\Temp\ccfnFihP.s 			page 129


 5707              		.loc 1 1799 5 is_stmt 1 view .LVU748
 5708              		.loc 1 1799 36 is_stmt 0 view .LVU749
 5709 002a E278     		ldrb	r2, [r4, #3]	@ zero_extendqisi2
 5710              		.loc 1 1799 63 view .LVU750
 5711 002c 2379     		ldrb	r3, [r4, #4]	@ zero_extendqisi2
 5712              		.loc 1 1799 47 view .LVU751
 5713 002e 43EA0223 		orr	r3, r3, r2, lsl #8
 5714              		.loc 1 1799 9 view .LVU752
 5715 0032 3B80     		strh	r3, [r7]	@ movhi
1800:Libraries/ctrl_drv/i2c/mpu6050/MPU6050.c ****     *az = (((int16_t)mpu6050.buffer[4]) << 8) | mpu6050.buffer[5];
 5716              		.loc 1 1800 5 is_stmt 1 view .LVU753
 5717              		.loc 1 1800 36 is_stmt 0 view .LVU754
 5718 0034 6279     		ldrb	r2, [r4, #5]	@ zero_extendqisi2
 5719              		.loc 1 1800 63 view .LVU755
 5720 0036 A379     		ldrb	r3, [r4, #6]	@ zero_extendqisi2
 5721              		.loc 1 1800 47 view .LVU756
 5722 0038 43EA0223 		orr	r3, r3, r2, lsl #8
 5723              		.loc 1 1800 9 view .LVU757
 5724 003c 3380     		strh	r3, [r6]	@ movhi
1801:Libraries/ctrl_drv/i2c/mpu6050/MPU6050.c ****     *gx = (((int16_t)mpu6050.buffer[8]) << 8) | mpu6050.buffer[9];
 5725              		.loc 1 1801 5 is_stmt 1 view .LVU758
 5726              		.loc 1 1801 36 is_stmt 0 view .LVU759
 5727 003e 627A     		ldrb	r2, [r4, #9]	@ zero_extendqisi2
 5728              		.loc 1 1801 63 view .LVU760
 5729 0040 A37A     		ldrb	r3, [r4, #10]	@ zero_extendqisi2
 5730              		.loc 1 1801 47 view .LVU761
 5731 0042 43EA0223 		orr	r3, r3, r2, lsl #8
 5732              		.loc 1 1801 9 view .LVU762
 5733 0046 2B80     		strh	r3, [r5]	@ movhi
1802:Libraries/ctrl_drv/i2c/mpu6050/MPU6050.c ****     *gy = (((int16_t)mpu6050.buffer[10]) << 8) | mpu6050.buffer[11];
 5734              		.loc 1 1802 5 is_stmt 1 view .LVU763
 5735              		.loc 1 1802 36 is_stmt 0 view .LVU764
 5736 0048 E27A     		ldrb	r2, [r4, #11]	@ zero_extendqisi2
 5737              		.loc 1 1802 64 view .LVU765
 5738 004a 237B     		ldrb	r3, [r4, #12]	@ zero_extendqisi2
 5739              		.loc 1 1802 48 view .LVU766
 5740 004c 43EA0223 		orr	r3, r3, r2, lsl #8
 5741              		.loc 1 1802 9 view .LVU767
 5742 0050 069A     		ldr	r2, [sp, #24]
 5743 0052 1380     		strh	r3, [r2]	@ movhi
1803:Libraries/ctrl_drv/i2c/mpu6050/MPU6050.c ****     *gz = (((int16_t)mpu6050.buffer[12]) << 8) | mpu6050.buffer[13];
 5744              		.loc 1 1803 5 is_stmt 1 view .LVU768
 5745              		.loc 1 1803 36 is_stmt 0 view .LVU769
 5746 0054 627B     		ldrb	r2, [r4, #13]	@ zero_extendqisi2
 5747              		.loc 1 1803 64 view .LVU770
 5748 0056 A37B     		ldrb	r3, [r4, #14]	@ zero_extendqisi2
 5749              		.loc 1 1803 48 view .LVU771
 5750 0058 43EA0223 		orr	r3, r3, r2, lsl #8
 5751              		.loc 1 1803 9 view .LVU772
 5752 005c 079A     		ldr	r2, [sp, #28]
 5753 005e 1380     		strh	r3, [r2]	@ movhi
1804:Libraries/ctrl_drv/i2c/mpu6050/MPU6050.c **** }
 5754              		.loc 1 1804 1 view .LVU773
 5755 0060 BDE8F081 		pop	{r4, r5, r6, r7, r8, pc}
 5756              	.LVL289:
 5757              	.L628:
 5758              		.loc 1 1804 1 view .LVU774
ARM GAS  C:\Users\Mxuan\AppData\Local\Temp\ccfnFihP.s 			page 130


 5759              		.align	2
 5760              	.L627:
 5761 0064 01000000 		.word	mpu6050+1
 5762              		.cfi_endproc
 5763              	.LFE137:
 5765              		.section	.text.MPU6050_getMotion9,"ax",%progbits
 5766              		.align	1
 5767              		.global	MPU6050_getMotion9
 5768              		.syntax unified
 5769              		.thumb
 5770              		.thumb_func
 5772              	MPU6050_getMotion9:
 5773              	.LVL290:
 5774              	.LFB136:
1780:Libraries/ctrl_drv/i2c/mpu6050/MPU6050.c ****     MPU6050_getMotion6(ax, ay, az, gx, gy, gz);
 5775              		.loc 1 1780 142 is_stmt 1 view -0
 5776              		.cfi_startproc
 5777              		@ args = 20, pretend = 0, frame = 0
 5778              		@ frame_needed = 0, uses_anonymous_args = 0
1780:Libraries/ctrl_drv/i2c/mpu6050/MPU6050.c ****     MPU6050_getMotion6(ax, ay, az, gx, gy, gz);
 5779              		.loc 1 1780 142 is_stmt 0 view .LVU776
 5780 0000 00B5     		push	{lr}
 5781              	.LCFI166:
 5782              		.cfi_def_cfa_offset 4
 5783              		.cfi_offset 14, -4
 5784 0002 83B0     		sub	sp, sp, #12
 5785              	.LCFI167:
 5786              		.cfi_def_cfa_offset 16
1781:Libraries/ctrl_drv/i2c/mpu6050/MPU6050.c ****     // TODO: magnetometer integration
 5787              		.loc 1 1781 5 is_stmt 1 view .LVU777
 5788 0004 DDF814C0 		ldr	ip, [sp, #20]
 5789 0008 CDF804C0 		str	ip, [sp, #4]
 5790 000c DDF810C0 		ldr	ip, [sp, #16]
 5791 0010 CDF800C0 		str	ip, [sp]
 5792 0014 FFF7FEFF 		bl	MPU6050_getMotion6
 5793              	.LVL291:
1783:Libraries/ctrl_drv/i2c/mpu6050/MPU6050.c **** /** Get raw 6-axis motion sensor readings (accel/gyro).
 5794              		.loc 1 1783 1 is_stmt 0 view .LVU778
 5795 0018 03B0     		add	sp, sp, #12
 5796              	.LCFI168:
 5797              		.cfi_def_cfa_offset 4
 5798              		@ sp needed
 5799 001a 5DF804FB 		ldr	pc, [sp], #4
1783:Libraries/ctrl_drv/i2c/mpu6050/MPU6050.c **** /** Get raw 6-axis motion sensor readings (accel/gyro).
 5800              		.loc 1 1783 1 view .LVU779
 5801              		.cfi_endproc
 5802              	.LFE136:
 5804              		.section	.text.MPU6050_getAcceleration,"ax",%progbits
 5805              		.align	1
 5806              		.global	MPU6050_getAcceleration
 5807              		.syntax unified
 5808              		.thumb
 5809              		.thumb_func
 5811              	MPU6050_getAcceleration:
 5812              	.LVL292:
 5813              	.LFB138:
1805:Libraries/ctrl_drv/i2c/mpu6050/MPU6050.c **** /** Get 3-axis accelerometer readings.
ARM GAS  C:\Users\Mxuan\AppData\Local\Temp\ccfnFihP.s 			page 131


1806:Libraries/ctrl_drv/i2c/mpu6050/MPU6050.c ****  * These registers store the most recent accelerometer measurements.
1807:Libraries/ctrl_drv/i2c/mpu6050/MPU6050.c ****  * Accelerometer measurements are written to these registers at the Sample Rate
1808:Libraries/ctrl_drv/i2c/mpu6050/MPU6050.c ****  * as defined in Register 25.
1809:Libraries/ctrl_drv/i2c/mpu6050/MPU6050.c ****  *
1810:Libraries/ctrl_drv/i2c/mpu6050/MPU6050.c ****  * The accelerometer measurement registers, along with the temperature
1811:Libraries/ctrl_drv/i2c/mpu6050/MPU6050.c ****  * measurement registers, gyroscope measurement registers, and external sensor
1812:Libraries/ctrl_drv/i2c/mpu6050/MPU6050.c ****  * data registers, are composed of two sets of registers: an internal register
1813:Libraries/ctrl_drv/i2c/mpu6050/MPU6050.c ****  * set and a user-facing read register set.
1814:Libraries/ctrl_drv/i2c/mpu6050/MPU6050.c ****  *
1815:Libraries/ctrl_drv/i2c/mpu6050/MPU6050.c ****  * The data within the accelerometer sensors' internal register set is always
1816:Libraries/ctrl_drv/i2c/mpu6050/MPU6050.c ****  * updated at the Sample Rate. Meanwhile, the user-facing read register set
1817:Libraries/ctrl_drv/i2c/mpu6050/MPU6050.c ****  * duplicates the internal register set's data values whenever the serial
1818:Libraries/ctrl_drv/i2c/mpu6050/MPU6050.c ****  * interface is idle. This guarantees that a burst read of sensor registers will
1819:Libraries/ctrl_drv/i2c/mpu6050/MPU6050.c ****  * read measurements from the same sampling instant. Note that if burst reads
1820:Libraries/ctrl_drv/i2c/mpu6050/MPU6050.c ****  * are not used, the user is responsible for ensuring a set of single byte reads
1821:Libraries/ctrl_drv/i2c/mpu6050/MPU6050.c ****  * correspond to a single sampling instant by checking the Data Ready interrupt.
1822:Libraries/ctrl_drv/i2c/mpu6050/MPU6050.c ****  *
1823:Libraries/ctrl_drv/i2c/mpu6050/MPU6050.c ****  * Each 16-bit accelerometer measurement has a full scale defined in ACCEL_FS
1824:Libraries/ctrl_drv/i2c/mpu6050/MPU6050.c ****  * (Register 28). For each full scale setting, the accelerometers' sensitivity
1825:Libraries/ctrl_drv/i2c/mpu6050/MPU6050.c ****  * per LSB in ACCEL_xOUT is shown in the table below:
1826:Libraries/ctrl_drv/i2c/mpu6050/MPU6050.c ****  *
1827:Libraries/ctrl_drv/i2c/mpu6050/MPU6050.c ****  * <pre>
1828:Libraries/ctrl_drv/i2c/mpu6050/MPU6050.c ****  * AFS_SEL | Full Scale Range | LSB Sensitivity
1829:Libraries/ctrl_drv/i2c/mpu6050/MPU6050.c ****  * --------+------------------+----------------
1830:Libraries/ctrl_drv/i2c/mpu6050/MPU6050.c ****  * 0       | +/- 2g           | 8192 LSB/mg
1831:Libraries/ctrl_drv/i2c/mpu6050/MPU6050.c ****  * 1       | +/- 4g           | 4096 LSB/mg
1832:Libraries/ctrl_drv/i2c/mpu6050/MPU6050.c ****  * 2       | +/- 8g           | 2048 LSB/mg
1833:Libraries/ctrl_drv/i2c/mpu6050/MPU6050.c ****  * 3       | +/- 16g          | 1024 LSB/mg
1834:Libraries/ctrl_drv/i2c/mpu6050/MPU6050.c ****  * </pre>
1835:Libraries/ctrl_drv/i2c/mpu6050/MPU6050.c ****  *
1836:Libraries/ctrl_drv/i2c/mpu6050/MPU6050.c ****  * @param x 16-bit signed integer container for X-axis acceleration
1837:Libraries/ctrl_drv/i2c/mpu6050/MPU6050.c ****  * @param y 16-bit signed integer container for Y-axis acceleration
1838:Libraries/ctrl_drv/i2c/mpu6050/MPU6050.c ****  * @param z 16-bit signed integer container for Z-axis acceleration
1839:Libraries/ctrl_drv/i2c/mpu6050/MPU6050.c ****  * @see MPU6050_RA_GYRO_XOUT_H
1840:Libraries/ctrl_drv/i2c/mpu6050/MPU6050.c ****  */
1841:Libraries/ctrl_drv/i2c/mpu6050/MPU6050.c **** void MPU6050_getAcceleration(int16_t* x, int16_t* y, int16_t* z) {
 5814              		.loc 1 1841 66 is_stmt 1 view -0
 5815              		.cfi_startproc
 5816              		@ args = 0, pretend = 0, frame = 0
 5817              		@ frame_needed = 0, uses_anonymous_args = 0
 5818              		.loc 1 1841 66 is_stmt 0 view .LVU781
 5819 0000 F8B5     		push	{r3, r4, r5, r6, r7, lr}
 5820              	.LCFI169:
 5821              		.cfi_def_cfa_offset 24
 5822              		.cfi_offset 3, -24
 5823              		.cfi_offset 4, -20
 5824              		.cfi_offset 5, -16
 5825              		.cfi_offset 6, -12
 5826              		.cfi_offset 7, -8
 5827              		.cfi_offset 14, -4
 5828 0002 0746     		mov	r7, r0
 5829 0004 0E46     		mov	r6, r1
 5830 0006 1546     		mov	r5, r2
1842:Libraries/ctrl_drv/i2c/mpu6050/MPU6050.c ****     I2Cdev_readBytes(mpu6050.devAddr, MPU6050_RA_ACCEL_XOUT_H, 6, mpu6050.buffer);
 5831              		.loc 1 1842 5 is_stmt 1 view .LVU782
 5832 0008 0C4B     		ldr	r3, .L633
 5833 000a 1C46     		mov	r4, r3
ARM GAS  C:\Users\Mxuan\AppData\Local\Temp\ccfnFihP.s 			page 132


 5834 000c 0622     		movs	r2, #6
 5835              	.LVL293:
 5836              		.loc 1 1842 5 is_stmt 0 view .LVU783
 5837 000e 3B21     		movs	r1, #59
 5838              	.LVL294:
 5839              		.loc 1 1842 5 view .LVU784
 5840 0010 13F8010C 		ldrb	r0, [r3, #-1]	@ zero_extendqisi2
 5841              	.LVL295:
 5842              		.loc 1 1842 5 view .LVU785
 5843 0014 FFF7FEFF 		bl	I2Cdev_readBytes
 5844              	.LVL296:
1843:Libraries/ctrl_drv/i2c/mpu6050/MPU6050.c ****     *x = (((int16_t)mpu6050.buffer[0]) << 8) | mpu6050.buffer[1];
 5845              		.loc 1 1843 5 is_stmt 1 view .LVU786
 5846              		.loc 1 1843 35 is_stmt 0 view .LVU787
 5847 0018 14F80129 		ldrb	r2, [r4], #-1	@ zero_extendqisi2
 5848              		.loc 1 1843 62 view .LVU788
 5849 001c A378     		ldrb	r3, [r4, #2]	@ zero_extendqisi2
 5850              		.loc 1 1843 46 view .LVU789
 5851 001e 43EA0223 		orr	r3, r3, r2, lsl #8
 5852              		.loc 1 1843 8 view .LVU790
 5853 0022 3B80     		strh	r3, [r7]	@ movhi
1844:Libraries/ctrl_drv/i2c/mpu6050/MPU6050.c ****     *y = (((int16_t)mpu6050.buffer[2]) << 8) | mpu6050.buffer[3];
 5854              		.loc 1 1844 5 is_stmt 1 view .LVU791
 5855              		.loc 1 1844 35 is_stmt 0 view .LVU792
 5856 0024 E278     		ldrb	r2, [r4, #3]	@ zero_extendqisi2
 5857              		.loc 1 1844 62 view .LVU793
 5858 0026 2379     		ldrb	r3, [r4, #4]	@ zero_extendqisi2
 5859              		.loc 1 1844 46 view .LVU794
 5860 0028 43EA0223 		orr	r3, r3, r2, lsl #8
 5861              		.loc 1 1844 8 view .LVU795
 5862 002c 3380     		strh	r3, [r6]	@ movhi
1845:Libraries/ctrl_drv/i2c/mpu6050/MPU6050.c ****     *z = (((int16_t)mpu6050.buffer[4]) << 8) | mpu6050.buffer[5];
 5863              		.loc 1 1845 5 is_stmt 1 view .LVU796
 5864              		.loc 1 1845 35 is_stmt 0 view .LVU797
 5865 002e 6279     		ldrb	r2, [r4, #5]	@ zero_extendqisi2
 5866              		.loc 1 1845 62 view .LVU798
 5867 0030 A379     		ldrb	r3, [r4, #6]	@ zero_extendqisi2
 5868              		.loc 1 1845 46 view .LVU799
 5869 0032 43EA0223 		orr	r3, r3, r2, lsl #8
 5870              		.loc 1 1845 8 view .LVU800
 5871 0036 2B80     		strh	r3, [r5]	@ movhi
1846:Libraries/ctrl_drv/i2c/mpu6050/MPU6050.c **** }
 5872              		.loc 1 1846 1 view .LVU801
 5873 0038 F8BD     		pop	{r3, r4, r5, r6, r7, pc}
 5874              	.LVL297:
 5875              	.L634:
 5876              		.loc 1 1846 1 view .LVU802
 5877 003a 00BF     		.align	2
 5878              	.L633:
 5879 003c 01000000 		.word	mpu6050+1
 5880              		.cfi_endproc
 5881              	.LFE138:
 5883              		.section	.text.MPU6050_getAccelerationX,"ax",%progbits
 5884              		.align	1
 5885              		.global	MPU6050_getAccelerationX
 5886              		.syntax unified
 5887              		.thumb
ARM GAS  C:\Users\Mxuan\AppData\Local\Temp\ccfnFihP.s 			page 133


 5888              		.thumb_func
 5890              	MPU6050_getAccelerationX:
 5891              	.LFB139:
1847:Libraries/ctrl_drv/i2c/mpu6050/MPU6050.c **** /** Get X-axis accelerometer reading.
1848:Libraries/ctrl_drv/i2c/mpu6050/MPU6050.c ****  * @return X-axis acceleration measurement in 16-bit 2's complement format
1849:Libraries/ctrl_drv/i2c/mpu6050/MPU6050.c ****  * @see getMotion6()
1850:Libraries/ctrl_drv/i2c/mpu6050/MPU6050.c ****  * @see MPU6050_RA_ACCEL_XOUT_H
1851:Libraries/ctrl_drv/i2c/mpu6050/MPU6050.c ****  */
1852:Libraries/ctrl_drv/i2c/mpu6050/MPU6050.c **** int16_t MPU6050_getAccelerationX() {
 5892              		.loc 1 1852 36 is_stmt 1 view -0
 5893              		.cfi_startproc
 5894              		@ args = 0, pretend = 0, frame = 0
 5895              		@ frame_needed = 0, uses_anonymous_args = 0
 5896 0000 10B5     		push	{r4, lr}
 5897              	.LCFI170:
 5898              		.cfi_def_cfa_offset 8
 5899              		.cfi_offset 4, -8
 5900              		.cfi_offset 14, -4
1853:Libraries/ctrl_drv/i2c/mpu6050/MPU6050.c ****     I2Cdev_readBytes(mpu6050.devAddr, MPU6050_RA_ACCEL_XOUT_H, 2, mpu6050.buffer);
 5901              		.loc 1 1853 5 view .LVU804
 5902 0002 074B     		ldr	r3, .L637
 5903 0004 1C46     		mov	r4, r3
 5904 0006 0222     		movs	r2, #2
 5905 0008 3B21     		movs	r1, #59
 5906 000a 13F8010C 		ldrb	r0, [r3, #-1]	@ zero_extendqisi2
 5907 000e FFF7FEFF 		bl	I2Cdev_readBytes
 5908              	.LVL298:
1854:Libraries/ctrl_drv/i2c/mpu6050/MPU6050.c ****     return (((int16_t)mpu6050.buffer[0]) << 8) | mpu6050.buffer[1];
 5909              		.loc 1 1854 5 view .LVU805
 5910              		.loc 1 1854 37 is_stmt 0 view .LVU806
 5911 0012 14F80139 		ldrb	r3, [r4], #-1	@ zero_extendqisi2
 5912              		.loc 1 1854 64 view .LVU807
 5913 0016 A078     		ldrb	r0, [r4, #2]	@ zero_extendqisi2
 5914              		.loc 1 1854 48 view .LVU808
 5915 0018 40EA0320 		orr	r0, r0, r3, lsl #8
1855:Libraries/ctrl_drv/i2c/mpu6050/MPU6050.c **** }
 5916              		.loc 1 1855 1 view .LVU809
 5917 001c 00B2     		sxth	r0, r0
 5918 001e 10BD     		pop	{r4, pc}
 5919              	.L638:
 5920              		.align	2
 5921              	.L637:
 5922 0020 01000000 		.word	mpu6050+1
 5923              		.cfi_endproc
 5924              	.LFE139:
 5926              		.section	.text.MPU6050_getAccelerationY,"ax",%progbits
 5927              		.align	1
 5928              		.global	MPU6050_getAccelerationY
 5929              		.syntax unified
 5930              		.thumb
 5931              		.thumb_func
 5933              	MPU6050_getAccelerationY:
 5934              	.LFB140:
1856:Libraries/ctrl_drv/i2c/mpu6050/MPU6050.c **** /** Get Y-axis accelerometer reading.
1857:Libraries/ctrl_drv/i2c/mpu6050/MPU6050.c ****  * @return Y-axis acceleration measurement in 16-bit 2's complement format
1858:Libraries/ctrl_drv/i2c/mpu6050/MPU6050.c ****  * @see getMotion6()
1859:Libraries/ctrl_drv/i2c/mpu6050/MPU6050.c ****  * @see MPU6050_RA_ACCEL_YOUT_H
ARM GAS  C:\Users\Mxuan\AppData\Local\Temp\ccfnFihP.s 			page 134


1860:Libraries/ctrl_drv/i2c/mpu6050/MPU6050.c ****  */
1861:Libraries/ctrl_drv/i2c/mpu6050/MPU6050.c **** int16_t MPU6050_getAccelerationY() {
 5935              		.loc 1 1861 36 is_stmt 1 view -0
 5936              		.cfi_startproc
 5937              		@ args = 0, pretend = 0, frame = 0
 5938              		@ frame_needed = 0, uses_anonymous_args = 0
 5939 0000 10B5     		push	{r4, lr}
 5940              	.LCFI171:
 5941              		.cfi_def_cfa_offset 8
 5942              		.cfi_offset 4, -8
 5943              		.cfi_offset 14, -4
1862:Libraries/ctrl_drv/i2c/mpu6050/MPU6050.c ****     I2Cdev_readBytes(mpu6050.devAddr, MPU6050_RA_ACCEL_YOUT_H, 2, mpu6050.buffer);
 5944              		.loc 1 1862 5 view .LVU811
 5945 0002 074B     		ldr	r3, .L641
 5946 0004 1C46     		mov	r4, r3
 5947 0006 0222     		movs	r2, #2
 5948 0008 3D21     		movs	r1, #61
 5949 000a 13F8010C 		ldrb	r0, [r3, #-1]	@ zero_extendqisi2
 5950 000e FFF7FEFF 		bl	I2Cdev_readBytes
 5951              	.LVL299:
1863:Libraries/ctrl_drv/i2c/mpu6050/MPU6050.c ****     return (((int16_t)mpu6050.buffer[0]) << 8) | mpu6050.buffer[1];
 5952              		.loc 1 1863 5 view .LVU812
 5953              		.loc 1 1863 37 is_stmt 0 view .LVU813
 5954 0012 14F80139 		ldrb	r3, [r4], #-1	@ zero_extendqisi2
 5955              		.loc 1 1863 64 view .LVU814
 5956 0016 A078     		ldrb	r0, [r4, #2]	@ zero_extendqisi2
 5957              		.loc 1 1863 48 view .LVU815
 5958 0018 40EA0320 		orr	r0, r0, r3, lsl #8
1864:Libraries/ctrl_drv/i2c/mpu6050/MPU6050.c **** }
 5959              		.loc 1 1864 1 view .LVU816
 5960 001c 00B2     		sxth	r0, r0
 5961 001e 10BD     		pop	{r4, pc}
 5962              	.L642:
 5963              		.align	2
 5964              	.L641:
 5965 0020 01000000 		.word	mpu6050+1
 5966              		.cfi_endproc
 5967              	.LFE140:
 5969              		.section	.text.MPU6050_getAccelerationZ,"ax",%progbits
 5970              		.align	1
 5971              		.global	MPU6050_getAccelerationZ
 5972              		.syntax unified
 5973              		.thumb
 5974              		.thumb_func
 5976              	MPU6050_getAccelerationZ:
 5977              	.LFB141:
1865:Libraries/ctrl_drv/i2c/mpu6050/MPU6050.c **** /** Get Z-axis accelerometer reading.
1866:Libraries/ctrl_drv/i2c/mpu6050/MPU6050.c ****  * @return Z-axis acceleration measurement in 16-bit 2's complement format
1867:Libraries/ctrl_drv/i2c/mpu6050/MPU6050.c ****  * @see getMotion6()
1868:Libraries/ctrl_drv/i2c/mpu6050/MPU6050.c ****  * @see MPU6050_RA_ACCEL_ZOUT_H
1869:Libraries/ctrl_drv/i2c/mpu6050/MPU6050.c ****  */
1870:Libraries/ctrl_drv/i2c/mpu6050/MPU6050.c **** int16_t MPU6050_getAccelerationZ() {
 5978              		.loc 1 1870 36 is_stmt 1 view -0
 5979              		.cfi_startproc
 5980              		@ args = 0, pretend = 0, frame = 0
 5981              		@ frame_needed = 0, uses_anonymous_args = 0
 5982 0000 10B5     		push	{r4, lr}
ARM GAS  C:\Users\Mxuan\AppData\Local\Temp\ccfnFihP.s 			page 135


 5983              	.LCFI172:
 5984              		.cfi_def_cfa_offset 8
 5985              		.cfi_offset 4, -8
 5986              		.cfi_offset 14, -4
1871:Libraries/ctrl_drv/i2c/mpu6050/MPU6050.c ****     I2Cdev_readBytes(mpu6050.devAddr, MPU6050_RA_ACCEL_ZOUT_H, 2, mpu6050.buffer);
 5987              		.loc 1 1871 5 view .LVU818
 5988 0002 074B     		ldr	r3, .L645
 5989 0004 1C46     		mov	r4, r3
 5990 0006 0222     		movs	r2, #2
 5991 0008 3F21     		movs	r1, #63
 5992 000a 13F8010C 		ldrb	r0, [r3, #-1]	@ zero_extendqisi2
 5993 000e FFF7FEFF 		bl	I2Cdev_readBytes
 5994              	.LVL300:
1872:Libraries/ctrl_drv/i2c/mpu6050/MPU6050.c ****     return (((int16_t)mpu6050.buffer[0]) << 8) | mpu6050.buffer[1];
 5995              		.loc 1 1872 5 view .LVU819
 5996              		.loc 1 1872 37 is_stmt 0 view .LVU820
 5997 0012 14F80139 		ldrb	r3, [r4], #-1	@ zero_extendqisi2
 5998              		.loc 1 1872 64 view .LVU821
 5999 0016 A078     		ldrb	r0, [r4, #2]	@ zero_extendqisi2
 6000              		.loc 1 1872 48 view .LVU822
 6001 0018 40EA0320 		orr	r0, r0, r3, lsl #8
1873:Libraries/ctrl_drv/i2c/mpu6050/MPU6050.c **** }
 6002              		.loc 1 1873 1 view .LVU823
 6003 001c 00B2     		sxth	r0, r0
 6004 001e 10BD     		pop	{r4, pc}
 6005              	.L646:
 6006              		.align	2
 6007              	.L645:
 6008 0020 01000000 		.word	mpu6050+1
 6009              		.cfi_endproc
 6010              	.LFE141:
 6012              		.section	.text.MPU6050_getTemperature,"ax",%progbits
 6013              		.align	1
 6014              		.global	MPU6050_getTemperature
 6015              		.syntax unified
 6016              		.thumb
 6017              		.thumb_func
 6019              	MPU6050_getTemperature:
 6020              	.LFB142:
1874:Libraries/ctrl_drv/i2c/mpu6050/MPU6050.c **** 
1875:Libraries/ctrl_drv/i2c/mpu6050/MPU6050.c **** // TEMP_OUT_* registers
1876:Libraries/ctrl_drv/i2c/mpu6050/MPU6050.c **** 
1877:Libraries/ctrl_drv/i2c/mpu6050/MPU6050.c **** /** Get current internal temperature.
1878:Libraries/ctrl_drv/i2c/mpu6050/MPU6050.c ****  * @return Temperature reading in 16-bit 2's complement format
1879:Libraries/ctrl_drv/i2c/mpu6050/MPU6050.c ****  * @see MPU6050_RA_TEMP_OUT_H
1880:Libraries/ctrl_drv/i2c/mpu6050/MPU6050.c ****  */
1881:Libraries/ctrl_drv/i2c/mpu6050/MPU6050.c **** int16_t MPU6050_getTemperature() {
 6021              		.loc 1 1881 34 is_stmt 1 view -0
 6022              		.cfi_startproc
 6023              		@ args = 0, pretend = 0, frame = 0
 6024              		@ frame_needed = 0, uses_anonymous_args = 0
 6025 0000 10B5     		push	{r4, lr}
 6026              	.LCFI173:
 6027              		.cfi_def_cfa_offset 8
 6028              		.cfi_offset 4, -8
 6029              		.cfi_offset 14, -4
1882:Libraries/ctrl_drv/i2c/mpu6050/MPU6050.c ****     I2Cdev_readBytes(mpu6050.devAddr, MPU6050_RA_TEMP_OUT_H, 2, mpu6050.buffer);
ARM GAS  C:\Users\Mxuan\AppData\Local\Temp\ccfnFihP.s 			page 136


 6030              		.loc 1 1882 5 view .LVU825
 6031 0002 074B     		ldr	r3, .L649
 6032 0004 1C46     		mov	r4, r3
 6033 0006 0222     		movs	r2, #2
 6034 0008 4121     		movs	r1, #65
 6035 000a 13F8010C 		ldrb	r0, [r3, #-1]	@ zero_extendqisi2
 6036 000e FFF7FEFF 		bl	I2Cdev_readBytes
 6037              	.LVL301:
1883:Libraries/ctrl_drv/i2c/mpu6050/MPU6050.c ****     return (((int16_t)mpu6050.buffer[0]) << 8) | mpu6050.buffer[1];
 6038              		.loc 1 1883 5 view .LVU826
 6039              		.loc 1 1883 37 is_stmt 0 view .LVU827
 6040 0012 14F80139 		ldrb	r3, [r4], #-1	@ zero_extendqisi2
 6041              		.loc 1 1883 64 view .LVU828
 6042 0016 A078     		ldrb	r0, [r4, #2]	@ zero_extendqisi2
 6043              		.loc 1 1883 48 view .LVU829
 6044 0018 40EA0320 		orr	r0, r0, r3, lsl #8
1884:Libraries/ctrl_drv/i2c/mpu6050/MPU6050.c **** }
 6045              		.loc 1 1884 1 view .LVU830
 6046 001c 00B2     		sxth	r0, r0
 6047 001e 10BD     		pop	{r4, pc}
 6048              	.L650:
 6049              		.align	2
 6050              	.L649:
 6051 0020 01000000 		.word	mpu6050+1
 6052              		.cfi_endproc
 6053              	.LFE142:
 6055              		.section	.text.MPU6050_getRotation,"ax",%progbits
 6056              		.align	1
 6057              		.global	MPU6050_getRotation
 6058              		.syntax unified
 6059              		.thumb
 6060              		.thumb_func
 6062              	MPU6050_getRotation:
 6063              	.LVL302:
 6064              	.LFB143:
1885:Libraries/ctrl_drv/i2c/mpu6050/MPU6050.c **** 
1886:Libraries/ctrl_drv/i2c/mpu6050/MPU6050.c **** // GYRO_*OUT_* registers
1887:Libraries/ctrl_drv/i2c/mpu6050/MPU6050.c **** 
1888:Libraries/ctrl_drv/i2c/mpu6050/MPU6050.c **** /** Get 3-axis gyroscope readings.
1889:Libraries/ctrl_drv/i2c/mpu6050/MPU6050.c ****  * These gyroscope measurement registers, along with the accelerometer
1890:Libraries/ctrl_drv/i2c/mpu6050/MPU6050.c ****  * measurement registers, temperature measurement registers, and external sensor
1891:Libraries/ctrl_drv/i2c/mpu6050/MPU6050.c ****  * data registers, are composed of two sets of registers: an internal register
1892:Libraries/ctrl_drv/i2c/mpu6050/MPU6050.c ****  * set and a user-facing read register set.
1893:Libraries/ctrl_drv/i2c/mpu6050/MPU6050.c ****  * The data within the gyroscope sensors' internal register set is always
1894:Libraries/ctrl_drv/i2c/mpu6050/MPU6050.c ****  * updated at the Sample Rate. Meanwhile, the user-facing read register set
1895:Libraries/ctrl_drv/i2c/mpu6050/MPU6050.c ****  * duplicates the internal register set's data values whenever the serial
1896:Libraries/ctrl_drv/i2c/mpu6050/MPU6050.c ****  * interface is idle. This guarantees that a burst read of sensor registers will
1897:Libraries/ctrl_drv/i2c/mpu6050/MPU6050.c ****  * read measurements from the same sampling instant. Note that if burst reads
1898:Libraries/ctrl_drv/i2c/mpu6050/MPU6050.c ****  * are not used, the user is responsible for ensuring a set of single byte reads
1899:Libraries/ctrl_drv/i2c/mpu6050/MPU6050.c ****  * correspond to a single sampling instant by checking the Data Ready interrupt.
1900:Libraries/ctrl_drv/i2c/mpu6050/MPU6050.c ****  *
1901:Libraries/ctrl_drv/i2c/mpu6050/MPU6050.c ****  * Each 16-bit gyroscope measurement has a full scale defined in FS_SEL
1902:Libraries/ctrl_drv/i2c/mpu6050/MPU6050.c ****  * (Register 27). For each full scale setting, the gyroscopes' sensitivity per
1903:Libraries/ctrl_drv/i2c/mpu6050/MPU6050.c ****  * LSB in GYRO_xOUT is shown in the table below:
1904:Libraries/ctrl_drv/i2c/mpu6050/MPU6050.c ****  *
1905:Libraries/ctrl_drv/i2c/mpu6050/MPU6050.c ****  * <pre>
1906:Libraries/ctrl_drv/i2c/mpu6050/MPU6050.c ****  * FS_SEL | Full Scale Range   | LSB Sensitivity
ARM GAS  C:\Users\Mxuan\AppData\Local\Temp\ccfnFihP.s 			page 137


1907:Libraries/ctrl_drv/i2c/mpu6050/MPU6050.c ****  * -------+--------------------+----------------
1908:Libraries/ctrl_drv/i2c/mpu6050/MPU6050.c ****  * 0      | +/- 250 degrees/s  | 131 LSB/deg/s
1909:Libraries/ctrl_drv/i2c/mpu6050/MPU6050.c ****  * 1      | +/- 500 degrees/s  | 65.5 LSB/deg/s
1910:Libraries/ctrl_drv/i2c/mpu6050/MPU6050.c ****  * 2      | +/- 1000 degrees/s | 32.8 LSB/deg/s
1911:Libraries/ctrl_drv/i2c/mpu6050/MPU6050.c ****  * 3      | +/- 2000 degrees/s | 16.4 LSB/deg/s
1912:Libraries/ctrl_drv/i2c/mpu6050/MPU6050.c ****  * </pre>
1913:Libraries/ctrl_drv/i2c/mpu6050/MPU6050.c ****  *
1914:Libraries/ctrl_drv/i2c/mpu6050/MPU6050.c ****  * @param x 16-bit signed integer container for X-axis rotation
1915:Libraries/ctrl_drv/i2c/mpu6050/MPU6050.c ****  * @param y 16-bit signed integer container for Y-axis rotation
1916:Libraries/ctrl_drv/i2c/mpu6050/MPU6050.c ****  * @param z 16-bit signed integer container for Z-axis rotation
1917:Libraries/ctrl_drv/i2c/mpu6050/MPU6050.c ****  * @see getMotion6()
1918:Libraries/ctrl_drv/i2c/mpu6050/MPU6050.c ****  * @see MPU6050_RA_GYRO_XOUT_H
1919:Libraries/ctrl_drv/i2c/mpu6050/MPU6050.c ****  */
1920:Libraries/ctrl_drv/i2c/mpu6050/MPU6050.c **** void MPU6050_getRotation(int16_t* x, int16_t* y, int16_t* z) {
 6065              		.loc 1 1920 62 is_stmt 1 view -0
 6066              		.cfi_startproc
 6067              		@ args = 0, pretend = 0, frame = 0
 6068              		@ frame_needed = 0, uses_anonymous_args = 0
 6069              		.loc 1 1920 62 is_stmt 0 view .LVU832
 6070 0000 F8B5     		push	{r3, r4, r5, r6, r7, lr}
 6071              	.LCFI174:
 6072              		.cfi_def_cfa_offset 24
 6073              		.cfi_offset 3, -24
 6074              		.cfi_offset 4, -20
 6075              		.cfi_offset 5, -16
 6076              		.cfi_offset 6, -12
 6077              		.cfi_offset 7, -8
 6078              		.cfi_offset 14, -4
 6079 0002 0746     		mov	r7, r0
 6080 0004 0E46     		mov	r6, r1
 6081 0006 1546     		mov	r5, r2
1921:Libraries/ctrl_drv/i2c/mpu6050/MPU6050.c ****     I2Cdev_readBytes(mpu6050.devAddr, MPU6050_RA_GYRO_XOUT_H, 6, mpu6050.buffer);
 6082              		.loc 1 1921 5 is_stmt 1 view .LVU833
 6083 0008 0C4B     		ldr	r3, .L653
 6084 000a 1C46     		mov	r4, r3
 6085 000c 0622     		movs	r2, #6
 6086              	.LVL303:
 6087              		.loc 1 1921 5 is_stmt 0 view .LVU834
 6088 000e 4321     		movs	r1, #67
 6089              	.LVL304:
 6090              		.loc 1 1921 5 view .LVU835
 6091 0010 13F8010C 		ldrb	r0, [r3, #-1]	@ zero_extendqisi2
 6092              	.LVL305:
 6093              		.loc 1 1921 5 view .LVU836
 6094 0014 FFF7FEFF 		bl	I2Cdev_readBytes
 6095              	.LVL306:
1922:Libraries/ctrl_drv/i2c/mpu6050/MPU6050.c ****     *x = (((int16_t)mpu6050.buffer[0]) << 8) | mpu6050.buffer[1];
 6096              		.loc 1 1922 5 is_stmt 1 view .LVU837
 6097              		.loc 1 1922 35 is_stmt 0 view .LVU838
 6098 0018 14F80129 		ldrb	r2, [r4], #-1	@ zero_extendqisi2
 6099              		.loc 1 1922 62 view .LVU839
 6100 001c A378     		ldrb	r3, [r4, #2]	@ zero_extendqisi2
 6101              		.loc 1 1922 46 view .LVU840
 6102 001e 43EA0223 		orr	r3, r3, r2, lsl #8
 6103              		.loc 1 1922 8 view .LVU841
 6104 0022 3B80     		strh	r3, [r7]	@ movhi
1923:Libraries/ctrl_drv/i2c/mpu6050/MPU6050.c ****     *y = (((int16_t)mpu6050.buffer[2]) << 8) | mpu6050.buffer[3];
ARM GAS  C:\Users\Mxuan\AppData\Local\Temp\ccfnFihP.s 			page 138


 6105              		.loc 1 1923 5 is_stmt 1 view .LVU842
 6106              		.loc 1 1923 35 is_stmt 0 view .LVU843
 6107 0024 E278     		ldrb	r2, [r4, #3]	@ zero_extendqisi2
 6108              		.loc 1 1923 62 view .LVU844
 6109 0026 2379     		ldrb	r3, [r4, #4]	@ zero_extendqisi2
 6110              		.loc 1 1923 46 view .LVU845
 6111 0028 43EA0223 		orr	r3, r3, r2, lsl #8
 6112              		.loc 1 1923 8 view .LVU846
 6113 002c 3380     		strh	r3, [r6]	@ movhi
1924:Libraries/ctrl_drv/i2c/mpu6050/MPU6050.c ****     *z = (((int16_t)mpu6050.buffer[4]) << 8) | mpu6050.buffer[5];
 6114              		.loc 1 1924 5 is_stmt 1 view .LVU847
 6115              		.loc 1 1924 35 is_stmt 0 view .LVU848
 6116 002e 6279     		ldrb	r2, [r4, #5]	@ zero_extendqisi2
 6117              		.loc 1 1924 62 view .LVU849
 6118 0030 A379     		ldrb	r3, [r4, #6]	@ zero_extendqisi2
 6119              		.loc 1 1924 46 view .LVU850
 6120 0032 43EA0223 		orr	r3, r3, r2, lsl #8
 6121              		.loc 1 1924 8 view .LVU851
 6122 0036 2B80     		strh	r3, [r5]	@ movhi
1925:Libraries/ctrl_drv/i2c/mpu6050/MPU6050.c **** }
 6123              		.loc 1 1925 1 view .LVU852
 6124 0038 F8BD     		pop	{r3, r4, r5, r6, r7, pc}
 6125              	.LVL307:
 6126              	.L654:
 6127              		.loc 1 1925 1 view .LVU853
 6128 003a 00BF     		.align	2
 6129              	.L653:
 6130 003c 01000000 		.word	mpu6050+1
 6131              		.cfi_endproc
 6132              	.LFE143:
 6134              		.section	.text.MPU6050_getRotationX,"ax",%progbits
 6135              		.align	1
 6136              		.global	MPU6050_getRotationX
 6137              		.syntax unified
 6138              		.thumb
 6139              		.thumb_func
 6141              	MPU6050_getRotationX:
 6142              	.LFB144:
1926:Libraries/ctrl_drv/i2c/mpu6050/MPU6050.c **** /** Get X-axis gyroscope reading.
1927:Libraries/ctrl_drv/i2c/mpu6050/MPU6050.c ****  * @return X-axis rotation measurement in 16-bit 2's complement format
1928:Libraries/ctrl_drv/i2c/mpu6050/MPU6050.c ****  * @see getMotion6()
1929:Libraries/ctrl_drv/i2c/mpu6050/MPU6050.c ****  * @see MPU6050_RA_GYRO_XOUT_H
1930:Libraries/ctrl_drv/i2c/mpu6050/MPU6050.c ****  */
1931:Libraries/ctrl_drv/i2c/mpu6050/MPU6050.c **** int16_t MPU6050_getRotationX() {
 6143              		.loc 1 1931 32 is_stmt 1 view -0
 6144              		.cfi_startproc
 6145              		@ args = 0, pretend = 0, frame = 0
 6146              		@ frame_needed = 0, uses_anonymous_args = 0
 6147 0000 10B5     		push	{r4, lr}
 6148              	.LCFI175:
 6149              		.cfi_def_cfa_offset 8
 6150              		.cfi_offset 4, -8
 6151              		.cfi_offset 14, -4
1932:Libraries/ctrl_drv/i2c/mpu6050/MPU6050.c ****     I2Cdev_readBytes(mpu6050.devAddr, MPU6050_RA_GYRO_XOUT_H, 2, mpu6050.buffer);
 6152              		.loc 1 1932 5 view .LVU855
 6153 0002 074B     		ldr	r3, .L657
 6154 0004 1C46     		mov	r4, r3
ARM GAS  C:\Users\Mxuan\AppData\Local\Temp\ccfnFihP.s 			page 139


 6155 0006 0222     		movs	r2, #2
 6156 0008 4321     		movs	r1, #67
 6157 000a 13F8010C 		ldrb	r0, [r3, #-1]	@ zero_extendqisi2
 6158 000e FFF7FEFF 		bl	I2Cdev_readBytes
 6159              	.LVL308:
1933:Libraries/ctrl_drv/i2c/mpu6050/MPU6050.c ****     return (((int16_t)mpu6050.buffer[0]) << 8) | mpu6050.buffer[1];
 6160              		.loc 1 1933 5 view .LVU856
 6161              		.loc 1 1933 37 is_stmt 0 view .LVU857
 6162 0012 14F80139 		ldrb	r3, [r4], #-1	@ zero_extendqisi2
 6163              		.loc 1 1933 64 view .LVU858
 6164 0016 A078     		ldrb	r0, [r4, #2]	@ zero_extendqisi2
 6165              		.loc 1 1933 48 view .LVU859
 6166 0018 40EA0320 		orr	r0, r0, r3, lsl #8
1934:Libraries/ctrl_drv/i2c/mpu6050/MPU6050.c **** }
 6167              		.loc 1 1934 1 view .LVU860
 6168 001c 00B2     		sxth	r0, r0
 6169 001e 10BD     		pop	{r4, pc}
 6170              	.L658:
 6171              		.align	2
 6172              	.L657:
 6173 0020 01000000 		.word	mpu6050+1
 6174              		.cfi_endproc
 6175              	.LFE144:
 6177              		.section	.text.MPU6050_getRotationY,"ax",%progbits
 6178              		.align	1
 6179              		.global	MPU6050_getRotationY
 6180              		.syntax unified
 6181              		.thumb
 6182              		.thumb_func
 6184              	MPU6050_getRotationY:
 6185              	.LFB145:
1935:Libraries/ctrl_drv/i2c/mpu6050/MPU6050.c **** /** Get Y-axis gyroscope reading.
1936:Libraries/ctrl_drv/i2c/mpu6050/MPU6050.c ****  * @return Y-axis rotation measurement in 16-bit 2's complement format
1937:Libraries/ctrl_drv/i2c/mpu6050/MPU6050.c ****  * @see getMotion6()
1938:Libraries/ctrl_drv/i2c/mpu6050/MPU6050.c ****  * @see MPU6050_RA_GYRO_YOUT_H
1939:Libraries/ctrl_drv/i2c/mpu6050/MPU6050.c ****  */
1940:Libraries/ctrl_drv/i2c/mpu6050/MPU6050.c **** int16_t MPU6050_getRotationY() {
 6186              		.loc 1 1940 32 is_stmt 1 view -0
 6187              		.cfi_startproc
 6188              		@ args = 0, pretend = 0, frame = 0
 6189              		@ frame_needed = 0, uses_anonymous_args = 0
 6190 0000 10B5     		push	{r4, lr}
 6191              	.LCFI176:
 6192              		.cfi_def_cfa_offset 8
 6193              		.cfi_offset 4, -8
 6194              		.cfi_offset 14, -4
1941:Libraries/ctrl_drv/i2c/mpu6050/MPU6050.c ****     I2Cdev_readBytes(mpu6050.devAddr, MPU6050_RA_GYRO_YOUT_H, 2, mpu6050.buffer);
 6195              		.loc 1 1941 5 view .LVU862
 6196 0002 074B     		ldr	r3, .L661
 6197 0004 1C46     		mov	r4, r3
 6198 0006 0222     		movs	r2, #2
 6199 0008 4521     		movs	r1, #69
 6200 000a 13F8010C 		ldrb	r0, [r3, #-1]	@ zero_extendqisi2
 6201 000e FFF7FEFF 		bl	I2Cdev_readBytes
 6202              	.LVL309:
1942:Libraries/ctrl_drv/i2c/mpu6050/MPU6050.c ****     return (((int16_t)mpu6050.buffer[0]) << 8) | mpu6050.buffer[1];
 6203              		.loc 1 1942 5 view .LVU863
ARM GAS  C:\Users\Mxuan\AppData\Local\Temp\ccfnFihP.s 			page 140


 6204              		.loc 1 1942 37 is_stmt 0 view .LVU864
 6205 0012 14F80139 		ldrb	r3, [r4], #-1	@ zero_extendqisi2
 6206              		.loc 1 1942 64 view .LVU865
 6207 0016 A078     		ldrb	r0, [r4, #2]	@ zero_extendqisi2
 6208              		.loc 1 1942 48 view .LVU866
 6209 0018 40EA0320 		orr	r0, r0, r3, lsl #8
1943:Libraries/ctrl_drv/i2c/mpu6050/MPU6050.c **** }
 6210              		.loc 1 1943 1 view .LVU867
 6211 001c 00B2     		sxth	r0, r0
 6212 001e 10BD     		pop	{r4, pc}
 6213              	.L662:
 6214              		.align	2
 6215              	.L661:
 6216 0020 01000000 		.word	mpu6050+1
 6217              		.cfi_endproc
 6218              	.LFE145:
 6220              		.section	.text.MPU6050_getRotationZ,"ax",%progbits
 6221              		.align	1
 6222              		.global	MPU6050_getRotationZ
 6223              		.syntax unified
 6224              		.thumb
 6225              		.thumb_func
 6227              	MPU6050_getRotationZ:
 6228              	.LFB146:
1944:Libraries/ctrl_drv/i2c/mpu6050/MPU6050.c **** /** Get Z-axis gyroscope reading.
1945:Libraries/ctrl_drv/i2c/mpu6050/MPU6050.c ****  * @return Z-axis rotation measurement in 16-bit 2's complement format
1946:Libraries/ctrl_drv/i2c/mpu6050/MPU6050.c ****  * @see getMotion6()
1947:Libraries/ctrl_drv/i2c/mpu6050/MPU6050.c ****  * @see MPU6050_RA_GYRO_ZOUT_H
1948:Libraries/ctrl_drv/i2c/mpu6050/MPU6050.c ****  */
1949:Libraries/ctrl_drv/i2c/mpu6050/MPU6050.c **** int16_t MPU6050_getRotationZ() {
 6229              		.loc 1 1949 32 is_stmt 1 view -0
 6230              		.cfi_startproc
 6231              		@ args = 0, pretend = 0, frame = 0
 6232              		@ frame_needed = 0, uses_anonymous_args = 0
 6233 0000 10B5     		push	{r4, lr}
 6234              	.LCFI177:
 6235              		.cfi_def_cfa_offset 8
 6236              		.cfi_offset 4, -8
 6237              		.cfi_offset 14, -4
1950:Libraries/ctrl_drv/i2c/mpu6050/MPU6050.c ****     I2Cdev_readBytes(mpu6050.devAddr, MPU6050_RA_GYRO_ZOUT_H, 2, mpu6050.buffer);
 6238              		.loc 1 1950 5 view .LVU869
 6239 0002 074B     		ldr	r3, .L665
 6240 0004 1C46     		mov	r4, r3
 6241 0006 0222     		movs	r2, #2
 6242 0008 4721     		movs	r1, #71
 6243 000a 13F8010C 		ldrb	r0, [r3, #-1]	@ zero_extendqisi2
 6244 000e FFF7FEFF 		bl	I2Cdev_readBytes
 6245              	.LVL310:
1951:Libraries/ctrl_drv/i2c/mpu6050/MPU6050.c ****     return (((int16_t)mpu6050.buffer[0]) << 8) | mpu6050.buffer[1];
 6246              		.loc 1 1951 5 view .LVU870
 6247              		.loc 1 1951 37 is_stmt 0 view .LVU871
 6248 0012 14F80139 		ldrb	r3, [r4], #-1	@ zero_extendqisi2
 6249              		.loc 1 1951 64 view .LVU872
 6250 0016 A078     		ldrb	r0, [r4, #2]	@ zero_extendqisi2
 6251              		.loc 1 1951 48 view .LVU873
 6252 0018 40EA0320 		orr	r0, r0, r3, lsl #8
1952:Libraries/ctrl_drv/i2c/mpu6050/MPU6050.c **** }
ARM GAS  C:\Users\Mxuan\AppData\Local\Temp\ccfnFihP.s 			page 141


 6253              		.loc 1 1952 1 view .LVU874
 6254 001c 00B2     		sxth	r0, r0
 6255 001e 10BD     		pop	{r4, pc}
 6256              	.L666:
 6257              		.align	2
 6258              	.L665:
 6259 0020 01000000 		.word	mpu6050+1
 6260              		.cfi_endproc
 6261              	.LFE146:
 6263              		.section	.text.MPU6050_getExternalSensorByte,"ax",%progbits
 6264              		.align	1
 6265              		.global	MPU6050_getExternalSensorByte
 6266              		.syntax unified
 6267              		.thumb
 6268              		.thumb_func
 6270              	MPU6050_getExternalSensorByte:
 6271              	.LVL311:
 6272              	.LFB147:
1953:Libraries/ctrl_drv/i2c/mpu6050/MPU6050.c **** 
1954:Libraries/ctrl_drv/i2c/mpu6050/MPU6050.c **** // EXT_SENS_DATA_* registers
1955:Libraries/ctrl_drv/i2c/mpu6050/MPU6050.c **** 
1956:Libraries/ctrl_drv/i2c/mpu6050/MPU6050.c **** /** Read single byte from external sensor data register.
1957:Libraries/ctrl_drv/i2c/mpu6050/MPU6050.c ****  * These registers store data read from external sensors by the Slave 0, 1, 2,
1958:Libraries/ctrl_drv/i2c/mpu6050/MPU6050.c ****  * and 3 on the auxiliary I2C interface. Data read by Slave 4 is stored in
1959:Libraries/ctrl_drv/i2c/mpu6050/MPU6050.c ****  * I2C_SLV4_DI (Register 53).
1960:Libraries/ctrl_drv/i2c/mpu6050/MPU6050.c ****  *
1961:Libraries/ctrl_drv/i2c/mpu6050/MPU6050.c ****  * External sensor data is written to these registers at the Sample Rate as
1962:Libraries/ctrl_drv/i2c/mpu6050/MPU6050.c ****  * defined in Register 25. This access rate can be reduced by using the Slave
1963:Libraries/ctrl_drv/i2c/mpu6050/MPU6050.c ****  * Delay Enable registers (Register 103).
1964:Libraries/ctrl_drv/i2c/mpu6050/MPU6050.c ****  *
1965:Libraries/ctrl_drv/i2c/mpu6050/MPU6050.c ****  * External sensor data registers, along with the gyroscope measurement
1966:Libraries/ctrl_drv/i2c/mpu6050/MPU6050.c ****  * registers, accelerometer measurement registers, and temperature measurement
1967:Libraries/ctrl_drv/i2c/mpu6050/MPU6050.c ****  * registers, are composed of two sets of registers: an internal register set
1968:Libraries/ctrl_drv/i2c/mpu6050/MPU6050.c ****  * and a user-facing read register set.
1969:Libraries/ctrl_drv/i2c/mpu6050/MPU6050.c ****  *
1970:Libraries/ctrl_drv/i2c/mpu6050/MPU6050.c ****  * The data within the external sensors' internal register set is always updated
1971:Libraries/ctrl_drv/i2c/mpu6050/MPU6050.c ****  * at the Sample Rate (or the reduced access rate) whenever the serial interface
1972:Libraries/ctrl_drv/i2c/mpu6050/MPU6050.c ****  * is idle. This guarantees that a burst read of sensor registers will read
1973:Libraries/ctrl_drv/i2c/mpu6050/MPU6050.c ****  * measurements from the same sampling instant. Note that if burst reads are not
1974:Libraries/ctrl_drv/i2c/mpu6050/MPU6050.c ****  * used, the user is responsible for ensuring a set of single byte reads
1975:Libraries/ctrl_drv/i2c/mpu6050/MPU6050.c ****  * correspond to a single sampling instant by checking the Data Ready interrupt.
1976:Libraries/ctrl_drv/i2c/mpu6050/MPU6050.c ****  *
1977:Libraries/ctrl_drv/i2c/mpu6050/MPU6050.c ****  * Data is placed in these external sensor data registers according to
1978:Libraries/ctrl_drv/i2c/mpu6050/MPU6050.c ****  * I2C_SLV0_CTRL, I2C_SLV1_CTRL, I2C_SLV2_CTRL, and I2C_SLV3_CTRL (Registers 39,
1979:Libraries/ctrl_drv/i2c/mpu6050/MPU6050.c ****  * 42, 45, and 48). When more than zero bytes are read (I2C_SLVx_LEN > 0) from
1980:Libraries/ctrl_drv/i2c/mpu6050/MPU6050.c ****  * an enabled slave (I2C_SLVx_EN = 1), the slave is read at the Sample Rate (as
1981:Libraries/ctrl_drv/i2c/mpu6050/MPU6050.c ****  * defined in Register 25) or delayed rate (if specified in Register 52 and
1982:Libraries/ctrl_drv/i2c/mpu6050/MPU6050.c ****  * 103). During each Sample cycle, slave reads are performed in order of Slave
1983:Libraries/ctrl_drv/i2c/mpu6050/MPU6050.c ****  * number. If all slaves are enabled with more than zero bytes to be read, the
1984:Libraries/ctrl_drv/i2c/mpu6050/MPU6050.c ****  * order will be Slave 0, followed by Slave 1, Slave 2, and Slave 3.
1985:Libraries/ctrl_drv/i2c/mpu6050/MPU6050.c ****  *
1986:Libraries/ctrl_drv/i2c/mpu6050/MPU6050.c ****  * Each enabled slave will have EXT_SENS_DATA registers associated with it by
1987:Libraries/ctrl_drv/i2c/mpu6050/MPU6050.c ****  * number of bytes read (I2C_SLVx_LEN) in order of slave number, starting from
1988:Libraries/ctrl_drv/i2c/mpu6050/MPU6050.c ****  * EXT_SENS_DATA_00. Note that this means enabling or disabling a slave may
1989:Libraries/ctrl_drv/i2c/mpu6050/MPU6050.c ****  * change the higher numbered slaves' associated registers. Furthermore, if
1990:Libraries/ctrl_drv/i2c/mpu6050/MPU6050.c ****  * fewer total bytes are being read from the external sensors as a result of
1991:Libraries/ctrl_drv/i2c/mpu6050/MPU6050.c ****  * such a change, then the data remaining in the registers which no longer have
ARM GAS  C:\Users\Mxuan\AppData\Local\Temp\ccfnFihP.s 			page 142


1992:Libraries/ctrl_drv/i2c/mpu6050/MPU6050.c ****  * an associated slave device (i.e. high numbered registers) will remain in
1993:Libraries/ctrl_drv/i2c/mpu6050/MPU6050.c ****  * these previously allocated registers unless reset.
1994:Libraries/ctrl_drv/i2c/mpu6050/MPU6050.c ****  *
1995:Libraries/ctrl_drv/i2c/mpu6050/MPU6050.c ****  * If the sum of the read lengths of all SLVx transactions exceed the number of
1996:Libraries/ctrl_drv/i2c/mpu6050/MPU6050.c ****  * available EXT_SENS_DATA registers, the excess bytes will be dropped. There
1997:Libraries/ctrl_drv/i2c/mpu6050/MPU6050.c ****  * are 24 EXT_SENS_DATA registers and hence the total read lengths between all
1998:Libraries/ctrl_drv/i2c/mpu6050/MPU6050.c ****  * the slaves cannot be greater than 24 or some bytes will be lost.
1999:Libraries/ctrl_drv/i2c/mpu6050/MPU6050.c ****  *
2000:Libraries/ctrl_drv/i2c/mpu6050/MPU6050.c ****  * Note: Slave 4's behavior is distinct from that of Slaves 0-3. For further
2001:Libraries/ctrl_drv/i2c/mpu6050/MPU6050.c ****  * information regarding the characteristics of Slave 4, please refer to
2002:Libraries/ctrl_drv/i2c/mpu6050/MPU6050.c ****  * Registers 49 to 53.
2003:Libraries/ctrl_drv/i2c/mpu6050/MPU6050.c ****  *
2004:Libraries/ctrl_drv/i2c/mpu6050/MPU6050.c ****  * EXAMPLE:
2005:Libraries/ctrl_drv/i2c/mpu6050/MPU6050.c ****  * Suppose that Slave 0 is enabled with 4 bytes to be read (I2C_SLV0_EN = 1 and
2006:Libraries/ctrl_drv/i2c/mpu6050/MPU6050.c ****  * I2C_SLV0_LEN = 4) while Slave 1 is enabled with 2 bytes to be read so that
2007:Libraries/ctrl_drv/i2c/mpu6050/MPU6050.c ****  * I2C_SLV1_EN = 1 and I2C_SLV1_LEN = 2. In such a situation, EXT_SENS_DATA _00
2008:Libraries/ctrl_drv/i2c/mpu6050/MPU6050.c ****  * through _03 will be associated with Slave 0, while EXT_SENS_DATA _04 and 05
2009:Libraries/ctrl_drv/i2c/mpu6050/MPU6050.c ****  * will be associated with Slave 1. If Slave 2 is enabled as well, registers
2010:Libraries/ctrl_drv/i2c/mpu6050/MPU6050.c ****  * starting from EXT_SENS_DATA_06 will be allocated to Slave 2.
2011:Libraries/ctrl_drv/i2c/mpu6050/MPU6050.c ****  *
2012:Libraries/ctrl_drv/i2c/mpu6050/MPU6050.c ****  * If Slave 2 is disabled while Slave 3 is enabled in this same situation, then
2013:Libraries/ctrl_drv/i2c/mpu6050/MPU6050.c ****  * registers starting from EXT_SENS_DATA_06 will be allocated to Slave 3
2014:Libraries/ctrl_drv/i2c/mpu6050/MPU6050.c ****  * instead.
2015:Libraries/ctrl_drv/i2c/mpu6050/MPU6050.c ****  *
2016:Libraries/ctrl_drv/i2c/mpu6050/MPU6050.c ****  * REGISTER ALLOCATION FOR DYNAMIC DISABLE VS. NORMAL DISABLE:
2017:Libraries/ctrl_drv/i2c/mpu6050/MPU6050.c ****  * If a slave is disabled at any time, the space initially allocated to the
2018:Libraries/ctrl_drv/i2c/mpu6050/MPU6050.c ****  * slave in the EXT_SENS_DATA register, will remain associated with that slave.
2019:Libraries/ctrl_drv/i2c/mpu6050/MPU6050.c ****  * This is to avoid dynamic adjustment of the register allocation.
2020:Libraries/ctrl_drv/i2c/mpu6050/MPU6050.c ****  *
2021:Libraries/ctrl_drv/i2c/mpu6050/MPU6050.c ****  * The allocation of the EXT_SENS_DATA registers is recomputed only when (1) all
2022:Libraries/ctrl_drv/i2c/mpu6050/MPU6050.c ****  * slaves are disabled, or (2) the I2C_MST_RST bit is set (Register 106).
2023:Libraries/ctrl_drv/i2c/mpu6050/MPU6050.c ****  *
2024:Libraries/ctrl_drv/i2c/mpu6050/MPU6050.c ****  * This above is also true if one of the slaves gets NACKed and stops
2025:Libraries/ctrl_drv/i2c/mpu6050/MPU6050.c ****  * functioning.
2026:Libraries/ctrl_drv/i2c/mpu6050/MPU6050.c ****  *
2027:Libraries/ctrl_drv/i2c/mpu6050/MPU6050.c ****  * @param position Starting position (0-23)
2028:Libraries/ctrl_drv/i2c/mpu6050/MPU6050.c ****  * @return Byte read from register
2029:Libraries/ctrl_drv/i2c/mpu6050/MPU6050.c ****  */
2030:Libraries/ctrl_drv/i2c/mpu6050/MPU6050.c **** uint8_t MPU6050_getExternalSensorByte(int position) {
 6273              		.loc 1 2030 53 is_stmt 1 view -0
 6274              		.cfi_startproc
 6275              		@ args = 0, pretend = 0, frame = 0
 6276              		@ frame_needed = 0, uses_anonymous_args = 0
 6277              		.loc 1 2030 53 is_stmt 0 view .LVU876
 6278 0000 10B5     		push	{r4, lr}
 6279              	.LCFI178:
 6280              		.cfi_def_cfa_offset 8
 6281              		.cfi_offset 4, -8
 6282              		.cfi_offset 14, -4
2031:Libraries/ctrl_drv/i2c/mpu6050/MPU6050.c ****     I2Cdev_readByte(mpu6050.devAddr, MPU6050_RA_EXT_SENS_DATA_00 + position, mpu6050.buffer);
 6283              		.loc 1 2031 5 is_stmt 1 view .LVU877
 6284 0002 054A     		ldr	r2, .L669
 6285 0004 00F14901 		add	r1, r0, #73
 6286 0008 541E     		subs	r4, r2, #1
 6287 000a C9B2     		uxtb	r1, r1
 6288 000c 12F8010C 		ldrb	r0, [r2, #-1]	@ zero_extendqisi2
 6289              	.LVL312:
ARM GAS  C:\Users\Mxuan\AppData\Local\Temp\ccfnFihP.s 			page 143


 6290              		.loc 1 2031 5 is_stmt 0 view .LVU878
 6291 0010 FFF7FEFF 		bl	I2Cdev_readByte
 6292              	.LVL313:
2032:Libraries/ctrl_drv/i2c/mpu6050/MPU6050.c ****     return mpu6050.buffer[0];
 6293              		.loc 1 2032 5 is_stmt 1 view .LVU879
2033:Libraries/ctrl_drv/i2c/mpu6050/MPU6050.c **** }
 6294              		.loc 1 2033 1 is_stmt 0 view .LVU880
 6295 0014 6078     		ldrb	r0, [r4, #1]	@ zero_extendqisi2
 6296 0016 10BD     		pop	{r4, pc}
 6297              	.L670:
 6298              		.align	2
 6299              	.L669:
 6300 0018 01000000 		.word	mpu6050+1
 6301              		.cfi_endproc
 6302              	.LFE147:
 6304              		.section	.text.MPU6050_getExternalSensorWord,"ax",%progbits
 6305              		.align	1
 6306              		.global	MPU6050_getExternalSensorWord
 6307              		.syntax unified
 6308              		.thumb
 6309              		.thumb_func
 6311              	MPU6050_getExternalSensorWord:
 6312              	.LVL314:
 6313              	.LFB148:
2034:Libraries/ctrl_drv/i2c/mpu6050/MPU6050.c **** /** Read word (2 bytes) from external sensor data registers.
2035:Libraries/ctrl_drv/i2c/mpu6050/MPU6050.c ****  * @param position Starting position (0-21)
2036:Libraries/ctrl_drv/i2c/mpu6050/MPU6050.c ****  * @return Word read from register
2037:Libraries/ctrl_drv/i2c/mpu6050/MPU6050.c ****  * @see getExternalSensorByte()
2038:Libraries/ctrl_drv/i2c/mpu6050/MPU6050.c ****  */
2039:Libraries/ctrl_drv/i2c/mpu6050/MPU6050.c **** uint16_t MPU6050_getExternalSensorWord(int position) {
 6314              		.loc 1 2039 54 is_stmt 1 view -0
 6315              		.cfi_startproc
 6316              		@ args = 0, pretend = 0, frame = 0
 6317              		@ frame_needed = 0, uses_anonymous_args = 0
 6318              		.loc 1 2039 54 is_stmt 0 view .LVU882
 6319 0000 10B5     		push	{r4, lr}
 6320              	.LCFI179:
 6321              		.cfi_def_cfa_offset 8
 6322              		.cfi_offset 4, -8
 6323              		.cfi_offset 14, -4
2040:Libraries/ctrl_drv/i2c/mpu6050/MPU6050.c ****     I2Cdev_readBytes(mpu6050.devAddr, MPU6050_RA_EXT_SENS_DATA_00 + position, 2, mpu6050.buffer);
 6324              		.loc 1 2040 5 is_stmt 1 view .LVU883
 6325 0002 084B     		ldr	r3, .L673
 6326 0004 00F14901 		add	r1, r0, #73
 6327 0008 1C46     		mov	r4, r3
 6328 000a 0222     		movs	r2, #2
 6329 000c C9B2     		uxtb	r1, r1
 6330 000e 13F8010C 		ldrb	r0, [r3, #-1]	@ zero_extendqisi2
 6331              	.LVL315:
 6332              		.loc 1 2040 5 is_stmt 0 view .LVU884
 6333 0012 FFF7FEFF 		bl	I2Cdev_readBytes
 6334              	.LVL316:
2041:Libraries/ctrl_drv/i2c/mpu6050/MPU6050.c ****     return (((uint16_t)mpu6050.buffer[0]) << 8) | mpu6050.buffer[1];
 6335              		.loc 1 2041 5 is_stmt 1 view .LVU885
 6336              		.loc 1 2041 38 is_stmt 0 view .LVU886
 6337 0016 14F80109 		ldrb	r0, [r4], #-1	@ zero_extendqisi2
 6338              		.loc 1 2041 65 view .LVU887
ARM GAS  C:\Users\Mxuan\AppData\Local\Temp\ccfnFihP.s 			page 144


 6339 001a A378     		ldrb	r3, [r4, #2]	@ zero_extendqisi2
2042:Libraries/ctrl_drv/i2c/mpu6050/MPU6050.c **** }
 6340              		.loc 1 2042 1 view .LVU888
 6341 001c 43EA0020 		orr	r0, r3, r0, lsl #8
 6342 0020 10BD     		pop	{r4, pc}
 6343              	.L674:
 6344 0022 00BF     		.align	2
 6345              	.L673:
 6346 0024 01000000 		.word	mpu6050+1
 6347              		.cfi_endproc
 6348              	.LFE148:
 6350              		.section	.text.MPU6050_getExternalSensorDWord,"ax",%progbits
 6351              		.align	1
 6352              		.global	MPU6050_getExternalSensorDWord
 6353              		.syntax unified
 6354              		.thumb
 6355              		.thumb_func
 6357              	MPU6050_getExternalSensorDWord:
 6358              	.LVL317:
 6359              	.LFB149:
2043:Libraries/ctrl_drv/i2c/mpu6050/MPU6050.c **** /** Read double word (4 bytes) from external sensor data registers.
2044:Libraries/ctrl_drv/i2c/mpu6050/MPU6050.c ****  * @param position Starting position (0-20)
2045:Libraries/ctrl_drv/i2c/mpu6050/MPU6050.c ****  * @return Double word read from registers
2046:Libraries/ctrl_drv/i2c/mpu6050/MPU6050.c ****  * @see getExternalSensorByte()
2047:Libraries/ctrl_drv/i2c/mpu6050/MPU6050.c ****  */
2048:Libraries/ctrl_drv/i2c/mpu6050/MPU6050.c **** uint32_t MPU6050_getExternalSensorDWord(int position) {
 6360              		.loc 1 2048 55 is_stmt 1 view -0
 6361              		.cfi_startproc
 6362              		@ args = 0, pretend = 0, frame = 0
 6363              		@ frame_needed = 0, uses_anonymous_args = 0
 6364              		.loc 1 2048 55 is_stmt 0 view .LVU890
 6365 0000 10B5     		push	{r4, lr}
 6366              	.LCFI180:
 6367              		.cfi_def_cfa_offset 8
 6368              		.cfi_offset 4, -8
 6369              		.cfi_offset 14, -4
2049:Libraries/ctrl_drv/i2c/mpu6050/MPU6050.c ****     I2Cdev_readBytes(mpu6050.devAddr, MPU6050_RA_EXT_SENS_DATA_00 + position, 4, mpu6050.buffer);
 6370              		.loc 1 2049 5 is_stmt 1 view .LVU891
 6371 0002 0B4B     		ldr	r3, .L677
 6372 0004 00F14901 		add	r1, r0, #73
 6373 0008 1C46     		mov	r4, r3
 6374 000a 0422     		movs	r2, #4
 6375 000c C9B2     		uxtb	r1, r1
 6376 000e 13F8010C 		ldrb	r0, [r3, #-1]	@ zero_extendqisi2
 6377              	.LVL318:
 6378              		.loc 1 2049 5 is_stmt 0 view .LVU892
 6379 0012 FFF7FEFF 		bl	I2Cdev_readBytes
 6380              	.LVL319:
2050:Libraries/ctrl_drv/i2c/mpu6050/MPU6050.c ****     return (((uint32_t)mpu6050.buffer[0]) << 24) | (((uint32_t)mpu6050.buffer[1]) << 16) | (((uint1
 6381              		.loc 1 2050 5 is_stmt 1 view .LVU893
 6382              		.loc 1 2050 38 is_stmt 0 view .LVU894
 6383 0016 14F80129 		ldrb	r2, [r4], #-1	@ zero_extendqisi2
 6384              		.loc 1 2050 78 view .LVU895
 6385 001a A378     		ldrb	r3, [r4, #2]	@ zero_extendqisi2
 6386              		.loc 1 2050 83 view .LVU896
 6387 001c 1B04     		lsls	r3, r3, #16
 6388              		.loc 1 2050 50 view .LVU897
ARM GAS  C:\Users\Mxuan\AppData\Local\Temp\ccfnFihP.s 			page 145


 6389 001e 43EA0263 		orr	r3, r3, r2, lsl #24
 6390              		.loc 1 2050 118 view .LVU898
 6391 0022 E278     		ldrb	r2, [r4, #3]	@ zero_extendqisi2
 6392              		.loc 1 2050 90 view .LVU899
 6393 0024 43EA0223 		orr	r3, r3, r2, lsl #8
 6394              		.loc 1 2050 145 view .LVU900
 6395 0028 2079     		ldrb	r0, [r4, #4]	@ zero_extendqisi2
2051:Libraries/ctrl_drv/i2c/mpu6050/MPU6050.c **** }
 6396              		.loc 1 2051 1 view .LVU901
 6397 002a 1843     		orrs	r0, r0, r3
 6398 002c 10BD     		pop	{r4, pc}
 6399              	.L678:
 6400 002e 00BF     		.align	2
 6401              	.L677:
 6402 0030 01000000 		.word	mpu6050+1
 6403              		.cfi_endproc
 6404              	.LFE149:
 6406              		.section	.text.MPU6050_getXNegMotionDetected,"ax",%progbits
 6407              		.align	1
 6408              		.global	MPU6050_getXNegMotionDetected
 6409              		.syntax unified
 6410              		.thumb
 6411              		.thumb_func
 6413              	MPU6050_getXNegMotionDetected:
 6414              	.LFB150:
2052:Libraries/ctrl_drv/i2c/mpu6050/MPU6050.c **** 
2053:Libraries/ctrl_drv/i2c/mpu6050/MPU6050.c **** // MOT_DETECT_STATUS register
2054:Libraries/ctrl_drv/i2c/mpu6050/MPU6050.c **** 
2055:Libraries/ctrl_drv/i2c/mpu6050/MPU6050.c **** /** Get X-axis negative motion detection interrupt status.
2056:Libraries/ctrl_drv/i2c/mpu6050/MPU6050.c ****  * @return Motion detection status
2057:Libraries/ctrl_drv/i2c/mpu6050/MPU6050.c ****  * @see MPU6050_RA_MOT_DETECT_STATUS
2058:Libraries/ctrl_drv/i2c/mpu6050/MPU6050.c ****  * @see MPU6050_MOTION_MOT_XNEG_BIT
2059:Libraries/ctrl_drv/i2c/mpu6050/MPU6050.c ****  */
2060:Libraries/ctrl_drv/i2c/mpu6050/MPU6050.c **** bool MPU6050_getXNegMotionDetected() {
 6415              		.loc 1 2060 38 is_stmt 1 view -0
 6416              		.cfi_startproc
 6417              		@ args = 0, pretend = 0, frame = 0
 6418              		@ frame_needed = 0, uses_anonymous_args = 0
 6419 0000 10B5     		push	{r4, lr}
 6420              	.LCFI181:
 6421              		.cfi_def_cfa_offset 8
 6422              		.cfi_offset 4, -8
 6423              		.cfi_offset 14, -4
2061:Libraries/ctrl_drv/i2c/mpu6050/MPU6050.c ****     I2Cdev_readBit(mpu6050.devAddr, MPU6050_RA_MOT_DETECT_STATUS, MPU6050_MOTION_MOT_XNEG_BIT, mpu6
 6424              		.loc 1 2061 5 view .LVU903
 6425 0002 064B     		ldr	r3, .L681
 6426 0004 5C1E     		subs	r4, r3, #1
 6427 0006 0722     		movs	r2, #7
 6428 0008 6121     		movs	r1, #97
 6429 000a 13F8010C 		ldrb	r0, [r3, #-1]	@ zero_extendqisi2
 6430 000e FFF7FEFF 		bl	I2Cdev_readBit
 6431              	.LVL320:
2062:Libraries/ctrl_drv/i2c/mpu6050/MPU6050.c ****     return mpu6050.buffer[0];
 6432              		.loc 1 2062 5 view .LVU904
 6433              		.loc 1 2062 26 is_stmt 0 view .LVU905
 6434 0012 6078     		ldrb	r0, [r4, #1]	@ zero_extendqisi2
2063:Libraries/ctrl_drv/i2c/mpu6050/MPU6050.c **** }
ARM GAS  C:\Users\Mxuan\AppData\Local\Temp\ccfnFihP.s 			page 146


 6435              		.loc 1 2063 1 view .LVU906
 6436 0014 0038     		subs	r0, r0, #0
 6437 0016 18BF     		it	ne
 6438 0018 0120     		movne	r0, #1
 6439 001a 10BD     		pop	{r4, pc}
 6440              	.L682:
 6441              		.align	2
 6442              	.L681:
 6443 001c 01000000 		.word	mpu6050+1
 6444              		.cfi_endproc
 6445              	.LFE150:
 6447              		.section	.text.MPU6050_getXPosMotionDetected,"ax",%progbits
 6448              		.align	1
 6449              		.global	MPU6050_getXPosMotionDetected
 6450              		.syntax unified
 6451              		.thumb
 6452              		.thumb_func
 6454              	MPU6050_getXPosMotionDetected:
 6455              	.LFB151:
2064:Libraries/ctrl_drv/i2c/mpu6050/MPU6050.c **** /** Get X-axis positive motion detection interrupt status.
2065:Libraries/ctrl_drv/i2c/mpu6050/MPU6050.c ****  * @return Motion detection status
2066:Libraries/ctrl_drv/i2c/mpu6050/MPU6050.c ****  * @see MPU6050_RA_MOT_DETECT_STATUS
2067:Libraries/ctrl_drv/i2c/mpu6050/MPU6050.c ****  * @see MPU6050_MOTION_MOT_XPOS_BIT
2068:Libraries/ctrl_drv/i2c/mpu6050/MPU6050.c ****  */
2069:Libraries/ctrl_drv/i2c/mpu6050/MPU6050.c **** bool MPU6050_getXPosMotionDetected() {
 6456              		.loc 1 2069 38 is_stmt 1 view -0
 6457              		.cfi_startproc
 6458              		@ args = 0, pretend = 0, frame = 0
 6459              		@ frame_needed = 0, uses_anonymous_args = 0
 6460 0000 10B5     		push	{r4, lr}
 6461              	.LCFI182:
 6462              		.cfi_def_cfa_offset 8
 6463              		.cfi_offset 4, -8
 6464              		.cfi_offset 14, -4
2070:Libraries/ctrl_drv/i2c/mpu6050/MPU6050.c ****     I2Cdev_readBit(mpu6050.devAddr, MPU6050_RA_MOT_DETECT_STATUS, MPU6050_MOTION_MOT_XPOS_BIT, mpu6
 6465              		.loc 1 2070 5 view .LVU908
 6466 0002 064B     		ldr	r3, .L685
 6467 0004 5C1E     		subs	r4, r3, #1
 6468 0006 0622     		movs	r2, #6
 6469 0008 6121     		movs	r1, #97
 6470 000a 13F8010C 		ldrb	r0, [r3, #-1]	@ zero_extendqisi2
 6471 000e FFF7FEFF 		bl	I2Cdev_readBit
 6472              	.LVL321:
2071:Libraries/ctrl_drv/i2c/mpu6050/MPU6050.c ****     return mpu6050.buffer[0];
 6473              		.loc 1 2071 5 view .LVU909
 6474              		.loc 1 2071 26 is_stmt 0 view .LVU910
 6475 0012 6078     		ldrb	r0, [r4, #1]	@ zero_extendqisi2
2072:Libraries/ctrl_drv/i2c/mpu6050/MPU6050.c **** }
 6476              		.loc 1 2072 1 view .LVU911
 6477 0014 0038     		subs	r0, r0, #0
 6478 0016 18BF     		it	ne
 6479 0018 0120     		movne	r0, #1
 6480 001a 10BD     		pop	{r4, pc}
 6481              	.L686:
 6482              		.align	2
 6483              	.L685:
 6484 001c 01000000 		.word	mpu6050+1
ARM GAS  C:\Users\Mxuan\AppData\Local\Temp\ccfnFihP.s 			page 147


 6485              		.cfi_endproc
 6486              	.LFE151:
 6488              		.section	.text.MPU6050_getYNegMotionDetected,"ax",%progbits
 6489              		.align	1
 6490              		.global	MPU6050_getYNegMotionDetected
 6491              		.syntax unified
 6492              		.thumb
 6493              		.thumb_func
 6495              	MPU6050_getYNegMotionDetected:
 6496              	.LFB152:
2073:Libraries/ctrl_drv/i2c/mpu6050/MPU6050.c **** /** Get Y-axis negative motion detection interrupt status.
2074:Libraries/ctrl_drv/i2c/mpu6050/MPU6050.c ****  * @return Motion detection status
2075:Libraries/ctrl_drv/i2c/mpu6050/MPU6050.c ****  * @see MPU6050_RA_MOT_DETECT_STATUS
2076:Libraries/ctrl_drv/i2c/mpu6050/MPU6050.c ****  * @see MPU6050_MOTION_MOT_YNEG_BIT
2077:Libraries/ctrl_drv/i2c/mpu6050/MPU6050.c ****  */
2078:Libraries/ctrl_drv/i2c/mpu6050/MPU6050.c **** bool MPU6050_getYNegMotionDetected() {
 6497              		.loc 1 2078 38 is_stmt 1 view -0
 6498              		.cfi_startproc
 6499              		@ args = 0, pretend = 0, frame = 0
 6500              		@ frame_needed = 0, uses_anonymous_args = 0
 6501 0000 10B5     		push	{r4, lr}
 6502              	.LCFI183:
 6503              		.cfi_def_cfa_offset 8
 6504              		.cfi_offset 4, -8
 6505              		.cfi_offset 14, -4
2079:Libraries/ctrl_drv/i2c/mpu6050/MPU6050.c ****     I2Cdev_readBit(mpu6050.devAddr, MPU6050_RA_MOT_DETECT_STATUS, MPU6050_MOTION_MOT_YNEG_BIT, mpu6
 6506              		.loc 1 2079 5 view .LVU913
 6507 0002 064B     		ldr	r3, .L689
 6508 0004 5C1E     		subs	r4, r3, #1
 6509 0006 0522     		movs	r2, #5
 6510 0008 6121     		movs	r1, #97
 6511 000a 13F8010C 		ldrb	r0, [r3, #-1]	@ zero_extendqisi2
 6512 000e FFF7FEFF 		bl	I2Cdev_readBit
 6513              	.LVL322:
2080:Libraries/ctrl_drv/i2c/mpu6050/MPU6050.c ****     return mpu6050.buffer[0];
 6514              		.loc 1 2080 5 view .LVU914
 6515              		.loc 1 2080 26 is_stmt 0 view .LVU915
 6516 0012 6078     		ldrb	r0, [r4, #1]	@ zero_extendqisi2
2081:Libraries/ctrl_drv/i2c/mpu6050/MPU6050.c **** }
 6517              		.loc 1 2081 1 view .LVU916
 6518 0014 0038     		subs	r0, r0, #0
 6519 0016 18BF     		it	ne
 6520 0018 0120     		movne	r0, #1
 6521 001a 10BD     		pop	{r4, pc}
 6522              	.L690:
 6523              		.align	2
 6524              	.L689:
 6525 001c 01000000 		.word	mpu6050+1
 6526              		.cfi_endproc
 6527              	.LFE152:
 6529              		.section	.text.MPU6050_getYPosMotionDetected,"ax",%progbits
 6530              		.align	1
 6531              		.global	MPU6050_getYPosMotionDetected
 6532              		.syntax unified
 6533              		.thumb
 6534              		.thumb_func
 6536              	MPU6050_getYPosMotionDetected:
ARM GAS  C:\Users\Mxuan\AppData\Local\Temp\ccfnFihP.s 			page 148


 6537              	.LFB153:
2082:Libraries/ctrl_drv/i2c/mpu6050/MPU6050.c **** /** Get Y-axis positive motion detection interrupt status.
2083:Libraries/ctrl_drv/i2c/mpu6050/MPU6050.c ****  * @return Motion detection status
2084:Libraries/ctrl_drv/i2c/mpu6050/MPU6050.c ****  * @see MPU6050_RA_MOT_DETECT_STATUS
2085:Libraries/ctrl_drv/i2c/mpu6050/MPU6050.c ****  * @see MPU6050_MOTION_MOT_YPOS_BIT
2086:Libraries/ctrl_drv/i2c/mpu6050/MPU6050.c ****  */
2087:Libraries/ctrl_drv/i2c/mpu6050/MPU6050.c **** bool MPU6050_getYPosMotionDetected() {
 6538              		.loc 1 2087 38 is_stmt 1 view -0
 6539              		.cfi_startproc
 6540              		@ args = 0, pretend = 0, frame = 0
 6541              		@ frame_needed = 0, uses_anonymous_args = 0
 6542 0000 10B5     		push	{r4, lr}
 6543              	.LCFI184:
 6544              		.cfi_def_cfa_offset 8
 6545              		.cfi_offset 4, -8
 6546              		.cfi_offset 14, -4
2088:Libraries/ctrl_drv/i2c/mpu6050/MPU6050.c ****     I2Cdev_readBit(mpu6050.devAddr, MPU6050_RA_MOT_DETECT_STATUS, MPU6050_MOTION_MOT_YPOS_BIT, mpu6
 6547              		.loc 1 2088 5 view .LVU918
 6548 0002 064B     		ldr	r3, .L693
 6549 0004 5C1E     		subs	r4, r3, #1
 6550 0006 0422     		movs	r2, #4
 6551 0008 6121     		movs	r1, #97
 6552 000a 13F8010C 		ldrb	r0, [r3, #-1]	@ zero_extendqisi2
 6553 000e FFF7FEFF 		bl	I2Cdev_readBit
 6554              	.LVL323:
2089:Libraries/ctrl_drv/i2c/mpu6050/MPU6050.c ****     return mpu6050.buffer[0];
 6555              		.loc 1 2089 5 view .LVU919
 6556              		.loc 1 2089 26 is_stmt 0 view .LVU920
 6557 0012 6078     		ldrb	r0, [r4, #1]	@ zero_extendqisi2
2090:Libraries/ctrl_drv/i2c/mpu6050/MPU6050.c **** }
 6558              		.loc 1 2090 1 view .LVU921
 6559 0014 0038     		subs	r0, r0, #0
 6560 0016 18BF     		it	ne
 6561 0018 0120     		movne	r0, #1
 6562 001a 10BD     		pop	{r4, pc}
 6563              	.L694:
 6564              		.align	2
 6565              	.L693:
 6566 001c 01000000 		.word	mpu6050+1
 6567              		.cfi_endproc
 6568              	.LFE153:
 6570              		.section	.text.MPU6050_getZNegMotionDetected,"ax",%progbits
 6571              		.align	1
 6572              		.global	MPU6050_getZNegMotionDetected
 6573              		.syntax unified
 6574              		.thumb
 6575              		.thumb_func
 6577              	MPU6050_getZNegMotionDetected:
 6578              	.LFB154:
2091:Libraries/ctrl_drv/i2c/mpu6050/MPU6050.c **** /** Get Z-axis negative motion detection interrupt status.
2092:Libraries/ctrl_drv/i2c/mpu6050/MPU6050.c ****  * @return Motion detection status
2093:Libraries/ctrl_drv/i2c/mpu6050/MPU6050.c ****  * @see MPU6050_RA_MOT_DETECT_STATUS
2094:Libraries/ctrl_drv/i2c/mpu6050/MPU6050.c ****  * @see MPU6050_MOTION_MOT_ZNEG_BIT
2095:Libraries/ctrl_drv/i2c/mpu6050/MPU6050.c ****  */
2096:Libraries/ctrl_drv/i2c/mpu6050/MPU6050.c **** bool MPU6050_getZNegMotionDetected() {
 6579              		.loc 1 2096 38 is_stmt 1 view -0
 6580              		.cfi_startproc
ARM GAS  C:\Users\Mxuan\AppData\Local\Temp\ccfnFihP.s 			page 149


 6581              		@ args = 0, pretend = 0, frame = 0
 6582              		@ frame_needed = 0, uses_anonymous_args = 0
 6583 0000 10B5     		push	{r4, lr}
 6584              	.LCFI185:
 6585              		.cfi_def_cfa_offset 8
 6586              		.cfi_offset 4, -8
 6587              		.cfi_offset 14, -4
2097:Libraries/ctrl_drv/i2c/mpu6050/MPU6050.c ****     I2Cdev_readBit(mpu6050.devAddr, MPU6050_RA_MOT_DETECT_STATUS, MPU6050_MOTION_MOT_ZNEG_BIT, mpu6
 6588              		.loc 1 2097 5 view .LVU923
 6589 0002 064B     		ldr	r3, .L697
 6590 0004 5C1E     		subs	r4, r3, #1
 6591 0006 0322     		movs	r2, #3
 6592 0008 6121     		movs	r1, #97
 6593 000a 13F8010C 		ldrb	r0, [r3, #-1]	@ zero_extendqisi2
 6594 000e FFF7FEFF 		bl	I2Cdev_readBit
 6595              	.LVL324:
2098:Libraries/ctrl_drv/i2c/mpu6050/MPU6050.c ****     return mpu6050.buffer[0];
 6596              		.loc 1 2098 5 view .LVU924
 6597              		.loc 1 2098 26 is_stmt 0 view .LVU925
 6598 0012 6078     		ldrb	r0, [r4, #1]	@ zero_extendqisi2
2099:Libraries/ctrl_drv/i2c/mpu6050/MPU6050.c **** }
 6599              		.loc 1 2099 1 view .LVU926
 6600 0014 0038     		subs	r0, r0, #0
 6601 0016 18BF     		it	ne
 6602 0018 0120     		movne	r0, #1
 6603 001a 10BD     		pop	{r4, pc}
 6604              	.L698:
 6605              		.align	2
 6606              	.L697:
 6607 001c 01000000 		.word	mpu6050+1
 6608              		.cfi_endproc
 6609              	.LFE154:
 6611              		.section	.text.MPU6050_getZPosMotionDetected,"ax",%progbits
 6612              		.align	1
 6613              		.global	MPU6050_getZPosMotionDetected
 6614              		.syntax unified
 6615              		.thumb
 6616              		.thumb_func
 6618              	MPU6050_getZPosMotionDetected:
 6619              	.LFB155:
2100:Libraries/ctrl_drv/i2c/mpu6050/MPU6050.c **** /** Get Z-axis positive motion detection interrupt status.
2101:Libraries/ctrl_drv/i2c/mpu6050/MPU6050.c ****  * @return Motion detection status
2102:Libraries/ctrl_drv/i2c/mpu6050/MPU6050.c ****  * @see MPU6050_RA_MOT_DETECT_STATUS
2103:Libraries/ctrl_drv/i2c/mpu6050/MPU6050.c ****  * @see MPU6050_MOTION_MOT_ZPOS_BIT
2104:Libraries/ctrl_drv/i2c/mpu6050/MPU6050.c ****  */
2105:Libraries/ctrl_drv/i2c/mpu6050/MPU6050.c **** bool MPU6050_getZPosMotionDetected() {
 6620              		.loc 1 2105 38 is_stmt 1 view -0
 6621              		.cfi_startproc
 6622              		@ args = 0, pretend = 0, frame = 0
 6623              		@ frame_needed = 0, uses_anonymous_args = 0
 6624 0000 10B5     		push	{r4, lr}
 6625              	.LCFI186:
 6626              		.cfi_def_cfa_offset 8
 6627              		.cfi_offset 4, -8
 6628              		.cfi_offset 14, -4
2106:Libraries/ctrl_drv/i2c/mpu6050/MPU6050.c ****     I2Cdev_readBit(mpu6050.devAddr, MPU6050_RA_MOT_DETECT_STATUS, MPU6050_MOTION_MOT_ZPOS_BIT, mpu6
 6629              		.loc 1 2106 5 view .LVU928
ARM GAS  C:\Users\Mxuan\AppData\Local\Temp\ccfnFihP.s 			page 150


 6630 0002 064B     		ldr	r3, .L701
 6631 0004 5C1E     		subs	r4, r3, #1
 6632 0006 0222     		movs	r2, #2
 6633 0008 6121     		movs	r1, #97
 6634 000a 13F8010C 		ldrb	r0, [r3, #-1]	@ zero_extendqisi2
 6635 000e FFF7FEFF 		bl	I2Cdev_readBit
 6636              	.LVL325:
2107:Libraries/ctrl_drv/i2c/mpu6050/MPU6050.c ****     return mpu6050.buffer[0];
 6637              		.loc 1 2107 5 view .LVU929
 6638              		.loc 1 2107 26 is_stmt 0 view .LVU930
 6639 0012 6078     		ldrb	r0, [r4, #1]	@ zero_extendqisi2
2108:Libraries/ctrl_drv/i2c/mpu6050/MPU6050.c **** }
 6640              		.loc 1 2108 1 view .LVU931
 6641 0014 0038     		subs	r0, r0, #0
 6642 0016 18BF     		it	ne
 6643 0018 0120     		movne	r0, #1
 6644 001a 10BD     		pop	{r4, pc}
 6645              	.L702:
 6646              		.align	2
 6647              	.L701:
 6648 001c 01000000 		.word	mpu6050+1
 6649              		.cfi_endproc
 6650              	.LFE155:
 6652              		.section	.text.MPU6050_getZeroMotionDetected,"ax",%progbits
 6653              		.align	1
 6654              		.global	MPU6050_getZeroMotionDetected
 6655              		.syntax unified
 6656              		.thumb
 6657              		.thumb_func
 6659              	MPU6050_getZeroMotionDetected:
 6660              	.LFB156:
2109:Libraries/ctrl_drv/i2c/mpu6050/MPU6050.c **** /** Get zero motion detection interrupt status.
2110:Libraries/ctrl_drv/i2c/mpu6050/MPU6050.c ****  * @return Motion detection status
2111:Libraries/ctrl_drv/i2c/mpu6050/MPU6050.c ****  * @see MPU6050_RA_MOT_DETECT_STATUS
2112:Libraries/ctrl_drv/i2c/mpu6050/MPU6050.c ****  * @see MPU6050_MOTION_MOT_ZRMOT_BIT
2113:Libraries/ctrl_drv/i2c/mpu6050/MPU6050.c ****  */
2114:Libraries/ctrl_drv/i2c/mpu6050/MPU6050.c **** bool MPU6050_getZeroMotionDetected() {
 6661              		.loc 1 2114 38 is_stmt 1 view -0
 6662              		.cfi_startproc
 6663              		@ args = 0, pretend = 0, frame = 0
 6664              		@ frame_needed = 0, uses_anonymous_args = 0
 6665 0000 10B5     		push	{r4, lr}
 6666              	.LCFI187:
 6667              		.cfi_def_cfa_offset 8
 6668              		.cfi_offset 4, -8
 6669              		.cfi_offset 14, -4
2115:Libraries/ctrl_drv/i2c/mpu6050/MPU6050.c ****     I2Cdev_readBit(mpu6050.devAddr, MPU6050_RA_MOT_DETECT_STATUS, MPU6050_MOTION_MOT_ZRMOT_BIT, mpu
 6670              		.loc 1 2115 5 view .LVU933
 6671 0002 064B     		ldr	r3, .L705
 6672 0004 5C1E     		subs	r4, r3, #1
 6673 0006 0022     		movs	r2, #0
 6674 0008 6121     		movs	r1, #97
 6675 000a 13F8010C 		ldrb	r0, [r3, #-1]	@ zero_extendqisi2
 6676 000e FFF7FEFF 		bl	I2Cdev_readBit
 6677              	.LVL326:
2116:Libraries/ctrl_drv/i2c/mpu6050/MPU6050.c ****     return mpu6050.buffer[0];
 6678              		.loc 1 2116 5 view .LVU934
ARM GAS  C:\Users\Mxuan\AppData\Local\Temp\ccfnFihP.s 			page 151


 6679              		.loc 1 2116 26 is_stmt 0 view .LVU935
 6680 0012 6078     		ldrb	r0, [r4, #1]	@ zero_extendqisi2
2117:Libraries/ctrl_drv/i2c/mpu6050/MPU6050.c **** }
 6681              		.loc 1 2117 1 view .LVU936
 6682 0014 0038     		subs	r0, r0, #0
 6683 0016 18BF     		it	ne
 6684 0018 0120     		movne	r0, #1
 6685 001a 10BD     		pop	{r4, pc}
 6686              	.L706:
 6687              		.align	2
 6688              	.L705:
 6689 001c 01000000 		.word	mpu6050+1
 6690              		.cfi_endproc
 6691              	.LFE156:
 6693              		.section	.text.MPU6050_setSlaveOutputByte,"ax",%progbits
 6694              		.align	1
 6695              		.global	MPU6050_setSlaveOutputByte
 6696              		.syntax unified
 6697              		.thumb
 6698              		.thumb_func
 6700              	MPU6050_setSlaveOutputByte:
 6701              	.LVL327:
 6702              	.LFB157:
2118:Libraries/ctrl_drv/i2c/mpu6050/MPU6050.c **** 
2119:Libraries/ctrl_drv/i2c/mpu6050/MPU6050.c **** // I2C_SLV*_DO register
2120:Libraries/ctrl_drv/i2c/mpu6050/MPU6050.c **** 
2121:Libraries/ctrl_drv/i2c/mpu6050/MPU6050.c **** /** Write byte to Data Output container for specified slave.
2122:Libraries/ctrl_drv/i2c/mpu6050/MPU6050.c ****  * This register holds the output data written into Slave when Slave is set to
2123:Libraries/ctrl_drv/i2c/mpu6050/MPU6050.c ****  * write mode. For further information regarding Slave control, please
2124:Libraries/ctrl_drv/i2c/mpu6050/MPU6050.c ****  * refer to Registers 37 to 39 and immediately following.
2125:Libraries/ctrl_drv/i2c/mpu6050/MPU6050.c ****  * @param num Slave number (0-3)
2126:Libraries/ctrl_drv/i2c/mpu6050/MPU6050.c ****  * @param data Byte to write
2127:Libraries/ctrl_drv/i2c/mpu6050/MPU6050.c ****  * @see MPU6050_RA_I2C_SLV0_DO
2128:Libraries/ctrl_drv/i2c/mpu6050/MPU6050.c ****  */
2129:Libraries/ctrl_drv/i2c/mpu6050/MPU6050.c **** void MPU6050_setSlaveOutputByte(uint8_t num, uint8_t data) {
 6703              		.loc 1 2129 60 is_stmt 1 view -0
 6704              		.cfi_startproc
 6705              		@ args = 0, pretend = 0, frame = 0
 6706              		@ frame_needed = 0, uses_anonymous_args = 0
2130:Libraries/ctrl_drv/i2c/mpu6050/MPU6050.c ****     if (num > 3) return;
 6707              		.loc 1 2130 5 view .LVU938
 6708              		.loc 1 2130 8 is_stmt 0 view .LVU939
 6709 0000 0328     		cmp	r0, #3
 6710 0002 00D9     		bls	.L713
 6711 0004 7047     		bx	lr
 6712              	.L713:
2129:Libraries/ctrl_drv/i2c/mpu6050/MPU6050.c ****     if (num > 3) return;
 6713              		.loc 1 2129 60 view .LVU940
 6714 0006 08B5     		push	{r3, lr}
 6715              	.LCFI188:
 6716              		.cfi_def_cfa_offset 8
 6717              		.cfi_offset 3, -8
 6718              		.cfi_offset 14, -4
2131:Libraries/ctrl_drv/i2c/mpu6050/MPU6050.c ****     I2Cdev_writeByte(mpu6050.devAddr, MPU6050_RA_I2C_SLV0_DO + num, data);
 6719              		.loc 1 2131 5 is_stmt 1 view .LVU941
 6720 0008 6330     		adds	r0, r0, #99
 6721              	.LVL328:
ARM GAS  C:\Users\Mxuan\AppData\Local\Temp\ccfnFihP.s 			page 152


 6722              		.loc 1 2131 5 is_stmt 0 view .LVU942
 6723 000a 0A46     		mov	r2, r1
 6724 000c C1B2     		uxtb	r1, r0
 6725              	.LVL329:
 6726              		.loc 1 2131 5 view .LVU943
 6727 000e 024B     		ldr	r3, .L714
 6728 0010 1878     		ldrb	r0, [r3]	@ zero_extendqisi2
 6729 0012 FFF7FEFF 		bl	I2Cdev_writeByte
 6730              	.LVL330:
2132:Libraries/ctrl_drv/i2c/mpu6050/MPU6050.c **** }
 6731              		.loc 1 2132 1 view .LVU944
 6732 0016 08BD     		pop	{r3, pc}
 6733              	.L715:
 6734              		.align	2
 6735              	.L714:
 6736 0018 00000000 		.word	mpu6050
 6737              		.cfi_endproc
 6738              	.LFE157:
 6740              		.section	.text.MPU6050_getExternalShadowDelayEnabled,"ax",%progbits
 6741              		.align	1
 6742              		.global	MPU6050_getExternalShadowDelayEnabled
 6743              		.syntax unified
 6744              		.thumb
 6745              		.thumb_func
 6747              	MPU6050_getExternalShadowDelayEnabled:
 6748              	.LFB158:
2133:Libraries/ctrl_drv/i2c/mpu6050/MPU6050.c **** 
2134:Libraries/ctrl_drv/i2c/mpu6050/MPU6050.c **** // I2C_MST_DELAY_CTRL register
2135:Libraries/ctrl_drv/i2c/mpu6050/MPU6050.c **** 
2136:Libraries/ctrl_drv/i2c/mpu6050/MPU6050.c **** /** Get external data shadow delay enabled status.
2137:Libraries/ctrl_drv/i2c/mpu6050/MPU6050.c ****  * This register is used to specify the timing of external sensor data
2138:Libraries/ctrl_drv/i2c/mpu6050/MPU6050.c ****  * shadowing. When DELAY_ES_SHADOW is set to 1, shadowing of external
2139:Libraries/ctrl_drv/i2c/mpu6050/MPU6050.c ****  * sensor data is delayed until all data has been received.
2140:Libraries/ctrl_drv/i2c/mpu6050/MPU6050.c ****  * @return Current external data shadow delay enabled status.
2141:Libraries/ctrl_drv/i2c/mpu6050/MPU6050.c ****  * @see MPU6050_RA_I2C_MST_DELAY_CTRL
2142:Libraries/ctrl_drv/i2c/mpu6050/MPU6050.c ****  * @see MPU6050_DELAYCTRL_DELAY_ES_SHADOW_BIT
2143:Libraries/ctrl_drv/i2c/mpu6050/MPU6050.c ****  */
2144:Libraries/ctrl_drv/i2c/mpu6050/MPU6050.c **** bool MPU6050_getExternalShadowDelayEnabled() {
 6749              		.loc 1 2144 46 is_stmt 1 view -0
 6750              		.cfi_startproc
 6751              		@ args = 0, pretend = 0, frame = 0
 6752              		@ frame_needed = 0, uses_anonymous_args = 0
 6753 0000 10B5     		push	{r4, lr}
 6754              	.LCFI189:
 6755              		.cfi_def_cfa_offset 8
 6756              		.cfi_offset 4, -8
 6757              		.cfi_offset 14, -4
2145:Libraries/ctrl_drv/i2c/mpu6050/MPU6050.c ****     I2Cdev_readBit(mpu6050.devAddr, MPU6050_RA_I2C_MST_DELAY_CTRL, MPU6050_DELAYCTRL_DELAY_ES_SHADO
 6758              		.loc 1 2145 5 view .LVU946
 6759 0002 064B     		ldr	r3, .L718
 6760 0004 5C1E     		subs	r4, r3, #1
 6761 0006 0722     		movs	r2, #7
 6762 0008 6721     		movs	r1, #103
 6763 000a 13F8010C 		ldrb	r0, [r3, #-1]	@ zero_extendqisi2
 6764 000e FFF7FEFF 		bl	I2Cdev_readBit
 6765              	.LVL331:
2146:Libraries/ctrl_drv/i2c/mpu6050/MPU6050.c ****     return mpu6050.buffer[0];
ARM GAS  C:\Users\Mxuan\AppData\Local\Temp\ccfnFihP.s 			page 153


 6766              		.loc 1 2146 5 view .LVU947
 6767              		.loc 1 2146 26 is_stmt 0 view .LVU948
 6768 0012 6078     		ldrb	r0, [r4, #1]	@ zero_extendqisi2
2147:Libraries/ctrl_drv/i2c/mpu6050/MPU6050.c **** }
 6769              		.loc 1 2147 1 view .LVU949
 6770 0014 0038     		subs	r0, r0, #0
 6771 0016 18BF     		it	ne
 6772 0018 0120     		movne	r0, #1
 6773 001a 10BD     		pop	{r4, pc}
 6774              	.L719:
 6775              		.align	2
 6776              	.L718:
 6777 001c 01000000 		.word	mpu6050+1
 6778              		.cfi_endproc
 6779              	.LFE158:
 6781              		.section	.text.MPU6050_setExternalShadowDelayEnabled,"ax",%progbits
 6782              		.align	1
 6783              		.global	MPU6050_setExternalShadowDelayEnabled
 6784              		.syntax unified
 6785              		.thumb
 6786              		.thumb_func
 6788              	MPU6050_setExternalShadowDelayEnabled:
 6789              	.LVL332:
 6790              	.LFB159:
2148:Libraries/ctrl_drv/i2c/mpu6050/MPU6050.c **** /** Set external data shadow delay enabled status.
2149:Libraries/ctrl_drv/i2c/mpu6050/MPU6050.c ****  * @param enabled New external data shadow delay enabled status.
2150:Libraries/ctrl_drv/i2c/mpu6050/MPU6050.c ****  * @see getExternalShadowDelayEnabled()
2151:Libraries/ctrl_drv/i2c/mpu6050/MPU6050.c ****  * @see MPU6050_RA_I2C_MST_DELAY_CTRL
2152:Libraries/ctrl_drv/i2c/mpu6050/MPU6050.c ****  * @see MPU6050_DELAYCTRL_DELAY_ES_SHADOW_BIT
2153:Libraries/ctrl_drv/i2c/mpu6050/MPU6050.c ****  */
2154:Libraries/ctrl_drv/i2c/mpu6050/MPU6050.c **** void MPU6050_setExternalShadowDelayEnabled(bool enabled) {
 6791              		.loc 1 2154 58 is_stmt 1 view -0
 6792              		.cfi_startproc
 6793              		@ args = 0, pretend = 0, frame = 0
 6794              		@ frame_needed = 0, uses_anonymous_args = 0
 6795              		.loc 1 2154 58 is_stmt 0 view .LVU951
 6796 0000 08B5     		push	{r3, lr}
 6797              	.LCFI190:
 6798              		.cfi_def_cfa_offset 8
 6799              		.cfi_offset 3, -8
 6800              		.cfi_offset 14, -4
 6801 0002 0346     		mov	r3, r0
2155:Libraries/ctrl_drv/i2c/mpu6050/MPU6050.c ****     I2Cdev_writeBit(mpu6050.devAddr, MPU6050_RA_I2C_MST_DELAY_CTRL, MPU6050_DELAYCTRL_DELAY_ES_SHAD
 6802              		.loc 1 2155 5 is_stmt 1 view .LVU952
 6803 0004 0722     		movs	r2, #7
 6804 0006 6721     		movs	r1, #103
 6805 0008 0248     		ldr	r0, .L722
 6806              	.LVL333:
 6807              		.loc 1 2155 5 is_stmt 0 view .LVU953
 6808 000a 0078     		ldrb	r0, [r0]	@ zero_extendqisi2
 6809 000c FFF7FEFF 		bl	I2Cdev_writeBit
 6810              	.LVL334:
2156:Libraries/ctrl_drv/i2c/mpu6050/MPU6050.c **** }
 6811              		.loc 1 2156 1 view .LVU954
 6812 0010 08BD     		pop	{r3, pc}
 6813              	.L723:
 6814 0012 00BF     		.align	2
ARM GAS  C:\Users\Mxuan\AppData\Local\Temp\ccfnFihP.s 			page 154


 6815              	.L722:
 6816 0014 00000000 		.word	mpu6050
 6817              		.cfi_endproc
 6818              	.LFE159:
 6820              		.section	.text.MPU6050_getSlaveDelayEnabled,"ax",%progbits
 6821              		.align	1
 6822              		.global	MPU6050_getSlaveDelayEnabled
 6823              		.syntax unified
 6824              		.thumb
 6825              		.thumb_func
 6827              	MPU6050_getSlaveDelayEnabled:
 6828              	.LVL335:
 6829              	.LFB160:
2157:Libraries/ctrl_drv/i2c/mpu6050/MPU6050.c **** /** Get slave delay enabled status.
2158:Libraries/ctrl_drv/i2c/mpu6050/MPU6050.c ****  * When a particular slave delay is enabled, the rate of access for the that
2159:Libraries/ctrl_drv/i2c/mpu6050/MPU6050.c ****  * slave device is reduced. When a slave's access rate is decreased relative to
2160:Libraries/ctrl_drv/i2c/mpu6050/MPU6050.c ****  * the Sample Rate, the slave is accessed every:
2161:Libraries/ctrl_drv/i2c/mpu6050/MPU6050.c ****  *
2162:Libraries/ctrl_drv/i2c/mpu6050/MPU6050.c ****  *     1 / (1 + I2C_MST_DLY) Samples
2163:Libraries/ctrl_drv/i2c/mpu6050/MPU6050.c ****  *
2164:Libraries/ctrl_drv/i2c/mpu6050/MPU6050.c ****  * This base Sample Rate in turn is determined by SMPLRT_DIV (register  * 25)
2165:Libraries/ctrl_drv/i2c/mpu6050/MPU6050.c ****  * and DLPF_CFG (register 26).
2166:Libraries/ctrl_drv/i2c/mpu6050/MPU6050.c ****  *
2167:Libraries/ctrl_drv/i2c/mpu6050/MPU6050.c ****  * For further information regarding I2C_MST_DLY, please refer to register 52.
2168:Libraries/ctrl_drv/i2c/mpu6050/MPU6050.c ****  * For further information regarding the Sample Rate, please refer to register 25.
2169:Libraries/ctrl_drv/i2c/mpu6050/MPU6050.c ****  *
2170:Libraries/ctrl_drv/i2c/mpu6050/MPU6050.c ****  * @param num Slave number (0-4)
2171:Libraries/ctrl_drv/i2c/mpu6050/MPU6050.c ****  * @return Current slave delay enabled status.
2172:Libraries/ctrl_drv/i2c/mpu6050/MPU6050.c ****  * @see MPU6050_RA_I2C_MST_DELAY_CTRL
2173:Libraries/ctrl_drv/i2c/mpu6050/MPU6050.c ****  * @see MPU6050_DELAYCTRL_I2C_SLV0_DLY_EN_BIT
2174:Libraries/ctrl_drv/i2c/mpu6050/MPU6050.c ****  */
2175:Libraries/ctrl_drv/i2c/mpu6050/MPU6050.c **** bool MPU6050_getSlaveDelayEnabled(uint8_t num) {
 6830              		.loc 1 2175 48 is_stmt 1 view -0
 6831              		.cfi_startproc
 6832              		@ args = 0, pretend = 0, frame = 0
 6833              		@ frame_needed = 0, uses_anonymous_args = 0
2176:Libraries/ctrl_drv/i2c/mpu6050/MPU6050.c ****     // MPU6050_DELAYCTRL_I2C_SLV4_DLY_EN_BIT is 4, SLV3 is 3, etc.
2177:Libraries/ctrl_drv/i2c/mpu6050/MPU6050.c ****     if (num > 4) return 0;
 6834              		.loc 1 2177 5 view .LVU956
 6835              		.loc 1 2177 8 is_stmt 0 view .LVU957
 6836 0000 0428     		cmp	r0, #4
 6837 0002 01D9     		bls	.L731
 6838              		.loc 1 2177 25 view .LVU958
 6839 0004 0020     		movs	r0, #0
 6840              	.LVL336:
2178:Libraries/ctrl_drv/i2c/mpu6050/MPU6050.c ****     I2Cdev_readBit(mpu6050.devAddr, MPU6050_RA_I2C_MST_DELAY_CTRL, num, mpu6050.buffer);
2179:Libraries/ctrl_drv/i2c/mpu6050/MPU6050.c ****     return mpu6050.buffer[0];
2180:Libraries/ctrl_drv/i2c/mpu6050/MPU6050.c **** }
 6841              		.loc 1 2180 1 view .LVU959
 6842 0006 7047     		bx	lr
 6843              	.LVL337:
 6844              	.L731:
2175:Libraries/ctrl_drv/i2c/mpu6050/MPU6050.c ****     // MPU6050_DELAYCTRL_I2C_SLV4_DLY_EN_BIT is 4, SLV3 is 3, etc.
 6845              		.loc 1 2175 48 view .LVU960
 6846 0008 10B5     		push	{r4, lr}
 6847              	.LCFI191:
 6848              		.cfi_def_cfa_offset 8
ARM GAS  C:\Users\Mxuan\AppData\Local\Temp\ccfnFihP.s 			page 155


 6849              		.cfi_offset 4, -8
 6850              		.cfi_offset 14, -4
2178:Libraries/ctrl_drv/i2c/mpu6050/MPU6050.c ****     I2Cdev_readBit(mpu6050.devAddr, MPU6050_RA_I2C_MST_DELAY_CTRL, num, mpu6050.buffer);
 6851              		.loc 1 2178 5 is_stmt 1 view .LVU961
 6852 000a 064B     		ldr	r3, .L732
 6853 000c 5C1E     		subs	r4, r3, #1
 6854 000e 0246     		mov	r2, r0
 6855 0010 6721     		movs	r1, #103
 6856 0012 13F8010C 		ldrb	r0, [r3, #-1]	@ zero_extendqisi2
 6857              	.LVL338:
2178:Libraries/ctrl_drv/i2c/mpu6050/MPU6050.c ****     I2Cdev_readBit(mpu6050.devAddr, MPU6050_RA_I2C_MST_DELAY_CTRL, num, mpu6050.buffer);
 6858              		.loc 1 2178 5 is_stmt 0 view .LVU962
 6859 0016 FFF7FEFF 		bl	I2Cdev_readBit
 6860              	.LVL339:
2179:Libraries/ctrl_drv/i2c/mpu6050/MPU6050.c **** }
 6861              		.loc 1 2179 5 is_stmt 1 view .LVU963
2179:Libraries/ctrl_drv/i2c/mpu6050/MPU6050.c **** }
 6862              		.loc 1 2179 26 is_stmt 0 view .LVU964
 6863 001a 6078     		ldrb	r0, [r4, #1]	@ zero_extendqisi2
 6864 001c 0038     		subs	r0, r0, #0
 6865 001e 18BF     		it	ne
 6866 0020 0120     		movne	r0, #1
 6867              		.loc 1 2180 1 view .LVU965
 6868 0022 10BD     		pop	{r4, pc}
 6869              	.L733:
 6870              		.align	2
 6871              	.L732:
 6872 0024 01000000 		.word	mpu6050+1
 6873              		.cfi_endproc
 6874              	.LFE160:
 6876              		.section	.text.MPU6050_setSlaveDelayEnabled,"ax",%progbits
 6877              		.align	1
 6878              		.global	MPU6050_setSlaveDelayEnabled
 6879              		.syntax unified
 6880              		.thumb
 6881              		.thumb_func
 6883              	MPU6050_setSlaveDelayEnabled:
 6884              	.LVL340:
 6885              	.LFB161:
2181:Libraries/ctrl_drv/i2c/mpu6050/MPU6050.c **** /** Set slave delay enabled status.
2182:Libraries/ctrl_drv/i2c/mpu6050/MPU6050.c ****  * @param num Slave number (0-4)
2183:Libraries/ctrl_drv/i2c/mpu6050/MPU6050.c ****  * @param enabled New slave delay enabled status.
2184:Libraries/ctrl_drv/i2c/mpu6050/MPU6050.c ****  * @see MPU6050_RA_I2C_MST_DELAY_CTRL
2185:Libraries/ctrl_drv/i2c/mpu6050/MPU6050.c ****  * @see MPU6050_DELAYCTRL_I2C_SLV0_DLY_EN_BIT
2186:Libraries/ctrl_drv/i2c/mpu6050/MPU6050.c ****  */
2187:Libraries/ctrl_drv/i2c/mpu6050/MPU6050.c **** void MPU6050_setSlaveDelayEnabled(uint8_t num, bool enabled) {
 6886              		.loc 1 2187 62 is_stmt 1 view -0
 6887              		.cfi_startproc
 6888              		@ args = 0, pretend = 0, frame = 0
 6889              		@ frame_needed = 0, uses_anonymous_args = 0
 6890              		.loc 1 2187 62 is_stmt 0 view .LVU967
 6891 0000 08B5     		push	{r3, lr}
 6892              	.LCFI192:
 6893              		.cfi_def_cfa_offset 8
 6894              		.cfi_offset 3, -8
 6895              		.cfi_offset 14, -4
 6896 0002 0246     		mov	r2, r0
ARM GAS  C:\Users\Mxuan\AppData\Local\Temp\ccfnFihP.s 			page 156


 6897 0004 0B46     		mov	r3, r1
2188:Libraries/ctrl_drv/i2c/mpu6050/MPU6050.c ****     I2Cdev_writeBit(mpu6050.devAddr, MPU6050_RA_I2C_MST_DELAY_CTRL, num, enabled);
 6898              		.loc 1 2188 5 is_stmt 1 view .LVU968
 6899 0006 6721     		movs	r1, #103
 6900              	.LVL341:
 6901              		.loc 1 2188 5 is_stmt 0 view .LVU969
 6902 0008 0248     		ldr	r0, .L736
 6903              	.LVL342:
 6904              		.loc 1 2188 5 view .LVU970
 6905 000a 0078     		ldrb	r0, [r0]	@ zero_extendqisi2
 6906 000c FFF7FEFF 		bl	I2Cdev_writeBit
 6907              	.LVL343:
2189:Libraries/ctrl_drv/i2c/mpu6050/MPU6050.c **** }
 6908              		.loc 1 2189 1 view .LVU971
 6909 0010 08BD     		pop	{r3, pc}
 6910              	.L737:
 6911 0012 00BF     		.align	2
 6912              	.L736:
 6913 0014 00000000 		.word	mpu6050
 6914              		.cfi_endproc
 6915              	.LFE161:
 6917              		.section	.text.MPU6050_resetGyroscopePath,"ax",%progbits
 6918              		.align	1
 6919              		.global	MPU6050_resetGyroscopePath
 6920              		.syntax unified
 6921              		.thumb
 6922              		.thumb_func
 6924              	MPU6050_resetGyroscopePath:
 6925              	.LFB162:
2190:Libraries/ctrl_drv/i2c/mpu6050/MPU6050.c **** 
2191:Libraries/ctrl_drv/i2c/mpu6050/MPU6050.c **** // SIGNAL_PATH_RESET register
2192:Libraries/ctrl_drv/i2c/mpu6050/MPU6050.c **** 
2193:Libraries/ctrl_drv/i2c/mpu6050/MPU6050.c **** /** Reset gyroscope signal path.
2194:Libraries/ctrl_drv/i2c/mpu6050/MPU6050.c ****  * The reset will revert the signal path analog to digital converters and
2195:Libraries/ctrl_drv/i2c/mpu6050/MPU6050.c ****  * filters to their power up configurations.
2196:Libraries/ctrl_drv/i2c/mpu6050/MPU6050.c ****  * @see MPU6050_RA_SIGNAL_PATH_RESET
2197:Libraries/ctrl_drv/i2c/mpu6050/MPU6050.c ****  * @see MPU6050_PATHRESET_GYRO_RESET_BIT
2198:Libraries/ctrl_drv/i2c/mpu6050/MPU6050.c ****  */
2199:Libraries/ctrl_drv/i2c/mpu6050/MPU6050.c **** void MPU6050_resetGyroscopePath() {
 6926              		.loc 1 2199 35 is_stmt 1 view -0
 6927              		.cfi_startproc
 6928              		@ args = 0, pretend = 0, frame = 0
 6929              		@ frame_needed = 0, uses_anonymous_args = 0
 6930 0000 08B5     		push	{r3, lr}
 6931              	.LCFI193:
 6932              		.cfi_def_cfa_offset 8
 6933              		.cfi_offset 3, -8
 6934              		.cfi_offset 14, -4
2200:Libraries/ctrl_drv/i2c/mpu6050/MPU6050.c ****     I2Cdev_writeBit(mpu6050.devAddr, MPU6050_RA_SIGNAL_PATH_RESET, MPU6050_PATHRESET_GYRO_RESET_BIT
 6935              		.loc 1 2200 5 view .LVU973
 6936 0002 0123     		movs	r3, #1
 6937 0004 0222     		movs	r2, #2
 6938 0006 6821     		movs	r1, #104
 6939 0008 0248     		ldr	r0, .L740
 6940 000a 0078     		ldrb	r0, [r0]	@ zero_extendqisi2
 6941 000c FFF7FEFF 		bl	I2Cdev_writeBit
 6942              	.LVL344:
ARM GAS  C:\Users\Mxuan\AppData\Local\Temp\ccfnFihP.s 			page 157


2201:Libraries/ctrl_drv/i2c/mpu6050/MPU6050.c **** }
 6943              		.loc 1 2201 1 is_stmt 0 view .LVU974
 6944 0010 08BD     		pop	{r3, pc}
 6945              	.L741:
 6946 0012 00BF     		.align	2
 6947              	.L740:
 6948 0014 00000000 		.word	mpu6050
 6949              		.cfi_endproc
 6950              	.LFE162:
 6952              		.section	.text.MPU6050_resetAccelerometerPath,"ax",%progbits
 6953              		.align	1
 6954              		.global	MPU6050_resetAccelerometerPath
 6955              		.syntax unified
 6956              		.thumb
 6957              		.thumb_func
 6959              	MPU6050_resetAccelerometerPath:
 6960              	.LFB163:
2202:Libraries/ctrl_drv/i2c/mpu6050/MPU6050.c **** /** Reset accelerometer signal path.
2203:Libraries/ctrl_drv/i2c/mpu6050/MPU6050.c ****  * The reset will revert the signal path analog to digital converters and
2204:Libraries/ctrl_drv/i2c/mpu6050/MPU6050.c ****  * filters to their power up configurations.
2205:Libraries/ctrl_drv/i2c/mpu6050/MPU6050.c ****  * @see MPU6050_RA_SIGNAL_PATH_RESET
2206:Libraries/ctrl_drv/i2c/mpu6050/MPU6050.c ****  * @see MPU6050_PATHRESET_ACCEL_RESET_BIT
2207:Libraries/ctrl_drv/i2c/mpu6050/MPU6050.c ****  */
2208:Libraries/ctrl_drv/i2c/mpu6050/MPU6050.c **** void MPU6050_resetAccelerometerPath() {
 6961              		.loc 1 2208 39 is_stmt 1 view -0
 6962              		.cfi_startproc
 6963              		@ args = 0, pretend = 0, frame = 0
 6964              		@ frame_needed = 0, uses_anonymous_args = 0
 6965 0000 08B5     		push	{r3, lr}
 6966              	.LCFI194:
 6967              		.cfi_def_cfa_offset 8
 6968              		.cfi_offset 3, -8
 6969              		.cfi_offset 14, -4
2209:Libraries/ctrl_drv/i2c/mpu6050/MPU6050.c ****     I2Cdev_writeBit(mpu6050.devAddr, MPU6050_RA_SIGNAL_PATH_RESET, MPU6050_PATHRESET_ACCEL_RESET_BI
 6970              		.loc 1 2209 5 view .LVU976
 6971 0002 0123     		movs	r3, #1
 6972 0004 1A46     		mov	r2, r3
 6973 0006 6821     		movs	r1, #104
 6974 0008 0248     		ldr	r0, .L744
 6975 000a 0078     		ldrb	r0, [r0]	@ zero_extendqisi2
 6976 000c FFF7FEFF 		bl	I2Cdev_writeBit
 6977              	.LVL345:
2210:Libraries/ctrl_drv/i2c/mpu6050/MPU6050.c **** }
 6978              		.loc 1 2210 1 is_stmt 0 view .LVU977
 6979 0010 08BD     		pop	{r3, pc}
 6980              	.L745:
 6981 0012 00BF     		.align	2
 6982              	.L744:
 6983 0014 00000000 		.word	mpu6050
 6984              		.cfi_endproc
 6985              	.LFE163:
 6987              		.section	.text.MPU6050_resetTemperaturePath,"ax",%progbits
 6988              		.align	1
 6989              		.global	MPU6050_resetTemperaturePath
 6990              		.syntax unified
 6991              		.thumb
 6992              		.thumb_func
ARM GAS  C:\Users\Mxuan\AppData\Local\Temp\ccfnFihP.s 			page 158


 6994              	MPU6050_resetTemperaturePath:
 6995              	.LFB164:
2211:Libraries/ctrl_drv/i2c/mpu6050/MPU6050.c **** /** Reset temperature sensor signal path.
2212:Libraries/ctrl_drv/i2c/mpu6050/MPU6050.c ****  * The reset will revert the signal path analog to digital converters and
2213:Libraries/ctrl_drv/i2c/mpu6050/MPU6050.c ****  * filters to their power up configurations.
2214:Libraries/ctrl_drv/i2c/mpu6050/MPU6050.c ****  * @see MPU6050_RA_SIGNAL_PATH_RESET
2215:Libraries/ctrl_drv/i2c/mpu6050/MPU6050.c ****  * @see MPU6050_PATHRESET_TEMP_RESET_BIT
2216:Libraries/ctrl_drv/i2c/mpu6050/MPU6050.c ****  */
2217:Libraries/ctrl_drv/i2c/mpu6050/MPU6050.c **** void MPU6050_resetTemperaturePath() {
 6996              		.loc 1 2217 37 is_stmt 1 view -0
 6997              		.cfi_startproc
 6998              		@ args = 0, pretend = 0, frame = 0
 6999              		@ frame_needed = 0, uses_anonymous_args = 0
 7000 0000 08B5     		push	{r3, lr}
 7001              	.LCFI195:
 7002              		.cfi_def_cfa_offset 8
 7003              		.cfi_offset 3, -8
 7004              		.cfi_offset 14, -4
2218:Libraries/ctrl_drv/i2c/mpu6050/MPU6050.c ****     I2Cdev_writeBit(mpu6050.devAddr, MPU6050_RA_SIGNAL_PATH_RESET, MPU6050_PATHRESET_TEMP_RESET_BIT
 7005              		.loc 1 2218 5 view .LVU979
 7006 0002 0123     		movs	r3, #1
 7007 0004 0022     		movs	r2, #0
 7008 0006 6821     		movs	r1, #104
 7009 0008 0248     		ldr	r0, .L748
 7010 000a 0078     		ldrb	r0, [r0]	@ zero_extendqisi2
 7011 000c FFF7FEFF 		bl	I2Cdev_writeBit
 7012              	.LVL346:
2219:Libraries/ctrl_drv/i2c/mpu6050/MPU6050.c **** }
 7013              		.loc 1 2219 1 is_stmt 0 view .LVU980
 7014 0010 08BD     		pop	{r3, pc}
 7015              	.L749:
 7016 0012 00BF     		.align	2
 7017              	.L748:
 7018 0014 00000000 		.word	mpu6050
 7019              		.cfi_endproc
 7020              	.LFE164:
 7022              		.section	.text.MPU6050_getAccelerometerPowerOnDelay,"ax",%progbits
 7023              		.align	1
 7024              		.global	MPU6050_getAccelerometerPowerOnDelay
 7025              		.syntax unified
 7026              		.thumb
 7027              		.thumb_func
 7029              	MPU6050_getAccelerometerPowerOnDelay:
 7030              	.LFB165:
2220:Libraries/ctrl_drv/i2c/mpu6050/MPU6050.c **** 
2221:Libraries/ctrl_drv/i2c/mpu6050/MPU6050.c **** // MOT_DETECT_CTRL register
2222:Libraries/ctrl_drv/i2c/mpu6050/MPU6050.c **** 
2223:Libraries/ctrl_drv/i2c/mpu6050/MPU6050.c **** /** Get accelerometer power-on delay.
2224:Libraries/ctrl_drv/i2c/mpu6050/MPU6050.c ****  * The accelerometer data path provides samples to the sensor registers, Motion
2225:Libraries/ctrl_drv/i2c/mpu6050/MPU6050.c ****  * detection, Zero Motion detection, and Free Fall detection modules. The
2226:Libraries/ctrl_drv/i2c/mpu6050/MPU6050.c ****  * signal path contains filters which must be flushed on wake-up with new
2227:Libraries/ctrl_drv/i2c/mpu6050/MPU6050.c ****  * samples before the detection modules begin operations. The default wake-up
2228:Libraries/ctrl_drv/i2c/mpu6050/MPU6050.c ****  * delay, of 4ms can be lengthened by up to 3ms. This additional delay is
2229:Libraries/ctrl_drv/i2c/mpu6050/MPU6050.c ****  * specified in ACCEL_ON_DELAY in units of 1 LSB = 1 ms. The user may select
2230:Libraries/ctrl_drv/i2c/mpu6050/MPU6050.c ****  * any value above zero unless instructed otherwise by InvenSense. Please refer
2231:Libraries/ctrl_drv/i2c/mpu6050/MPU6050.c ****  * to Section 8 of the MPU-6000/MPU-6050 Product Specification document for
2232:Libraries/ctrl_drv/i2c/mpu6050/MPU6050.c ****  * further information regarding the detection modules.
ARM GAS  C:\Users\Mxuan\AppData\Local\Temp\ccfnFihP.s 			page 159


2233:Libraries/ctrl_drv/i2c/mpu6050/MPU6050.c ****  * @return Current accelerometer power-on delay
2234:Libraries/ctrl_drv/i2c/mpu6050/MPU6050.c ****  * @see MPU6050_RA_MOT_DETECT_CTRL
2235:Libraries/ctrl_drv/i2c/mpu6050/MPU6050.c ****  * @see MPU6050_DETECT_ACCEL_ON_DELAY_BIT
2236:Libraries/ctrl_drv/i2c/mpu6050/MPU6050.c ****  */
2237:Libraries/ctrl_drv/i2c/mpu6050/MPU6050.c **** uint8_t MPU6050_getAccelerometerPowerOnDelay() {
 7031              		.loc 1 2237 48 is_stmt 1 view -0
 7032              		.cfi_startproc
 7033              		@ args = 0, pretend = 0, frame = 0
 7034              		@ frame_needed = 0, uses_anonymous_args = 0
 7035 0000 10B5     		push	{r4, lr}
 7036              	.LCFI196:
 7037              		.cfi_def_cfa_offset 8
 7038              		.cfi_offset 4, -8
 7039              		.cfi_offset 14, -4
 7040 0002 82B0     		sub	sp, sp, #8
 7041              	.LCFI197:
 7042              		.cfi_def_cfa_offset 16
2238:Libraries/ctrl_drv/i2c/mpu6050/MPU6050.c ****     I2Cdev_readBits(mpu6050.devAddr, MPU6050_RA_MOT_DETECT_CTRL, MPU6050_DETECT_ACCEL_ON_DELAY_BIT,
 7043              		.loc 1 2238 5 view .LVU982
 7044 0004 064C     		ldr	r4, .L752
 7045 0006 2346     		mov	r3, r4
 7046 0008 13F8010B 		ldrb	r0, [r3], #1	@ zero_extendqisi2
 7047 000c 0093     		str	r3, [sp]
 7048 000e 0223     		movs	r3, #2
 7049 0010 0522     		movs	r2, #5
 7050 0012 6921     		movs	r1, #105
 7051 0014 FFF7FEFF 		bl	I2Cdev_readBits
 7052              	.LVL347:
2239:Libraries/ctrl_drv/i2c/mpu6050/MPU6050.c ****     return mpu6050.buffer[0];
 7053              		.loc 1 2239 5 view .LVU983
2240:Libraries/ctrl_drv/i2c/mpu6050/MPU6050.c **** }
 7054              		.loc 1 2240 1 is_stmt 0 view .LVU984
 7055 0018 6078     		ldrb	r0, [r4, #1]	@ zero_extendqisi2
 7056 001a 02B0     		add	sp, sp, #8
 7057              	.LCFI198:
 7058              		.cfi_def_cfa_offset 8
 7059              		@ sp needed
 7060 001c 10BD     		pop	{r4, pc}
 7061              	.L753:
 7062 001e 00BF     		.align	2
 7063              	.L752:
 7064 0020 00000000 		.word	mpu6050
 7065              		.cfi_endproc
 7066              	.LFE165:
 7068              		.section	.text.MPU6050_setAccelerometerPowerOnDelay,"ax",%progbits
 7069              		.align	1
 7070              		.global	MPU6050_setAccelerometerPowerOnDelay
 7071              		.syntax unified
 7072              		.thumb
 7073              		.thumb_func
 7075              	MPU6050_setAccelerometerPowerOnDelay:
 7076              	.LVL348:
 7077              	.LFB166:
2241:Libraries/ctrl_drv/i2c/mpu6050/MPU6050.c **** /** Set accelerometer power-on delay.
2242:Libraries/ctrl_drv/i2c/mpu6050/MPU6050.c ****  * @param delay New accelerometer power-on delay (0-3)
2243:Libraries/ctrl_drv/i2c/mpu6050/MPU6050.c ****  * @see getAccelerometerPowerOnDelay()
2244:Libraries/ctrl_drv/i2c/mpu6050/MPU6050.c ****  * @see MPU6050_RA_MOT_DETECT_CTRL
ARM GAS  C:\Users\Mxuan\AppData\Local\Temp\ccfnFihP.s 			page 160


2245:Libraries/ctrl_drv/i2c/mpu6050/MPU6050.c ****  * @see MPU6050_DETECT_ACCEL_ON_DELAY_BIT
2246:Libraries/ctrl_drv/i2c/mpu6050/MPU6050.c ****  */
2247:Libraries/ctrl_drv/i2c/mpu6050/MPU6050.c **** void MPU6050_setAccelerometerPowerOnDelay(uint8_t delay) {
 7078              		.loc 1 2247 58 is_stmt 1 view -0
 7079              		.cfi_startproc
 7080              		@ args = 0, pretend = 0, frame = 0
 7081              		@ frame_needed = 0, uses_anonymous_args = 0
 7082              		.loc 1 2247 58 is_stmt 0 view .LVU986
 7083 0000 00B5     		push	{lr}
 7084              	.LCFI199:
 7085              		.cfi_def_cfa_offset 4
 7086              		.cfi_offset 14, -4
 7087 0002 83B0     		sub	sp, sp, #12
 7088              	.LCFI200:
 7089              		.cfi_def_cfa_offset 16
2248:Libraries/ctrl_drv/i2c/mpu6050/MPU6050.c ****     I2Cdev_writeBits(mpu6050.devAddr, MPU6050_RA_MOT_DETECT_CTRL, MPU6050_DETECT_ACCEL_ON_DELAY_BIT
 7090              		.loc 1 2248 5 is_stmt 1 view .LVU987
 7091 0004 0090     		str	r0, [sp]
 7092 0006 0223     		movs	r3, #2
 7093 0008 0522     		movs	r2, #5
 7094 000a 6921     		movs	r1, #105
 7095 000c 0348     		ldr	r0, .L756
 7096              	.LVL349:
 7097              		.loc 1 2248 5 is_stmt 0 view .LVU988
 7098 000e 0078     		ldrb	r0, [r0]	@ zero_extendqisi2
 7099 0010 FFF7FEFF 		bl	I2Cdev_writeBits
 7100              	.LVL350:
2249:Libraries/ctrl_drv/i2c/mpu6050/MPU6050.c **** }
 7101              		.loc 1 2249 1 view .LVU989
 7102 0014 03B0     		add	sp, sp, #12
 7103              	.LCFI201:
 7104              		.cfi_def_cfa_offset 4
 7105              		@ sp needed
 7106 0016 5DF804FB 		ldr	pc, [sp], #4
 7107              	.L757:
 7108 001a 00BF     		.align	2
 7109              	.L756:
 7110 001c 00000000 		.word	mpu6050
 7111              		.cfi_endproc
 7112              	.LFE166:
 7114              		.section	.text.MPU6050_getFreefallDetectionCounterDecrement,"ax",%progbits
 7115              		.align	1
 7116              		.global	MPU6050_getFreefallDetectionCounterDecrement
 7117              		.syntax unified
 7118              		.thumb
 7119              		.thumb_func
 7121              	MPU6050_getFreefallDetectionCounterDecrement:
 7122              	.LFB167:
2250:Libraries/ctrl_drv/i2c/mpu6050/MPU6050.c **** /** Get Free Fall detection counter decrement configuration.
2251:Libraries/ctrl_drv/i2c/mpu6050/MPU6050.c ****  * Detection is registered by the Free Fall detection module after accelerometer
2252:Libraries/ctrl_drv/i2c/mpu6050/MPU6050.c ****  * measurements meet their respective threshold conditions over a specified
2253:Libraries/ctrl_drv/i2c/mpu6050/MPU6050.c ****  * number of samples. When the threshold conditions are met, the corresponding
2254:Libraries/ctrl_drv/i2c/mpu6050/MPU6050.c ****  * detection counter increments by 1. The user may control the rate at which the
2255:Libraries/ctrl_drv/i2c/mpu6050/MPU6050.c ****  * detection counter decrements when the threshold condition is not met by
2256:Libraries/ctrl_drv/i2c/mpu6050/MPU6050.c ****  * configuring FF_COUNT. The decrement rate can be set according to the
2257:Libraries/ctrl_drv/i2c/mpu6050/MPU6050.c ****  * following table:
2258:Libraries/ctrl_drv/i2c/mpu6050/MPU6050.c ****  *
ARM GAS  C:\Users\Mxuan\AppData\Local\Temp\ccfnFihP.s 			page 161


2259:Libraries/ctrl_drv/i2c/mpu6050/MPU6050.c ****  * <pre>
2260:Libraries/ctrl_drv/i2c/mpu6050/MPU6050.c ****  * FF_COUNT | Counter Decrement
2261:Libraries/ctrl_drv/i2c/mpu6050/MPU6050.c ****  * ---------+------------------
2262:Libraries/ctrl_drv/i2c/mpu6050/MPU6050.c ****  * 0        | Reset
2263:Libraries/ctrl_drv/i2c/mpu6050/MPU6050.c ****  * 1        | 1
2264:Libraries/ctrl_drv/i2c/mpu6050/MPU6050.c ****  * 2        | 2
2265:Libraries/ctrl_drv/i2c/mpu6050/MPU6050.c ****  * 3        | 4
2266:Libraries/ctrl_drv/i2c/mpu6050/MPU6050.c ****  * </pre>
2267:Libraries/ctrl_drv/i2c/mpu6050/MPU6050.c ****  *
2268:Libraries/ctrl_drv/i2c/mpu6050/MPU6050.c ****  * When FF_COUNT is configured to 0 (reset), any non-qualifying sample will
2269:Libraries/ctrl_drv/i2c/mpu6050/MPU6050.c ****  * reset the counter to 0. For further information on Free Fall detection,
2270:Libraries/ctrl_drv/i2c/mpu6050/MPU6050.c ****  * please refer to Registers 29 to 32.
2271:Libraries/ctrl_drv/i2c/mpu6050/MPU6050.c ****  *
2272:Libraries/ctrl_drv/i2c/mpu6050/MPU6050.c ****  * @return Current decrement configuration
2273:Libraries/ctrl_drv/i2c/mpu6050/MPU6050.c ****  * @see MPU6050_RA_MOT_DETECT_CTRL
2274:Libraries/ctrl_drv/i2c/mpu6050/MPU6050.c ****  * @see MPU6050_DETECT_FF_COUNT_BIT
2275:Libraries/ctrl_drv/i2c/mpu6050/MPU6050.c ****  */
2276:Libraries/ctrl_drv/i2c/mpu6050/MPU6050.c **** uint8_t MPU6050_getFreefallDetectionCounterDecrement() {
 7123              		.loc 1 2276 56 is_stmt 1 view -0
 7124              		.cfi_startproc
 7125              		@ args = 0, pretend = 0, frame = 0
 7126              		@ frame_needed = 0, uses_anonymous_args = 0
 7127 0000 10B5     		push	{r4, lr}
 7128              	.LCFI202:
 7129              		.cfi_def_cfa_offset 8
 7130              		.cfi_offset 4, -8
 7131              		.cfi_offset 14, -4
 7132 0002 82B0     		sub	sp, sp, #8
 7133              	.LCFI203:
 7134              		.cfi_def_cfa_offset 16
2277:Libraries/ctrl_drv/i2c/mpu6050/MPU6050.c ****     I2Cdev_readBits(mpu6050.devAddr, MPU6050_RA_MOT_DETECT_CTRL, MPU6050_DETECT_FF_COUNT_BIT, MPU60
 7135              		.loc 1 2277 5 view .LVU991
 7136 0004 064C     		ldr	r4, .L760
 7137 0006 2346     		mov	r3, r4
 7138 0008 13F8010B 		ldrb	r0, [r3], #1	@ zero_extendqisi2
 7139 000c 0093     		str	r3, [sp]
 7140 000e 0223     		movs	r3, #2
 7141 0010 0322     		movs	r2, #3
 7142 0012 6921     		movs	r1, #105
 7143 0014 FFF7FEFF 		bl	I2Cdev_readBits
 7144              	.LVL351:
2278:Libraries/ctrl_drv/i2c/mpu6050/MPU6050.c ****     return mpu6050.buffer[0];
 7145              		.loc 1 2278 5 view .LVU992
2279:Libraries/ctrl_drv/i2c/mpu6050/MPU6050.c **** }
 7146              		.loc 1 2279 1 is_stmt 0 view .LVU993
 7147 0018 6078     		ldrb	r0, [r4, #1]	@ zero_extendqisi2
 7148 001a 02B0     		add	sp, sp, #8
 7149              	.LCFI204:
 7150              		.cfi_def_cfa_offset 8
 7151              		@ sp needed
 7152 001c 10BD     		pop	{r4, pc}
 7153              	.L761:
 7154 001e 00BF     		.align	2
 7155              	.L760:
 7156 0020 00000000 		.word	mpu6050
 7157              		.cfi_endproc
 7158              	.LFE167:
ARM GAS  C:\Users\Mxuan\AppData\Local\Temp\ccfnFihP.s 			page 162


 7160              		.section	.text.MPU6050_setFreefallDetectionCounterDecrement,"ax",%progbits
 7161              		.align	1
 7162              		.global	MPU6050_setFreefallDetectionCounterDecrement
 7163              		.syntax unified
 7164              		.thumb
 7165              		.thumb_func
 7167              	MPU6050_setFreefallDetectionCounterDecrement:
 7168              	.LVL352:
 7169              	.LFB168:
2280:Libraries/ctrl_drv/i2c/mpu6050/MPU6050.c **** /** Set Free Fall detection counter decrement configuration.
2281:Libraries/ctrl_drv/i2c/mpu6050/MPU6050.c ****  * @param decrement New decrement configuration value
2282:Libraries/ctrl_drv/i2c/mpu6050/MPU6050.c ****  * @see getFreefallDetectionCounterDecrement()
2283:Libraries/ctrl_drv/i2c/mpu6050/MPU6050.c ****  * @see MPU6050_RA_MOT_DETECT_CTRL
2284:Libraries/ctrl_drv/i2c/mpu6050/MPU6050.c ****  * @see MPU6050_DETECT_FF_COUNT_BIT
2285:Libraries/ctrl_drv/i2c/mpu6050/MPU6050.c ****  */
2286:Libraries/ctrl_drv/i2c/mpu6050/MPU6050.c **** void MPU6050_setFreefallDetectionCounterDecrement(uint8_t decrement) {
 7170              		.loc 1 2286 70 is_stmt 1 view -0
 7171              		.cfi_startproc
 7172              		@ args = 0, pretend = 0, frame = 0
 7173              		@ frame_needed = 0, uses_anonymous_args = 0
 7174              		.loc 1 2286 70 is_stmt 0 view .LVU995
 7175 0000 00B5     		push	{lr}
 7176              	.LCFI205:
 7177              		.cfi_def_cfa_offset 4
 7178              		.cfi_offset 14, -4
 7179 0002 83B0     		sub	sp, sp, #12
 7180              	.LCFI206:
 7181              		.cfi_def_cfa_offset 16
2287:Libraries/ctrl_drv/i2c/mpu6050/MPU6050.c ****     I2Cdev_writeBits(mpu6050.devAddr, MPU6050_RA_MOT_DETECT_CTRL, MPU6050_DETECT_FF_COUNT_BIT, MPU6
 7182              		.loc 1 2287 5 is_stmt 1 view .LVU996
 7183 0004 0090     		str	r0, [sp]
 7184 0006 0223     		movs	r3, #2
 7185 0008 0322     		movs	r2, #3
 7186 000a 6921     		movs	r1, #105
 7187 000c 0348     		ldr	r0, .L764
 7188              	.LVL353:
 7189              		.loc 1 2287 5 is_stmt 0 view .LVU997
 7190 000e 0078     		ldrb	r0, [r0]	@ zero_extendqisi2
 7191 0010 FFF7FEFF 		bl	I2Cdev_writeBits
 7192              	.LVL354:
2288:Libraries/ctrl_drv/i2c/mpu6050/MPU6050.c **** }
 7193              		.loc 1 2288 1 view .LVU998
 7194 0014 03B0     		add	sp, sp, #12
 7195              	.LCFI207:
 7196              		.cfi_def_cfa_offset 4
 7197              		@ sp needed
 7198 0016 5DF804FB 		ldr	pc, [sp], #4
 7199              	.L765:
 7200 001a 00BF     		.align	2
 7201              	.L764:
 7202 001c 00000000 		.word	mpu6050
 7203              		.cfi_endproc
 7204              	.LFE168:
 7206              		.section	.text.MPU6050_getMotionDetectionCounterDecrement,"ax",%progbits
 7207              		.align	1
 7208              		.global	MPU6050_getMotionDetectionCounterDecrement
 7209              		.syntax unified
ARM GAS  C:\Users\Mxuan\AppData\Local\Temp\ccfnFihP.s 			page 163


 7210              		.thumb
 7211              		.thumb_func
 7213              	MPU6050_getMotionDetectionCounterDecrement:
 7214              	.LFB169:
2289:Libraries/ctrl_drv/i2c/mpu6050/MPU6050.c **** /** Get Motion detection counter decrement configuration.
2290:Libraries/ctrl_drv/i2c/mpu6050/MPU6050.c ****  * Detection is registered by the Motion detection module after accelerometer
2291:Libraries/ctrl_drv/i2c/mpu6050/MPU6050.c ****  * measurements meet their respective threshold conditions over a specified
2292:Libraries/ctrl_drv/i2c/mpu6050/MPU6050.c ****  * number of samples. When the threshold conditions are met, the corresponding
2293:Libraries/ctrl_drv/i2c/mpu6050/MPU6050.c ****  * detection counter increments by 1. The user may control the rate at which the
2294:Libraries/ctrl_drv/i2c/mpu6050/MPU6050.c ****  * detection counter decrements when the threshold condition is not met by
2295:Libraries/ctrl_drv/i2c/mpu6050/MPU6050.c ****  * configuring MOT_COUNT. The decrement rate can be set according to the
2296:Libraries/ctrl_drv/i2c/mpu6050/MPU6050.c ****  * following table:
2297:Libraries/ctrl_drv/i2c/mpu6050/MPU6050.c ****  *
2298:Libraries/ctrl_drv/i2c/mpu6050/MPU6050.c ****  * <pre>
2299:Libraries/ctrl_drv/i2c/mpu6050/MPU6050.c ****  * MOT_COUNT | Counter Decrement
2300:Libraries/ctrl_drv/i2c/mpu6050/MPU6050.c ****  * ----------+------------------
2301:Libraries/ctrl_drv/i2c/mpu6050/MPU6050.c ****  * 0         | Reset
2302:Libraries/ctrl_drv/i2c/mpu6050/MPU6050.c ****  * 1         | 1
2303:Libraries/ctrl_drv/i2c/mpu6050/MPU6050.c ****  * 2         | 2
2304:Libraries/ctrl_drv/i2c/mpu6050/MPU6050.c ****  * 3         | 4
2305:Libraries/ctrl_drv/i2c/mpu6050/MPU6050.c ****  * </pre>
2306:Libraries/ctrl_drv/i2c/mpu6050/MPU6050.c ****  *
2307:Libraries/ctrl_drv/i2c/mpu6050/MPU6050.c ****  * When MOT_COUNT is configured to 0 (reset), any non-qualifying sample will
2308:Libraries/ctrl_drv/i2c/mpu6050/MPU6050.c ****  * reset the counter to 0. For further information on Motion detection,
2309:Libraries/ctrl_drv/i2c/mpu6050/MPU6050.c ****  * please refer to Registers 29 to 32.
2310:Libraries/ctrl_drv/i2c/mpu6050/MPU6050.c ****  *
2311:Libraries/ctrl_drv/i2c/mpu6050/MPU6050.c ****  */
2312:Libraries/ctrl_drv/i2c/mpu6050/MPU6050.c **** uint8_t MPU6050_getMotionDetectionCounterDecrement() {
 7215              		.loc 1 2312 54 is_stmt 1 view -0
 7216              		.cfi_startproc
 7217              		@ args = 0, pretend = 0, frame = 0
 7218              		@ frame_needed = 0, uses_anonymous_args = 0
 7219 0000 10B5     		push	{r4, lr}
 7220              	.LCFI208:
 7221              		.cfi_def_cfa_offset 8
 7222              		.cfi_offset 4, -8
 7223              		.cfi_offset 14, -4
 7224 0002 82B0     		sub	sp, sp, #8
 7225              	.LCFI209:
 7226              		.cfi_def_cfa_offset 16
2313:Libraries/ctrl_drv/i2c/mpu6050/MPU6050.c ****     I2Cdev_readBits(mpu6050.devAddr, MPU6050_RA_MOT_DETECT_CTRL, MPU6050_DETECT_MOT_COUNT_BIT, MPU6
 7227              		.loc 1 2313 5 view .LVU1000
 7228 0004 064C     		ldr	r4, .L768
 7229 0006 2346     		mov	r3, r4
 7230 0008 13F8010B 		ldrb	r0, [r3], #1	@ zero_extendqisi2
 7231 000c 0093     		str	r3, [sp]
 7232 000e 0223     		movs	r3, #2
 7233 0010 0122     		movs	r2, #1
 7234 0012 6921     		movs	r1, #105
 7235 0014 FFF7FEFF 		bl	I2Cdev_readBits
 7236              	.LVL355:
2314:Libraries/ctrl_drv/i2c/mpu6050/MPU6050.c ****     return mpu6050.buffer[0];
 7237              		.loc 1 2314 5 view .LVU1001
2315:Libraries/ctrl_drv/i2c/mpu6050/MPU6050.c **** }
 7238              		.loc 1 2315 1 is_stmt 0 view .LVU1002
 7239 0018 6078     		ldrb	r0, [r4, #1]	@ zero_extendqisi2
 7240 001a 02B0     		add	sp, sp, #8
ARM GAS  C:\Users\Mxuan\AppData\Local\Temp\ccfnFihP.s 			page 164


 7241              	.LCFI210:
 7242              		.cfi_def_cfa_offset 8
 7243              		@ sp needed
 7244 001c 10BD     		pop	{r4, pc}
 7245              	.L769:
 7246 001e 00BF     		.align	2
 7247              	.L768:
 7248 0020 00000000 		.word	mpu6050
 7249              		.cfi_endproc
 7250              	.LFE169:
 7252              		.section	.text.MPU6050_setMotionDetectionCounterDecrement,"ax",%progbits
 7253              		.align	1
 7254              		.global	MPU6050_setMotionDetectionCounterDecrement
 7255              		.syntax unified
 7256              		.thumb
 7257              		.thumb_func
 7259              	MPU6050_setMotionDetectionCounterDecrement:
 7260              	.LVL356:
 7261              	.LFB170:
2316:Libraries/ctrl_drv/i2c/mpu6050/MPU6050.c **** /** Set Motion detection counter decrement configuration.
2317:Libraries/ctrl_drv/i2c/mpu6050/MPU6050.c ****  * @param decrement New decrement configuration value
2318:Libraries/ctrl_drv/i2c/mpu6050/MPU6050.c ****  * @see getMotionDetectionCounterDecrement()
2319:Libraries/ctrl_drv/i2c/mpu6050/MPU6050.c ****  * @see MPU6050_RA_MOT_DETECT_CTRL
2320:Libraries/ctrl_drv/i2c/mpu6050/MPU6050.c ****  * @see MPU6050_DETECT_MOT_COUNT_BIT
2321:Libraries/ctrl_drv/i2c/mpu6050/MPU6050.c ****  */
2322:Libraries/ctrl_drv/i2c/mpu6050/MPU6050.c **** void MPU6050_setMotionDetectionCounterDecrement(uint8_t decrement) {
 7262              		.loc 1 2322 68 is_stmt 1 view -0
 7263              		.cfi_startproc
 7264              		@ args = 0, pretend = 0, frame = 0
 7265              		@ frame_needed = 0, uses_anonymous_args = 0
 7266              		.loc 1 2322 68 is_stmt 0 view .LVU1004
 7267 0000 00B5     		push	{lr}
 7268              	.LCFI211:
 7269              		.cfi_def_cfa_offset 4
 7270              		.cfi_offset 14, -4
 7271 0002 83B0     		sub	sp, sp, #12
 7272              	.LCFI212:
 7273              		.cfi_def_cfa_offset 16
2323:Libraries/ctrl_drv/i2c/mpu6050/MPU6050.c ****     I2Cdev_writeBits(mpu6050.devAddr, MPU6050_RA_MOT_DETECT_CTRL, MPU6050_DETECT_MOT_COUNT_BIT, MPU
 7274              		.loc 1 2323 5 is_stmt 1 view .LVU1005
 7275 0004 0090     		str	r0, [sp]
 7276 0006 0223     		movs	r3, #2
 7277 0008 0122     		movs	r2, #1
 7278 000a 6921     		movs	r1, #105
 7279 000c 0348     		ldr	r0, .L772
 7280              	.LVL357:
 7281              		.loc 1 2323 5 is_stmt 0 view .LVU1006
 7282 000e 0078     		ldrb	r0, [r0]	@ zero_extendqisi2
 7283 0010 FFF7FEFF 		bl	I2Cdev_writeBits
 7284              	.LVL358:
2324:Libraries/ctrl_drv/i2c/mpu6050/MPU6050.c **** }
 7285              		.loc 1 2324 1 view .LVU1007
 7286 0014 03B0     		add	sp, sp, #12
 7287              	.LCFI213:
 7288              		.cfi_def_cfa_offset 4
 7289              		@ sp needed
 7290 0016 5DF804FB 		ldr	pc, [sp], #4
ARM GAS  C:\Users\Mxuan\AppData\Local\Temp\ccfnFihP.s 			page 165


 7291              	.L773:
 7292 001a 00BF     		.align	2
 7293              	.L772:
 7294 001c 00000000 		.word	mpu6050
 7295              		.cfi_endproc
 7296              	.LFE170:
 7298              		.section	.text.MPU6050_getFIFOEnabled,"ax",%progbits
 7299              		.align	1
 7300              		.global	MPU6050_getFIFOEnabled
 7301              		.syntax unified
 7302              		.thumb
 7303              		.thumb_func
 7305              	MPU6050_getFIFOEnabled:
 7306              	.LFB171:
2325:Libraries/ctrl_drv/i2c/mpu6050/MPU6050.c **** 
2326:Libraries/ctrl_drv/i2c/mpu6050/MPU6050.c **** // USER_CTRL register
2327:Libraries/ctrl_drv/i2c/mpu6050/MPU6050.c **** 
2328:Libraries/ctrl_drv/i2c/mpu6050/MPU6050.c **** /** Get FIFO enabled status.
2329:Libraries/ctrl_drv/i2c/mpu6050/MPU6050.c ****  * When this bit is set to 0, the FIFO mpu6050.buffer is disabled. The FIFO mpu6050.buffer
2330:Libraries/ctrl_drv/i2c/mpu6050/MPU6050.c ****  * cannot be written to or read from while disabled. The FIFO mpu6050.buffer's state
2331:Libraries/ctrl_drv/i2c/mpu6050/MPU6050.c ****  * does not change unless the MPU-60X0 is power cycled.
2332:Libraries/ctrl_drv/i2c/mpu6050/MPU6050.c ****  * @return Current FIFO enabled status
2333:Libraries/ctrl_drv/i2c/mpu6050/MPU6050.c ****  * @see MPU6050_RA_USER_CTRL
2334:Libraries/ctrl_drv/i2c/mpu6050/MPU6050.c ****  * @see MPU6050_USERCTRL_FIFO_EN_BIT
2335:Libraries/ctrl_drv/i2c/mpu6050/MPU6050.c ****  */
2336:Libraries/ctrl_drv/i2c/mpu6050/MPU6050.c **** bool MPU6050_getFIFOEnabled() {
 7307              		.loc 1 2336 31 is_stmt 1 view -0
 7308              		.cfi_startproc
 7309              		@ args = 0, pretend = 0, frame = 0
 7310              		@ frame_needed = 0, uses_anonymous_args = 0
 7311 0000 10B5     		push	{r4, lr}
 7312              	.LCFI214:
 7313              		.cfi_def_cfa_offset 8
 7314              		.cfi_offset 4, -8
 7315              		.cfi_offset 14, -4
2337:Libraries/ctrl_drv/i2c/mpu6050/MPU6050.c ****     I2Cdev_readBit(mpu6050.devAddr, MPU6050_RA_USER_CTRL, MPU6050_USERCTRL_FIFO_EN_BIT, mpu6050.buf
 7316              		.loc 1 2337 5 view .LVU1009
 7317 0002 064B     		ldr	r3, .L776
 7318 0004 5C1E     		subs	r4, r3, #1
 7319 0006 0622     		movs	r2, #6
 7320 0008 6A21     		movs	r1, #106
 7321 000a 13F8010C 		ldrb	r0, [r3, #-1]	@ zero_extendqisi2
 7322 000e FFF7FEFF 		bl	I2Cdev_readBit
 7323              	.LVL359:
2338:Libraries/ctrl_drv/i2c/mpu6050/MPU6050.c ****     return mpu6050.buffer[0];
 7324              		.loc 1 2338 5 view .LVU1010
 7325              		.loc 1 2338 26 is_stmt 0 view .LVU1011
 7326 0012 6078     		ldrb	r0, [r4, #1]	@ zero_extendqisi2
2339:Libraries/ctrl_drv/i2c/mpu6050/MPU6050.c **** }
 7327              		.loc 1 2339 1 view .LVU1012
 7328 0014 0038     		subs	r0, r0, #0
 7329 0016 18BF     		it	ne
 7330 0018 0120     		movne	r0, #1
 7331 001a 10BD     		pop	{r4, pc}
 7332              	.L777:
 7333              		.align	2
 7334              	.L776:
ARM GAS  C:\Users\Mxuan\AppData\Local\Temp\ccfnFihP.s 			page 166


 7335 001c 01000000 		.word	mpu6050+1
 7336              		.cfi_endproc
 7337              	.LFE171:
 7339              		.section	.text.MPU6050_setFIFOEnabled,"ax",%progbits
 7340              		.align	1
 7341              		.global	MPU6050_setFIFOEnabled
 7342              		.syntax unified
 7343              		.thumb
 7344              		.thumb_func
 7346              	MPU6050_setFIFOEnabled:
 7347              	.LVL360:
 7348              	.LFB172:
2340:Libraries/ctrl_drv/i2c/mpu6050/MPU6050.c **** /** Set FIFO enabled status.
2341:Libraries/ctrl_drv/i2c/mpu6050/MPU6050.c ****  * @param enabled New FIFO enabled status
2342:Libraries/ctrl_drv/i2c/mpu6050/MPU6050.c ****  * @see getFIFOEnabled()
2343:Libraries/ctrl_drv/i2c/mpu6050/MPU6050.c ****  * @see MPU6050_RA_USER_CTRL
2344:Libraries/ctrl_drv/i2c/mpu6050/MPU6050.c ****  * @see MPU6050_USERCTRL_FIFO_EN_BIT
2345:Libraries/ctrl_drv/i2c/mpu6050/MPU6050.c ****  */
2346:Libraries/ctrl_drv/i2c/mpu6050/MPU6050.c **** void MPU6050_setFIFOEnabled(bool enabled) {
 7349              		.loc 1 2346 43 is_stmt 1 view -0
 7350              		.cfi_startproc
 7351              		@ args = 0, pretend = 0, frame = 0
 7352              		@ frame_needed = 0, uses_anonymous_args = 0
 7353              		.loc 1 2346 43 is_stmt 0 view .LVU1014
 7354 0000 08B5     		push	{r3, lr}
 7355              	.LCFI215:
 7356              		.cfi_def_cfa_offset 8
 7357              		.cfi_offset 3, -8
 7358              		.cfi_offset 14, -4
 7359 0002 0346     		mov	r3, r0
2347:Libraries/ctrl_drv/i2c/mpu6050/MPU6050.c ****     I2Cdev_writeBit(mpu6050.devAddr, MPU6050_RA_USER_CTRL, MPU6050_USERCTRL_FIFO_EN_BIT, enabled);
 7360              		.loc 1 2347 5 is_stmt 1 view .LVU1015
 7361 0004 0622     		movs	r2, #6
 7362 0006 6A21     		movs	r1, #106
 7363 0008 0248     		ldr	r0, .L780
 7364              	.LVL361:
 7365              		.loc 1 2347 5 is_stmt 0 view .LVU1016
 7366 000a 0078     		ldrb	r0, [r0]	@ zero_extendqisi2
 7367 000c FFF7FEFF 		bl	I2Cdev_writeBit
 7368              	.LVL362:
2348:Libraries/ctrl_drv/i2c/mpu6050/MPU6050.c **** }
 7369              		.loc 1 2348 1 view .LVU1017
 7370 0010 08BD     		pop	{r3, pc}
 7371              	.L781:
 7372 0012 00BF     		.align	2
 7373              	.L780:
 7374 0014 00000000 		.word	mpu6050
 7375              		.cfi_endproc
 7376              	.LFE172:
 7378              		.section	.text.MPU6050_getI2CMasterModeEnabled,"ax",%progbits
 7379              		.align	1
 7380              		.global	MPU6050_getI2CMasterModeEnabled
 7381              		.syntax unified
 7382              		.thumb
 7383              		.thumb_func
 7385              	MPU6050_getI2CMasterModeEnabled:
 7386              	.LFB173:
ARM GAS  C:\Users\Mxuan\AppData\Local\Temp\ccfnFihP.s 			page 167


2349:Libraries/ctrl_drv/i2c/mpu6050/MPU6050.c **** /** Get I2C Master Mode enabled status.
2350:Libraries/ctrl_drv/i2c/mpu6050/MPU6050.c ****  * When this mode is enabled, the MPU-60X0 acts as the I2C Master to the
2351:Libraries/ctrl_drv/i2c/mpu6050/MPU6050.c ****  * external sensor slave devices on the auxiliary I2C bus. When this bit is
2352:Libraries/ctrl_drv/i2c/mpu6050/MPU6050.c ****  * cleared to 0, the auxiliary I2C bus lines (AUX_DA and AUX_CL) are logically
2353:Libraries/ctrl_drv/i2c/mpu6050/MPU6050.c ****  * driven by the primary I2C bus (SDA and SCL). This is a precondition to
2354:Libraries/ctrl_drv/i2c/mpu6050/MPU6050.c ****  * enabling Bypass Mode. For further information regarding Bypass Mode, please
2355:Libraries/ctrl_drv/i2c/mpu6050/MPU6050.c ****  * refer to Register 55.
2356:Libraries/ctrl_drv/i2c/mpu6050/MPU6050.c ****  * @return Current I2C Master Mode enabled status
2357:Libraries/ctrl_drv/i2c/mpu6050/MPU6050.c ****  * @see MPU6050_RA_USER_CTRL
2358:Libraries/ctrl_drv/i2c/mpu6050/MPU6050.c ****  * @see MPU6050_USERCTRL_I2C_MST_EN_BIT
2359:Libraries/ctrl_drv/i2c/mpu6050/MPU6050.c ****  */
2360:Libraries/ctrl_drv/i2c/mpu6050/MPU6050.c **** bool MPU6050_getI2CMasterModeEnabled() {
 7387              		.loc 1 2360 40 is_stmt 1 view -0
 7388              		.cfi_startproc
 7389              		@ args = 0, pretend = 0, frame = 0
 7390              		@ frame_needed = 0, uses_anonymous_args = 0
 7391 0000 10B5     		push	{r4, lr}
 7392              	.LCFI216:
 7393              		.cfi_def_cfa_offset 8
 7394              		.cfi_offset 4, -8
 7395              		.cfi_offset 14, -4
2361:Libraries/ctrl_drv/i2c/mpu6050/MPU6050.c ****     I2Cdev_readBit(mpu6050.devAddr, MPU6050_RA_USER_CTRL, MPU6050_USERCTRL_I2C_MST_EN_BIT, mpu6050.
 7396              		.loc 1 2361 5 view .LVU1019
 7397 0002 064B     		ldr	r3, .L784
 7398 0004 5C1E     		subs	r4, r3, #1
 7399 0006 0522     		movs	r2, #5
 7400 0008 6A21     		movs	r1, #106
 7401 000a 13F8010C 		ldrb	r0, [r3, #-1]	@ zero_extendqisi2
 7402 000e FFF7FEFF 		bl	I2Cdev_readBit
 7403              	.LVL363:
2362:Libraries/ctrl_drv/i2c/mpu6050/MPU6050.c ****     return mpu6050.buffer[0];
 7404              		.loc 1 2362 5 view .LVU1020
 7405              		.loc 1 2362 26 is_stmt 0 view .LVU1021
 7406 0012 6078     		ldrb	r0, [r4, #1]	@ zero_extendqisi2
2363:Libraries/ctrl_drv/i2c/mpu6050/MPU6050.c **** }
 7407              		.loc 1 2363 1 view .LVU1022
 7408 0014 0038     		subs	r0, r0, #0
 7409 0016 18BF     		it	ne
 7410 0018 0120     		movne	r0, #1
 7411 001a 10BD     		pop	{r4, pc}
 7412              	.L785:
 7413              		.align	2
 7414              	.L784:
 7415 001c 01000000 		.word	mpu6050+1
 7416              		.cfi_endproc
 7417              	.LFE173:
 7419              		.section	.text.MPU6050_setI2CMasterModeEnabled,"ax",%progbits
 7420              		.align	1
 7421              		.global	MPU6050_setI2CMasterModeEnabled
 7422              		.syntax unified
 7423              		.thumb
 7424              		.thumb_func
 7426              	MPU6050_setI2CMasterModeEnabled:
 7427              	.LVL364:
 7428              	.LFB174:
2364:Libraries/ctrl_drv/i2c/mpu6050/MPU6050.c **** /** Set I2C Master Mode enabled status.
2365:Libraries/ctrl_drv/i2c/mpu6050/MPU6050.c ****  * @param enabled New I2C Master Mode enabled status
ARM GAS  C:\Users\Mxuan\AppData\Local\Temp\ccfnFihP.s 			page 168


2366:Libraries/ctrl_drv/i2c/mpu6050/MPU6050.c ****  * @see getI2CMasterModeEnabled()
2367:Libraries/ctrl_drv/i2c/mpu6050/MPU6050.c ****  * @see MPU6050_RA_USER_CTRL
2368:Libraries/ctrl_drv/i2c/mpu6050/MPU6050.c ****  * @see MPU6050_USERCTRL_I2C_MST_EN_BIT
2369:Libraries/ctrl_drv/i2c/mpu6050/MPU6050.c ****  */
2370:Libraries/ctrl_drv/i2c/mpu6050/MPU6050.c **** void MPU6050_setI2CMasterModeEnabled(bool enabled) {
 7429              		.loc 1 2370 52 is_stmt 1 view -0
 7430              		.cfi_startproc
 7431              		@ args = 0, pretend = 0, frame = 0
 7432              		@ frame_needed = 0, uses_anonymous_args = 0
 7433              		.loc 1 2370 52 is_stmt 0 view .LVU1024
 7434 0000 08B5     		push	{r3, lr}
 7435              	.LCFI217:
 7436              		.cfi_def_cfa_offset 8
 7437              		.cfi_offset 3, -8
 7438              		.cfi_offset 14, -4
 7439 0002 0346     		mov	r3, r0
2371:Libraries/ctrl_drv/i2c/mpu6050/MPU6050.c ****     I2Cdev_writeBit(mpu6050.devAddr, MPU6050_RA_USER_CTRL, MPU6050_USERCTRL_I2C_MST_EN_BIT, enabled
 7440              		.loc 1 2371 5 is_stmt 1 view .LVU1025
 7441 0004 0522     		movs	r2, #5
 7442 0006 6A21     		movs	r1, #106
 7443 0008 0248     		ldr	r0, .L788
 7444              	.LVL365:
 7445              		.loc 1 2371 5 is_stmt 0 view .LVU1026
 7446 000a 0078     		ldrb	r0, [r0]	@ zero_extendqisi2
 7447 000c FFF7FEFF 		bl	I2Cdev_writeBit
 7448              	.LVL366:
2372:Libraries/ctrl_drv/i2c/mpu6050/MPU6050.c **** }
 7449              		.loc 1 2372 1 view .LVU1027
 7450 0010 08BD     		pop	{r3, pc}
 7451              	.L789:
 7452 0012 00BF     		.align	2
 7453              	.L788:
 7454 0014 00000000 		.word	mpu6050
 7455              		.cfi_endproc
 7456              	.LFE174:
 7458              		.section	.text.MPU6050_switchSPIEnabled,"ax",%progbits
 7459              		.align	1
 7460              		.global	MPU6050_switchSPIEnabled
 7461              		.syntax unified
 7462              		.thumb
 7463              		.thumb_func
 7465              	MPU6050_switchSPIEnabled:
 7466              	.LVL367:
 7467              	.LFB175:
2373:Libraries/ctrl_drv/i2c/mpu6050/MPU6050.c **** /** Switch from I2C to SPI mode (MPU-6000 only)
2374:Libraries/ctrl_drv/i2c/mpu6050/MPU6050.c ****  * If this is set, the primary SPI interface will be enabled in place of the
2375:Libraries/ctrl_drv/i2c/mpu6050/MPU6050.c ****  * disabled primary I2C interface.
2376:Libraries/ctrl_drv/i2c/mpu6050/MPU6050.c ****  */
2377:Libraries/ctrl_drv/i2c/mpu6050/MPU6050.c **** void MPU6050_switchSPIEnabled(bool enabled) {
 7468              		.loc 1 2377 45 is_stmt 1 view -0
 7469              		.cfi_startproc
 7470              		@ args = 0, pretend = 0, frame = 0
 7471              		@ frame_needed = 0, uses_anonymous_args = 0
 7472              		.loc 1 2377 45 is_stmt 0 view .LVU1029
 7473 0000 08B5     		push	{r3, lr}
 7474              	.LCFI218:
 7475              		.cfi_def_cfa_offset 8
ARM GAS  C:\Users\Mxuan\AppData\Local\Temp\ccfnFihP.s 			page 169


 7476              		.cfi_offset 3, -8
 7477              		.cfi_offset 14, -4
 7478 0002 0346     		mov	r3, r0
2378:Libraries/ctrl_drv/i2c/mpu6050/MPU6050.c ****     I2Cdev_writeBit(mpu6050.devAddr, MPU6050_RA_USER_CTRL, MPU6050_USERCTRL_I2C_IF_DIS_BIT, enabled
 7479              		.loc 1 2378 5 is_stmt 1 view .LVU1030
 7480 0004 0422     		movs	r2, #4
 7481 0006 6A21     		movs	r1, #106
 7482 0008 0248     		ldr	r0, .L792
 7483              	.LVL368:
 7484              		.loc 1 2378 5 is_stmt 0 view .LVU1031
 7485 000a 0078     		ldrb	r0, [r0]	@ zero_extendqisi2
 7486 000c FFF7FEFF 		bl	I2Cdev_writeBit
 7487              	.LVL369:
2379:Libraries/ctrl_drv/i2c/mpu6050/MPU6050.c **** }
 7488              		.loc 1 2379 1 view .LVU1032
 7489 0010 08BD     		pop	{r3, pc}
 7490              	.L793:
 7491 0012 00BF     		.align	2
 7492              	.L792:
 7493 0014 00000000 		.word	mpu6050
 7494              		.cfi_endproc
 7495              	.LFE175:
 7497              		.section	.text.MPU6050_resetFIFO,"ax",%progbits
 7498              		.align	1
 7499              		.global	MPU6050_resetFIFO
 7500              		.syntax unified
 7501              		.thumb
 7502              		.thumb_func
 7504              	MPU6050_resetFIFO:
 7505              	.LFB176:
2380:Libraries/ctrl_drv/i2c/mpu6050/MPU6050.c **** /** Reset the FIFO.
2381:Libraries/ctrl_drv/i2c/mpu6050/MPU6050.c ****  * This bit resets the FIFO mpu6050.buffer when set to 1 while FIFO_EN equals 0. This
2382:Libraries/ctrl_drv/i2c/mpu6050/MPU6050.c ****  * bit automatically clears to 0 after the reset has been triggered.
2383:Libraries/ctrl_drv/i2c/mpu6050/MPU6050.c ****  * @see MPU6050_RA_USER_CTRL
2384:Libraries/ctrl_drv/i2c/mpu6050/MPU6050.c ****  * @see MPU6050_USERCTRL_FIFO_RESET_BIT
2385:Libraries/ctrl_drv/i2c/mpu6050/MPU6050.c ****  */
2386:Libraries/ctrl_drv/i2c/mpu6050/MPU6050.c **** void MPU6050_resetFIFO() {
 7506              		.loc 1 2386 26 is_stmt 1 view -0
 7507              		.cfi_startproc
 7508              		@ args = 0, pretend = 0, frame = 0
 7509              		@ frame_needed = 0, uses_anonymous_args = 0
 7510 0000 08B5     		push	{r3, lr}
 7511              	.LCFI219:
 7512              		.cfi_def_cfa_offset 8
 7513              		.cfi_offset 3, -8
 7514              		.cfi_offset 14, -4
2387:Libraries/ctrl_drv/i2c/mpu6050/MPU6050.c ****     I2Cdev_writeBit(mpu6050.devAddr, MPU6050_RA_USER_CTRL, MPU6050_USERCTRL_FIFO_RESET_BIT, true);
 7515              		.loc 1 2387 5 view .LVU1034
 7516 0002 0123     		movs	r3, #1
 7517 0004 0222     		movs	r2, #2
 7518 0006 6A21     		movs	r1, #106
 7519 0008 0248     		ldr	r0, .L796
 7520 000a 0078     		ldrb	r0, [r0]	@ zero_extendqisi2
 7521 000c FFF7FEFF 		bl	I2Cdev_writeBit
 7522              	.LVL370:
2388:Libraries/ctrl_drv/i2c/mpu6050/MPU6050.c **** }
 7523              		.loc 1 2388 1 is_stmt 0 view .LVU1035
ARM GAS  C:\Users\Mxuan\AppData\Local\Temp\ccfnFihP.s 			page 170


 7524 0010 08BD     		pop	{r3, pc}
 7525              	.L797:
 7526 0012 00BF     		.align	2
 7527              	.L796:
 7528 0014 00000000 		.word	mpu6050
 7529              		.cfi_endproc
 7530              	.LFE176:
 7532              		.section	.text.MPU6050_resetI2CMaster,"ax",%progbits
 7533              		.align	1
 7534              		.global	MPU6050_resetI2CMaster
 7535              		.syntax unified
 7536              		.thumb
 7537              		.thumb_func
 7539              	MPU6050_resetI2CMaster:
 7540              	.LFB177:
2389:Libraries/ctrl_drv/i2c/mpu6050/MPU6050.c **** /** Reset the I2C Master.
2390:Libraries/ctrl_drv/i2c/mpu6050/MPU6050.c ****  * This bit resets the I2C Master when set to 1 while I2C_MST_EN equals 0.
2391:Libraries/ctrl_drv/i2c/mpu6050/MPU6050.c ****  * This bit automatically clears to 0 after the reset has been triggered.
2392:Libraries/ctrl_drv/i2c/mpu6050/MPU6050.c ****  * @see MPU6050_RA_USER_CTRL
2393:Libraries/ctrl_drv/i2c/mpu6050/MPU6050.c ****  * @see MPU6050_USERCTRL_I2C_MST_RESET_BIT
2394:Libraries/ctrl_drv/i2c/mpu6050/MPU6050.c ****  */
2395:Libraries/ctrl_drv/i2c/mpu6050/MPU6050.c **** void MPU6050_resetI2CMaster() {
 7541              		.loc 1 2395 31 is_stmt 1 view -0
 7542              		.cfi_startproc
 7543              		@ args = 0, pretend = 0, frame = 0
 7544              		@ frame_needed = 0, uses_anonymous_args = 0
 7545 0000 08B5     		push	{r3, lr}
 7546              	.LCFI220:
 7547              		.cfi_def_cfa_offset 8
 7548              		.cfi_offset 3, -8
 7549              		.cfi_offset 14, -4
2396:Libraries/ctrl_drv/i2c/mpu6050/MPU6050.c ****     I2Cdev_writeBit(mpu6050.devAddr, MPU6050_RA_USER_CTRL, MPU6050_USERCTRL_I2C_MST_RESET_BIT, true
 7550              		.loc 1 2396 5 view .LVU1037
 7551 0002 0123     		movs	r3, #1
 7552 0004 1A46     		mov	r2, r3
 7553 0006 6A21     		movs	r1, #106
 7554 0008 0248     		ldr	r0, .L800
 7555 000a 0078     		ldrb	r0, [r0]	@ zero_extendqisi2
 7556 000c FFF7FEFF 		bl	I2Cdev_writeBit
 7557              	.LVL371:
2397:Libraries/ctrl_drv/i2c/mpu6050/MPU6050.c **** }
 7558              		.loc 1 2397 1 is_stmt 0 view .LVU1038
 7559 0010 08BD     		pop	{r3, pc}
 7560              	.L801:
 7561 0012 00BF     		.align	2
 7562              	.L800:
 7563 0014 00000000 		.word	mpu6050
 7564              		.cfi_endproc
 7565              	.LFE177:
 7567              		.section	.text.MPU6050_resetSensors,"ax",%progbits
 7568              		.align	1
 7569              		.global	MPU6050_resetSensors
 7570              		.syntax unified
 7571              		.thumb
 7572              		.thumb_func
 7574              	MPU6050_resetSensors:
 7575              	.LFB178:
ARM GAS  C:\Users\Mxuan\AppData\Local\Temp\ccfnFihP.s 			page 171


2398:Libraries/ctrl_drv/i2c/mpu6050/MPU6050.c **** /** Reset all sensor registers and signal paths.
2399:Libraries/ctrl_drv/i2c/mpu6050/MPU6050.c ****  * When set to 1, this bit resets the signal paths for all sensors (gyroscopes,
2400:Libraries/ctrl_drv/i2c/mpu6050/MPU6050.c ****  * accelerometers, and temperature sensor). This operation will also clear the
2401:Libraries/ctrl_drv/i2c/mpu6050/MPU6050.c ****  * sensor registers. This bit automatically clears to 0 after the reset has been
2402:Libraries/ctrl_drv/i2c/mpu6050/MPU6050.c ****  * triggered.
2403:Libraries/ctrl_drv/i2c/mpu6050/MPU6050.c ****  *
2404:Libraries/ctrl_drv/i2c/mpu6050/MPU6050.c ****  * When resetting only the signal path (and not the sensor registers), please
2405:Libraries/ctrl_drv/i2c/mpu6050/MPU6050.c ****  * use Register 104, SIGNAL_PATH_RESET.
2406:Libraries/ctrl_drv/i2c/mpu6050/MPU6050.c ****  *
2407:Libraries/ctrl_drv/i2c/mpu6050/MPU6050.c ****  * @see MPU6050_RA_USER_CTRL
2408:Libraries/ctrl_drv/i2c/mpu6050/MPU6050.c ****  * @see MPU6050_USERCTRL_SIG_COND_RESET_BIT
2409:Libraries/ctrl_drv/i2c/mpu6050/MPU6050.c ****  */
2410:Libraries/ctrl_drv/i2c/mpu6050/MPU6050.c **** void MPU6050_resetSensors() {
 7576              		.loc 1 2410 29 is_stmt 1 view -0
 7577              		.cfi_startproc
 7578              		@ args = 0, pretend = 0, frame = 0
 7579              		@ frame_needed = 0, uses_anonymous_args = 0
 7580 0000 08B5     		push	{r3, lr}
 7581              	.LCFI221:
 7582              		.cfi_def_cfa_offset 8
 7583              		.cfi_offset 3, -8
 7584              		.cfi_offset 14, -4
2411:Libraries/ctrl_drv/i2c/mpu6050/MPU6050.c ****     I2Cdev_writeBit(mpu6050.devAddr, MPU6050_RA_USER_CTRL, MPU6050_USERCTRL_SIG_COND_RESET_BIT, tru
 7585              		.loc 1 2411 5 view .LVU1040
 7586 0002 0123     		movs	r3, #1
 7587 0004 0022     		movs	r2, #0
 7588 0006 6A21     		movs	r1, #106
 7589 0008 0248     		ldr	r0, .L804
 7590 000a 0078     		ldrb	r0, [r0]	@ zero_extendqisi2
 7591 000c FFF7FEFF 		bl	I2Cdev_writeBit
 7592              	.LVL372:
2412:Libraries/ctrl_drv/i2c/mpu6050/MPU6050.c **** }
 7593              		.loc 1 2412 1 is_stmt 0 view .LVU1041
 7594 0010 08BD     		pop	{r3, pc}
 7595              	.L805:
 7596 0012 00BF     		.align	2
 7597              	.L804:
 7598 0014 00000000 		.word	mpu6050
 7599              		.cfi_endproc
 7600              	.LFE178:
 7602              		.section	.text.MPU6050_reset,"ax",%progbits
 7603              		.align	1
 7604              		.global	MPU6050_reset
 7605              		.syntax unified
 7606              		.thumb
 7607              		.thumb_func
 7609              	MPU6050_reset:
 7610              	.LFB179:
2413:Libraries/ctrl_drv/i2c/mpu6050/MPU6050.c **** 
2414:Libraries/ctrl_drv/i2c/mpu6050/MPU6050.c **** // PWR_MGMT_1 register
2415:Libraries/ctrl_drv/i2c/mpu6050/MPU6050.c **** 
2416:Libraries/ctrl_drv/i2c/mpu6050/MPU6050.c **** /** Trigger a full device reset.
2417:Libraries/ctrl_drv/i2c/mpu6050/MPU6050.c ****  * A small delay of ~50ms may be desirable after triggering a reset.
2418:Libraries/ctrl_drv/i2c/mpu6050/MPU6050.c ****  * @see MPU6050_RA_PWR_MGMT_1
2419:Libraries/ctrl_drv/i2c/mpu6050/MPU6050.c ****  * @see MPU6050_PWR1_DEVICE_RESET_BIT
2420:Libraries/ctrl_drv/i2c/mpu6050/MPU6050.c ****  */
2421:Libraries/ctrl_drv/i2c/mpu6050/MPU6050.c **** void MPU6050_reset() {
ARM GAS  C:\Users\Mxuan\AppData\Local\Temp\ccfnFihP.s 			page 172


 7611              		.loc 1 2421 22 is_stmt 1 view -0
 7612              		.cfi_startproc
 7613              		@ args = 0, pretend = 0, frame = 0
 7614              		@ frame_needed = 0, uses_anonymous_args = 0
 7615 0000 08B5     		push	{r3, lr}
 7616              	.LCFI222:
 7617              		.cfi_def_cfa_offset 8
 7618              		.cfi_offset 3, -8
 7619              		.cfi_offset 14, -4
2422:Libraries/ctrl_drv/i2c/mpu6050/MPU6050.c ****     I2Cdev_writeBit(mpu6050.devAddr, MPU6050_RA_PWR_MGMT_1, MPU6050_PWR1_DEVICE_RESET_BIT, true);
 7620              		.loc 1 2422 5 view .LVU1043
 7621 0002 0123     		movs	r3, #1
 7622 0004 0722     		movs	r2, #7
 7623 0006 6B21     		movs	r1, #107
 7624 0008 0248     		ldr	r0, .L808
 7625 000a 0078     		ldrb	r0, [r0]	@ zero_extendqisi2
 7626 000c FFF7FEFF 		bl	I2Cdev_writeBit
 7627              	.LVL373:
2423:Libraries/ctrl_drv/i2c/mpu6050/MPU6050.c **** }
 7628              		.loc 1 2423 1 is_stmt 0 view .LVU1044
 7629 0010 08BD     		pop	{r3, pc}
 7630              	.L809:
 7631 0012 00BF     		.align	2
 7632              	.L808:
 7633 0014 00000000 		.word	mpu6050
 7634              		.cfi_endproc
 7635              	.LFE179:
 7637              		.section	.text.MPU6050_getSleepEnabled,"ax",%progbits
 7638              		.align	1
 7639              		.global	MPU6050_getSleepEnabled
 7640              		.syntax unified
 7641              		.thumb
 7642              		.thumb_func
 7644              	MPU6050_getSleepEnabled:
 7645              	.LFB180:
2424:Libraries/ctrl_drv/i2c/mpu6050/MPU6050.c **** /** Get sleep mode status.
2425:Libraries/ctrl_drv/i2c/mpu6050/MPU6050.c ****  * Setting the SLEEP bit in the register puts the device into very low power
2426:Libraries/ctrl_drv/i2c/mpu6050/MPU6050.c ****  * sleep mode. In this mode, only the serial interface and internal registers
2427:Libraries/ctrl_drv/i2c/mpu6050/MPU6050.c ****  * remain active, allowing for a very low standby current. Clearing this bit
2428:Libraries/ctrl_drv/i2c/mpu6050/MPU6050.c ****  * puts the device back into normal mode. To save power, the individual standby
2429:Libraries/ctrl_drv/i2c/mpu6050/MPU6050.c ****  * selections for each of the gyros should be used if any gyro axis is not used
2430:Libraries/ctrl_drv/i2c/mpu6050/MPU6050.c ****  * by the application.
2431:Libraries/ctrl_drv/i2c/mpu6050/MPU6050.c ****  * @return Current sleep mode enabled status
2432:Libraries/ctrl_drv/i2c/mpu6050/MPU6050.c ****  * @see MPU6050_RA_PWR_MGMT_1
2433:Libraries/ctrl_drv/i2c/mpu6050/MPU6050.c ****  * @see MPU6050_PWR1_SLEEP_BIT
2434:Libraries/ctrl_drv/i2c/mpu6050/MPU6050.c ****  */
2435:Libraries/ctrl_drv/i2c/mpu6050/MPU6050.c **** bool MPU6050_getSleepEnabled() {
 7646              		.loc 1 2435 32 is_stmt 1 view -0
 7647              		.cfi_startproc
 7648              		@ args = 0, pretend = 0, frame = 0
 7649              		@ frame_needed = 0, uses_anonymous_args = 0
 7650 0000 10B5     		push	{r4, lr}
 7651              	.LCFI223:
 7652              		.cfi_def_cfa_offset 8
 7653              		.cfi_offset 4, -8
 7654              		.cfi_offset 14, -4
2436:Libraries/ctrl_drv/i2c/mpu6050/MPU6050.c ****     I2Cdev_readBit(mpu6050.devAddr, MPU6050_RA_PWR_MGMT_1, MPU6050_PWR1_SLEEP_BIT, mpu6050.buffer);
ARM GAS  C:\Users\Mxuan\AppData\Local\Temp\ccfnFihP.s 			page 173


 7655              		.loc 1 2436 5 view .LVU1046
 7656 0002 064B     		ldr	r3, .L812
 7657 0004 5C1E     		subs	r4, r3, #1
 7658 0006 0622     		movs	r2, #6
 7659 0008 6B21     		movs	r1, #107
 7660 000a 13F8010C 		ldrb	r0, [r3, #-1]	@ zero_extendqisi2
 7661 000e FFF7FEFF 		bl	I2Cdev_readBit
 7662              	.LVL374:
2437:Libraries/ctrl_drv/i2c/mpu6050/MPU6050.c ****     return mpu6050.buffer[0];
 7663              		.loc 1 2437 5 view .LVU1047
 7664              		.loc 1 2437 26 is_stmt 0 view .LVU1048
 7665 0012 6078     		ldrb	r0, [r4, #1]	@ zero_extendqisi2
2438:Libraries/ctrl_drv/i2c/mpu6050/MPU6050.c **** }
 7666              		.loc 1 2438 1 view .LVU1049
 7667 0014 0038     		subs	r0, r0, #0
 7668 0016 18BF     		it	ne
 7669 0018 0120     		movne	r0, #1
 7670 001a 10BD     		pop	{r4, pc}
 7671              	.L813:
 7672              		.align	2
 7673              	.L812:
 7674 001c 01000000 		.word	mpu6050+1
 7675              		.cfi_endproc
 7676              	.LFE180:
 7678              		.section	.text.MPU6050_setSleepEnabled,"ax",%progbits
 7679              		.align	1
 7680              		.global	MPU6050_setSleepEnabled
 7681              		.syntax unified
 7682              		.thumb
 7683              		.thumb_func
 7685              	MPU6050_setSleepEnabled:
 7686              	.LVL375:
 7687              	.LFB181:
2439:Libraries/ctrl_drv/i2c/mpu6050/MPU6050.c **** /** Set sleep mode status.
2440:Libraries/ctrl_drv/i2c/mpu6050/MPU6050.c ****  * @param enabled New sleep mode enabled status
2441:Libraries/ctrl_drv/i2c/mpu6050/MPU6050.c ****  * @see getSleepEnabled()
2442:Libraries/ctrl_drv/i2c/mpu6050/MPU6050.c ****  * @see MPU6050_RA_PWR_MGMT_1
2443:Libraries/ctrl_drv/i2c/mpu6050/MPU6050.c ****  * @see MPU6050_PWR1_SLEEP_BIT
2444:Libraries/ctrl_drv/i2c/mpu6050/MPU6050.c ****  */
2445:Libraries/ctrl_drv/i2c/mpu6050/MPU6050.c **** void MPU6050_setSleepEnabled(bool enabled) {
 7688              		.loc 1 2445 44 is_stmt 1 view -0
 7689              		.cfi_startproc
 7690              		@ args = 0, pretend = 0, frame = 0
 7691              		@ frame_needed = 0, uses_anonymous_args = 0
 7692              		.loc 1 2445 44 is_stmt 0 view .LVU1051
 7693 0000 08B5     		push	{r3, lr}
 7694              	.LCFI224:
 7695              		.cfi_def_cfa_offset 8
 7696              		.cfi_offset 3, -8
 7697              		.cfi_offset 14, -4
 7698 0002 0346     		mov	r3, r0
2446:Libraries/ctrl_drv/i2c/mpu6050/MPU6050.c ****     I2Cdev_writeBit(mpu6050.devAddr, MPU6050_RA_PWR_MGMT_1, MPU6050_PWR1_SLEEP_BIT, enabled);
 7699              		.loc 1 2446 5 is_stmt 1 view .LVU1052
 7700 0004 0622     		movs	r2, #6
 7701 0006 6B21     		movs	r1, #107
 7702 0008 0248     		ldr	r0, .L816
 7703              	.LVL376:
ARM GAS  C:\Users\Mxuan\AppData\Local\Temp\ccfnFihP.s 			page 174


 7704              		.loc 1 2446 5 is_stmt 0 view .LVU1053
 7705 000a 0078     		ldrb	r0, [r0]	@ zero_extendqisi2
 7706 000c FFF7FEFF 		bl	I2Cdev_writeBit
 7707              	.LVL377:
2447:Libraries/ctrl_drv/i2c/mpu6050/MPU6050.c **** }
 7708              		.loc 1 2447 1 view .LVU1054
 7709 0010 08BD     		pop	{r3, pc}
 7710              	.L817:
 7711 0012 00BF     		.align	2
 7712              	.L816:
 7713 0014 00000000 		.word	mpu6050
 7714              		.cfi_endproc
 7715              	.LFE181:
 7717              		.section	.text.MPU6050_getWakeCycleEnabled,"ax",%progbits
 7718              		.align	1
 7719              		.global	MPU6050_getWakeCycleEnabled
 7720              		.syntax unified
 7721              		.thumb
 7722              		.thumb_func
 7724              	MPU6050_getWakeCycleEnabled:
 7725              	.LFB182:
2448:Libraries/ctrl_drv/i2c/mpu6050/MPU6050.c **** /** Get wake cycle enabled status.
2449:Libraries/ctrl_drv/i2c/mpu6050/MPU6050.c ****  * When this bit is set to 1 and SLEEP is disabled, the MPU-60X0 will cycle
2450:Libraries/ctrl_drv/i2c/mpu6050/MPU6050.c ****  * between sleep mode and waking up to take a single sample of data from active
2451:Libraries/ctrl_drv/i2c/mpu6050/MPU6050.c ****  * sensors at a rate determined by LP_WAKE_CTRL (register 108).
2452:Libraries/ctrl_drv/i2c/mpu6050/MPU6050.c ****  * @return Current sleep mode enabled status
2453:Libraries/ctrl_drv/i2c/mpu6050/MPU6050.c ****  * @see MPU6050_RA_PWR_MGMT_1
2454:Libraries/ctrl_drv/i2c/mpu6050/MPU6050.c ****  * @see MPU6050_PWR1_CYCLE_BIT
2455:Libraries/ctrl_drv/i2c/mpu6050/MPU6050.c ****  */
2456:Libraries/ctrl_drv/i2c/mpu6050/MPU6050.c **** bool MPU6050_getWakeCycleEnabled() {
 7726              		.loc 1 2456 36 is_stmt 1 view -0
 7727              		.cfi_startproc
 7728              		@ args = 0, pretend = 0, frame = 0
 7729              		@ frame_needed = 0, uses_anonymous_args = 0
 7730 0000 10B5     		push	{r4, lr}
 7731              	.LCFI225:
 7732              		.cfi_def_cfa_offset 8
 7733              		.cfi_offset 4, -8
 7734              		.cfi_offset 14, -4
2457:Libraries/ctrl_drv/i2c/mpu6050/MPU6050.c ****     I2Cdev_readBit(mpu6050.devAddr, MPU6050_RA_PWR_MGMT_1, MPU6050_PWR1_CYCLE_BIT, mpu6050.buffer);
 7735              		.loc 1 2457 5 view .LVU1056
 7736 0002 064B     		ldr	r3, .L820
 7737 0004 5C1E     		subs	r4, r3, #1
 7738 0006 0522     		movs	r2, #5
 7739 0008 6B21     		movs	r1, #107
 7740 000a 13F8010C 		ldrb	r0, [r3, #-1]	@ zero_extendqisi2
 7741 000e FFF7FEFF 		bl	I2Cdev_readBit
 7742              	.LVL378:
2458:Libraries/ctrl_drv/i2c/mpu6050/MPU6050.c ****     return mpu6050.buffer[0];
 7743              		.loc 1 2458 5 view .LVU1057
 7744              		.loc 1 2458 26 is_stmt 0 view .LVU1058
 7745 0012 6078     		ldrb	r0, [r4, #1]	@ zero_extendqisi2
2459:Libraries/ctrl_drv/i2c/mpu6050/MPU6050.c **** }
 7746              		.loc 1 2459 1 view .LVU1059
 7747 0014 0038     		subs	r0, r0, #0
 7748 0016 18BF     		it	ne
 7749 0018 0120     		movne	r0, #1
ARM GAS  C:\Users\Mxuan\AppData\Local\Temp\ccfnFihP.s 			page 175


 7750 001a 10BD     		pop	{r4, pc}
 7751              	.L821:
 7752              		.align	2
 7753              	.L820:
 7754 001c 01000000 		.word	mpu6050+1
 7755              		.cfi_endproc
 7756              	.LFE182:
 7758              		.section	.text.MPU6050_setWakeCycleEnabled,"ax",%progbits
 7759              		.align	1
 7760              		.global	MPU6050_setWakeCycleEnabled
 7761              		.syntax unified
 7762              		.thumb
 7763              		.thumb_func
 7765              	MPU6050_setWakeCycleEnabled:
 7766              	.LVL379:
 7767              	.LFB183:
2460:Libraries/ctrl_drv/i2c/mpu6050/MPU6050.c **** /** Set wake cycle enabled status.
2461:Libraries/ctrl_drv/i2c/mpu6050/MPU6050.c ****  * @param enabled New sleep mode enabled status
2462:Libraries/ctrl_drv/i2c/mpu6050/MPU6050.c ****  * @see getWakeCycleEnabled()
2463:Libraries/ctrl_drv/i2c/mpu6050/MPU6050.c ****  * @see MPU6050_RA_PWR_MGMT_1
2464:Libraries/ctrl_drv/i2c/mpu6050/MPU6050.c ****  * @see MPU6050_PWR1_CYCLE_BIT
2465:Libraries/ctrl_drv/i2c/mpu6050/MPU6050.c ****  */
2466:Libraries/ctrl_drv/i2c/mpu6050/MPU6050.c **** void MPU6050_setWakeCycleEnabled(bool enabled) {
 7768              		.loc 1 2466 48 is_stmt 1 view -0
 7769              		.cfi_startproc
 7770              		@ args = 0, pretend = 0, frame = 0
 7771              		@ frame_needed = 0, uses_anonymous_args = 0
 7772              		.loc 1 2466 48 is_stmt 0 view .LVU1061
 7773 0000 08B5     		push	{r3, lr}
 7774              	.LCFI226:
 7775              		.cfi_def_cfa_offset 8
 7776              		.cfi_offset 3, -8
 7777              		.cfi_offset 14, -4
 7778 0002 0346     		mov	r3, r0
2467:Libraries/ctrl_drv/i2c/mpu6050/MPU6050.c ****     I2Cdev_writeBit(mpu6050.devAddr, MPU6050_RA_PWR_MGMT_1, MPU6050_PWR1_CYCLE_BIT, enabled);
 7779              		.loc 1 2467 5 is_stmt 1 view .LVU1062
 7780 0004 0522     		movs	r2, #5
 7781 0006 6B21     		movs	r1, #107
 7782 0008 0248     		ldr	r0, .L824
 7783              	.LVL380:
 7784              		.loc 1 2467 5 is_stmt 0 view .LVU1063
 7785 000a 0078     		ldrb	r0, [r0]	@ zero_extendqisi2
 7786 000c FFF7FEFF 		bl	I2Cdev_writeBit
 7787              	.LVL381:
2468:Libraries/ctrl_drv/i2c/mpu6050/MPU6050.c **** }
 7788              		.loc 1 2468 1 view .LVU1064
 7789 0010 08BD     		pop	{r3, pc}
 7790              	.L825:
 7791 0012 00BF     		.align	2
 7792              	.L824:
 7793 0014 00000000 		.word	mpu6050
 7794              		.cfi_endproc
 7795              	.LFE183:
 7797              		.section	.text.MPU6050_getTempSensorEnabled,"ax",%progbits
 7798              		.align	1
 7799              		.global	MPU6050_getTempSensorEnabled
 7800              		.syntax unified
ARM GAS  C:\Users\Mxuan\AppData\Local\Temp\ccfnFihP.s 			page 176


 7801              		.thumb
 7802              		.thumb_func
 7804              	MPU6050_getTempSensorEnabled:
 7805              	.LFB184:
2469:Libraries/ctrl_drv/i2c/mpu6050/MPU6050.c **** /** Get temperature sensor enabled status.
2470:Libraries/ctrl_drv/i2c/mpu6050/MPU6050.c ****  * Control the usage of the internal temperature sensor.
2471:Libraries/ctrl_drv/i2c/mpu6050/MPU6050.c ****  *
2472:Libraries/ctrl_drv/i2c/mpu6050/MPU6050.c ****  * Note: this register stores the *disabled* value, but for consistency with the
2473:Libraries/ctrl_drv/i2c/mpu6050/MPU6050.c ****  * rest of the code, the function is named and used with standard true/false
2474:Libraries/ctrl_drv/i2c/mpu6050/MPU6050.c ****  * values to indicate whether the sensor is enabled or disabled, respectively.
2475:Libraries/ctrl_drv/i2c/mpu6050/MPU6050.c ****  *
2476:Libraries/ctrl_drv/i2c/mpu6050/MPU6050.c ****  * @return Current temperature sensor enabled status
2477:Libraries/ctrl_drv/i2c/mpu6050/MPU6050.c ****  * @see MPU6050_RA_PWR_MGMT_1
2478:Libraries/ctrl_drv/i2c/mpu6050/MPU6050.c ****  * @see MPU6050_PWR1_TEMP_DIS_BIT
2479:Libraries/ctrl_drv/i2c/mpu6050/MPU6050.c ****  */
2480:Libraries/ctrl_drv/i2c/mpu6050/MPU6050.c **** bool MPU6050_getTempSensorEnabled() {
 7806              		.loc 1 2480 37 is_stmt 1 view -0
 7807              		.cfi_startproc
 7808              		@ args = 0, pretend = 0, frame = 0
 7809              		@ frame_needed = 0, uses_anonymous_args = 0
 7810 0000 10B5     		push	{r4, lr}
 7811              	.LCFI227:
 7812              		.cfi_def_cfa_offset 8
 7813              		.cfi_offset 4, -8
 7814              		.cfi_offset 14, -4
2481:Libraries/ctrl_drv/i2c/mpu6050/MPU6050.c ****     I2Cdev_readBit(mpu6050.devAddr, MPU6050_RA_PWR_MGMT_1, MPU6050_PWR1_TEMP_DIS_BIT, mpu6050.buffe
 7815              		.loc 1 2481 5 view .LVU1066
 7816 0002 064B     		ldr	r3, .L828
 7817 0004 5C1E     		subs	r4, r3, #1
 7818 0006 0322     		movs	r2, #3
 7819 0008 6B21     		movs	r1, #107
 7820 000a 13F8010C 		ldrb	r0, [r3, #-1]	@ zero_extendqisi2
 7821 000e FFF7FEFF 		bl	I2Cdev_readBit
 7822              	.LVL382:
2482:Libraries/ctrl_drv/i2c/mpu6050/MPU6050.c ****     return mpu6050.buffer[0] == 0; // 1 is actually disabled here
 7823              		.loc 1 2482 5 view .LVU1067
 7824              		.loc 1 2482 26 is_stmt 0 view .LVU1068
 7825 0012 6078     		ldrb	r0, [r4, #1]	@ zero_extendqisi2
2483:Libraries/ctrl_drv/i2c/mpu6050/MPU6050.c **** }
 7826              		.loc 1 2483 1 view .LVU1069
 7827 0014 B0FA80F0 		clz	r0, r0
 7828 0018 4009     		lsrs	r0, r0, #5
 7829 001a 10BD     		pop	{r4, pc}
 7830              	.L829:
 7831              		.align	2
 7832              	.L828:
 7833 001c 01000000 		.word	mpu6050+1
 7834              		.cfi_endproc
 7835              	.LFE184:
 7837              		.section	.text.MPU6050_setTempSensorEnabled,"ax",%progbits
 7838              		.align	1
 7839              		.global	MPU6050_setTempSensorEnabled
 7840              		.syntax unified
 7841              		.thumb
 7842              		.thumb_func
 7844              	MPU6050_setTempSensorEnabled:
 7845              	.LVL383:
ARM GAS  C:\Users\Mxuan\AppData\Local\Temp\ccfnFihP.s 			page 177


 7846              	.LFB185:
2484:Libraries/ctrl_drv/i2c/mpu6050/MPU6050.c **** /** Set temperature sensor enabled status.
2485:Libraries/ctrl_drv/i2c/mpu6050/MPU6050.c ****  * Note: this register stores the *disabled* value, but for consistency with the
2486:Libraries/ctrl_drv/i2c/mpu6050/MPU6050.c ****  * rest of the code, the function is named and used with standard true/false
2487:Libraries/ctrl_drv/i2c/mpu6050/MPU6050.c ****  * values to indicate whether the sensor is enabled or disabled, respectively.
2488:Libraries/ctrl_drv/i2c/mpu6050/MPU6050.c ****  *
2489:Libraries/ctrl_drv/i2c/mpu6050/MPU6050.c ****  * @param enabled New temperature sensor enabled status
2490:Libraries/ctrl_drv/i2c/mpu6050/MPU6050.c ****  * @see getTempSensorEnabled()
2491:Libraries/ctrl_drv/i2c/mpu6050/MPU6050.c ****  * @see MPU6050_RA_PWR_MGMT_1
2492:Libraries/ctrl_drv/i2c/mpu6050/MPU6050.c ****  * @see MPU6050_PWR1_TEMP_DIS_BIT
2493:Libraries/ctrl_drv/i2c/mpu6050/MPU6050.c ****  */
2494:Libraries/ctrl_drv/i2c/mpu6050/MPU6050.c **** void MPU6050_setTempSensorEnabled(bool enabled) {
 7847              		.loc 1 2494 49 is_stmt 1 view -0
 7848              		.cfi_startproc
 7849              		@ args = 0, pretend = 0, frame = 0
 7850              		@ frame_needed = 0, uses_anonymous_args = 0
 7851              		.loc 1 2494 49 is_stmt 0 view .LVU1071
 7852 0000 08B5     		push	{r3, lr}
 7853              	.LCFI228:
 7854              		.cfi_def_cfa_offset 8
 7855              		.cfi_offset 3, -8
 7856              		.cfi_offset 14, -4
2495:Libraries/ctrl_drv/i2c/mpu6050/MPU6050.c ****     // 1 is actually disabled here
2496:Libraries/ctrl_drv/i2c/mpu6050/MPU6050.c ****     I2Cdev_writeBit(mpu6050.devAddr, MPU6050_RA_PWR_MGMT_1, MPU6050_PWR1_TEMP_DIS_BIT, !enabled);
 7857              		.loc 1 2496 5 is_stmt 1 view .LVU1072
 7858 0002 80F00103 		eor	r3, r0, #1
 7859 0006 0322     		movs	r2, #3
 7860 0008 6B21     		movs	r1, #107
 7861 000a 0248     		ldr	r0, .L832
 7862              	.LVL384:
 7863              		.loc 1 2496 5 is_stmt 0 view .LVU1073
 7864 000c 0078     		ldrb	r0, [r0]	@ zero_extendqisi2
 7865 000e FFF7FEFF 		bl	I2Cdev_writeBit
 7866              	.LVL385:
2497:Libraries/ctrl_drv/i2c/mpu6050/MPU6050.c **** }
 7867              		.loc 1 2497 1 view .LVU1074
 7868 0012 08BD     		pop	{r3, pc}
 7869              	.L833:
 7870              		.align	2
 7871              	.L832:
 7872 0014 00000000 		.word	mpu6050
 7873              		.cfi_endproc
 7874              	.LFE185:
 7876              		.section	.text.MPU6050_getClockSource,"ax",%progbits
 7877              		.align	1
 7878              		.global	MPU6050_getClockSource
 7879              		.syntax unified
 7880              		.thumb
 7881              		.thumb_func
 7883              	MPU6050_getClockSource:
 7884              	.LFB186:
2498:Libraries/ctrl_drv/i2c/mpu6050/MPU6050.c **** /** Get clock source setting.
2499:Libraries/ctrl_drv/i2c/mpu6050/MPU6050.c ****  * @return Current clock source setting
2500:Libraries/ctrl_drv/i2c/mpu6050/MPU6050.c ****  * @see MPU6050_RA_PWR_MGMT_1
2501:Libraries/ctrl_drv/i2c/mpu6050/MPU6050.c ****  * @see MPU6050_PWR1_CLKSEL_BIT
2502:Libraries/ctrl_drv/i2c/mpu6050/MPU6050.c ****  * @see MPU6050_PWR1_CLKSEL_LENGTH
2503:Libraries/ctrl_drv/i2c/mpu6050/MPU6050.c ****  */
ARM GAS  C:\Users\Mxuan\AppData\Local\Temp\ccfnFihP.s 			page 178


2504:Libraries/ctrl_drv/i2c/mpu6050/MPU6050.c **** uint8_t MPU6050_getClockSource() {
 7885              		.loc 1 2504 34 is_stmt 1 view -0
 7886              		.cfi_startproc
 7887              		@ args = 0, pretend = 0, frame = 0
 7888              		@ frame_needed = 0, uses_anonymous_args = 0
 7889 0000 10B5     		push	{r4, lr}
 7890              	.LCFI229:
 7891              		.cfi_def_cfa_offset 8
 7892              		.cfi_offset 4, -8
 7893              		.cfi_offset 14, -4
 7894 0002 82B0     		sub	sp, sp, #8
 7895              	.LCFI230:
 7896              		.cfi_def_cfa_offset 16
2505:Libraries/ctrl_drv/i2c/mpu6050/MPU6050.c ****     I2Cdev_readBits(mpu6050.devAddr, MPU6050_RA_PWR_MGMT_1, MPU6050_PWR1_CLKSEL_BIT, MPU6050_PWR1_C
 7897              		.loc 1 2505 5 view .LVU1076
 7898 0004 064C     		ldr	r4, .L836
 7899 0006 2346     		mov	r3, r4
 7900 0008 13F8010B 		ldrb	r0, [r3], #1	@ zero_extendqisi2
 7901 000c 0093     		str	r3, [sp]
 7902 000e 0323     		movs	r3, #3
 7903 0010 0222     		movs	r2, #2
 7904 0012 6B21     		movs	r1, #107
 7905 0014 FFF7FEFF 		bl	I2Cdev_readBits
 7906              	.LVL386:
2506:Libraries/ctrl_drv/i2c/mpu6050/MPU6050.c ****     return mpu6050.buffer[0];
 7907              		.loc 1 2506 5 view .LVU1077
2507:Libraries/ctrl_drv/i2c/mpu6050/MPU6050.c **** }
 7908              		.loc 1 2507 1 is_stmt 0 view .LVU1078
 7909 0018 6078     		ldrb	r0, [r4, #1]	@ zero_extendqisi2
 7910 001a 02B0     		add	sp, sp, #8
 7911              	.LCFI231:
 7912              		.cfi_def_cfa_offset 8
 7913              		@ sp needed
 7914 001c 10BD     		pop	{r4, pc}
 7915              	.L837:
 7916 001e 00BF     		.align	2
 7917              	.L836:
 7918 0020 00000000 		.word	mpu6050
 7919              		.cfi_endproc
 7920              	.LFE186:
 7922              		.section	.text.MPU6050_setClockSource,"ax",%progbits
 7923              		.align	1
 7924              		.global	MPU6050_setClockSource
 7925              		.syntax unified
 7926              		.thumb
 7927              		.thumb_func
 7929              	MPU6050_setClockSource:
 7930              	.LVL387:
 7931              	.LFB187:
2508:Libraries/ctrl_drv/i2c/mpu6050/MPU6050.c **** /** Set clock source setting.
2509:Libraries/ctrl_drv/i2c/mpu6050/MPU6050.c ****  * An internal 8MHz oscillator, gyroscope based clock, or external sources can
2510:Libraries/ctrl_drv/i2c/mpu6050/MPU6050.c ****  * be selected as the MPU-60X0 clock source. When the internal 8 MHz oscillator
2511:Libraries/ctrl_drv/i2c/mpu6050/MPU6050.c ****  * or an external source is chosen as the clock source, the MPU-60X0 can operate
2512:Libraries/ctrl_drv/i2c/mpu6050/MPU6050.c ****  * in low power modes with the gyroscopes disabled.
2513:Libraries/ctrl_drv/i2c/mpu6050/MPU6050.c ****  *
2514:Libraries/ctrl_drv/i2c/mpu6050/MPU6050.c ****  * Upon power up, the MPU-60X0 clock source defaults to the internal oscillator.
2515:Libraries/ctrl_drv/i2c/mpu6050/MPU6050.c ****  * However, it is highly recommended that the device be configured to use one of
ARM GAS  C:\Users\Mxuan\AppData\Local\Temp\ccfnFihP.s 			page 179


2516:Libraries/ctrl_drv/i2c/mpu6050/MPU6050.c ****  * the gyroscopes (or an external clock source) as the clock reference for
2517:Libraries/ctrl_drv/i2c/mpu6050/MPU6050.c ****  * improved stability. The clock source can be selected according to the following table:
2518:Libraries/ctrl_drv/i2c/mpu6050/MPU6050.c ****  *
2519:Libraries/ctrl_drv/i2c/mpu6050/MPU6050.c ****  * <pre>
2520:Libraries/ctrl_drv/i2c/mpu6050/MPU6050.c ****  * CLK_SEL | Clock Source
2521:Libraries/ctrl_drv/i2c/mpu6050/MPU6050.c ****  * --------+--------------------------------------
2522:Libraries/ctrl_drv/i2c/mpu6050/MPU6050.c ****  * 0       | Internal oscillator
2523:Libraries/ctrl_drv/i2c/mpu6050/MPU6050.c ****  * 1       | PLL with X Gyro reference
2524:Libraries/ctrl_drv/i2c/mpu6050/MPU6050.c ****  * 2       | PLL with Y Gyro reference
2525:Libraries/ctrl_drv/i2c/mpu6050/MPU6050.c ****  * 3       | PLL with Z Gyro reference
2526:Libraries/ctrl_drv/i2c/mpu6050/MPU6050.c ****  * 4       | PLL with external 32.768kHz reference
2527:Libraries/ctrl_drv/i2c/mpu6050/MPU6050.c ****  * 5       | PLL with external 19.2MHz reference
2528:Libraries/ctrl_drv/i2c/mpu6050/MPU6050.c ****  * 6       | Reserved
2529:Libraries/ctrl_drv/i2c/mpu6050/MPU6050.c ****  * 7       | Stops the clock and keeps the timing generator in reset
2530:Libraries/ctrl_drv/i2c/mpu6050/MPU6050.c ****  * </pre>
2531:Libraries/ctrl_drv/i2c/mpu6050/MPU6050.c ****  *
2532:Libraries/ctrl_drv/i2c/mpu6050/MPU6050.c ****  * @param source New clock source setting
2533:Libraries/ctrl_drv/i2c/mpu6050/MPU6050.c ****  * @see getClockSource()
2534:Libraries/ctrl_drv/i2c/mpu6050/MPU6050.c ****  * @see MPU6050_RA_PWR_MGMT_1
2535:Libraries/ctrl_drv/i2c/mpu6050/MPU6050.c ****  * @see MPU6050_PWR1_CLKSEL_BIT
2536:Libraries/ctrl_drv/i2c/mpu6050/MPU6050.c ****  * @see MPU6050_PWR1_CLKSEL_LENGTH
2537:Libraries/ctrl_drv/i2c/mpu6050/MPU6050.c ****  */
2538:Libraries/ctrl_drv/i2c/mpu6050/MPU6050.c **** void MPU6050_setClockSource(uint8_t source) {
 7932              		.loc 1 2538 45 is_stmt 1 view -0
 7933              		.cfi_startproc
 7934              		@ args = 0, pretend = 0, frame = 0
 7935              		@ frame_needed = 0, uses_anonymous_args = 0
 7936              		.loc 1 2538 45 is_stmt 0 view .LVU1080
 7937 0000 00B5     		push	{lr}
 7938              	.LCFI232:
 7939              		.cfi_def_cfa_offset 4
 7940              		.cfi_offset 14, -4
 7941 0002 83B0     		sub	sp, sp, #12
 7942              	.LCFI233:
 7943              		.cfi_def_cfa_offset 16
2539:Libraries/ctrl_drv/i2c/mpu6050/MPU6050.c ****     I2Cdev_writeBits(mpu6050.devAddr, MPU6050_RA_PWR_MGMT_1, MPU6050_PWR1_CLKSEL_BIT, MPU6050_PWR1_
 7944              		.loc 1 2539 5 is_stmt 1 view .LVU1081
 7945 0004 0090     		str	r0, [sp]
 7946 0006 0323     		movs	r3, #3
 7947 0008 0222     		movs	r2, #2
 7948 000a 6B21     		movs	r1, #107
 7949 000c 0348     		ldr	r0, .L840
 7950              	.LVL388:
 7951              		.loc 1 2539 5 is_stmt 0 view .LVU1082
 7952 000e 0078     		ldrb	r0, [r0]	@ zero_extendqisi2
 7953 0010 FFF7FEFF 		bl	I2Cdev_writeBits
 7954              	.LVL389:
2540:Libraries/ctrl_drv/i2c/mpu6050/MPU6050.c **** }
 7955              		.loc 1 2540 1 view .LVU1083
 7956 0014 03B0     		add	sp, sp, #12
 7957              	.LCFI234:
 7958              		.cfi_def_cfa_offset 4
 7959              		@ sp needed
 7960 0016 5DF804FB 		ldr	pc, [sp], #4
 7961              	.L841:
 7962 001a 00BF     		.align	2
 7963              	.L840:
ARM GAS  C:\Users\Mxuan\AppData\Local\Temp\ccfnFihP.s 			page 180


 7964 001c 00000000 		.word	mpu6050
 7965              		.cfi_endproc
 7966              	.LFE187:
 7968              		.section	.text.MPU6050_initialize,"ax",%progbits
 7969              		.align	1
 7970              		.global	MPU6050_initialize
 7971              		.syntax unified
 7972              		.thumb
 7973              		.thumb_func
 7975              	MPU6050_initialize:
 7976              	.LFB1:
  71:Libraries/ctrl_drv/i2c/mpu6050/MPU6050.c ****     MPU6050(MPU6050_DEFAULT_ADDRESS);
 7977              		.loc 1 71 27 is_stmt 1 view -0
 7978              		.cfi_startproc
 7979              		@ args = 0, pretend = 0, frame = 0
 7980              		@ frame_needed = 0, uses_anonymous_args = 0
 7981 0000 08B5     		push	{r3, lr}
 7982              	.LCFI235:
 7983              		.cfi_def_cfa_offset 8
 7984              		.cfi_offset 3, -8
 7985              		.cfi_offset 14, -4
  72:Libraries/ctrl_drv/i2c/mpu6050/MPU6050.c ****     MPU6050_setSleepEnabled(false);         // thanks to Jack Elston for pointing this one out!
 7986              		.loc 1 72 5 view .LVU1085
 7987 0002 6820     		movs	r0, #104
 7988 0004 FFF7FEFF 		bl	MPU6050
 7989              	.LVL390:
  73:Libraries/ctrl_drv/i2c/mpu6050/MPU6050.c ****     MPU6050_setClockSource(MPU6050_CLOCK_PLL_XGYRO);
 7990              		.loc 1 73 5 view .LVU1086
 7991 0008 0020     		movs	r0, #0
 7992 000a FFF7FEFF 		bl	MPU6050_setSleepEnabled
 7993              	.LVL391:
  74:Libraries/ctrl_drv/i2c/mpu6050/MPU6050.c ****     MPU6050_setFullScaleGyroRange(MPU6050_GYRO_FS_250);
 7994              		.loc 1 74 5 view .LVU1087
 7995 000e 0120     		movs	r0, #1
 7996 0010 FFF7FEFF 		bl	MPU6050_setClockSource
 7997              	.LVL392:
  75:Libraries/ctrl_drv/i2c/mpu6050/MPU6050.c ****     MPU6050_setFullScaleAccelRange(MPU6050_ACCEL_FS_2);
 7998              		.loc 1 75 5 view .LVU1088
 7999 0014 0020     		movs	r0, #0
 8000 0016 FFF7FEFF 		bl	MPU6050_setFullScaleGyroRange
 8001              	.LVL393:
  76:Libraries/ctrl_drv/i2c/mpu6050/MPU6050.c ****     MPU6050_setDLPFMode(MPU6050_DLPF_BW_98);
 8002              		.loc 1 76 5 view .LVU1089
 8003 001a 0020     		movs	r0, #0
 8004 001c FFF7FEFF 		bl	MPU6050_setFullScaleAccelRange
 8005              	.LVL394:
  77:Libraries/ctrl_drv/i2c/mpu6050/MPU6050.c ****     MPU6050_setI2CMasterModeEnabled(0);	    // ‰∏çËÆ©MPU6050 ÊéßÂà∂AUXI2C
 8006              		.loc 1 77 5 view .LVU1090
 8007 0020 0220     		movs	r0, #2
 8008 0022 FFF7FEFF 		bl	MPU6050_setDLPFMode
 8009              	.LVL395:
  78:Libraries/ctrl_drv/i2c/mpu6050/MPU6050.c ****     // MPU6050_setI2CBypassEnabled(0);	        // ‰∏ªÊéßÂà∂Âô®ÁöÑI2C‰∏éMPU6050ÁöÑAUXI2C	Áõ¥ÈÄö„ÄÇÊé
 8010              		.loc 1 78 5 view .LVU1091
 8011 0026 0020     		movs	r0, #0
 8012 0028 FFF7FEFF 		bl	MPU6050_setI2CMasterModeEnabled
 8013              	.LVL396:
  80:Libraries/ctrl_drv/i2c/mpu6050/MPU6050.c **** 
ARM GAS  C:\Users\Mxuan\AppData\Local\Temp\ccfnFihP.s 			page 181


 8014              		.loc 1 80 1 is_stmt 0 view .LVU1092
 8015 002c 08BD     		pop	{r3, pc}
 8016              		.cfi_endproc
 8017              	.LFE1:
 8019              		.section	.text.MPU6050_getWakeFrequency,"ax",%progbits
 8020              		.align	1
 8021              		.global	MPU6050_getWakeFrequency
 8022              		.syntax unified
 8023              		.thumb
 8024              		.thumb_func
 8026              	MPU6050_getWakeFrequency:
 8027              	.LFB188:
2541:Libraries/ctrl_drv/i2c/mpu6050/MPU6050.c **** 
2542:Libraries/ctrl_drv/i2c/mpu6050/MPU6050.c **** // PWR_MGMT_2 register
2543:Libraries/ctrl_drv/i2c/mpu6050/MPU6050.c **** 
2544:Libraries/ctrl_drv/i2c/mpu6050/MPU6050.c **** /** Get wake frequency in Accel-Only Low Power Mode.
2545:Libraries/ctrl_drv/i2c/mpu6050/MPU6050.c ****  * The MPU-60X0 can be put into Accerlerometer Only Low Power Mode by setting
2546:Libraries/ctrl_drv/i2c/mpu6050/MPU6050.c ****  * PWRSEL to 1 in the Power Management 1 register (Register 107). In this mode,
2547:Libraries/ctrl_drv/i2c/mpu6050/MPU6050.c ****  * the device will power off all devices except for the primary I2C interface,
2548:Libraries/ctrl_drv/i2c/mpu6050/MPU6050.c ****  * waking only the accelerometer at fixed intervals to take a single
2549:Libraries/ctrl_drv/i2c/mpu6050/MPU6050.c ****  * measurement. The frequency of wake-ups can be configured with LP_WAKE_CTRL
2550:Libraries/ctrl_drv/i2c/mpu6050/MPU6050.c ****  * as shown below:
2551:Libraries/ctrl_drv/i2c/mpu6050/MPU6050.c ****  *
2552:Libraries/ctrl_drv/i2c/mpu6050/MPU6050.c ****  * <pre>
2553:Libraries/ctrl_drv/i2c/mpu6050/MPU6050.c ****  * LP_WAKE_CTRL | Wake-up Frequency
2554:Libraries/ctrl_drv/i2c/mpu6050/MPU6050.c ****  * -------------+------------------
2555:Libraries/ctrl_drv/i2c/mpu6050/MPU6050.c ****  * 0            | 1.25 Hz
2556:Libraries/ctrl_drv/i2c/mpu6050/MPU6050.c ****  * 1            | 2.5 Hz
2557:Libraries/ctrl_drv/i2c/mpu6050/MPU6050.c ****  * 2            | 5 Hz
2558:Libraries/ctrl_drv/i2c/mpu6050/MPU6050.c ****  * 3            | 10 Hz
2559:Libraries/ctrl_drv/i2c/mpu6050/MPU6050.c ****  * <pre>
2560:Libraries/ctrl_drv/i2c/mpu6050/MPU6050.c ****  *
2561:Libraries/ctrl_drv/i2c/mpu6050/MPU6050.c ****  * For further information regarding the MPU-60X0's power modes, please refer to
2562:Libraries/ctrl_drv/i2c/mpu6050/MPU6050.c ****  * Register 107.
2563:Libraries/ctrl_drv/i2c/mpu6050/MPU6050.c ****  *
2564:Libraries/ctrl_drv/i2c/mpu6050/MPU6050.c ****  * @return Current wake frequency
2565:Libraries/ctrl_drv/i2c/mpu6050/MPU6050.c ****  * @see MPU6050_RA_PWR_MGMT_2
2566:Libraries/ctrl_drv/i2c/mpu6050/MPU6050.c ****  */
2567:Libraries/ctrl_drv/i2c/mpu6050/MPU6050.c **** uint8_t MPU6050_getWakeFrequency() {
 8028              		.loc 1 2567 36 is_stmt 1 view -0
 8029              		.cfi_startproc
 8030              		@ args = 0, pretend = 0, frame = 0
 8031              		@ frame_needed = 0, uses_anonymous_args = 0
 8032 0000 10B5     		push	{r4, lr}
 8033              	.LCFI236:
 8034              		.cfi_def_cfa_offset 8
 8035              		.cfi_offset 4, -8
 8036              		.cfi_offset 14, -4
 8037 0002 82B0     		sub	sp, sp, #8
 8038              	.LCFI237:
 8039              		.cfi_def_cfa_offset 16
2568:Libraries/ctrl_drv/i2c/mpu6050/MPU6050.c ****     I2Cdev_readBits(mpu6050.devAddr, MPU6050_RA_PWR_MGMT_2, MPU6050_PWR2_LP_WAKE_CTRL_BIT, MPU6050_
 8040              		.loc 1 2568 5 view .LVU1094
 8041 0004 064C     		ldr	r4, .L846
 8042 0006 2346     		mov	r3, r4
 8043 0008 13F8010B 		ldrb	r0, [r3], #1	@ zero_extendqisi2
 8044 000c 0093     		str	r3, [sp]
ARM GAS  C:\Users\Mxuan\AppData\Local\Temp\ccfnFihP.s 			page 182


 8045 000e 0223     		movs	r3, #2
 8046 0010 0722     		movs	r2, #7
 8047 0012 6C21     		movs	r1, #108
 8048 0014 FFF7FEFF 		bl	I2Cdev_readBits
 8049              	.LVL397:
2569:Libraries/ctrl_drv/i2c/mpu6050/MPU6050.c ****     return mpu6050.buffer[0];
 8050              		.loc 1 2569 5 view .LVU1095
2570:Libraries/ctrl_drv/i2c/mpu6050/MPU6050.c **** }
 8051              		.loc 1 2570 1 is_stmt 0 view .LVU1096
 8052 0018 6078     		ldrb	r0, [r4, #1]	@ zero_extendqisi2
 8053 001a 02B0     		add	sp, sp, #8
 8054              	.LCFI238:
 8055              		.cfi_def_cfa_offset 8
 8056              		@ sp needed
 8057 001c 10BD     		pop	{r4, pc}
 8058              	.L847:
 8059 001e 00BF     		.align	2
 8060              	.L846:
 8061 0020 00000000 		.word	mpu6050
 8062              		.cfi_endproc
 8063              	.LFE188:
 8065              		.section	.text.MPU6050_setWakeFrequency,"ax",%progbits
 8066              		.align	1
 8067              		.global	MPU6050_setWakeFrequency
 8068              		.syntax unified
 8069              		.thumb
 8070              		.thumb_func
 8072              	MPU6050_setWakeFrequency:
 8073              	.LVL398:
 8074              	.LFB189:
2571:Libraries/ctrl_drv/i2c/mpu6050/MPU6050.c **** /** Set wake frequency in Accel-Only Low Power Mode.
2572:Libraries/ctrl_drv/i2c/mpu6050/MPU6050.c ****  * @param frequency New wake frequency
2573:Libraries/ctrl_drv/i2c/mpu6050/MPU6050.c ****  * @see MPU6050_RA_PWR_MGMT_2
2574:Libraries/ctrl_drv/i2c/mpu6050/MPU6050.c ****  */
2575:Libraries/ctrl_drv/i2c/mpu6050/MPU6050.c **** void MPU6050_setWakeFrequency(uint8_t frequency) {
 8075              		.loc 1 2575 50 is_stmt 1 view -0
 8076              		.cfi_startproc
 8077              		@ args = 0, pretend = 0, frame = 0
 8078              		@ frame_needed = 0, uses_anonymous_args = 0
 8079              		.loc 1 2575 50 is_stmt 0 view .LVU1098
 8080 0000 00B5     		push	{lr}
 8081              	.LCFI239:
 8082              		.cfi_def_cfa_offset 4
 8083              		.cfi_offset 14, -4
 8084 0002 83B0     		sub	sp, sp, #12
 8085              	.LCFI240:
 8086              		.cfi_def_cfa_offset 16
2576:Libraries/ctrl_drv/i2c/mpu6050/MPU6050.c ****     I2Cdev_writeBits(mpu6050.devAddr, MPU6050_RA_PWR_MGMT_2, MPU6050_PWR2_LP_WAKE_CTRL_BIT, MPU6050
 8087              		.loc 1 2576 5 is_stmt 1 view .LVU1099
 8088 0004 0090     		str	r0, [sp]
 8089 0006 0223     		movs	r3, #2
 8090 0008 0722     		movs	r2, #7
 8091 000a 6C21     		movs	r1, #108
 8092 000c 0348     		ldr	r0, .L850
 8093              	.LVL399:
 8094              		.loc 1 2576 5 is_stmt 0 view .LVU1100
 8095 000e 0078     		ldrb	r0, [r0]	@ zero_extendqisi2
ARM GAS  C:\Users\Mxuan\AppData\Local\Temp\ccfnFihP.s 			page 183


 8096 0010 FFF7FEFF 		bl	I2Cdev_writeBits
 8097              	.LVL400:
2577:Libraries/ctrl_drv/i2c/mpu6050/MPU6050.c **** }
 8098              		.loc 1 2577 1 view .LVU1101
 8099 0014 03B0     		add	sp, sp, #12
 8100              	.LCFI241:
 8101              		.cfi_def_cfa_offset 4
 8102              		@ sp needed
 8103 0016 5DF804FB 		ldr	pc, [sp], #4
 8104              	.L851:
 8105 001a 00BF     		.align	2
 8106              	.L850:
 8107 001c 00000000 		.word	mpu6050
 8108              		.cfi_endproc
 8109              	.LFE189:
 8111              		.section	.text.MPU6050_getStandbyXAccelEnabled,"ax",%progbits
 8112              		.align	1
 8113              		.global	MPU6050_getStandbyXAccelEnabled
 8114              		.syntax unified
 8115              		.thumb
 8116              		.thumb_func
 8118              	MPU6050_getStandbyXAccelEnabled:
 8119              	.LFB190:
2578:Libraries/ctrl_drv/i2c/mpu6050/MPU6050.c **** 
2579:Libraries/ctrl_drv/i2c/mpu6050/MPU6050.c **** /** Get X-axis accelerometer standby enabled status.
2580:Libraries/ctrl_drv/i2c/mpu6050/MPU6050.c ****  * If enabled, the X-axis will not gather or report data (or use power).
2581:Libraries/ctrl_drv/i2c/mpu6050/MPU6050.c ****  * @return Current X-axis standby enabled status
2582:Libraries/ctrl_drv/i2c/mpu6050/MPU6050.c ****  * @see MPU6050_RA_PWR_MGMT_2
2583:Libraries/ctrl_drv/i2c/mpu6050/MPU6050.c ****  * @see MPU6050_PWR2_STBY_XA_BIT
2584:Libraries/ctrl_drv/i2c/mpu6050/MPU6050.c ****  */
2585:Libraries/ctrl_drv/i2c/mpu6050/MPU6050.c **** bool MPU6050_getStandbyXAccelEnabled() {
 8120              		.loc 1 2585 40 is_stmt 1 view -0
 8121              		.cfi_startproc
 8122              		@ args = 0, pretend = 0, frame = 0
 8123              		@ frame_needed = 0, uses_anonymous_args = 0
 8124 0000 10B5     		push	{r4, lr}
 8125              	.LCFI242:
 8126              		.cfi_def_cfa_offset 8
 8127              		.cfi_offset 4, -8
 8128              		.cfi_offset 14, -4
2586:Libraries/ctrl_drv/i2c/mpu6050/MPU6050.c ****     I2Cdev_readBit(mpu6050.devAddr, MPU6050_RA_PWR_MGMT_2, MPU6050_PWR2_STBY_XA_BIT, mpu6050.buffer
 8129              		.loc 1 2586 5 view .LVU1103
 8130 0002 064B     		ldr	r3, .L854
 8131 0004 5C1E     		subs	r4, r3, #1
 8132 0006 0522     		movs	r2, #5
 8133 0008 6C21     		movs	r1, #108
 8134 000a 13F8010C 		ldrb	r0, [r3, #-1]	@ zero_extendqisi2
 8135 000e FFF7FEFF 		bl	I2Cdev_readBit
 8136              	.LVL401:
2587:Libraries/ctrl_drv/i2c/mpu6050/MPU6050.c ****     return mpu6050.buffer[0];
 8137              		.loc 1 2587 5 view .LVU1104
 8138              		.loc 1 2587 26 is_stmt 0 view .LVU1105
 8139 0012 6078     		ldrb	r0, [r4, #1]	@ zero_extendqisi2
2588:Libraries/ctrl_drv/i2c/mpu6050/MPU6050.c **** }
 8140              		.loc 1 2588 1 view .LVU1106
 8141 0014 0038     		subs	r0, r0, #0
 8142 0016 18BF     		it	ne
ARM GAS  C:\Users\Mxuan\AppData\Local\Temp\ccfnFihP.s 			page 184


 8143 0018 0120     		movne	r0, #1
 8144 001a 10BD     		pop	{r4, pc}
 8145              	.L855:
 8146              		.align	2
 8147              	.L854:
 8148 001c 01000000 		.word	mpu6050+1
 8149              		.cfi_endproc
 8150              	.LFE190:
 8152              		.section	.text.MPU6050_setStandbyXAccelEnabled,"ax",%progbits
 8153              		.align	1
 8154              		.global	MPU6050_setStandbyXAccelEnabled
 8155              		.syntax unified
 8156              		.thumb
 8157              		.thumb_func
 8159              	MPU6050_setStandbyXAccelEnabled:
 8160              	.LVL402:
 8161              	.LFB191:
2589:Libraries/ctrl_drv/i2c/mpu6050/MPU6050.c **** /** Set X-axis accelerometer standby enabled status.
2590:Libraries/ctrl_drv/i2c/mpu6050/MPU6050.c ****  * @param New X-axis standby enabled status
2591:Libraries/ctrl_drv/i2c/mpu6050/MPU6050.c ****  * @see getStandbyXAccelEnabled()
2592:Libraries/ctrl_drv/i2c/mpu6050/MPU6050.c ****  * @see MPU6050_RA_PWR_MGMT_2
2593:Libraries/ctrl_drv/i2c/mpu6050/MPU6050.c ****  * @see MPU6050_PWR2_STBY_XA_BIT
2594:Libraries/ctrl_drv/i2c/mpu6050/MPU6050.c ****  */
2595:Libraries/ctrl_drv/i2c/mpu6050/MPU6050.c **** void MPU6050_setStandbyXAccelEnabled(bool enabled) {
 8162              		.loc 1 2595 52 is_stmt 1 view -0
 8163              		.cfi_startproc
 8164              		@ args = 0, pretend = 0, frame = 0
 8165              		@ frame_needed = 0, uses_anonymous_args = 0
 8166              		.loc 1 2595 52 is_stmt 0 view .LVU1108
 8167 0000 08B5     		push	{r3, lr}
 8168              	.LCFI243:
 8169              		.cfi_def_cfa_offset 8
 8170              		.cfi_offset 3, -8
 8171              		.cfi_offset 14, -4
 8172 0002 0346     		mov	r3, r0
2596:Libraries/ctrl_drv/i2c/mpu6050/MPU6050.c ****     I2Cdev_writeBit(mpu6050.devAddr, MPU6050_RA_PWR_MGMT_2, MPU6050_PWR2_STBY_XA_BIT, enabled);
 8173              		.loc 1 2596 5 is_stmt 1 view .LVU1109
 8174 0004 0522     		movs	r2, #5
 8175 0006 6C21     		movs	r1, #108
 8176 0008 0248     		ldr	r0, .L858
 8177              	.LVL403:
 8178              		.loc 1 2596 5 is_stmt 0 view .LVU1110
 8179 000a 0078     		ldrb	r0, [r0]	@ zero_extendqisi2
 8180 000c FFF7FEFF 		bl	I2Cdev_writeBit
 8181              	.LVL404:
2597:Libraries/ctrl_drv/i2c/mpu6050/MPU6050.c **** }
 8182              		.loc 1 2597 1 view .LVU1111
 8183 0010 08BD     		pop	{r3, pc}
 8184              	.L859:
 8185 0012 00BF     		.align	2
 8186              	.L858:
 8187 0014 00000000 		.word	mpu6050
 8188              		.cfi_endproc
 8189              	.LFE191:
 8191              		.section	.text.MPU6050_getStandbyYAccelEnabled,"ax",%progbits
 8192              		.align	1
 8193              		.global	MPU6050_getStandbyYAccelEnabled
ARM GAS  C:\Users\Mxuan\AppData\Local\Temp\ccfnFihP.s 			page 185


 8194              		.syntax unified
 8195              		.thumb
 8196              		.thumb_func
 8198              	MPU6050_getStandbyYAccelEnabled:
 8199              	.LFB192:
2598:Libraries/ctrl_drv/i2c/mpu6050/MPU6050.c **** /** Get Y-axis accelerometer standby enabled status.
2599:Libraries/ctrl_drv/i2c/mpu6050/MPU6050.c ****  * If enabled, the Y-axis will not gather or report data (or use power).
2600:Libraries/ctrl_drv/i2c/mpu6050/MPU6050.c ****  * @return Current Y-axis standby enabled status
2601:Libraries/ctrl_drv/i2c/mpu6050/MPU6050.c ****  * @see MPU6050_RA_PWR_MGMT_2
2602:Libraries/ctrl_drv/i2c/mpu6050/MPU6050.c ****  * @see MPU6050_PWR2_STBY_YA_BIT
2603:Libraries/ctrl_drv/i2c/mpu6050/MPU6050.c ****  */
2604:Libraries/ctrl_drv/i2c/mpu6050/MPU6050.c **** bool MPU6050_getStandbyYAccelEnabled() {
 8200              		.loc 1 2604 40 is_stmt 1 view -0
 8201              		.cfi_startproc
 8202              		@ args = 0, pretend = 0, frame = 0
 8203              		@ frame_needed = 0, uses_anonymous_args = 0
 8204 0000 10B5     		push	{r4, lr}
 8205              	.LCFI244:
 8206              		.cfi_def_cfa_offset 8
 8207              		.cfi_offset 4, -8
 8208              		.cfi_offset 14, -4
2605:Libraries/ctrl_drv/i2c/mpu6050/MPU6050.c ****     I2Cdev_readBit(mpu6050.devAddr, MPU6050_RA_PWR_MGMT_2, MPU6050_PWR2_STBY_YA_BIT, mpu6050.buffer
 8209              		.loc 1 2605 5 view .LVU1113
 8210 0002 064B     		ldr	r3, .L862
 8211 0004 5C1E     		subs	r4, r3, #1
 8212 0006 0422     		movs	r2, #4
 8213 0008 6C21     		movs	r1, #108
 8214 000a 13F8010C 		ldrb	r0, [r3, #-1]	@ zero_extendqisi2
 8215 000e FFF7FEFF 		bl	I2Cdev_readBit
 8216              	.LVL405:
2606:Libraries/ctrl_drv/i2c/mpu6050/MPU6050.c ****     return mpu6050.buffer[0];
 8217              		.loc 1 2606 5 view .LVU1114
 8218              		.loc 1 2606 26 is_stmt 0 view .LVU1115
 8219 0012 6078     		ldrb	r0, [r4, #1]	@ zero_extendqisi2
2607:Libraries/ctrl_drv/i2c/mpu6050/MPU6050.c **** }
 8220              		.loc 1 2607 1 view .LVU1116
 8221 0014 0038     		subs	r0, r0, #0
 8222 0016 18BF     		it	ne
 8223 0018 0120     		movne	r0, #1
 8224 001a 10BD     		pop	{r4, pc}
 8225              	.L863:
 8226              		.align	2
 8227              	.L862:
 8228 001c 01000000 		.word	mpu6050+1
 8229              		.cfi_endproc
 8230              	.LFE192:
 8232              		.section	.text.MPU6050_setStandbyYAccelEnabled,"ax",%progbits
 8233              		.align	1
 8234              		.global	MPU6050_setStandbyYAccelEnabled
 8235              		.syntax unified
 8236              		.thumb
 8237              		.thumb_func
 8239              	MPU6050_setStandbyYAccelEnabled:
 8240              	.LVL406:
 8241              	.LFB193:
2608:Libraries/ctrl_drv/i2c/mpu6050/MPU6050.c **** /** Set Y-axis accelerometer standby enabled status.
2609:Libraries/ctrl_drv/i2c/mpu6050/MPU6050.c ****  * @param New Y-axis standby enabled status
ARM GAS  C:\Users\Mxuan\AppData\Local\Temp\ccfnFihP.s 			page 186


2610:Libraries/ctrl_drv/i2c/mpu6050/MPU6050.c ****  * @see getStandbyYAccelEnabled()
2611:Libraries/ctrl_drv/i2c/mpu6050/MPU6050.c ****  * @see MPU6050_RA_PWR_MGMT_2
2612:Libraries/ctrl_drv/i2c/mpu6050/MPU6050.c ****  * @see MPU6050_PWR2_STBY_YA_BIT
2613:Libraries/ctrl_drv/i2c/mpu6050/MPU6050.c ****  */
2614:Libraries/ctrl_drv/i2c/mpu6050/MPU6050.c **** void MPU6050_setStandbyYAccelEnabled(bool enabled) {
 8242              		.loc 1 2614 52 is_stmt 1 view -0
 8243              		.cfi_startproc
 8244              		@ args = 0, pretend = 0, frame = 0
 8245              		@ frame_needed = 0, uses_anonymous_args = 0
 8246              		.loc 1 2614 52 is_stmt 0 view .LVU1118
 8247 0000 08B5     		push	{r3, lr}
 8248              	.LCFI245:
 8249              		.cfi_def_cfa_offset 8
 8250              		.cfi_offset 3, -8
 8251              		.cfi_offset 14, -4
 8252 0002 0346     		mov	r3, r0
2615:Libraries/ctrl_drv/i2c/mpu6050/MPU6050.c ****     I2Cdev_writeBit(mpu6050.devAddr, MPU6050_RA_PWR_MGMT_2, MPU6050_PWR2_STBY_YA_BIT, enabled);
 8253              		.loc 1 2615 5 is_stmt 1 view .LVU1119
 8254 0004 0422     		movs	r2, #4
 8255 0006 6C21     		movs	r1, #108
 8256 0008 0248     		ldr	r0, .L866
 8257              	.LVL407:
 8258              		.loc 1 2615 5 is_stmt 0 view .LVU1120
 8259 000a 0078     		ldrb	r0, [r0]	@ zero_extendqisi2
 8260 000c FFF7FEFF 		bl	I2Cdev_writeBit
 8261              	.LVL408:
2616:Libraries/ctrl_drv/i2c/mpu6050/MPU6050.c **** }
 8262              		.loc 1 2616 1 view .LVU1121
 8263 0010 08BD     		pop	{r3, pc}
 8264              	.L867:
 8265 0012 00BF     		.align	2
 8266              	.L866:
 8267 0014 00000000 		.word	mpu6050
 8268              		.cfi_endproc
 8269              	.LFE193:
 8271              		.section	.text.MPU6050_getStandbyZAccelEnabled,"ax",%progbits
 8272              		.align	1
 8273              		.global	MPU6050_getStandbyZAccelEnabled
 8274              		.syntax unified
 8275              		.thumb
 8276              		.thumb_func
 8278              	MPU6050_getStandbyZAccelEnabled:
 8279              	.LFB194:
2617:Libraries/ctrl_drv/i2c/mpu6050/MPU6050.c **** /** Get Z-axis accelerometer standby enabled status.
2618:Libraries/ctrl_drv/i2c/mpu6050/MPU6050.c ****  * If enabled, the Z-axis will not gather or report data (or use power).
2619:Libraries/ctrl_drv/i2c/mpu6050/MPU6050.c ****  * @return Current Z-axis standby enabled status
2620:Libraries/ctrl_drv/i2c/mpu6050/MPU6050.c ****  * @see MPU6050_RA_PWR_MGMT_2
2621:Libraries/ctrl_drv/i2c/mpu6050/MPU6050.c ****  * @see MPU6050_PWR2_STBY_ZA_BIT
2622:Libraries/ctrl_drv/i2c/mpu6050/MPU6050.c ****  */
2623:Libraries/ctrl_drv/i2c/mpu6050/MPU6050.c **** bool MPU6050_getStandbyZAccelEnabled() {
 8280              		.loc 1 2623 40 is_stmt 1 view -0
 8281              		.cfi_startproc
 8282              		@ args = 0, pretend = 0, frame = 0
 8283              		@ frame_needed = 0, uses_anonymous_args = 0
 8284 0000 10B5     		push	{r4, lr}
 8285              	.LCFI246:
 8286              		.cfi_def_cfa_offset 8
ARM GAS  C:\Users\Mxuan\AppData\Local\Temp\ccfnFihP.s 			page 187


 8287              		.cfi_offset 4, -8
 8288              		.cfi_offset 14, -4
2624:Libraries/ctrl_drv/i2c/mpu6050/MPU6050.c ****     I2Cdev_readBit(mpu6050.devAddr, MPU6050_RA_PWR_MGMT_2, MPU6050_PWR2_STBY_ZA_BIT, mpu6050.buffer
 8289              		.loc 1 2624 5 view .LVU1123
 8290 0002 064B     		ldr	r3, .L870
 8291 0004 5C1E     		subs	r4, r3, #1
 8292 0006 0322     		movs	r2, #3
 8293 0008 6C21     		movs	r1, #108
 8294 000a 13F8010C 		ldrb	r0, [r3, #-1]	@ zero_extendqisi2
 8295 000e FFF7FEFF 		bl	I2Cdev_readBit
 8296              	.LVL409:
2625:Libraries/ctrl_drv/i2c/mpu6050/MPU6050.c ****     return mpu6050.buffer[0];
 8297              		.loc 1 2625 5 view .LVU1124
 8298              		.loc 1 2625 26 is_stmt 0 view .LVU1125
 8299 0012 6078     		ldrb	r0, [r4, #1]	@ zero_extendqisi2
2626:Libraries/ctrl_drv/i2c/mpu6050/MPU6050.c **** }
 8300              		.loc 1 2626 1 view .LVU1126
 8301 0014 0038     		subs	r0, r0, #0
 8302 0016 18BF     		it	ne
 8303 0018 0120     		movne	r0, #1
 8304 001a 10BD     		pop	{r4, pc}
 8305              	.L871:
 8306              		.align	2
 8307              	.L870:
 8308 001c 01000000 		.word	mpu6050+1
 8309              		.cfi_endproc
 8310              	.LFE194:
 8312              		.section	.text.MPU6050_setStandbyZAccelEnabled,"ax",%progbits
 8313              		.align	1
 8314              		.global	MPU6050_setStandbyZAccelEnabled
 8315              		.syntax unified
 8316              		.thumb
 8317              		.thumb_func
 8319              	MPU6050_setStandbyZAccelEnabled:
 8320              	.LVL410:
 8321              	.LFB195:
2627:Libraries/ctrl_drv/i2c/mpu6050/MPU6050.c **** /** Set Z-axis accelerometer standby enabled status.
2628:Libraries/ctrl_drv/i2c/mpu6050/MPU6050.c ****  * @param New Z-axis standby enabled status
2629:Libraries/ctrl_drv/i2c/mpu6050/MPU6050.c ****  * @see getStandbyZAccelEnabled()
2630:Libraries/ctrl_drv/i2c/mpu6050/MPU6050.c ****  * @see MPU6050_RA_PWR_MGMT_2
2631:Libraries/ctrl_drv/i2c/mpu6050/MPU6050.c ****  * @see MPU6050_PWR2_STBY_ZA_BIT
2632:Libraries/ctrl_drv/i2c/mpu6050/MPU6050.c ****  */
2633:Libraries/ctrl_drv/i2c/mpu6050/MPU6050.c **** void MPU6050_setStandbyZAccelEnabled(bool enabled) {
 8322              		.loc 1 2633 52 is_stmt 1 view -0
 8323              		.cfi_startproc
 8324              		@ args = 0, pretend = 0, frame = 0
 8325              		@ frame_needed = 0, uses_anonymous_args = 0
 8326              		.loc 1 2633 52 is_stmt 0 view .LVU1128
 8327 0000 08B5     		push	{r3, lr}
 8328              	.LCFI247:
 8329              		.cfi_def_cfa_offset 8
 8330              		.cfi_offset 3, -8
 8331              		.cfi_offset 14, -4
 8332 0002 0346     		mov	r3, r0
2634:Libraries/ctrl_drv/i2c/mpu6050/MPU6050.c ****     I2Cdev_writeBit(mpu6050.devAddr, MPU6050_RA_PWR_MGMT_2, MPU6050_PWR2_STBY_ZA_BIT, enabled);
 8333              		.loc 1 2634 5 is_stmt 1 view .LVU1129
 8334 0004 0322     		movs	r2, #3
ARM GAS  C:\Users\Mxuan\AppData\Local\Temp\ccfnFihP.s 			page 188


 8335 0006 6C21     		movs	r1, #108
 8336 0008 0248     		ldr	r0, .L874
 8337              	.LVL411:
 8338              		.loc 1 2634 5 is_stmt 0 view .LVU1130
 8339 000a 0078     		ldrb	r0, [r0]	@ zero_extendqisi2
 8340 000c FFF7FEFF 		bl	I2Cdev_writeBit
 8341              	.LVL412:
2635:Libraries/ctrl_drv/i2c/mpu6050/MPU6050.c **** }
 8342              		.loc 1 2635 1 view .LVU1131
 8343 0010 08BD     		pop	{r3, pc}
 8344              	.L875:
 8345 0012 00BF     		.align	2
 8346              	.L874:
 8347 0014 00000000 		.word	mpu6050
 8348              		.cfi_endproc
 8349              	.LFE195:
 8351              		.section	.text.MPU6050_getStandbyXGyroEnabled,"ax",%progbits
 8352              		.align	1
 8353              		.global	MPU6050_getStandbyXGyroEnabled
 8354              		.syntax unified
 8355              		.thumb
 8356              		.thumb_func
 8358              	MPU6050_getStandbyXGyroEnabled:
 8359              	.LFB196:
2636:Libraries/ctrl_drv/i2c/mpu6050/MPU6050.c **** /** Get X-axis gyroscope standby enabled status.
2637:Libraries/ctrl_drv/i2c/mpu6050/MPU6050.c ****  * If enabled, the X-axis will not gather or report data (or use power).
2638:Libraries/ctrl_drv/i2c/mpu6050/MPU6050.c ****  * @return Current X-axis standby enabled status
2639:Libraries/ctrl_drv/i2c/mpu6050/MPU6050.c ****  * @see MPU6050_RA_PWR_MGMT_2
2640:Libraries/ctrl_drv/i2c/mpu6050/MPU6050.c ****  * @see MPU6050_PWR2_STBY_XG_BIT
2641:Libraries/ctrl_drv/i2c/mpu6050/MPU6050.c ****  */
2642:Libraries/ctrl_drv/i2c/mpu6050/MPU6050.c **** bool MPU6050_getStandbyXGyroEnabled() {
 8360              		.loc 1 2642 39 is_stmt 1 view -0
 8361              		.cfi_startproc
 8362              		@ args = 0, pretend = 0, frame = 0
 8363              		@ frame_needed = 0, uses_anonymous_args = 0
 8364 0000 10B5     		push	{r4, lr}
 8365              	.LCFI248:
 8366              		.cfi_def_cfa_offset 8
 8367              		.cfi_offset 4, -8
 8368              		.cfi_offset 14, -4
2643:Libraries/ctrl_drv/i2c/mpu6050/MPU6050.c ****     I2Cdev_readBit(mpu6050.devAddr, MPU6050_RA_PWR_MGMT_2, MPU6050_PWR2_STBY_XG_BIT, mpu6050.buffer
 8369              		.loc 1 2643 5 view .LVU1133
 8370 0002 064B     		ldr	r3, .L878
 8371 0004 5C1E     		subs	r4, r3, #1
 8372 0006 0222     		movs	r2, #2
 8373 0008 6C21     		movs	r1, #108
 8374 000a 13F8010C 		ldrb	r0, [r3, #-1]	@ zero_extendqisi2
 8375 000e FFF7FEFF 		bl	I2Cdev_readBit
 8376              	.LVL413:
2644:Libraries/ctrl_drv/i2c/mpu6050/MPU6050.c ****     return mpu6050.buffer[0];
 8377              		.loc 1 2644 5 view .LVU1134
 8378              		.loc 1 2644 26 is_stmt 0 view .LVU1135
 8379 0012 6078     		ldrb	r0, [r4, #1]	@ zero_extendqisi2
2645:Libraries/ctrl_drv/i2c/mpu6050/MPU6050.c **** }
 8380              		.loc 1 2645 1 view .LVU1136
 8381 0014 0038     		subs	r0, r0, #0
 8382 0016 18BF     		it	ne
ARM GAS  C:\Users\Mxuan\AppData\Local\Temp\ccfnFihP.s 			page 189


 8383 0018 0120     		movne	r0, #1
 8384 001a 10BD     		pop	{r4, pc}
 8385              	.L879:
 8386              		.align	2
 8387              	.L878:
 8388 001c 01000000 		.word	mpu6050+1
 8389              		.cfi_endproc
 8390              	.LFE196:
 8392              		.section	.text.MPU6050_setStandbyXGyroEnabled,"ax",%progbits
 8393              		.align	1
 8394              		.global	MPU6050_setStandbyXGyroEnabled
 8395              		.syntax unified
 8396              		.thumb
 8397              		.thumb_func
 8399              	MPU6050_setStandbyXGyroEnabled:
 8400              	.LVL414:
 8401              	.LFB197:
2646:Libraries/ctrl_drv/i2c/mpu6050/MPU6050.c **** /** Set X-axis gyroscope standby enabled status.
2647:Libraries/ctrl_drv/i2c/mpu6050/MPU6050.c ****  * @param New X-axis standby enabled status
2648:Libraries/ctrl_drv/i2c/mpu6050/MPU6050.c ****  * @see getStandbyXGyroEnabled()
2649:Libraries/ctrl_drv/i2c/mpu6050/MPU6050.c ****  * @see MPU6050_RA_PWR_MGMT_2
2650:Libraries/ctrl_drv/i2c/mpu6050/MPU6050.c ****  * @see MPU6050_PWR2_STBY_XG_BIT
2651:Libraries/ctrl_drv/i2c/mpu6050/MPU6050.c ****  */
2652:Libraries/ctrl_drv/i2c/mpu6050/MPU6050.c **** void MPU6050_setStandbyXGyroEnabled(bool enabled) {
 8402              		.loc 1 2652 51 is_stmt 1 view -0
 8403              		.cfi_startproc
 8404              		@ args = 0, pretend = 0, frame = 0
 8405              		@ frame_needed = 0, uses_anonymous_args = 0
 8406              		.loc 1 2652 51 is_stmt 0 view .LVU1138
 8407 0000 08B5     		push	{r3, lr}
 8408              	.LCFI249:
 8409              		.cfi_def_cfa_offset 8
 8410              		.cfi_offset 3, -8
 8411              		.cfi_offset 14, -4
 8412 0002 0346     		mov	r3, r0
2653:Libraries/ctrl_drv/i2c/mpu6050/MPU6050.c ****     I2Cdev_writeBit(mpu6050.devAddr, MPU6050_RA_PWR_MGMT_2, MPU6050_PWR2_STBY_XG_BIT, enabled);
 8413              		.loc 1 2653 5 is_stmt 1 view .LVU1139
 8414 0004 0222     		movs	r2, #2
 8415 0006 6C21     		movs	r1, #108
 8416 0008 0248     		ldr	r0, .L882
 8417              	.LVL415:
 8418              		.loc 1 2653 5 is_stmt 0 view .LVU1140
 8419 000a 0078     		ldrb	r0, [r0]	@ zero_extendqisi2
 8420 000c FFF7FEFF 		bl	I2Cdev_writeBit
 8421              	.LVL416:
2654:Libraries/ctrl_drv/i2c/mpu6050/MPU6050.c **** }
 8422              		.loc 1 2654 1 view .LVU1141
 8423 0010 08BD     		pop	{r3, pc}
 8424              	.L883:
 8425 0012 00BF     		.align	2
 8426              	.L882:
 8427 0014 00000000 		.word	mpu6050
 8428              		.cfi_endproc
 8429              	.LFE197:
 8431              		.section	.text.MPU6050_getStandbyYGyroEnabled,"ax",%progbits
 8432              		.align	1
 8433              		.global	MPU6050_getStandbyYGyroEnabled
ARM GAS  C:\Users\Mxuan\AppData\Local\Temp\ccfnFihP.s 			page 190


 8434              		.syntax unified
 8435              		.thumb
 8436              		.thumb_func
 8438              	MPU6050_getStandbyYGyroEnabled:
 8439              	.LFB198:
2655:Libraries/ctrl_drv/i2c/mpu6050/MPU6050.c **** /** Get Y-axis gyroscope standby enabled status.
2656:Libraries/ctrl_drv/i2c/mpu6050/MPU6050.c ****  * If enabled, the Y-axis will not gather or report data (or use power).
2657:Libraries/ctrl_drv/i2c/mpu6050/MPU6050.c ****  * @return Current Y-axis standby enabled status
2658:Libraries/ctrl_drv/i2c/mpu6050/MPU6050.c ****  * @see MPU6050_RA_PWR_MGMT_2
2659:Libraries/ctrl_drv/i2c/mpu6050/MPU6050.c ****  * @see MPU6050_PWR2_STBY_YG_BIT
2660:Libraries/ctrl_drv/i2c/mpu6050/MPU6050.c ****  */
2661:Libraries/ctrl_drv/i2c/mpu6050/MPU6050.c **** bool MPU6050_getStandbyYGyroEnabled() {
 8440              		.loc 1 2661 39 is_stmt 1 view -0
 8441              		.cfi_startproc
 8442              		@ args = 0, pretend = 0, frame = 0
 8443              		@ frame_needed = 0, uses_anonymous_args = 0
 8444 0000 10B5     		push	{r4, lr}
 8445              	.LCFI250:
 8446              		.cfi_def_cfa_offset 8
 8447              		.cfi_offset 4, -8
 8448              		.cfi_offset 14, -4
2662:Libraries/ctrl_drv/i2c/mpu6050/MPU6050.c ****     I2Cdev_readBit(mpu6050.devAddr, MPU6050_RA_PWR_MGMT_2, MPU6050_PWR2_STBY_YG_BIT, mpu6050.buffer
 8449              		.loc 1 2662 5 view .LVU1143
 8450 0002 064B     		ldr	r3, .L886
 8451 0004 5C1E     		subs	r4, r3, #1
 8452 0006 0122     		movs	r2, #1
 8453 0008 6C21     		movs	r1, #108
 8454 000a 13F8010C 		ldrb	r0, [r3, #-1]	@ zero_extendqisi2
 8455 000e FFF7FEFF 		bl	I2Cdev_readBit
 8456              	.LVL417:
2663:Libraries/ctrl_drv/i2c/mpu6050/MPU6050.c ****     return mpu6050.buffer[0];
 8457              		.loc 1 2663 5 view .LVU1144
 8458              		.loc 1 2663 26 is_stmt 0 view .LVU1145
 8459 0012 6078     		ldrb	r0, [r4, #1]	@ zero_extendqisi2
2664:Libraries/ctrl_drv/i2c/mpu6050/MPU6050.c **** }
 8460              		.loc 1 2664 1 view .LVU1146
 8461 0014 0038     		subs	r0, r0, #0
 8462 0016 18BF     		it	ne
 8463 0018 0120     		movne	r0, #1
 8464 001a 10BD     		pop	{r4, pc}
 8465              	.L887:
 8466              		.align	2
 8467              	.L886:
 8468 001c 01000000 		.word	mpu6050+1
 8469              		.cfi_endproc
 8470              	.LFE198:
 8472              		.section	.text.MPU6050_setStandbyYGyroEnabled,"ax",%progbits
 8473              		.align	1
 8474              		.global	MPU6050_setStandbyYGyroEnabled
 8475              		.syntax unified
 8476              		.thumb
 8477              		.thumb_func
 8479              	MPU6050_setStandbyYGyroEnabled:
 8480              	.LVL418:
 8481              	.LFB199:
2665:Libraries/ctrl_drv/i2c/mpu6050/MPU6050.c **** /** Set Y-axis gyroscope standby enabled status.
2666:Libraries/ctrl_drv/i2c/mpu6050/MPU6050.c ****  * @param New Y-axis standby enabled status
ARM GAS  C:\Users\Mxuan\AppData\Local\Temp\ccfnFihP.s 			page 191


2667:Libraries/ctrl_drv/i2c/mpu6050/MPU6050.c ****  * @see getStandbyYGyroEnabled()
2668:Libraries/ctrl_drv/i2c/mpu6050/MPU6050.c ****  * @see MPU6050_RA_PWR_MGMT_2
2669:Libraries/ctrl_drv/i2c/mpu6050/MPU6050.c ****  * @see MPU6050_PWR2_STBY_YG_BIT
2670:Libraries/ctrl_drv/i2c/mpu6050/MPU6050.c ****  */
2671:Libraries/ctrl_drv/i2c/mpu6050/MPU6050.c **** void MPU6050_setStandbyYGyroEnabled(bool enabled) {
 8482              		.loc 1 2671 51 is_stmt 1 view -0
 8483              		.cfi_startproc
 8484              		@ args = 0, pretend = 0, frame = 0
 8485              		@ frame_needed = 0, uses_anonymous_args = 0
 8486              		.loc 1 2671 51 is_stmt 0 view .LVU1148
 8487 0000 08B5     		push	{r3, lr}
 8488              	.LCFI251:
 8489              		.cfi_def_cfa_offset 8
 8490              		.cfi_offset 3, -8
 8491              		.cfi_offset 14, -4
 8492 0002 0346     		mov	r3, r0
2672:Libraries/ctrl_drv/i2c/mpu6050/MPU6050.c ****     I2Cdev_writeBit(mpu6050.devAddr, MPU6050_RA_PWR_MGMT_2, MPU6050_PWR2_STBY_YG_BIT, enabled);
 8493              		.loc 1 2672 5 is_stmt 1 view .LVU1149
 8494 0004 0122     		movs	r2, #1
 8495 0006 6C21     		movs	r1, #108
 8496 0008 0248     		ldr	r0, .L890
 8497              	.LVL419:
 8498              		.loc 1 2672 5 is_stmt 0 view .LVU1150
 8499 000a 0078     		ldrb	r0, [r0]	@ zero_extendqisi2
 8500 000c FFF7FEFF 		bl	I2Cdev_writeBit
 8501              	.LVL420:
2673:Libraries/ctrl_drv/i2c/mpu6050/MPU6050.c **** }
 8502              		.loc 1 2673 1 view .LVU1151
 8503 0010 08BD     		pop	{r3, pc}
 8504              	.L891:
 8505 0012 00BF     		.align	2
 8506              	.L890:
 8507 0014 00000000 		.word	mpu6050
 8508              		.cfi_endproc
 8509              	.LFE199:
 8511              		.section	.text.MPU6050_getStandbyZGyroEnabled,"ax",%progbits
 8512              		.align	1
 8513              		.global	MPU6050_getStandbyZGyroEnabled
 8514              		.syntax unified
 8515              		.thumb
 8516              		.thumb_func
 8518              	MPU6050_getStandbyZGyroEnabled:
 8519              	.LFB200:
2674:Libraries/ctrl_drv/i2c/mpu6050/MPU6050.c **** /** Get Z-axis gyroscope standby enabled status.
2675:Libraries/ctrl_drv/i2c/mpu6050/MPU6050.c ****  * If enabled, the Z-axis will not gather or report data (or use power).
2676:Libraries/ctrl_drv/i2c/mpu6050/MPU6050.c ****  * @return Current Z-axis standby enabled status
2677:Libraries/ctrl_drv/i2c/mpu6050/MPU6050.c ****  * @see MPU6050_RA_PWR_MGMT_2
2678:Libraries/ctrl_drv/i2c/mpu6050/MPU6050.c ****  * @see MPU6050_PWR2_STBY_ZG_BIT
2679:Libraries/ctrl_drv/i2c/mpu6050/MPU6050.c ****  */
2680:Libraries/ctrl_drv/i2c/mpu6050/MPU6050.c **** bool MPU6050_getStandbyZGyroEnabled() {
 8520              		.loc 1 2680 39 is_stmt 1 view -0
 8521              		.cfi_startproc
 8522              		@ args = 0, pretend = 0, frame = 0
 8523              		@ frame_needed = 0, uses_anonymous_args = 0
 8524 0000 10B5     		push	{r4, lr}
 8525              	.LCFI252:
 8526              		.cfi_def_cfa_offset 8
ARM GAS  C:\Users\Mxuan\AppData\Local\Temp\ccfnFihP.s 			page 192


 8527              		.cfi_offset 4, -8
 8528              		.cfi_offset 14, -4
2681:Libraries/ctrl_drv/i2c/mpu6050/MPU6050.c ****     I2Cdev_readBit(mpu6050.devAddr, MPU6050_RA_PWR_MGMT_2, MPU6050_PWR2_STBY_ZG_BIT, mpu6050.buffer
 8529              		.loc 1 2681 5 view .LVU1153
 8530 0002 064B     		ldr	r3, .L894
 8531 0004 5C1E     		subs	r4, r3, #1
 8532 0006 0022     		movs	r2, #0
 8533 0008 6C21     		movs	r1, #108
 8534 000a 13F8010C 		ldrb	r0, [r3, #-1]	@ zero_extendqisi2
 8535 000e FFF7FEFF 		bl	I2Cdev_readBit
 8536              	.LVL421:
2682:Libraries/ctrl_drv/i2c/mpu6050/MPU6050.c ****     return mpu6050.buffer[0];
 8537              		.loc 1 2682 5 view .LVU1154
 8538              		.loc 1 2682 26 is_stmt 0 view .LVU1155
 8539 0012 6078     		ldrb	r0, [r4, #1]	@ zero_extendqisi2
2683:Libraries/ctrl_drv/i2c/mpu6050/MPU6050.c **** }
 8540              		.loc 1 2683 1 view .LVU1156
 8541 0014 0038     		subs	r0, r0, #0
 8542 0016 18BF     		it	ne
 8543 0018 0120     		movne	r0, #1
 8544 001a 10BD     		pop	{r4, pc}
 8545              	.L895:
 8546              		.align	2
 8547              	.L894:
 8548 001c 01000000 		.word	mpu6050+1
 8549              		.cfi_endproc
 8550              	.LFE200:
 8552              		.section	.text.MPU6050_setStandbyZGyroEnabled,"ax",%progbits
 8553              		.align	1
 8554              		.global	MPU6050_setStandbyZGyroEnabled
 8555              		.syntax unified
 8556              		.thumb
 8557              		.thumb_func
 8559              	MPU6050_setStandbyZGyroEnabled:
 8560              	.LVL422:
 8561              	.LFB201:
2684:Libraries/ctrl_drv/i2c/mpu6050/MPU6050.c **** /** Set Z-axis gyroscope standby enabled status.
2685:Libraries/ctrl_drv/i2c/mpu6050/MPU6050.c ****  * @param New Z-axis standby enabled status
2686:Libraries/ctrl_drv/i2c/mpu6050/MPU6050.c ****  * @see getStandbyZGyroEnabled()
2687:Libraries/ctrl_drv/i2c/mpu6050/MPU6050.c ****  * @see MPU6050_RA_PWR_MGMT_2
2688:Libraries/ctrl_drv/i2c/mpu6050/MPU6050.c ****  * @see MPU6050_PWR2_STBY_ZG_BIT
2689:Libraries/ctrl_drv/i2c/mpu6050/MPU6050.c ****  */
2690:Libraries/ctrl_drv/i2c/mpu6050/MPU6050.c **** void MPU6050_setStandbyZGyroEnabled(bool enabled) {
 8562              		.loc 1 2690 51 is_stmt 1 view -0
 8563              		.cfi_startproc
 8564              		@ args = 0, pretend = 0, frame = 0
 8565              		@ frame_needed = 0, uses_anonymous_args = 0
 8566              		.loc 1 2690 51 is_stmt 0 view .LVU1158
 8567 0000 08B5     		push	{r3, lr}
 8568              	.LCFI253:
 8569              		.cfi_def_cfa_offset 8
 8570              		.cfi_offset 3, -8
 8571              		.cfi_offset 14, -4
 8572 0002 0346     		mov	r3, r0
2691:Libraries/ctrl_drv/i2c/mpu6050/MPU6050.c ****     I2Cdev_writeBit(mpu6050.devAddr, MPU6050_RA_PWR_MGMT_2, MPU6050_PWR2_STBY_ZG_BIT, enabled);
 8573              		.loc 1 2691 5 is_stmt 1 view .LVU1159
 8574 0004 0022     		movs	r2, #0
ARM GAS  C:\Users\Mxuan\AppData\Local\Temp\ccfnFihP.s 			page 193


 8575 0006 6C21     		movs	r1, #108
 8576 0008 0248     		ldr	r0, .L898
 8577              	.LVL423:
 8578              		.loc 1 2691 5 is_stmt 0 view .LVU1160
 8579 000a 0078     		ldrb	r0, [r0]	@ zero_extendqisi2
 8580 000c FFF7FEFF 		bl	I2Cdev_writeBit
 8581              	.LVL424:
2692:Libraries/ctrl_drv/i2c/mpu6050/MPU6050.c **** }
 8582              		.loc 1 2692 1 view .LVU1161
 8583 0010 08BD     		pop	{r3, pc}
 8584              	.L899:
 8585 0012 00BF     		.align	2
 8586              	.L898:
 8587 0014 00000000 		.word	mpu6050
 8588              		.cfi_endproc
 8589              	.LFE201:
 8591              		.section	.text.MPU6050_getFIFOCount,"ax",%progbits
 8592              		.align	1
 8593              		.global	MPU6050_getFIFOCount
 8594              		.syntax unified
 8595              		.thumb
 8596              		.thumb_func
 8598              	MPU6050_getFIFOCount:
 8599              	.LFB202:
2693:Libraries/ctrl_drv/i2c/mpu6050/MPU6050.c **** 
2694:Libraries/ctrl_drv/i2c/mpu6050/MPU6050.c **** // FIFO_COUNT* registers
2695:Libraries/ctrl_drv/i2c/mpu6050/MPU6050.c **** 
2696:Libraries/ctrl_drv/i2c/mpu6050/MPU6050.c **** /** Get current FIFO mpu6050.buffer size.
2697:Libraries/ctrl_drv/i2c/mpu6050/MPU6050.c ****  * This value indicates the number of bytes stored in the FIFO mpu6050.buffer. This
2698:Libraries/ctrl_drv/i2c/mpu6050/MPU6050.c ****  * number is in turn the number of bytes that can be read from the FIFO mpu6050.buffer
2699:Libraries/ctrl_drv/i2c/mpu6050/MPU6050.c ****  * and it is directly proportional to the number of samples available given the
2700:Libraries/ctrl_drv/i2c/mpu6050/MPU6050.c ****  * set of sensor data bound to be stored in the FIFO (register 35 and 36).
2701:Libraries/ctrl_drv/i2c/mpu6050/MPU6050.c ****  * @return Current FIFO mpu6050.buffer size
2702:Libraries/ctrl_drv/i2c/mpu6050/MPU6050.c ****  */
2703:Libraries/ctrl_drv/i2c/mpu6050/MPU6050.c **** uint16_t MPU6050_getFIFOCount() {
 8600              		.loc 1 2703 33 is_stmt 1 view -0
 8601              		.cfi_startproc
 8602              		@ args = 0, pretend = 0, frame = 0
 8603              		@ frame_needed = 0, uses_anonymous_args = 0
 8604 0000 10B5     		push	{r4, lr}
 8605              	.LCFI254:
 8606              		.cfi_def_cfa_offset 8
 8607              		.cfi_offset 4, -8
 8608              		.cfi_offset 14, -4
2704:Libraries/ctrl_drv/i2c/mpu6050/MPU6050.c ****     I2Cdev_readBytes(mpu6050.devAddr, MPU6050_RA_FIFO_COUNTH, 2, mpu6050.buffer);
 8609              		.loc 1 2704 5 view .LVU1163
 8610 0002 074B     		ldr	r3, .L902
 8611 0004 1C46     		mov	r4, r3
 8612 0006 0222     		movs	r2, #2
 8613 0008 7221     		movs	r1, #114
 8614 000a 13F8010C 		ldrb	r0, [r3, #-1]	@ zero_extendqisi2
 8615 000e FFF7FEFF 		bl	I2Cdev_readBytes
 8616              	.LVL425:
2705:Libraries/ctrl_drv/i2c/mpu6050/MPU6050.c ****     return (((uint16_t)mpu6050.buffer[0]) << 8) | mpu6050.buffer[1];
 8617              		.loc 1 2705 5 view .LVU1164
 8618              		.loc 1 2705 38 is_stmt 0 view .LVU1165
 8619 0012 14F80109 		ldrb	r0, [r4], #-1	@ zero_extendqisi2
ARM GAS  C:\Users\Mxuan\AppData\Local\Temp\ccfnFihP.s 			page 194


 8620              		.loc 1 2705 65 view .LVU1166
 8621 0016 A378     		ldrb	r3, [r4, #2]	@ zero_extendqisi2
2706:Libraries/ctrl_drv/i2c/mpu6050/MPU6050.c **** }
 8622              		.loc 1 2706 1 view .LVU1167
 8623 0018 43EA0020 		orr	r0, r3, r0, lsl #8
 8624 001c 10BD     		pop	{r4, pc}
 8625              	.L903:
 8626 001e 00BF     		.align	2
 8627              	.L902:
 8628 0020 01000000 		.word	mpu6050+1
 8629              		.cfi_endproc
 8630              	.LFE202:
 8632              		.section	.text.MPU6050_getFIFOByte,"ax",%progbits
 8633              		.align	1
 8634              		.global	MPU6050_getFIFOByte
 8635              		.syntax unified
 8636              		.thumb
 8637              		.thumb_func
 8639              	MPU6050_getFIFOByte:
 8640              	.LFB203:
2707:Libraries/ctrl_drv/i2c/mpu6050/MPU6050.c **** 
2708:Libraries/ctrl_drv/i2c/mpu6050/MPU6050.c **** // FIFO_R_W register
2709:Libraries/ctrl_drv/i2c/mpu6050/MPU6050.c **** 
2710:Libraries/ctrl_drv/i2c/mpu6050/MPU6050.c **** /** Get byte from FIFO mpu6050.buffer.
2711:Libraries/ctrl_drv/i2c/mpu6050/MPU6050.c ****  * This register is used to read and write data from the FIFO mpu6050.buffer. Data is
2712:Libraries/ctrl_drv/i2c/mpu6050/MPU6050.c ****  * written to the FIFO in order of register number (from lowest to highest). If
2713:Libraries/ctrl_drv/i2c/mpu6050/MPU6050.c ****  * all the FIFO enable flags (see below) are enabled and all External Sensor
2714:Libraries/ctrl_drv/i2c/mpu6050/MPU6050.c ****  * Data registers (Registers 73 to 96) are associated with a Slave device, the
2715:Libraries/ctrl_drv/i2c/mpu6050/MPU6050.c ****  * contents of registers 59 through 96 will be written in order at the Sample
2716:Libraries/ctrl_drv/i2c/mpu6050/MPU6050.c ****  * Rate.
2717:Libraries/ctrl_drv/i2c/mpu6050/MPU6050.c ****  *
2718:Libraries/ctrl_drv/i2c/mpu6050/MPU6050.c ****  * The contents of the sensor data registers (Registers 59 to 96) are written
2719:Libraries/ctrl_drv/i2c/mpu6050/MPU6050.c ****  * into the FIFO mpu6050.buffer when their corresponding FIFO enable flags are set to 1
2720:Libraries/ctrl_drv/i2c/mpu6050/MPU6050.c ****  * in FIFO_EN (Register 35). An additional flag for the sensor data registers
2721:Libraries/ctrl_drv/i2c/mpu6050/MPU6050.c ****  * associated with I2C Slave 3 can be found in I2C_MST_CTRL (Register 36).
2722:Libraries/ctrl_drv/i2c/mpu6050/MPU6050.c ****  *
2723:Libraries/ctrl_drv/i2c/mpu6050/MPU6050.c ****  * If the FIFO mpu6050.buffer has overflowed, the status bit FIFO_OFLOW_INT is
2724:Libraries/ctrl_drv/i2c/mpu6050/MPU6050.c ****  * automatically set to 1. This bit is located in INT_STATUS (Register 58).
2725:Libraries/ctrl_drv/i2c/mpu6050/MPU6050.c ****  * When the FIFO mpu6050.buffer has overflowed, the oldest data will be lost and new
2726:Libraries/ctrl_drv/i2c/mpu6050/MPU6050.c ****  * data will be written to the FIFO.
2727:Libraries/ctrl_drv/i2c/mpu6050/MPU6050.c ****  *
2728:Libraries/ctrl_drv/i2c/mpu6050/MPU6050.c ****  * If the FIFO mpu6050.buffer is empty, reading this register will return the last byte
2729:Libraries/ctrl_drv/i2c/mpu6050/MPU6050.c ****  * that was previously read from the FIFO until new data is available. The user
2730:Libraries/ctrl_drv/i2c/mpu6050/MPU6050.c ****  * should check FIFO_COUNT to ensure that the FIFO mpu6050.buffer is not read when
2731:Libraries/ctrl_drv/i2c/mpu6050/MPU6050.c ****  * empty.
2732:Libraries/ctrl_drv/i2c/mpu6050/MPU6050.c ****  *
2733:Libraries/ctrl_drv/i2c/mpu6050/MPU6050.c ****  * @return Byte from FIFO mpu6050.buffer
2734:Libraries/ctrl_drv/i2c/mpu6050/MPU6050.c ****  */
2735:Libraries/ctrl_drv/i2c/mpu6050/MPU6050.c **** uint8_t MPU6050_getFIFOByte() {
 8641              		.loc 1 2735 31 is_stmt 1 view -0
 8642              		.cfi_startproc
 8643              		@ args = 0, pretend = 0, frame = 0
 8644              		@ frame_needed = 0, uses_anonymous_args = 0
 8645 0000 10B5     		push	{r4, lr}
 8646              	.LCFI255:
 8647              		.cfi_def_cfa_offset 8
 8648              		.cfi_offset 4, -8
ARM GAS  C:\Users\Mxuan\AppData\Local\Temp\ccfnFihP.s 			page 195


 8649              		.cfi_offset 14, -4
2736:Libraries/ctrl_drv/i2c/mpu6050/MPU6050.c ****     I2Cdev_readByte(mpu6050.devAddr, MPU6050_RA_FIFO_R_W, mpu6050.buffer);
 8650              		.loc 1 2736 5 view .LVU1169
 8651 0002 044A     		ldr	r2, .L906
 8652 0004 541E     		subs	r4, r2, #1
 8653 0006 7421     		movs	r1, #116
 8654 0008 12F8010C 		ldrb	r0, [r2, #-1]	@ zero_extendqisi2
 8655 000c FFF7FEFF 		bl	I2Cdev_readByte
 8656              	.LVL426:
2737:Libraries/ctrl_drv/i2c/mpu6050/MPU6050.c ****     return mpu6050.buffer[0];
 8657              		.loc 1 2737 5 view .LVU1170
2738:Libraries/ctrl_drv/i2c/mpu6050/MPU6050.c **** }
 8658              		.loc 1 2738 1 is_stmt 0 view .LVU1171
 8659 0010 6078     		ldrb	r0, [r4, #1]	@ zero_extendqisi2
 8660 0012 10BD     		pop	{r4, pc}
 8661              	.L907:
 8662              		.align	2
 8663              	.L906:
 8664 0014 01000000 		.word	mpu6050+1
 8665              		.cfi_endproc
 8666              	.LFE203:
 8668              		.section	.text.MPU6050_getFIFOBytes,"ax",%progbits
 8669              		.align	1
 8670              		.global	MPU6050_getFIFOBytes
 8671              		.syntax unified
 8672              		.thumb
 8673              		.thumb_func
 8675              	MPU6050_getFIFOBytes:
 8676              	.LVL427:
 8677              	.LFB204:
2739:Libraries/ctrl_drv/i2c/mpu6050/MPU6050.c **** void MPU6050_getFIFOBytes(uint8_t *data, uint8_t length) {
 8678              		.loc 1 2739 58 is_stmt 1 view -0
 8679              		.cfi_startproc
 8680              		@ args = 0, pretend = 0, frame = 0
 8681              		@ frame_needed = 0, uses_anonymous_args = 0
 8682              		.loc 1 2739 58 is_stmt 0 view .LVU1173
 8683 0000 08B5     		push	{r3, lr}
 8684              	.LCFI256:
 8685              		.cfi_def_cfa_offset 8
 8686              		.cfi_offset 3, -8
 8687              		.cfi_offset 14, -4
 8688 0002 0346     		mov	r3, r0
 8689 0004 0A46     		mov	r2, r1
2740:Libraries/ctrl_drv/i2c/mpu6050/MPU6050.c ****     I2Cdev_readBytes(mpu6050.devAddr, MPU6050_RA_FIFO_R_W, length, data);
 8690              		.loc 1 2740 5 is_stmt 1 view .LVU1174
 8691 0006 7421     		movs	r1, #116
 8692              	.LVL428:
 8693              		.loc 1 2740 5 is_stmt 0 view .LVU1175
 8694 0008 0248     		ldr	r0, .L910
 8695              	.LVL429:
 8696              		.loc 1 2740 5 view .LVU1176
 8697 000a 0078     		ldrb	r0, [r0]	@ zero_extendqisi2
 8698 000c FFF7FEFF 		bl	I2Cdev_readBytes
 8699              	.LVL430:
2741:Libraries/ctrl_drv/i2c/mpu6050/MPU6050.c **** }
 8700              		.loc 1 2741 1 view .LVU1177
 8701 0010 08BD     		pop	{r3, pc}
ARM GAS  C:\Users\Mxuan\AppData\Local\Temp\ccfnFihP.s 			page 196


 8702              	.L911:
 8703 0012 00BF     		.align	2
 8704              	.L910:
 8705 0014 00000000 		.word	mpu6050
 8706              		.cfi_endproc
 8707              	.LFE204:
 8709              		.section	.text.MPU6050_setFIFOByte,"ax",%progbits
 8710              		.align	1
 8711              		.global	MPU6050_setFIFOByte
 8712              		.syntax unified
 8713              		.thumb
 8714              		.thumb_func
 8716              	MPU6050_setFIFOByte:
 8717              	.LVL431:
 8718              	.LFB205:
2742:Libraries/ctrl_drv/i2c/mpu6050/MPU6050.c **** /** Write byte to FIFO mpu6050.buffer.
2743:Libraries/ctrl_drv/i2c/mpu6050/MPU6050.c ****  * @see getFIFOByte()
2744:Libraries/ctrl_drv/i2c/mpu6050/MPU6050.c ****  * @see MPU6050_RA_FIFO_R_W
2745:Libraries/ctrl_drv/i2c/mpu6050/MPU6050.c ****  */
2746:Libraries/ctrl_drv/i2c/mpu6050/MPU6050.c **** void MPU6050_setFIFOByte(uint8_t data) {
 8719              		.loc 1 2746 40 is_stmt 1 view -0
 8720              		.cfi_startproc
 8721              		@ args = 0, pretend = 0, frame = 0
 8722              		@ frame_needed = 0, uses_anonymous_args = 0
 8723              		.loc 1 2746 40 is_stmt 0 view .LVU1179
 8724 0000 08B5     		push	{r3, lr}
 8725              	.LCFI257:
 8726              		.cfi_def_cfa_offset 8
 8727              		.cfi_offset 3, -8
 8728              		.cfi_offset 14, -4
 8729 0002 0246     		mov	r2, r0
2747:Libraries/ctrl_drv/i2c/mpu6050/MPU6050.c ****     I2Cdev_writeByte(mpu6050.devAddr, MPU6050_RA_FIFO_R_W, data);
 8730              		.loc 1 2747 5 is_stmt 1 view .LVU1180
 8731 0004 7421     		movs	r1, #116
 8732 0006 024B     		ldr	r3, .L914
 8733 0008 1878     		ldrb	r0, [r3]	@ zero_extendqisi2
 8734              	.LVL432:
 8735              		.loc 1 2747 5 is_stmt 0 view .LVU1181
 8736 000a FFF7FEFF 		bl	I2Cdev_writeByte
 8737              	.LVL433:
2748:Libraries/ctrl_drv/i2c/mpu6050/MPU6050.c **** }
 8738              		.loc 1 2748 1 view .LVU1182
 8739 000e 08BD     		pop	{r3, pc}
 8740              	.L915:
 8741              		.align	2
 8742              	.L914:
 8743 0010 00000000 		.word	mpu6050
 8744              		.cfi_endproc
 8745              	.LFE205:
 8747              		.section	.text.MPU6050_getDeviceID,"ax",%progbits
 8748              		.align	1
 8749              		.global	MPU6050_getDeviceID
 8750              		.syntax unified
 8751              		.thumb
 8752              		.thumb_func
 8754              	MPU6050_getDeviceID:
 8755              	.LFB206:
ARM GAS  C:\Users\Mxuan\AppData\Local\Temp\ccfnFihP.s 			page 197


2749:Libraries/ctrl_drv/i2c/mpu6050/MPU6050.c **** 
2750:Libraries/ctrl_drv/i2c/mpu6050/MPU6050.c **** // WHO_AM_I register
2751:Libraries/ctrl_drv/i2c/mpu6050/MPU6050.c **** 
2752:Libraries/ctrl_drv/i2c/mpu6050/MPU6050.c **** /** Get Device ID.
2753:Libraries/ctrl_drv/i2c/mpu6050/MPU6050.c ****  * This register is used to verify the identity of the device (0b110100, 0x34).
2754:Libraries/ctrl_drv/i2c/mpu6050/MPU6050.c ****  * @return Device ID (6 bits only! should be 0x34)
2755:Libraries/ctrl_drv/i2c/mpu6050/MPU6050.c ****  * @see MPU6050_RA_WHO_AM_I
2756:Libraries/ctrl_drv/i2c/mpu6050/MPU6050.c ****  * @see MPU6050_WHO_AM_I_BIT
2757:Libraries/ctrl_drv/i2c/mpu6050/MPU6050.c ****  * @see MPU6050_WHO_AM_I_LENGTH
2758:Libraries/ctrl_drv/i2c/mpu6050/MPU6050.c ****  */
2759:Libraries/ctrl_drv/i2c/mpu6050/MPU6050.c **** uint8_t MPU6050_getDeviceID() {
 8756              		.loc 1 2759 31 is_stmt 1 view -0
 8757              		.cfi_startproc
 8758              		@ args = 0, pretend = 0, frame = 0
 8759              		@ frame_needed = 0, uses_anonymous_args = 0
 8760 0000 10B5     		push	{r4, lr}
 8761              	.LCFI258:
 8762              		.cfi_def_cfa_offset 8
 8763              		.cfi_offset 4, -8
 8764              		.cfi_offset 14, -4
2760:Libraries/ctrl_drv/i2c/mpu6050/MPU6050.c ****     //I2Cdev_readBits(mpu6050.devAddr, MPU6050_RA_WHO_AM_I, MPU6050_WHO_AM_I_BIT, MPU6050_WHO_AM_I_
2761:Libraries/ctrl_drv/i2c/mpu6050/MPU6050.c ****     I2Cdev_readBytes(mpu6050.devAddr, MPU6050_RA_WHO_AM_I, 1, mpu6050.buffer);
 8765              		.loc 1 2761 5 view .LVU1184
 8766 0002 054B     		ldr	r3, .L918
 8767 0004 5C1E     		subs	r4, r3, #1
 8768 0006 0122     		movs	r2, #1
 8769 0008 7521     		movs	r1, #117
 8770 000a 13F8010C 		ldrb	r0, [r3, #-1]	@ zero_extendqisi2
 8771 000e FFF7FEFF 		bl	I2Cdev_readBytes
 8772              	.LVL434:
2762:Libraries/ctrl_drv/i2c/mpu6050/MPU6050.c ****     return mpu6050.buffer[0];
 8773              		.loc 1 2762 5 view .LVU1185
2763:Libraries/ctrl_drv/i2c/mpu6050/MPU6050.c **** }
 8774              		.loc 1 2763 1 is_stmt 0 view .LVU1186
 8775 0012 6078     		ldrb	r0, [r4, #1]	@ zero_extendqisi2
 8776 0014 10BD     		pop	{r4, pc}
 8777              	.L919:
 8778 0016 00BF     		.align	2
 8779              	.L918:
 8780 0018 01000000 		.word	mpu6050+1
 8781              		.cfi_endproc
 8782              	.LFE206:
 8784              		.section	.text.MPU6050_testConnection,"ax",%progbits
 8785              		.align	1
 8786              		.global	MPU6050_testConnection
 8787              		.syntax unified
 8788              		.thumb
 8789              		.thumb_func
 8791              	MPU6050_testConnection:
 8792              	.LFB2:
  86:Libraries/ctrl_drv/i2c/mpu6050/MPU6050.c ****     uint8_t addr = MPU6050_getDeviceID();
 8793              		.loc 1 86 31 is_stmt 1 view -0
 8794              		.cfi_startproc
 8795              		@ args = 0, pretend = 0, frame = 0
 8796              		@ frame_needed = 0, uses_anonymous_args = 0
 8797 0000 08B5     		push	{r3, lr}
 8798              	.LCFI259:
ARM GAS  C:\Users\Mxuan\AppData\Local\Temp\ccfnFihP.s 			page 198


 8799              		.cfi_def_cfa_offset 8
 8800              		.cfi_offset 3, -8
 8801              		.cfi_offset 14, -4
  87:Libraries/ctrl_drv/i2c/mpu6050/MPU6050.c ****     _Bool i = addr == 0x68;
 8802              		.loc 1 87 5 view .LVU1188
  87:Libraries/ctrl_drv/i2c/mpu6050/MPU6050.c ****     _Bool i = addr == 0x68;
 8803              		.loc 1 87 20 is_stmt 0 view .LVU1189
 8804 0002 FFF7FEFF 		bl	MPU6050_getDeviceID
 8805              	.LVL435:
  88:Libraries/ctrl_drv/i2c/mpu6050/MPU6050.c ****     return i;
 8806              		.loc 1 88 5 is_stmt 1 view .LVU1190
  89:Libraries/ctrl_drv/i2c/mpu6050/MPU6050.c **** }
 8807              		.loc 1 89 5 view .LVU1191
  90:Libraries/ctrl_drv/i2c/mpu6050/MPU6050.c **** 
 8808              		.loc 1 90 1 is_stmt 0 view .LVU1192
 8809 0006 6828     		cmp	r0, #104
 8810 0008 14BF     		ite	ne
 8811 000a 0020     		movne	r0, #0
 8812              	.LVL436:
  90:Libraries/ctrl_drv/i2c/mpu6050/MPU6050.c **** 
 8813              		.loc 1 90 1 view .LVU1193
 8814 000c 0120     		moveq	r0, #1
 8815 000e 08BD     		pop	{r3, pc}
 8816              		.cfi_endproc
 8817              	.LFE2:
 8819              		.section	.text.MPU6050_setDeviceID,"ax",%progbits
 8820              		.align	1
 8821              		.global	MPU6050_setDeviceID
 8822              		.syntax unified
 8823              		.thumb
 8824              		.thumb_func
 8826              	MPU6050_setDeviceID:
 8827              	.LVL437:
 8828              	.LFB207:
2764:Libraries/ctrl_drv/i2c/mpu6050/MPU6050.c **** /** Set Device ID.
2765:Libraries/ctrl_drv/i2c/mpu6050/MPU6050.c ****  * Write a new ID into the WHO_AM_I register (no idea why this should ever be
2766:Libraries/ctrl_drv/i2c/mpu6050/MPU6050.c ****  * necessary though).
2767:Libraries/ctrl_drv/i2c/mpu6050/MPU6050.c ****  * @param id New device ID to set.
2768:Libraries/ctrl_drv/i2c/mpu6050/MPU6050.c ****  * @see getDeviceID()
2769:Libraries/ctrl_drv/i2c/mpu6050/MPU6050.c ****  * @see MPU6050_RA_WHO_AM_I
2770:Libraries/ctrl_drv/i2c/mpu6050/MPU6050.c ****  * @see MPU6050_WHO_AM_I_BIT
2771:Libraries/ctrl_drv/i2c/mpu6050/MPU6050.c ****  * @see MPU6050_WHO_AM_I_LENGTH
2772:Libraries/ctrl_drv/i2c/mpu6050/MPU6050.c ****  */
2773:Libraries/ctrl_drv/i2c/mpu6050/MPU6050.c **** void MPU6050_setDeviceID(uint8_t id) {
 8829              		.loc 1 2773 38 is_stmt 1 view -0
 8830              		.cfi_startproc
 8831              		@ args = 0, pretend = 0, frame = 0
 8832              		@ frame_needed = 0, uses_anonymous_args = 0
 8833              		.loc 1 2773 38 is_stmt 0 view .LVU1195
 8834 0000 00B5     		push	{lr}
 8835              	.LCFI260:
 8836              		.cfi_def_cfa_offset 4
 8837              		.cfi_offset 14, -4
 8838 0002 83B0     		sub	sp, sp, #12
 8839              	.LCFI261:
 8840              		.cfi_def_cfa_offset 16
2774:Libraries/ctrl_drv/i2c/mpu6050/MPU6050.c ****     I2Cdev_writeBits(mpu6050.devAddr, MPU6050_RA_WHO_AM_I, MPU6050_WHO_AM_I_BIT, MPU6050_WHO_AM_I_L
ARM GAS  C:\Users\Mxuan\AppData\Local\Temp\ccfnFihP.s 			page 199


 8841              		.loc 1 2774 5 is_stmt 1 view .LVU1196
 8842 0004 0090     		str	r0, [sp]
 8843 0006 0623     		movs	r3, #6
 8844 0008 1A46     		mov	r2, r3
 8845 000a 7521     		movs	r1, #117
 8846 000c 0348     		ldr	r0, .L924
 8847              	.LVL438:
 8848              		.loc 1 2774 5 is_stmt 0 view .LVU1197
 8849 000e 0078     		ldrb	r0, [r0]	@ zero_extendqisi2
 8850 0010 FFF7FEFF 		bl	I2Cdev_writeBits
 8851              	.LVL439:
2775:Libraries/ctrl_drv/i2c/mpu6050/MPU6050.c **** }
 8852              		.loc 1 2775 1 view .LVU1198
 8853 0014 03B0     		add	sp, sp, #12
 8854              	.LCFI262:
 8855              		.cfi_def_cfa_offset 4
 8856              		@ sp needed
 8857 0016 5DF804FB 		ldr	pc, [sp], #4
 8858              	.L925:
 8859 001a 00BF     		.align	2
 8860              	.L924:
 8861 001c 00000000 		.word	mpu6050
 8862              		.cfi_endproc
 8863              	.LFE207:
 8865              		.section	.text.MPU6050_getOTPBankValid,"ax",%progbits
 8866              		.align	1
 8867              		.global	MPU6050_getOTPBankValid
 8868              		.syntax unified
 8869              		.thumb
 8870              		.thumb_func
 8872              	MPU6050_getOTPBankValid:
 8873              	.LFB208:
2776:Libraries/ctrl_drv/i2c/mpu6050/MPU6050.c **** 
2777:Libraries/ctrl_drv/i2c/mpu6050/MPU6050.c **** // ======== UNDOCUMENTED/DMP REGISTERS/METHODS ========
2778:Libraries/ctrl_drv/i2c/mpu6050/MPU6050.c **** 
2779:Libraries/ctrl_drv/i2c/mpu6050/MPU6050.c **** // XG_OFFS_TC register
2780:Libraries/ctrl_drv/i2c/mpu6050/MPU6050.c **** 
2781:Libraries/ctrl_drv/i2c/mpu6050/MPU6050.c **** uint8_t MPU6050_getOTPBankValid() {
 8874              		.loc 1 2781 35 is_stmt 1 view -0
 8875              		.cfi_startproc
 8876              		@ args = 0, pretend = 0, frame = 0
 8877              		@ frame_needed = 0, uses_anonymous_args = 0
 8878 0000 10B5     		push	{r4, lr}
 8879              	.LCFI263:
 8880              		.cfi_def_cfa_offset 8
 8881              		.cfi_offset 4, -8
 8882              		.cfi_offset 14, -4
2782:Libraries/ctrl_drv/i2c/mpu6050/MPU6050.c ****     I2Cdev_readBit(mpu6050.devAddr, MPU6050_RA_XG_OFFS_TC, MPU6050_TC_OTP_BNK_VLD_BIT, mpu6050.buff
 8883              		.loc 1 2782 5 view .LVU1200
 8884 0002 054B     		ldr	r3, .L928
 8885 0004 5C1E     		subs	r4, r3, #1
 8886 0006 0022     		movs	r2, #0
 8887 0008 1146     		mov	r1, r2
 8888 000a 13F8010C 		ldrb	r0, [r3, #-1]	@ zero_extendqisi2
 8889 000e FFF7FEFF 		bl	I2Cdev_readBit
 8890              	.LVL440:
2783:Libraries/ctrl_drv/i2c/mpu6050/MPU6050.c ****     return mpu6050.buffer[0];
ARM GAS  C:\Users\Mxuan\AppData\Local\Temp\ccfnFihP.s 			page 200


 8891              		.loc 1 2783 5 view .LVU1201
2784:Libraries/ctrl_drv/i2c/mpu6050/MPU6050.c **** }
 8892              		.loc 1 2784 1 is_stmt 0 view .LVU1202
 8893 0012 6078     		ldrb	r0, [r4, #1]	@ zero_extendqisi2
 8894 0014 10BD     		pop	{r4, pc}
 8895              	.L929:
 8896 0016 00BF     		.align	2
 8897              	.L928:
 8898 0018 01000000 		.word	mpu6050+1
 8899              		.cfi_endproc
 8900              	.LFE208:
 8902              		.section	.text.MPU6050_setOTPBankValid,"ax",%progbits
 8903              		.align	1
 8904              		.global	MPU6050_setOTPBankValid
 8905              		.syntax unified
 8906              		.thumb
 8907              		.thumb_func
 8909              	MPU6050_setOTPBankValid:
 8910              	.LVL441:
 8911              	.LFB209:
2785:Libraries/ctrl_drv/i2c/mpu6050/MPU6050.c **** void MPU6050_setOTPBankValid(bool enabled) {
 8912              		.loc 1 2785 44 is_stmt 1 view -0
 8913              		.cfi_startproc
 8914              		@ args = 0, pretend = 0, frame = 0
 8915              		@ frame_needed = 0, uses_anonymous_args = 0
 8916              		.loc 1 2785 44 is_stmt 0 view .LVU1204
 8917 0000 08B5     		push	{r3, lr}
 8918              	.LCFI264:
 8919              		.cfi_def_cfa_offset 8
 8920              		.cfi_offset 3, -8
 8921              		.cfi_offset 14, -4
 8922 0002 0346     		mov	r3, r0
2786:Libraries/ctrl_drv/i2c/mpu6050/MPU6050.c ****     I2Cdev_writeBit(mpu6050.devAddr, MPU6050_RA_XG_OFFS_TC, MPU6050_TC_OTP_BNK_VLD_BIT, enabled);
 8923              		.loc 1 2786 5 is_stmt 1 view .LVU1205
 8924 0004 0022     		movs	r2, #0
 8925 0006 1146     		mov	r1, r2
 8926 0008 0248     		ldr	r0, .L932
 8927              	.LVL442:
 8928              		.loc 1 2786 5 is_stmt 0 view .LVU1206
 8929 000a 0078     		ldrb	r0, [r0]	@ zero_extendqisi2
 8930 000c FFF7FEFF 		bl	I2Cdev_writeBit
 8931              	.LVL443:
2787:Libraries/ctrl_drv/i2c/mpu6050/MPU6050.c **** }
 8932              		.loc 1 2787 1 view .LVU1207
 8933 0010 08BD     		pop	{r3, pc}
 8934              	.L933:
 8935 0012 00BF     		.align	2
 8936              	.L932:
 8937 0014 00000000 		.word	mpu6050
 8938              		.cfi_endproc
 8939              	.LFE209:
 8941              		.section	.text.MPU6050_getXGyroOffsetTC,"ax",%progbits
 8942              		.align	1
 8943              		.global	MPU6050_getXGyroOffsetTC
 8944              		.syntax unified
 8945              		.thumb
 8946              		.thumb_func
ARM GAS  C:\Users\Mxuan\AppData\Local\Temp\ccfnFihP.s 			page 201


 8948              	MPU6050_getXGyroOffsetTC:
 8949              	.LFB210:
2788:Libraries/ctrl_drv/i2c/mpu6050/MPU6050.c **** int8_t MPU6050_getXGyroOffsetTC() {
 8950              		.loc 1 2788 35 is_stmt 1 view -0
 8951              		.cfi_startproc
 8952              		@ args = 0, pretend = 0, frame = 0
 8953              		@ frame_needed = 0, uses_anonymous_args = 0
 8954 0000 10B5     		push	{r4, lr}
 8955              	.LCFI265:
 8956              		.cfi_def_cfa_offset 8
 8957              		.cfi_offset 4, -8
 8958              		.cfi_offset 14, -4
 8959 0002 82B0     		sub	sp, sp, #8
 8960              	.LCFI266:
 8961              		.cfi_def_cfa_offset 16
2789:Libraries/ctrl_drv/i2c/mpu6050/MPU6050.c ****     I2Cdev_readBits(mpu6050.devAddr, MPU6050_RA_XG_OFFS_TC, MPU6050_TC_OFFSET_BIT, MPU6050_TC_OFFSE
 8962              		.loc 1 2789 5 view .LVU1209
 8963 0004 064C     		ldr	r4, .L936
 8964 0006 2346     		mov	r3, r4
 8965 0008 13F8010B 		ldrb	r0, [r3], #1	@ zero_extendqisi2
 8966 000c 0093     		str	r3, [sp]
 8967 000e 0623     		movs	r3, #6
 8968 0010 1A46     		mov	r2, r3
 8969 0012 0021     		movs	r1, #0
 8970 0014 FFF7FEFF 		bl	I2Cdev_readBits
 8971              	.LVL444:
2790:Libraries/ctrl_drv/i2c/mpu6050/MPU6050.c ****     return mpu6050.buffer[0];
 8972              		.loc 1 2790 5 view .LVU1210
2791:Libraries/ctrl_drv/i2c/mpu6050/MPU6050.c **** }
 8973              		.loc 1 2791 1 is_stmt 0 view .LVU1211
 8974 0018 94F90100 		ldrsb	r0, [r4, #1]
 8975 001c 02B0     		add	sp, sp, #8
 8976              	.LCFI267:
 8977              		.cfi_def_cfa_offset 8
 8978              		@ sp needed
 8979 001e 10BD     		pop	{r4, pc}
 8980              	.L937:
 8981              		.align	2
 8982              	.L936:
 8983 0020 00000000 		.word	mpu6050
 8984              		.cfi_endproc
 8985              	.LFE210:
 8987              		.section	.text.MPU6050_setXGyroOffsetTC,"ax",%progbits
 8988              		.align	1
 8989              		.global	MPU6050_setXGyroOffsetTC
 8990              		.syntax unified
 8991              		.thumb
 8992              		.thumb_func
 8994              	MPU6050_setXGyroOffsetTC:
 8995              	.LVL445:
 8996              	.LFB211:
2792:Libraries/ctrl_drv/i2c/mpu6050/MPU6050.c **** void MPU6050_setXGyroOffsetTC(int8_t offset) {
 8997              		.loc 1 2792 46 is_stmt 1 view -0
 8998              		.cfi_startproc
 8999              		@ args = 0, pretend = 0, frame = 0
 9000              		@ frame_needed = 0, uses_anonymous_args = 0
 9001              		.loc 1 2792 46 is_stmt 0 view .LVU1213
ARM GAS  C:\Users\Mxuan\AppData\Local\Temp\ccfnFihP.s 			page 202


 9002 0000 00B5     		push	{lr}
 9003              	.LCFI268:
 9004              		.cfi_def_cfa_offset 4
 9005              		.cfi_offset 14, -4
 9006 0002 83B0     		sub	sp, sp, #12
 9007              	.LCFI269:
 9008              		.cfi_def_cfa_offset 16
2793:Libraries/ctrl_drv/i2c/mpu6050/MPU6050.c ****     I2Cdev_writeBits(mpu6050.devAddr, MPU6050_RA_XG_OFFS_TC, MPU6050_TC_OFFSET_BIT, MPU6050_TC_OFFS
 9009              		.loc 1 2793 5 is_stmt 1 view .LVU1214
 9010 0004 C0B2     		uxtb	r0, r0
 9011              		.loc 1 2793 5 is_stmt 0 view .LVU1215
 9012 0006 0090     		str	r0, [sp]
 9013 0008 0623     		movs	r3, #6
 9014 000a 1A46     		mov	r2, r3
 9015 000c 0021     		movs	r1, #0
 9016 000e 0348     		ldr	r0, .L940
 9017              	.LVL446:
 9018              		.loc 1 2793 5 view .LVU1216
 9019 0010 0078     		ldrb	r0, [r0]	@ zero_extendqisi2
 9020 0012 FFF7FEFF 		bl	I2Cdev_writeBits
 9021              	.LVL447:
2794:Libraries/ctrl_drv/i2c/mpu6050/MPU6050.c **** }
 9022              		.loc 1 2794 1 view .LVU1217
 9023 0016 03B0     		add	sp, sp, #12
 9024              	.LCFI270:
 9025              		.cfi_def_cfa_offset 4
 9026              		@ sp needed
 9027 0018 5DF804FB 		ldr	pc, [sp], #4
 9028              	.L941:
 9029              		.align	2
 9030              	.L940:
 9031 001c 00000000 		.word	mpu6050
 9032              		.cfi_endproc
 9033              	.LFE211:
 9035              		.section	.text.MPU6050_getYGyroOffsetTC,"ax",%progbits
 9036              		.align	1
 9037              		.global	MPU6050_getYGyroOffsetTC
 9038              		.syntax unified
 9039              		.thumb
 9040              		.thumb_func
 9042              	MPU6050_getYGyroOffsetTC:
 9043              	.LFB212:
2795:Libraries/ctrl_drv/i2c/mpu6050/MPU6050.c **** 
2796:Libraries/ctrl_drv/i2c/mpu6050/MPU6050.c **** // YG_OFFS_TC register
2797:Libraries/ctrl_drv/i2c/mpu6050/MPU6050.c **** 
2798:Libraries/ctrl_drv/i2c/mpu6050/MPU6050.c **** int8_t MPU6050_getYGyroOffsetTC() {
 9044              		.loc 1 2798 35 is_stmt 1 view -0
 9045              		.cfi_startproc
 9046              		@ args = 0, pretend = 0, frame = 0
 9047              		@ frame_needed = 0, uses_anonymous_args = 0
 9048 0000 10B5     		push	{r4, lr}
 9049              	.LCFI271:
 9050              		.cfi_def_cfa_offset 8
 9051              		.cfi_offset 4, -8
 9052              		.cfi_offset 14, -4
 9053 0002 82B0     		sub	sp, sp, #8
 9054              	.LCFI272:
ARM GAS  C:\Users\Mxuan\AppData\Local\Temp\ccfnFihP.s 			page 203


 9055              		.cfi_def_cfa_offset 16
2799:Libraries/ctrl_drv/i2c/mpu6050/MPU6050.c ****     I2Cdev_readBits(mpu6050.devAddr, MPU6050_RA_YG_OFFS_TC, MPU6050_TC_OFFSET_BIT, MPU6050_TC_OFFSE
 9056              		.loc 1 2799 5 view .LVU1219
 9057 0004 064C     		ldr	r4, .L944
 9058 0006 2346     		mov	r3, r4
 9059 0008 13F8010B 		ldrb	r0, [r3], #1	@ zero_extendqisi2
 9060 000c 0093     		str	r3, [sp]
 9061 000e 0623     		movs	r3, #6
 9062 0010 1A46     		mov	r2, r3
 9063 0012 0121     		movs	r1, #1
 9064 0014 FFF7FEFF 		bl	I2Cdev_readBits
 9065              	.LVL448:
2800:Libraries/ctrl_drv/i2c/mpu6050/MPU6050.c ****     return mpu6050.buffer[0];
 9066              		.loc 1 2800 5 view .LVU1220
2801:Libraries/ctrl_drv/i2c/mpu6050/MPU6050.c **** }
 9067              		.loc 1 2801 1 is_stmt 0 view .LVU1221
 9068 0018 94F90100 		ldrsb	r0, [r4, #1]
 9069 001c 02B0     		add	sp, sp, #8
 9070              	.LCFI273:
 9071              		.cfi_def_cfa_offset 8
 9072              		@ sp needed
 9073 001e 10BD     		pop	{r4, pc}
 9074              	.L945:
 9075              		.align	2
 9076              	.L944:
 9077 0020 00000000 		.word	mpu6050
 9078              		.cfi_endproc
 9079              	.LFE212:
 9081              		.section	.text.MPU6050_setYGyroOffsetTC,"ax",%progbits
 9082              		.align	1
 9083              		.global	MPU6050_setYGyroOffsetTC
 9084              		.syntax unified
 9085              		.thumb
 9086              		.thumb_func
 9088              	MPU6050_setYGyroOffsetTC:
 9089              	.LVL449:
 9090              	.LFB213:
2802:Libraries/ctrl_drv/i2c/mpu6050/MPU6050.c **** void MPU6050_setYGyroOffsetTC(int8_t offset) {
 9091              		.loc 1 2802 46 is_stmt 1 view -0
 9092              		.cfi_startproc
 9093              		@ args = 0, pretend = 0, frame = 0
 9094              		@ frame_needed = 0, uses_anonymous_args = 0
 9095              		.loc 1 2802 46 is_stmt 0 view .LVU1223
 9096 0000 00B5     		push	{lr}
 9097              	.LCFI274:
 9098              		.cfi_def_cfa_offset 4
 9099              		.cfi_offset 14, -4
 9100 0002 83B0     		sub	sp, sp, #12
 9101              	.LCFI275:
 9102              		.cfi_def_cfa_offset 16
2803:Libraries/ctrl_drv/i2c/mpu6050/MPU6050.c ****     I2Cdev_writeBits(mpu6050.devAddr, MPU6050_RA_YG_OFFS_TC, MPU6050_TC_OFFSET_BIT, MPU6050_TC_OFFS
 9103              		.loc 1 2803 5 is_stmt 1 view .LVU1224
 9104 0004 C0B2     		uxtb	r0, r0
 9105              		.loc 1 2803 5 is_stmt 0 view .LVU1225
 9106 0006 0090     		str	r0, [sp]
 9107 0008 0623     		movs	r3, #6
 9108 000a 1A46     		mov	r2, r3
ARM GAS  C:\Users\Mxuan\AppData\Local\Temp\ccfnFihP.s 			page 204


 9109 000c 0121     		movs	r1, #1
 9110 000e 0348     		ldr	r0, .L948
 9111              	.LVL450:
 9112              		.loc 1 2803 5 view .LVU1226
 9113 0010 0078     		ldrb	r0, [r0]	@ zero_extendqisi2
 9114 0012 FFF7FEFF 		bl	I2Cdev_writeBits
 9115              	.LVL451:
2804:Libraries/ctrl_drv/i2c/mpu6050/MPU6050.c **** }
 9116              		.loc 1 2804 1 view .LVU1227
 9117 0016 03B0     		add	sp, sp, #12
 9118              	.LCFI276:
 9119              		.cfi_def_cfa_offset 4
 9120              		@ sp needed
 9121 0018 5DF804FB 		ldr	pc, [sp], #4
 9122              	.L949:
 9123              		.align	2
 9124              	.L948:
 9125 001c 00000000 		.word	mpu6050
 9126              		.cfi_endproc
 9127              	.LFE213:
 9129              		.section	.text.MPU6050_getZGyroOffsetTC,"ax",%progbits
 9130              		.align	1
 9131              		.global	MPU6050_getZGyroOffsetTC
 9132              		.syntax unified
 9133              		.thumb
 9134              		.thumb_func
 9136              	MPU6050_getZGyroOffsetTC:
 9137              	.LFB214:
2805:Libraries/ctrl_drv/i2c/mpu6050/MPU6050.c **** 
2806:Libraries/ctrl_drv/i2c/mpu6050/MPU6050.c **** // ZG_OFFS_TC register
2807:Libraries/ctrl_drv/i2c/mpu6050/MPU6050.c **** 
2808:Libraries/ctrl_drv/i2c/mpu6050/MPU6050.c **** int8_t MPU6050_getZGyroOffsetTC() {
 9138              		.loc 1 2808 35 is_stmt 1 view -0
 9139              		.cfi_startproc
 9140              		@ args = 0, pretend = 0, frame = 0
 9141              		@ frame_needed = 0, uses_anonymous_args = 0
 9142 0000 10B5     		push	{r4, lr}
 9143              	.LCFI277:
 9144              		.cfi_def_cfa_offset 8
 9145              		.cfi_offset 4, -8
 9146              		.cfi_offset 14, -4
 9147 0002 82B0     		sub	sp, sp, #8
 9148              	.LCFI278:
 9149              		.cfi_def_cfa_offset 16
2809:Libraries/ctrl_drv/i2c/mpu6050/MPU6050.c ****     I2Cdev_readBits(mpu6050.devAddr, MPU6050_RA_ZG_OFFS_TC, MPU6050_TC_OFFSET_BIT, MPU6050_TC_OFFSE
 9150              		.loc 1 2809 5 view .LVU1229
 9151 0004 064C     		ldr	r4, .L952
 9152 0006 2346     		mov	r3, r4
 9153 0008 13F8010B 		ldrb	r0, [r3], #1	@ zero_extendqisi2
 9154 000c 0093     		str	r3, [sp]
 9155 000e 0623     		movs	r3, #6
 9156 0010 1A46     		mov	r2, r3
 9157 0012 0221     		movs	r1, #2
 9158 0014 FFF7FEFF 		bl	I2Cdev_readBits
 9159              	.LVL452:
2810:Libraries/ctrl_drv/i2c/mpu6050/MPU6050.c ****     return mpu6050.buffer[0];
 9160              		.loc 1 2810 5 view .LVU1230
ARM GAS  C:\Users\Mxuan\AppData\Local\Temp\ccfnFihP.s 			page 205


2811:Libraries/ctrl_drv/i2c/mpu6050/MPU6050.c **** }
 9161              		.loc 1 2811 1 is_stmt 0 view .LVU1231
 9162 0018 94F90100 		ldrsb	r0, [r4, #1]
 9163 001c 02B0     		add	sp, sp, #8
 9164              	.LCFI279:
 9165              		.cfi_def_cfa_offset 8
 9166              		@ sp needed
 9167 001e 10BD     		pop	{r4, pc}
 9168              	.L953:
 9169              		.align	2
 9170              	.L952:
 9171 0020 00000000 		.word	mpu6050
 9172              		.cfi_endproc
 9173              	.LFE214:
 9175              		.section	.text.MPU6050_setZGyroOffsetTC,"ax",%progbits
 9176              		.align	1
 9177              		.global	MPU6050_setZGyroOffsetTC
 9178              		.syntax unified
 9179              		.thumb
 9180              		.thumb_func
 9182              	MPU6050_setZGyroOffsetTC:
 9183              	.LVL453:
 9184              	.LFB215:
2812:Libraries/ctrl_drv/i2c/mpu6050/MPU6050.c **** void MPU6050_setZGyroOffsetTC(int8_t offset) {
 9185              		.loc 1 2812 46 is_stmt 1 view -0
 9186              		.cfi_startproc
 9187              		@ args = 0, pretend = 0, frame = 0
 9188              		@ frame_needed = 0, uses_anonymous_args = 0
 9189              		.loc 1 2812 46 is_stmt 0 view .LVU1233
 9190 0000 00B5     		push	{lr}
 9191              	.LCFI280:
 9192              		.cfi_def_cfa_offset 4
 9193              		.cfi_offset 14, -4
 9194 0002 83B0     		sub	sp, sp, #12
 9195              	.LCFI281:
 9196              		.cfi_def_cfa_offset 16
2813:Libraries/ctrl_drv/i2c/mpu6050/MPU6050.c ****     I2Cdev_writeBits(mpu6050.devAddr, MPU6050_RA_ZG_OFFS_TC, MPU6050_TC_OFFSET_BIT, MPU6050_TC_OFFS
 9197              		.loc 1 2813 5 is_stmt 1 view .LVU1234
 9198 0004 C0B2     		uxtb	r0, r0
 9199              		.loc 1 2813 5 is_stmt 0 view .LVU1235
 9200 0006 0090     		str	r0, [sp]
 9201 0008 0623     		movs	r3, #6
 9202 000a 1A46     		mov	r2, r3
 9203 000c 0221     		movs	r1, #2
 9204 000e 0348     		ldr	r0, .L956
 9205              	.LVL454:
 9206              		.loc 1 2813 5 view .LVU1236
 9207 0010 0078     		ldrb	r0, [r0]	@ zero_extendqisi2
 9208 0012 FFF7FEFF 		bl	I2Cdev_writeBits
 9209              	.LVL455:
2814:Libraries/ctrl_drv/i2c/mpu6050/MPU6050.c **** }
 9210              		.loc 1 2814 1 view .LVU1237
 9211 0016 03B0     		add	sp, sp, #12
 9212              	.LCFI282:
 9213              		.cfi_def_cfa_offset 4
 9214              		@ sp needed
 9215 0018 5DF804FB 		ldr	pc, [sp], #4
ARM GAS  C:\Users\Mxuan\AppData\Local\Temp\ccfnFihP.s 			page 206


 9216              	.L957:
 9217              		.align	2
 9218              	.L956:
 9219 001c 00000000 		.word	mpu6050
 9220              		.cfi_endproc
 9221              	.LFE215:
 9223              		.section	.text.MPU6050_getXFineGain,"ax",%progbits
 9224              		.align	1
 9225              		.global	MPU6050_getXFineGain
 9226              		.syntax unified
 9227              		.thumb
 9228              		.thumb_func
 9230              	MPU6050_getXFineGain:
 9231              	.LFB216:
2815:Libraries/ctrl_drv/i2c/mpu6050/MPU6050.c **** 
2816:Libraries/ctrl_drv/i2c/mpu6050/MPU6050.c **** // X_FINE_GAIN register
2817:Libraries/ctrl_drv/i2c/mpu6050/MPU6050.c **** 
2818:Libraries/ctrl_drv/i2c/mpu6050/MPU6050.c **** int8_t MPU6050_getXFineGain() {
 9232              		.loc 1 2818 31 is_stmt 1 view -0
 9233              		.cfi_startproc
 9234              		@ args = 0, pretend = 0, frame = 0
 9235              		@ frame_needed = 0, uses_anonymous_args = 0
 9236 0000 10B5     		push	{r4, lr}
 9237              	.LCFI283:
 9238              		.cfi_def_cfa_offset 8
 9239              		.cfi_offset 4, -8
 9240              		.cfi_offset 14, -4
2819:Libraries/ctrl_drv/i2c/mpu6050/MPU6050.c ****     I2Cdev_readByte(mpu6050.devAddr, MPU6050_RA_X_FINE_GAIN, mpu6050.buffer);
 9241              		.loc 1 2819 5 view .LVU1239
 9242 0002 054A     		ldr	r2, .L960
 9243 0004 541E     		subs	r4, r2, #1
 9244 0006 0321     		movs	r1, #3
 9245 0008 12F8010C 		ldrb	r0, [r2, #-1]	@ zero_extendqisi2
 9246 000c FFF7FEFF 		bl	I2Cdev_readByte
 9247              	.LVL456:
2820:Libraries/ctrl_drv/i2c/mpu6050/MPU6050.c ****     return mpu6050.buffer[0];
 9248              		.loc 1 2820 5 view .LVU1240
2821:Libraries/ctrl_drv/i2c/mpu6050/MPU6050.c **** }
 9249              		.loc 1 2821 1 is_stmt 0 view .LVU1241
 9250 0010 94F90100 		ldrsb	r0, [r4, #1]
 9251 0014 10BD     		pop	{r4, pc}
 9252              	.L961:
 9253 0016 00BF     		.align	2
 9254              	.L960:
 9255 0018 01000000 		.word	mpu6050+1
 9256              		.cfi_endproc
 9257              	.LFE216:
 9259              		.section	.text.MPU6050_setXFineGain,"ax",%progbits
 9260              		.align	1
 9261              		.global	MPU6050_setXFineGain
 9262              		.syntax unified
 9263              		.thumb
 9264              		.thumb_func
 9266              	MPU6050_setXFineGain:
 9267              	.LVL457:
 9268              	.LFB217:
2822:Libraries/ctrl_drv/i2c/mpu6050/MPU6050.c **** void MPU6050_setXFineGain(int8_t gain) {
ARM GAS  C:\Users\Mxuan\AppData\Local\Temp\ccfnFihP.s 			page 207


 9269              		.loc 1 2822 40 is_stmt 1 view -0
 9270              		.cfi_startproc
 9271              		@ args = 0, pretend = 0, frame = 0
 9272              		@ frame_needed = 0, uses_anonymous_args = 0
 9273              		.loc 1 2822 40 is_stmt 0 view .LVU1243
 9274 0000 08B5     		push	{r3, lr}
 9275              	.LCFI284:
 9276              		.cfi_def_cfa_offset 8
 9277              		.cfi_offset 3, -8
 9278              		.cfi_offset 14, -4
2823:Libraries/ctrl_drv/i2c/mpu6050/MPU6050.c ****     I2Cdev_writeByte(mpu6050.devAddr, MPU6050_RA_X_FINE_GAIN, gain);
 9279              		.loc 1 2823 5 is_stmt 1 view .LVU1244
 9280 0002 C2B2     		uxtb	r2, r0
 9281 0004 0321     		movs	r1, #3
 9282 0006 024B     		ldr	r3, .L964
 9283 0008 1878     		ldrb	r0, [r3]	@ zero_extendqisi2
 9284              	.LVL458:
 9285              		.loc 1 2823 5 is_stmt 0 view .LVU1245
 9286 000a FFF7FEFF 		bl	I2Cdev_writeByte
 9287              	.LVL459:
2824:Libraries/ctrl_drv/i2c/mpu6050/MPU6050.c **** }
 9288              		.loc 1 2824 1 view .LVU1246
 9289 000e 08BD     		pop	{r3, pc}
 9290              	.L965:
 9291              		.align	2
 9292              	.L964:
 9293 0010 00000000 		.word	mpu6050
 9294              		.cfi_endproc
 9295              	.LFE217:
 9297              		.section	.text.MPU6050_getYFineGain,"ax",%progbits
 9298              		.align	1
 9299              		.global	MPU6050_getYFineGain
 9300              		.syntax unified
 9301              		.thumb
 9302              		.thumb_func
 9304              	MPU6050_getYFineGain:
 9305              	.LFB218:
2825:Libraries/ctrl_drv/i2c/mpu6050/MPU6050.c **** 
2826:Libraries/ctrl_drv/i2c/mpu6050/MPU6050.c **** // Y_FINE_GAIN register
2827:Libraries/ctrl_drv/i2c/mpu6050/MPU6050.c **** 
2828:Libraries/ctrl_drv/i2c/mpu6050/MPU6050.c **** int8_t MPU6050_getYFineGain() {
 9306              		.loc 1 2828 31 is_stmt 1 view -0
 9307              		.cfi_startproc
 9308              		@ args = 0, pretend = 0, frame = 0
 9309              		@ frame_needed = 0, uses_anonymous_args = 0
 9310 0000 10B5     		push	{r4, lr}
 9311              	.LCFI285:
 9312              		.cfi_def_cfa_offset 8
 9313              		.cfi_offset 4, -8
 9314              		.cfi_offset 14, -4
2829:Libraries/ctrl_drv/i2c/mpu6050/MPU6050.c ****     I2Cdev_readByte(mpu6050.devAddr, MPU6050_RA_Y_FINE_GAIN, mpu6050.buffer);
 9315              		.loc 1 2829 5 view .LVU1248
 9316 0002 054A     		ldr	r2, .L968
 9317 0004 541E     		subs	r4, r2, #1
 9318 0006 0421     		movs	r1, #4
 9319 0008 12F8010C 		ldrb	r0, [r2, #-1]	@ zero_extendqisi2
 9320 000c FFF7FEFF 		bl	I2Cdev_readByte
ARM GAS  C:\Users\Mxuan\AppData\Local\Temp\ccfnFihP.s 			page 208


 9321              	.LVL460:
2830:Libraries/ctrl_drv/i2c/mpu6050/MPU6050.c ****     return mpu6050.buffer[0];
 9322              		.loc 1 2830 5 view .LVU1249
2831:Libraries/ctrl_drv/i2c/mpu6050/MPU6050.c **** }
 9323              		.loc 1 2831 1 is_stmt 0 view .LVU1250
 9324 0010 94F90100 		ldrsb	r0, [r4, #1]
 9325 0014 10BD     		pop	{r4, pc}
 9326              	.L969:
 9327 0016 00BF     		.align	2
 9328              	.L968:
 9329 0018 01000000 		.word	mpu6050+1
 9330              		.cfi_endproc
 9331              	.LFE218:
 9333              		.section	.text.MPU6050_setYFineGain,"ax",%progbits
 9334              		.align	1
 9335              		.global	MPU6050_setYFineGain
 9336              		.syntax unified
 9337              		.thumb
 9338              		.thumb_func
 9340              	MPU6050_setYFineGain:
 9341              	.LVL461:
 9342              	.LFB219:
2832:Libraries/ctrl_drv/i2c/mpu6050/MPU6050.c **** void MPU6050_setYFineGain(int8_t gain) {
 9343              		.loc 1 2832 40 is_stmt 1 view -0
 9344              		.cfi_startproc
 9345              		@ args = 0, pretend = 0, frame = 0
 9346              		@ frame_needed = 0, uses_anonymous_args = 0
 9347              		.loc 1 2832 40 is_stmt 0 view .LVU1252
 9348 0000 08B5     		push	{r3, lr}
 9349              	.LCFI286:
 9350              		.cfi_def_cfa_offset 8
 9351              		.cfi_offset 3, -8
 9352              		.cfi_offset 14, -4
2833:Libraries/ctrl_drv/i2c/mpu6050/MPU6050.c ****     I2Cdev_writeByte(mpu6050.devAddr, MPU6050_RA_Y_FINE_GAIN, gain);
 9353              		.loc 1 2833 5 is_stmt 1 view .LVU1253
 9354 0002 C2B2     		uxtb	r2, r0
 9355 0004 0421     		movs	r1, #4
 9356 0006 024B     		ldr	r3, .L972
 9357 0008 1878     		ldrb	r0, [r3]	@ zero_extendqisi2
 9358              	.LVL462:
 9359              		.loc 1 2833 5 is_stmt 0 view .LVU1254
 9360 000a FFF7FEFF 		bl	I2Cdev_writeByte
 9361              	.LVL463:
2834:Libraries/ctrl_drv/i2c/mpu6050/MPU6050.c **** }
 9362              		.loc 1 2834 1 view .LVU1255
 9363 000e 08BD     		pop	{r3, pc}
 9364              	.L973:
 9365              		.align	2
 9366              	.L972:
 9367 0010 00000000 		.word	mpu6050
 9368              		.cfi_endproc
 9369              	.LFE219:
 9371              		.section	.text.MPU6050_getZFineGain,"ax",%progbits
 9372              		.align	1
 9373              		.global	MPU6050_getZFineGain
 9374              		.syntax unified
 9375              		.thumb
ARM GAS  C:\Users\Mxuan\AppData\Local\Temp\ccfnFihP.s 			page 209


 9376              		.thumb_func
 9378              	MPU6050_getZFineGain:
 9379              	.LFB220:
2835:Libraries/ctrl_drv/i2c/mpu6050/MPU6050.c **** 
2836:Libraries/ctrl_drv/i2c/mpu6050/MPU6050.c **** // Z_FINE_GAIN register
2837:Libraries/ctrl_drv/i2c/mpu6050/MPU6050.c **** 
2838:Libraries/ctrl_drv/i2c/mpu6050/MPU6050.c **** int8_t MPU6050_getZFineGain() {
 9380              		.loc 1 2838 31 is_stmt 1 view -0
 9381              		.cfi_startproc
 9382              		@ args = 0, pretend = 0, frame = 0
 9383              		@ frame_needed = 0, uses_anonymous_args = 0
 9384 0000 10B5     		push	{r4, lr}
 9385              	.LCFI287:
 9386              		.cfi_def_cfa_offset 8
 9387              		.cfi_offset 4, -8
 9388              		.cfi_offset 14, -4
2839:Libraries/ctrl_drv/i2c/mpu6050/MPU6050.c ****     I2Cdev_readByte(mpu6050.devAddr, MPU6050_RA_Z_FINE_GAIN, mpu6050.buffer);
 9389              		.loc 1 2839 5 view .LVU1257
 9390 0002 054A     		ldr	r2, .L976
 9391 0004 541E     		subs	r4, r2, #1
 9392 0006 0521     		movs	r1, #5
 9393 0008 12F8010C 		ldrb	r0, [r2, #-1]	@ zero_extendqisi2
 9394 000c FFF7FEFF 		bl	I2Cdev_readByte
 9395              	.LVL464:
2840:Libraries/ctrl_drv/i2c/mpu6050/MPU6050.c ****     return mpu6050.buffer[0];
 9396              		.loc 1 2840 5 view .LVU1258
2841:Libraries/ctrl_drv/i2c/mpu6050/MPU6050.c **** }
 9397              		.loc 1 2841 1 is_stmt 0 view .LVU1259
 9398 0010 94F90100 		ldrsb	r0, [r4, #1]
 9399 0014 10BD     		pop	{r4, pc}
 9400              	.L977:
 9401 0016 00BF     		.align	2
 9402              	.L976:
 9403 0018 01000000 		.word	mpu6050+1
 9404              		.cfi_endproc
 9405              	.LFE220:
 9407              		.section	.text.MPU6050_setZFineGain,"ax",%progbits
 9408              		.align	1
 9409              		.global	MPU6050_setZFineGain
 9410              		.syntax unified
 9411              		.thumb
 9412              		.thumb_func
 9414              	MPU6050_setZFineGain:
 9415              	.LVL465:
 9416              	.LFB221:
2842:Libraries/ctrl_drv/i2c/mpu6050/MPU6050.c **** void MPU6050_setZFineGain(int8_t gain) {
 9417              		.loc 1 2842 40 is_stmt 1 view -0
 9418              		.cfi_startproc
 9419              		@ args = 0, pretend = 0, frame = 0
 9420              		@ frame_needed = 0, uses_anonymous_args = 0
 9421              		.loc 1 2842 40 is_stmt 0 view .LVU1261
 9422 0000 08B5     		push	{r3, lr}
 9423              	.LCFI288:
 9424              		.cfi_def_cfa_offset 8
 9425              		.cfi_offset 3, -8
 9426              		.cfi_offset 14, -4
2843:Libraries/ctrl_drv/i2c/mpu6050/MPU6050.c ****     I2Cdev_writeByte(mpu6050.devAddr, MPU6050_RA_Z_FINE_GAIN, gain);
ARM GAS  C:\Users\Mxuan\AppData\Local\Temp\ccfnFihP.s 			page 210


 9427              		.loc 1 2843 5 is_stmt 1 view .LVU1262
 9428 0002 C2B2     		uxtb	r2, r0
 9429 0004 0521     		movs	r1, #5
 9430 0006 024B     		ldr	r3, .L980
 9431 0008 1878     		ldrb	r0, [r3]	@ zero_extendqisi2
 9432              	.LVL466:
 9433              		.loc 1 2843 5 is_stmt 0 view .LVU1263
 9434 000a FFF7FEFF 		bl	I2Cdev_writeByte
 9435              	.LVL467:
2844:Libraries/ctrl_drv/i2c/mpu6050/MPU6050.c **** }
 9436              		.loc 1 2844 1 view .LVU1264
 9437 000e 08BD     		pop	{r3, pc}
 9438              	.L981:
 9439              		.align	2
 9440              	.L980:
 9441 0010 00000000 		.word	mpu6050
 9442              		.cfi_endproc
 9443              	.LFE221:
 9445              		.section	.text.MPU6050_getXAccelOffset,"ax",%progbits
 9446              		.align	1
 9447              		.global	MPU6050_getXAccelOffset
 9448              		.syntax unified
 9449              		.thumb
 9450              		.thumb_func
 9452              	MPU6050_getXAccelOffset:
 9453              	.LFB222:
2845:Libraries/ctrl_drv/i2c/mpu6050/MPU6050.c **** 
2846:Libraries/ctrl_drv/i2c/mpu6050/MPU6050.c **** // XA_OFFS_* registers
2847:Libraries/ctrl_drv/i2c/mpu6050/MPU6050.c **** 
2848:Libraries/ctrl_drv/i2c/mpu6050/MPU6050.c **** int16_t MPU6050_getXAccelOffset() {
 9454              		.loc 1 2848 35 is_stmt 1 view -0
 9455              		.cfi_startproc
 9456              		@ args = 0, pretend = 0, frame = 0
 9457              		@ frame_needed = 0, uses_anonymous_args = 0
 9458 0000 10B5     		push	{r4, lr}
 9459              	.LCFI289:
 9460              		.cfi_def_cfa_offset 8
 9461              		.cfi_offset 4, -8
 9462              		.cfi_offset 14, -4
2849:Libraries/ctrl_drv/i2c/mpu6050/MPU6050.c ****     I2Cdev_readBytes(mpu6050.devAddr, MPU6050_RA_XA_OFFS_H, 2, mpu6050.buffer);
 9463              		.loc 1 2849 5 view .LVU1266
 9464 0002 074B     		ldr	r3, .L984
 9465 0004 1C46     		mov	r4, r3
 9466 0006 0222     		movs	r2, #2
 9467 0008 0621     		movs	r1, #6
 9468 000a 13F8010C 		ldrb	r0, [r3, #-1]	@ zero_extendqisi2
 9469 000e FFF7FEFF 		bl	I2Cdev_readBytes
 9470              	.LVL468:
2850:Libraries/ctrl_drv/i2c/mpu6050/MPU6050.c ****     return (((int16_t)mpu6050.buffer[0]) << 8) | mpu6050.buffer[1];
 9471              		.loc 1 2850 5 view .LVU1267
 9472              		.loc 1 2850 37 is_stmt 0 view .LVU1268
 9473 0012 14F80139 		ldrb	r3, [r4], #-1	@ zero_extendqisi2
 9474              		.loc 1 2850 64 view .LVU1269
 9475 0016 A078     		ldrb	r0, [r4, #2]	@ zero_extendqisi2
 9476              		.loc 1 2850 48 view .LVU1270
 9477 0018 40EA0320 		orr	r0, r0, r3, lsl #8
2851:Libraries/ctrl_drv/i2c/mpu6050/MPU6050.c **** }
ARM GAS  C:\Users\Mxuan\AppData\Local\Temp\ccfnFihP.s 			page 211


 9478              		.loc 1 2851 1 view .LVU1271
 9479 001c 00B2     		sxth	r0, r0
 9480 001e 10BD     		pop	{r4, pc}
 9481              	.L985:
 9482              		.align	2
 9483              	.L984:
 9484 0020 01000000 		.word	mpu6050+1
 9485              		.cfi_endproc
 9486              	.LFE222:
 9488              		.section	.text.MPU6050_setXAccelOffset,"ax",%progbits
 9489              		.align	1
 9490              		.global	MPU6050_setXAccelOffset
 9491              		.syntax unified
 9492              		.thumb
 9493              		.thumb_func
 9495              	MPU6050_setXAccelOffset:
 9496              	.LVL469:
 9497              	.LFB223:
2852:Libraries/ctrl_drv/i2c/mpu6050/MPU6050.c **** void MPU6050_setXAccelOffset(int16_t offset) {
 9498              		.loc 1 2852 46 is_stmt 1 view -0
 9499              		.cfi_startproc
 9500              		@ args = 0, pretend = 0, frame = 0
 9501              		@ frame_needed = 0, uses_anonymous_args = 0
 9502              		.loc 1 2852 46 is_stmt 0 view .LVU1273
 9503 0000 08B5     		push	{r3, lr}
 9504              	.LCFI290:
 9505              		.cfi_def_cfa_offset 8
 9506              		.cfi_offset 3, -8
 9507              		.cfi_offset 14, -4
2853:Libraries/ctrl_drv/i2c/mpu6050/MPU6050.c ****     I2Cdev_writeWord(mpu6050.devAddr, MPU6050_RA_XA_OFFS_H, offset);
 9508              		.loc 1 2853 5 is_stmt 1 view .LVU1274
 9509 0002 82B2     		uxth	r2, r0
 9510 0004 0621     		movs	r1, #6
 9511 0006 024B     		ldr	r3, .L988
 9512 0008 1878     		ldrb	r0, [r3]	@ zero_extendqisi2
 9513              	.LVL470:
 9514              		.loc 1 2853 5 is_stmt 0 view .LVU1275
 9515 000a FFF7FEFF 		bl	I2Cdev_writeWord
 9516              	.LVL471:
2854:Libraries/ctrl_drv/i2c/mpu6050/MPU6050.c **** }
 9517              		.loc 1 2854 1 view .LVU1276
 9518 000e 08BD     		pop	{r3, pc}
 9519              	.L989:
 9520              		.align	2
 9521              	.L988:
 9522 0010 00000000 		.word	mpu6050
 9523              		.cfi_endproc
 9524              	.LFE223:
 9526              		.section	.text.MPU6050_getYAccelOffset,"ax",%progbits
 9527              		.align	1
 9528              		.global	MPU6050_getYAccelOffset
 9529              		.syntax unified
 9530              		.thumb
 9531              		.thumb_func
 9533              	MPU6050_getYAccelOffset:
 9534              	.LFB224:
2855:Libraries/ctrl_drv/i2c/mpu6050/MPU6050.c **** 
ARM GAS  C:\Users\Mxuan\AppData\Local\Temp\ccfnFihP.s 			page 212


2856:Libraries/ctrl_drv/i2c/mpu6050/MPU6050.c **** // YA_OFFS_* register
2857:Libraries/ctrl_drv/i2c/mpu6050/MPU6050.c **** 
2858:Libraries/ctrl_drv/i2c/mpu6050/MPU6050.c **** int16_t MPU6050_getYAccelOffset() {
 9535              		.loc 1 2858 35 is_stmt 1 view -0
 9536              		.cfi_startproc
 9537              		@ args = 0, pretend = 0, frame = 0
 9538              		@ frame_needed = 0, uses_anonymous_args = 0
 9539 0000 10B5     		push	{r4, lr}
 9540              	.LCFI291:
 9541              		.cfi_def_cfa_offset 8
 9542              		.cfi_offset 4, -8
 9543              		.cfi_offset 14, -4
2859:Libraries/ctrl_drv/i2c/mpu6050/MPU6050.c ****     I2Cdev_readBytes(mpu6050.devAddr, MPU6050_RA_YA_OFFS_H, 2, mpu6050.buffer);
 9544              		.loc 1 2859 5 view .LVU1278
 9545 0002 074B     		ldr	r3, .L992
 9546 0004 1C46     		mov	r4, r3
 9547 0006 0222     		movs	r2, #2
 9548 0008 0821     		movs	r1, #8
 9549 000a 13F8010C 		ldrb	r0, [r3, #-1]	@ zero_extendqisi2
 9550 000e FFF7FEFF 		bl	I2Cdev_readBytes
 9551              	.LVL472:
2860:Libraries/ctrl_drv/i2c/mpu6050/MPU6050.c ****     return (((int16_t)mpu6050.buffer[0]) << 8) | mpu6050.buffer[1];
 9552              		.loc 1 2860 5 view .LVU1279
 9553              		.loc 1 2860 37 is_stmt 0 view .LVU1280
 9554 0012 14F80139 		ldrb	r3, [r4], #-1	@ zero_extendqisi2
 9555              		.loc 1 2860 64 view .LVU1281
 9556 0016 A078     		ldrb	r0, [r4, #2]	@ zero_extendqisi2
 9557              		.loc 1 2860 48 view .LVU1282
 9558 0018 40EA0320 		orr	r0, r0, r3, lsl #8
2861:Libraries/ctrl_drv/i2c/mpu6050/MPU6050.c **** }
 9559              		.loc 1 2861 1 view .LVU1283
 9560 001c 00B2     		sxth	r0, r0
 9561 001e 10BD     		pop	{r4, pc}
 9562              	.L993:
 9563              		.align	2
 9564              	.L992:
 9565 0020 01000000 		.word	mpu6050+1
 9566              		.cfi_endproc
 9567              	.LFE224:
 9569              		.section	.text.MPU6050_setYAccelOffset,"ax",%progbits
 9570              		.align	1
 9571              		.global	MPU6050_setYAccelOffset
 9572              		.syntax unified
 9573              		.thumb
 9574              		.thumb_func
 9576              	MPU6050_setYAccelOffset:
 9577              	.LVL473:
 9578              	.LFB225:
2862:Libraries/ctrl_drv/i2c/mpu6050/MPU6050.c **** void MPU6050_setYAccelOffset(int16_t offset) {
 9579              		.loc 1 2862 46 is_stmt 1 view -0
 9580              		.cfi_startproc
 9581              		@ args = 0, pretend = 0, frame = 0
 9582              		@ frame_needed = 0, uses_anonymous_args = 0
 9583              		.loc 1 2862 46 is_stmt 0 view .LVU1285
 9584 0000 08B5     		push	{r3, lr}
 9585              	.LCFI292:
 9586              		.cfi_def_cfa_offset 8
ARM GAS  C:\Users\Mxuan\AppData\Local\Temp\ccfnFihP.s 			page 213


 9587              		.cfi_offset 3, -8
 9588              		.cfi_offset 14, -4
2863:Libraries/ctrl_drv/i2c/mpu6050/MPU6050.c ****     I2Cdev_writeWord(mpu6050.devAddr, MPU6050_RA_YA_OFFS_H, offset);
 9589              		.loc 1 2863 5 is_stmt 1 view .LVU1286
 9590 0002 82B2     		uxth	r2, r0
 9591 0004 0821     		movs	r1, #8
 9592 0006 024B     		ldr	r3, .L996
 9593 0008 1878     		ldrb	r0, [r3]	@ zero_extendqisi2
 9594              	.LVL474:
 9595              		.loc 1 2863 5 is_stmt 0 view .LVU1287
 9596 000a FFF7FEFF 		bl	I2Cdev_writeWord
 9597              	.LVL475:
2864:Libraries/ctrl_drv/i2c/mpu6050/MPU6050.c **** }
 9598              		.loc 1 2864 1 view .LVU1288
 9599 000e 08BD     		pop	{r3, pc}
 9600              	.L997:
 9601              		.align	2
 9602              	.L996:
 9603 0010 00000000 		.word	mpu6050
 9604              		.cfi_endproc
 9605              	.LFE225:
 9607              		.section	.text.MPU6050_getZAccelOffset,"ax",%progbits
 9608              		.align	1
 9609              		.global	MPU6050_getZAccelOffset
 9610              		.syntax unified
 9611              		.thumb
 9612              		.thumb_func
 9614              	MPU6050_getZAccelOffset:
 9615              	.LFB226:
2865:Libraries/ctrl_drv/i2c/mpu6050/MPU6050.c **** 
2866:Libraries/ctrl_drv/i2c/mpu6050/MPU6050.c **** // ZA_OFFS_* register
2867:Libraries/ctrl_drv/i2c/mpu6050/MPU6050.c **** 
2868:Libraries/ctrl_drv/i2c/mpu6050/MPU6050.c **** int16_t MPU6050_getZAccelOffset() {
 9616              		.loc 1 2868 35 is_stmt 1 view -0
 9617              		.cfi_startproc
 9618              		@ args = 0, pretend = 0, frame = 0
 9619              		@ frame_needed = 0, uses_anonymous_args = 0
 9620 0000 10B5     		push	{r4, lr}
 9621              	.LCFI293:
 9622              		.cfi_def_cfa_offset 8
 9623              		.cfi_offset 4, -8
 9624              		.cfi_offset 14, -4
2869:Libraries/ctrl_drv/i2c/mpu6050/MPU6050.c ****     I2Cdev_readBytes(mpu6050.devAddr, MPU6050_RA_ZA_OFFS_H, 2, mpu6050.buffer);
 9625              		.loc 1 2869 5 view .LVU1290
 9626 0002 074B     		ldr	r3, .L1000
 9627 0004 1C46     		mov	r4, r3
 9628 0006 0222     		movs	r2, #2
 9629 0008 0A21     		movs	r1, #10
 9630 000a 13F8010C 		ldrb	r0, [r3, #-1]	@ zero_extendqisi2
 9631 000e FFF7FEFF 		bl	I2Cdev_readBytes
 9632              	.LVL476:
2870:Libraries/ctrl_drv/i2c/mpu6050/MPU6050.c ****     return (((int16_t)mpu6050.buffer[0]) << 8) | mpu6050.buffer[1];
 9633              		.loc 1 2870 5 view .LVU1291
 9634              		.loc 1 2870 37 is_stmt 0 view .LVU1292
 9635 0012 14F80139 		ldrb	r3, [r4], #-1	@ zero_extendqisi2
 9636              		.loc 1 2870 64 view .LVU1293
 9637 0016 A078     		ldrb	r0, [r4, #2]	@ zero_extendqisi2
ARM GAS  C:\Users\Mxuan\AppData\Local\Temp\ccfnFihP.s 			page 214


 9638              		.loc 1 2870 48 view .LVU1294
 9639 0018 40EA0320 		orr	r0, r0, r3, lsl #8
2871:Libraries/ctrl_drv/i2c/mpu6050/MPU6050.c **** }
 9640              		.loc 1 2871 1 view .LVU1295
 9641 001c 00B2     		sxth	r0, r0
 9642 001e 10BD     		pop	{r4, pc}
 9643              	.L1001:
 9644              		.align	2
 9645              	.L1000:
 9646 0020 01000000 		.word	mpu6050+1
 9647              		.cfi_endproc
 9648              	.LFE226:
 9650              		.section	.text.MPU6050_setZAccelOffset,"ax",%progbits
 9651              		.align	1
 9652              		.global	MPU6050_setZAccelOffset
 9653              		.syntax unified
 9654              		.thumb
 9655              		.thumb_func
 9657              	MPU6050_setZAccelOffset:
 9658              	.LVL477:
 9659              	.LFB227:
2872:Libraries/ctrl_drv/i2c/mpu6050/MPU6050.c **** void MPU6050_setZAccelOffset(int16_t offset) {
 9660              		.loc 1 2872 46 is_stmt 1 view -0
 9661              		.cfi_startproc
 9662              		@ args = 0, pretend = 0, frame = 0
 9663              		@ frame_needed = 0, uses_anonymous_args = 0
 9664              		.loc 1 2872 46 is_stmt 0 view .LVU1297
 9665 0000 08B5     		push	{r3, lr}
 9666              	.LCFI294:
 9667              		.cfi_def_cfa_offset 8
 9668              		.cfi_offset 3, -8
 9669              		.cfi_offset 14, -4
2873:Libraries/ctrl_drv/i2c/mpu6050/MPU6050.c ****     I2Cdev_writeWord(mpu6050.devAddr, MPU6050_RA_ZA_OFFS_H, offset);
 9670              		.loc 1 2873 5 is_stmt 1 view .LVU1298
 9671 0002 82B2     		uxth	r2, r0
 9672 0004 0A21     		movs	r1, #10
 9673 0006 024B     		ldr	r3, .L1004
 9674 0008 1878     		ldrb	r0, [r3]	@ zero_extendqisi2
 9675              	.LVL478:
 9676              		.loc 1 2873 5 is_stmt 0 view .LVU1299
 9677 000a FFF7FEFF 		bl	I2Cdev_writeWord
 9678              	.LVL479:
2874:Libraries/ctrl_drv/i2c/mpu6050/MPU6050.c **** }
 9679              		.loc 1 2874 1 view .LVU1300
 9680 000e 08BD     		pop	{r3, pc}
 9681              	.L1005:
 9682              		.align	2
 9683              	.L1004:
 9684 0010 00000000 		.word	mpu6050
 9685              		.cfi_endproc
 9686              	.LFE227:
 9688              		.section	.text.MPU6050_getXGyroOffset,"ax",%progbits
 9689              		.align	1
 9690              		.global	MPU6050_getXGyroOffset
 9691              		.syntax unified
 9692              		.thumb
 9693              		.thumb_func
ARM GAS  C:\Users\Mxuan\AppData\Local\Temp\ccfnFihP.s 			page 215


 9695              	MPU6050_getXGyroOffset:
 9696              	.LFB228:
2875:Libraries/ctrl_drv/i2c/mpu6050/MPU6050.c **** 
2876:Libraries/ctrl_drv/i2c/mpu6050/MPU6050.c **** // XG_OFFS_USR* registers
2877:Libraries/ctrl_drv/i2c/mpu6050/MPU6050.c **** 
2878:Libraries/ctrl_drv/i2c/mpu6050/MPU6050.c **** int16_t MPU6050_getXGyroOffset() {
 9697              		.loc 1 2878 34 is_stmt 1 view -0
 9698              		.cfi_startproc
 9699              		@ args = 0, pretend = 0, frame = 0
 9700              		@ frame_needed = 0, uses_anonymous_args = 0
 9701 0000 10B5     		push	{r4, lr}
 9702              	.LCFI295:
 9703              		.cfi_def_cfa_offset 8
 9704              		.cfi_offset 4, -8
 9705              		.cfi_offset 14, -4
2879:Libraries/ctrl_drv/i2c/mpu6050/MPU6050.c ****     I2Cdev_readBytes(mpu6050.devAddr, MPU6050_RA_XG_OFFS_USRH, 2, mpu6050.buffer);
 9706              		.loc 1 2879 5 view .LVU1302
 9707 0002 074B     		ldr	r3, .L1008
 9708 0004 1C46     		mov	r4, r3
 9709 0006 0222     		movs	r2, #2
 9710 0008 1321     		movs	r1, #19
 9711 000a 13F8010C 		ldrb	r0, [r3, #-1]	@ zero_extendqisi2
 9712 000e FFF7FEFF 		bl	I2Cdev_readBytes
 9713              	.LVL480:
2880:Libraries/ctrl_drv/i2c/mpu6050/MPU6050.c ****     return (((int16_t)mpu6050.buffer[0]) << 8) | mpu6050.buffer[1];
 9714              		.loc 1 2880 5 view .LVU1303
 9715              		.loc 1 2880 37 is_stmt 0 view .LVU1304
 9716 0012 14F80139 		ldrb	r3, [r4], #-1	@ zero_extendqisi2
 9717              		.loc 1 2880 64 view .LVU1305
 9718 0016 A078     		ldrb	r0, [r4, #2]	@ zero_extendqisi2
 9719              		.loc 1 2880 48 view .LVU1306
 9720 0018 40EA0320 		orr	r0, r0, r3, lsl #8
2881:Libraries/ctrl_drv/i2c/mpu6050/MPU6050.c **** }
 9721              		.loc 1 2881 1 view .LVU1307
 9722 001c 00B2     		sxth	r0, r0
 9723 001e 10BD     		pop	{r4, pc}
 9724              	.L1009:
 9725              		.align	2
 9726              	.L1008:
 9727 0020 01000000 		.word	mpu6050+1
 9728              		.cfi_endproc
 9729              	.LFE228:
 9731              		.section	.text.MPU6050_setXGyroOffset,"ax",%progbits
 9732              		.align	1
 9733              		.global	MPU6050_setXGyroOffset
 9734              		.syntax unified
 9735              		.thumb
 9736              		.thumb_func
 9738              	MPU6050_setXGyroOffset:
 9739              	.LVL481:
 9740              	.LFB229:
2882:Libraries/ctrl_drv/i2c/mpu6050/MPU6050.c **** void MPU6050_setXGyroOffset(int16_t offset) {
 9741              		.loc 1 2882 45 is_stmt 1 view -0
 9742              		.cfi_startproc
 9743              		@ args = 0, pretend = 0, frame = 0
 9744              		@ frame_needed = 0, uses_anonymous_args = 0
 9745              		.loc 1 2882 45 is_stmt 0 view .LVU1309
ARM GAS  C:\Users\Mxuan\AppData\Local\Temp\ccfnFihP.s 			page 216


 9746 0000 08B5     		push	{r3, lr}
 9747              	.LCFI296:
 9748              		.cfi_def_cfa_offset 8
 9749              		.cfi_offset 3, -8
 9750              		.cfi_offset 14, -4
2883:Libraries/ctrl_drv/i2c/mpu6050/MPU6050.c ****     I2Cdev_writeWord(mpu6050.devAddr, MPU6050_RA_XG_OFFS_USRH, offset);
 9751              		.loc 1 2883 5 is_stmt 1 view .LVU1310
 9752 0002 82B2     		uxth	r2, r0
 9753 0004 1321     		movs	r1, #19
 9754 0006 024B     		ldr	r3, .L1012
 9755 0008 1878     		ldrb	r0, [r3]	@ zero_extendqisi2
 9756              	.LVL482:
 9757              		.loc 1 2883 5 is_stmt 0 view .LVU1311
 9758 000a FFF7FEFF 		bl	I2Cdev_writeWord
 9759              	.LVL483:
2884:Libraries/ctrl_drv/i2c/mpu6050/MPU6050.c **** }
 9760              		.loc 1 2884 1 view .LVU1312
 9761 000e 08BD     		pop	{r3, pc}
 9762              	.L1013:
 9763              		.align	2
 9764              	.L1012:
 9765 0010 00000000 		.word	mpu6050
 9766              		.cfi_endproc
 9767              	.LFE229:
 9769              		.section	.text.MPU6050_getYGyroOffset,"ax",%progbits
 9770              		.align	1
 9771              		.global	MPU6050_getYGyroOffset
 9772              		.syntax unified
 9773              		.thumb
 9774              		.thumb_func
 9776              	MPU6050_getYGyroOffset:
 9777              	.LFB230:
2885:Libraries/ctrl_drv/i2c/mpu6050/MPU6050.c **** 
2886:Libraries/ctrl_drv/i2c/mpu6050/MPU6050.c **** // YG_OFFS_USR* register
2887:Libraries/ctrl_drv/i2c/mpu6050/MPU6050.c **** 
2888:Libraries/ctrl_drv/i2c/mpu6050/MPU6050.c **** int16_t MPU6050_getYGyroOffset() {
 9778              		.loc 1 2888 34 is_stmt 1 view -0
 9779              		.cfi_startproc
 9780              		@ args = 0, pretend = 0, frame = 0
 9781              		@ frame_needed = 0, uses_anonymous_args = 0
 9782 0000 10B5     		push	{r4, lr}
 9783              	.LCFI297:
 9784              		.cfi_def_cfa_offset 8
 9785              		.cfi_offset 4, -8
 9786              		.cfi_offset 14, -4
2889:Libraries/ctrl_drv/i2c/mpu6050/MPU6050.c ****     I2Cdev_readBytes(mpu6050.devAddr, MPU6050_RA_YG_OFFS_USRH, 2, mpu6050.buffer);
 9787              		.loc 1 2889 5 view .LVU1314
 9788 0002 074B     		ldr	r3, .L1016
 9789 0004 1C46     		mov	r4, r3
 9790 0006 0222     		movs	r2, #2
 9791 0008 1521     		movs	r1, #21
 9792 000a 13F8010C 		ldrb	r0, [r3, #-1]	@ zero_extendqisi2
 9793 000e FFF7FEFF 		bl	I2Cdev_readBytes
 9794              	.LVL484:
2890:Libraries/ctrl_drv/i2c/mpu6050/MPU6050.c ****     return (((int16_t)mpu6050.buffer[0]) << 8) | mpu6050.buffer[1];
 9795              		.loc 1 2890 5 view .LVU1315
 9796              		.loc 1 2890 37 is_stmt 0 view .LVU1316
ARM GAS  C:\Users\Mxuan\AppData\Local\Temp\ccfnFihP.s 			page 217


 9797 0012 14F80139 		ldrb	r3, [r4], #-1	@ zero_extendqisi2
 9798              		.loc 1 2890 64 view .LVU1317
 9799 0016 A078     		ldrb	r0, [r4, #2]	@ zero_extendqisi2
 9800              		.loc 1 2890 48 view .LVU1318
 9801 0018 40EA0320 		orr	r0, r0, r3, lsl #8
2891:Libraries/ctrl_drv/i2c/mpu6050/MPU6050.c **** }
 9802              		.loc 1 2891 1 view .LVU1319
 9803 001c 00B2     		sxth	r0, r0
 9804 001e 10BD     		pop	{r4, pc}
 9805              	.L1017:
 9806              		.align	2
 9807              	.L1016:
 9808 0020 01000000 		.word	mpu6050+1
 9809              		.cfi_endproc
 9810              	.LFE230:
 9812              		.section	.text.MPU6050_setYGyroOffset,"ax",%progbits
 9813              		.align	1
 9814              		.global	MPU6050_setYGyroOffset
 9815              		.syntax unified
 9816              		.thumb
 9817              		.thumb_func
 9819              	MPU6050_setYGyroOffset:
 9820              	.LVL485:
 9821              	.LFB231:
2892:Libraries/ctrl_drv/i2c/mpu6050/MPU6050.c **** void MPU6050_setYGyroOffset(int16_t offset) {
 9822              		.loc 1 2892 45 is_stmt 1 view -0
 9823              		.cfi_startproc
 9824              		@ args = 0, pretend = 0, frame = 0
 9825              		@ frame_needed = 0, uses_anonymous_args = 0
 9826              		.loc 1 2892 45 is_stmt 0 view .LVU1321
 9827 0000 08B5     		push	{r3, lr}
 9828              	.LCFI298:
 9829              		.cfi_def_cfa_offset 8
 9830              		.cfi_offset 3, -8
 9831              		.cfi_offset 14, -4
2893:Libraries/ctrl_drv/i2c/mpu6050/MPU6050.c ****     I2Cdev_writeWord(mpu6050.devAddr, MPU6050_RA_YG_OFFS_USRH, offset);
 9832              		.loc 1 2893 5 is_stmt 1 view .LVU1322
 9833 0002 82B2     		uxth	r2, r0
 9834 0004 1521     		movs	r1, #21
 9835 0006 024B     		ldr	r3, .L1020
 9836 0008 1878     		ldrb	r0, [r3]	@ zero_extendqisi2
 9837              	.LVL486:
 9838              		.loc 1 2893 5 is_stmt 0 view .LVU1323
 9839 000a FFF7FEFF 		bl	I2Cdev_writeWord
 9840              	.LVL487:
2894:Libraries/ctrl_drv/i2c/mpu6050/MPU6050.c **** }
 9841              		.loc 1 2894 1 view .LVU1324
 9842 000e 08BD     		pop	{r3, pc}
 9843              	.L1021:
 9844              		.align	2
 9845              	.L1020:
 9846 0010 00000000 		.word	mpu6050
 9847              		.cfi_endproc
 9848              	.LFE231:
 9850              		.section	.text.MPU6050_getZGyroOffset,"ax",%progbits
 9851              		.align	1
 9852              		.global	MPU6050_getZGyroOffset
ARM GAS  C:\Users\Mxuan\AppData\Local\Temp\ccfnFihP.s 			page 218


 9853              		.syntax unified
 9854              		.thumb
 9855              		.thumb_func
 9857              	MPU6050_getZGyroOffset:
 9858              	.LFB232:
2895:Libraries/ctrl_drv/i2c/mpu6050/MPU6050.c **** 
2896:Libraries/ctrl_drv/i2c/mpu6050/MPU6050.c **** // ZG_OFFS_USR* register
2897:Libraries/ctrl_drv/i2c/mpu6050/MPU6050.c **** 
2898:Libraries/ctrl_drv/i2c/mpu6050/MPU6050.c **** int16_t MPU6050_getZGyroOffset() {
 9859              		.loc 1 2898 34 is_stmt 1 view -0
 9860              		.cfi_startproc
 9861              		@ args = 0, pretend = 0, frame = 0
 9862              		@ frame_needed = 0, uses_anonymous_args = 0
 9863 0000 10B5     		push	{r4, lr}
 9864              	.LCFI299:
 9865              		.cfi_def_cfa_offset 8
 9866              		.cfi_offset 4, -8
 9867              		.cfi_offset 14, -4
2899:Libraries/ctrl_drv/i2c/mpu6050/MPU6050.c ****     I2Cdev_readBytes(mpu6050.devAddr, MPU6050_RA_ZG_OFFS_USRH, 2, mpu6050.buffer);
 9868              		.loc 1 2899 5 view .LVU1326
 9869 0002 074B     		ldr	r3, .L1024
 9870 0004 1C46     		mov	r4, r3
 9871 0006 0222     		movs	r2, #2
 9872 0008 1721     		movs	r1, #23
 9873 000a 13F8010C 		ldrb	r0, [r3, #-1]	@ zero_extendqisi2
 9874 000e FFF7FEFF 		bl	I2Cdev_readBytes
 9875              	.LVL488:
2900:Libraries/ctrl_drv/i2c/mpu6050/MPU6050.c ****     return (((int16_t)mpu6050.buffer[0]) << 8) | mpu6050.buffer[1];
 9876              		.loc 1 2900 5 view .LVU1327
 9877              		.loc 1 2900 37 is_stmt 0 view .LVU1328
 9878 0012 14F80139 		ldrb	r3, [r4], #-1	@ zero_extendqisi2
 9879              		.loc 1 2900 64 view .LVU1329
 9880 0016 A078     		ldrb	r0, [r4, #2]	@ zero_extendqisi2
 9881              		.loc 1 2900 48 view .LVU1330
 9882 0018 40EA0320 		orr	r0, r0, r3, lsl #8
2901:Libraries/ctrl_drv/i2c/mpu6050/MPU6050.c **** }
 9883              		.loc 1 2901 1 view .LVU1331
 9884 001c 00B2     		sxth	r0, r0
 9885 001e 10BD     		pop	{r4, pc}
 9886              	.L1025:
 9887              		.align	2
 9888              	.L1024:
 9889 0020 01000000 		.word	mpu6050+1
 9890              		.cfi_endproc
 9891              	.LFE232:
 9893              		.section	.text.MPU6050_setZGyroOffset,"ax",%progbits
 9894              		.align	1
 9895              		.global	MPU6050_setZGyroOffset
 9896              		.syntax unified
 9897              		.thumb
 9898              		.thumb_func
 9900              	MPU6050_setZGyroOffset:
 9901              	.LVL489:
 9902              	.LFB233:
2902:Libraries/ctrl_drv/i2c/mpu6050/MPU6050.c **** void MPU6050_setZGyroOffset(int16_t offset) {
 9903              		.loc 1 2902 45 is_stmt 1 view -0
 9904              		.cfi_startproc
ARM GAS  C:\Users\Mxuan\AppData\Local\Temp\ccfnFihP.s 			page 219


 9905              		@ args = 0, pretend = 0, frame = 0
 9906              		@ frame_needed = 0, uses_anonymous_args = 0
 9907              		.loc 1 2902 45 is_stmt 0 view .LVU1333
 9908 0000 08B5     		push	{r3, lr}
 9909              	.LCFI300:
 9910              		.cfi_def_cfa_offset 8
 9911              		.cfi_offset 3, -8
 9912              		.cfi_offset 14, -4
2903:Libraries/ctrl_drv/i2c/mpu6050/MPU6050.c ****     I2Cdev_writeWord(mpu6050.devAddr, MPU6050_RA_ZG_OFFS_USRH, offset);
 9913              		.loc 1 2903 5 is_stmt 1 view .LVU1334
 9914 0002 82B2     		uxth	r2, r0
 9915 0004 1721     		movs	r1, #23
 9916 0006 024B     		ldr	r3, .L1028
 9917 0008 1878     		ldrb	r0, [r3]	@ zero_extendqisi2
 9918              	.LVL490:
 9919              		.loc 1 2903 5 is_stmt 0 view .LVU1335
 9920 000a FFF7FEFF 		bl	I2Cdev_writeWord
 9921              	.LVL491:
2904:Libraries/ctrl_drv/i2c/mpu6050/MPU6050.c **** }
 9922              		.loc 1 2904 1 view .LVU1336
 9923 000e 08BD     		pop	{r3, pc}
 9924              	.L1029:
 9925              		.align	2
 9926              	.L1028:
 9927 0010 00000000 		.word	mpu6050
 9928              		.cfi_endproc
 9929              	.LFE233:
 9931              		.section	.text.MPU6050_getIntPLLReadyEnabled,"ax",%progbits
 9932              		.align	1
 9933              		.global	MPU6050_getIntPLLReadyEnabled
 9934              		.syntax unified
 9935              		.thumb
 9936              		.thumb_func
 9938              	MPU6050_getIntPLLReadyEnabled:
 9939              	.LFB234:
2905:Libraries/ctrl_drv/i2c/mpu6050/MPU6050.c **** 
2906:Libraries/ctrl_drv/i2c/mpu6050/MPU6050.c **** // INT_ENABLE register (DMP functions)
2907:Libraries/ctrl_drv/i2c/mpu6050/MPU6050.c **** 
2908:Libraries/ctrl_drv/i2c/mpu6050/MPU6050.c **** bool MPU6050_getIntPLLReadyEnabled() {
 9940              		.loc 1 2908 38 is_stmt 1 view -0
 9941              		.cfi_startproc
 9942              		@ args = 0, pretend = 0, frame = 0
 9943              		@ frame_needed = 0, uses_anonymous_args = 0
 9944 0000 10B5     		push	{r4, lr}
 9945              	.LCFI301:
 9946              		.cfi_def_cfa_offset 8
 9947              		.cfi_offset 4, -8
 9948              		.cfi_offset 14, -4
2909:Libraries/ctrl_drv/i2c/mpu6050/MPU6050.c ****     I2Cdev_readBit(mpu6050.devAddr, MPU6050_RA_INT_ENABLE, MPU6050_INTERRUPT_PLL_RDY_INT_BIT, mpu60
 9949              		.loc 1 2909 5 view .LVU1338
 9950 0002 064B     		ldr	r3, .L1032
 9951 0004 5C1E     		subs	r4, r3, #1
 9952 0006 0222     		movs	r2, #2
 9953 0008 3821     		movs	r1, #56
 9954 000a 13F8010C 		ldrb	r0, [r3, #-1]	@ zero_extendqisi2
 9955 000e FFF7FEFF 		bl	I2Cdev_readBit
 9956              	.LVL492:
ARM GAS  C:\Users\Mxuan\AppData\Local\Temp\ccfnFihP.s 			page 220


2910:Libraries/ctrl_drv/i2c/mpu6050/MPU6050.c ****     return mpu6050.buffer[0];
 9957              		.loc 1 2910 5 view .LVU1339
 9958              		.loc 1 2910 26 is_stmt 0 view .LVU1340
 9959 0012 6078     		ldrb	r0, [r4, #1]	@ zero_extendqisi2
2911:Libraries/ctrl_drv/i2c/mpu6050/MPU6050.c **** }
 9960              		.loc 1 2911 1 view .LVU1341
 9961 0014 0038     		subs	r0, r0, #0
 9962 0016 18BF     		it	ne
 9963 0018 0120     		movne	r0, #1
 9964 001a 10BD     		pop	{r4, pc}
 9965              	.L1033:
 9966              		.align	2
 9967              	.L1032:
 9968 001c 01000000 		.word	mpu6050+1
 9969              		.cfi_endproc
 9970              	.LFE234:
 9972              		.section	.text.MPU6050_setIntPLLReadyEnabled,"ax",%progbits
 9973              		.align	1
 9974              		.global	MPU6050_setIntPLLReadyEnabled
 9975              		.syntax unified
 9976              		.thumb
 9977              		.thumb_func
 9979              	MPU6050_setIntPLLReadyEnabled:
 9980              	.LVL493:
 9981              	.LFB235:
2912:Libraries/ctrl_drv/i2c/mpu6050/MPU6050.c **** void MPU6050_setIntPLLReadyEnabled(bool enabled) {
 9982              		.loc 1 2912 50 is_stmt 1 view -0
 9983              		.cfi_startproc
 9984              		@ args = 0, pretend = 0, frame = 0
 9985              		@ frame_needed = 0, uses_anonymous_args = 0
 9986              		.loc 1 2912 50 is_stmt 0 view .LVU1343
 9987 0000 08B5     		push	{r3, lr}
 9988              	.LCFI302:
 9989              		.cfi_def_cfa_offset 8
 9990              		.cfi_offset 3, -8
 9991              		.cfi_offset 14, -4
 9992 0002 0346     		mov	r3, r0
2913:Libraries/ctrl_drv/i2c/mpu6050/MPU6050.c ****     I2Cdev_writeBit(mpu6050.devAddr, MPU6050_RA_INT_ENABLE, MPU6050_INTERRUPT_PLL_RDY_INT_BIT, enab
 9993              		.loc 1 2913 5 is_stmt 1 view .LVU1344
 9994 0004 0222     		movs	r2, #2
 9995 0006 3821     		movs	r1, #56
 9996 0008 0248     		ldr	r0, .L1036
 9997              	.LVL494:
 9998              		.loc 1 2913 5 is_stmt 0 view .LVU1345
 9999 000a 0078     		ldrb	r0, [r0]	@ zero_extendqisi2
 10000 000c FFF7FEFF 		bl	I2Cdev_writeBit
 10001              	.LVL495:
2914:Libraries/ctrl_drv/i2c/mpu6050/MPU6050.c **** }
 10002              		.loc 1 2914 1 view .LVU1346
 10003 0010 08BD     		pop	{r3, pc}
 10004              	.L1037:
 10005 0012 00BF     		.align	2
 10006              	.L1036:
 10007 0014 00000000 		.word	mpu6050
 10008              		.cfi_endproc
 10009              	.LFE235:
 10011              		.section	.text.MPU6050_getIntDMPEnabled,"ax",%progbits
ARM GAS  C:\Users\Mxuan\AppData\Local\Temp\ccfnFihP.s 			page 221


 10012              		.align	1
 10013              		.global	MPU6050_getIntDMPEnabled
 10014              		.syntax unified
 10015              		.thumb
 10016              		.thumb_func
 10018              	MPU6050_getIntDMPEnabled:
 10019              	.LFB236:
2915:Libraries/ctrl_drv/i2c/mpu6050/MPU6050.c **** bool MPU6050_getIntDMPEnabled() {
 10020              		.loc 1 2915 33 is_stmt 1 view -0
 10021              		.cfi_startproc
 10022              		@ args = 0, pretend = 0, frame = 0
 10023              		@ frame_needed = 0, uses_anonymous_args = 0
 10024 0000 10B5     		push	{r4, lr}
 10025              	.LCFI303:
 10026              		.cfi_def_cfa_offset 8
 10027              		.cfi_offset 4, -8
 10028              		.cfi_offset 14, -4
2916:Libraries/ctrl_drv/i2c/mpu6050/MPU6050.c ****     I2Cdev_readBit(mpu6050.devAddr, MPU6050_RA_INT_ENABLE, MPU6050_INTERRUPT_DMP_INT_BIT, mpu6050.b
 10029              		.loc 1 2916 5 view .LVU1348
 10030 0002 064B     		ldr	r3, .L1040
 10031 0004 5C1E     		subs	r4, r3, #1
 10032 0006 0122     		movs	r2, #1
 10033 0008 3821     		movs	r1, #56
 10034 000a 13F8010C 		ldrb	r0, [r3, #-1]	@ zero_extendqisi2
 10035 000e FFF7FEFF 		bl	I2Cdev_readBit
 10036              	.LVL496:
2917:Libraries/ctrl_drv/i2c/mpu6050/MPU6050.c ****     return mpu6050.buffer[0];
 10037              		.loc 1 2917 5 view .LVU1349
 10038              		.loc 1 2917 26 is_stmt 0 view .LVU1350
 10039 0012 6078     		ldrb	r0, [r4, #1]	@ zero_extendqisi2
2918:Libraries/ctrl_drv/i2c/mpu6050/MPU6050.c **** }
 10040              		.loc 1 2918 1 view .LVU1351
 10041 0014 0038     		subs	r0, r0, #0
 10042 0016 18BF     		it	ne
 10043 0018 0120     		movne	r0, #1
 10044 001a 10BD     		pop	{r4, pc}
 10045              	.L1041:
 10046              		.align	2
 10047              	.L1040:
 10048 001c 01000000 		.word	mpu6050+1
 10049              		.cfi_endproc
 10050              	.LFE236:
 10052              		.section	.text.MPU6050_setIntDMPEnabled,"ax",%progbits
 10053              		.align	1
 10054              		.global	MPU6050_setIntDMPEnabled
 10055              		.syntax unified
 10056              		.thumb
 10057              		.thumb_func
 10059              	MPU6050_setIntDMPEnabled:
 10060              	.LVL497:
 10061              	.LFB237:
2919:Libraries/ctrl_drv/i2c/mpu6050/MPU6050.c **** void MPU6050_setIntDMPEnabled(bool enabled) {
 10062              		.loc 1 2919 45 is_stmt 1 view -0
 10063              		.cfi_startproc
 10064              		@ args = 0, pretend = 0, frame = 0
 10065              		@ frame_needed = 0, uses_anonymous_args = 0
 10066              		.loc 1 2919 45 is_stmt 0 view .LVU1353
ARM GAS  C:\Users\Mxuan\AppData\Local\Temp\ccfnFihP.s 			page 222


 10067 0000 08B5     		push	{r3, lr}
 10068              	.LCFI304:
 10069              		.cfi_def_cfa_offset 8
 10070              		.cfi_offset 3, -8
 10071              		.cfi_offset 14, -4
 10072 0002 0346     		mov	r3, r0
2920:Libraries/ctrl_drv/i2c/mpu6050/MPU6050.c ****     I2Cdev_writeBit(mpu6050.devAddr, MPU6050_RA_INT_ENABLE, MPU6050_INTERRUPT_DMP_INT_BIT, enabled)
 10073              		.loc 1 2920 5 is_stmt 1 view .LVU1354
 10074 0004 0122     		movs	r2, #1
 10075 0006 3821     		movs	r1, #56
 10076 0008 0248     		ldr	r0, .L1044
 10077              	.LVL498:
 10078              		.loc 1 2920 5 is_stmt 0 view .LVU1355
 10079 000a 0078     		ldrb	r0, [r0]	@ zero_extendqisi2
 10080 000c FFF7FEFF 		bl	I2Cdev_writeBit
 10081              	.LVL499:
2921:Libraries/ctrl_drv/i2c/mpu6050/MPU6050.c **** }
 10082              		.loc 1 2921 1 view .LVU1356
 10083 0010 08BD     		pop	{r3, pc}
 10084              	.L1045:
 10085 0012 00BF     		.align	2
 10086              	.L1044:
 10087 0014 00000000 		.word	mpu6050
 10088              		.cfi_endproc
 10089              	.LFE237:
 10091              		.section	.text.MPU6050_getDMPInt5Status,"ax",%progbits
 10092              		.align	1
 10093              		.global	MPU6050_getDMPInt5Status
 10094              		.syntax unified
 10095              		.thumb
 10096              		.thumb_func
 10098              	MPU6050_getDMPInt5Status:
 10099              	.LFB238:
2922:Libraries/ctrl_drv/i2c/mpu6050/MPU6050.c **** 
2923:Libraries/ctrl_drv/i2c/mpu6050/MPU6050.c **** // DMP_INT_STATUS
2924:Libraries/ctrl_drv/i2c/mpu6050/MPU6050.c **** 
2925:Libraries/ctrl_drv/i2c/mpu6050/MPU6050.c **** bool MPU6050_getDMPInt5Status() {
 10100              		.loc 1 2925 33 is_stmt 1 view -0
 10101              		.cfi_startproc
 10102              		@ args = 0, pretend = 0, frame = 0
 10103              		@ frame_needed = 0, uses_anonymous_args = 0
 10104 0000 10B5     		push	{r4, lr}
 10105              	.LCFI305:
 10106              		.cfi_def_cfa_offset 8
 10107              		.cfi_offset 4, -8
 10108              		.cfi_offset 14, -4
2926:Libraries/ctrl_drv/i2c/mpu6050/MPU6050.c ****     I2Cdev_readBit(mpu6050.devAddr, MPU6050_RA_DMP_INT_STATUS, MPU6050_DMPINT_5_BIT, mpu6050.buffer
 10109              		.loc 1 2926 5 view .LVU1358
 10110 0002 064B     		ldr	r3, .L1048
 10111 0004 5C1E     		subs	r4, r3, #1
 10112 0006 0522     		movs	r2, #5
 10113 0008 3921     		movs	r1, #57
 10114 000a 13F8010C 		ldrb	r0, [r3, #-1]	@ zero_extendqisi2
 10115 000e FFF7FEFF 		bl	I2Cdev_readBit
 10116              	.LVL500:
2927:Libraries/ctrl_drv/i2c/mpu6050/MPU6050.c ****     return mpu6050.buffer[0];
 10117              		.loc 1 2927 5 view .LVU1359
ARM GAS  C:\Users\Mxuan\AppData\Local\Temp\ccfnFihP.s 			page 223


 10118              		.loc 1 2927 26 is_stmt 0 view .LVU1360
 10119 0012 6078     		ldrb	r0, [r4, #1]	@ zero_extendqisi2
2928:Libraries/ctrl_drv/i2c/mpu6050/MPU6050.c **** }
 10120              		.loc 1 2928 1 view .LVU1361
 10121 0014 0038     		subs	r0, r0, #0
 10122 0016 18BF     		it	ne
 10123 0018 0120     		movne	r0, #1
 10124 001a 10BD     		pop	{r4, pc}
 10125              	.L1049:
 10126              		.align	2
 10127              	.L1048:
 10128 001c 01000000 		.word	mpu6050+1
 10129              		.cfi_endproc
 10130              	.LFE238:
 10132              		.section	.text.MPU6050_getDMPInt4Status,"ax",%progbits
 10133              		.align	1
 10134              		.global	MPU6050_getDMPInt4Status
 10135              		.syntax unified
 10136              		.thumb
 10137              		.thumb_func
 10139              	MPU6050_getDMPInt4Status:
 10140              	.LFB239:
2929:Libraries/ctrl_drv/i2c/mpu6050/MPU6050.c **** bool MPU6050_getDMPInt4Status() {
 10141              		.loc 1 2929 33 is_stmt 1 view -0
 10142              		.cfi_startproc
 10143              		@ args = 0, pretend = 0, frame = 0
 10144              		@ frame_needed = 0, uses_anonymous_args = 0
 10145 0000 10B5     		push	{r4, lr}
 10146              	.LCFI306:
 10147              		.cfi_def_cfa_offset 8
 10148              		.cfi_offset 4, -8
 10149              		.cfi_offset 14, -4
2930:Libraries/ctrl_drv/i2c/mpu6050/MPU6050.c ****     I2Cdev_readBit(mpu6050.devAddr, MPU6050_RA_DMP_INT_STATUS, MPU6050_DMPINT_4_BIT, mpu6050.buffer
 10150              		.loc 1 2930 5 view .LVU1363
 10151 0002 064B     		ldr	r3, .L1052
 10152 0004 5C1E     		subs	r4, r3, #1
 10153 0006 0422     		movs	r2, #4
 10154 0008 3921     		movs	r1, #57
 10155 000a 13F8010C 		ldrb	r0, [r3, #-1]	@ zero_extendqisi2
 10156 000e FFF7FEFF 		bl	I2Cdev_readBit
 10157              	.LVL501:
2931:Libraries/ctrl_drv/i2c/mpu6050/MPU6050.c ****     return mpu6050.buffer[0];
 10158              		.loc 1 2931 5 view .LVU1364
 10159              		.loc 1 2931 26 is_stmt 0 view .LVU1365
 10160 0012 6078     		ldrb	r0, [r4, #1]	@ zero_extendqisi2
2932:Libraries/ctrl_drv/i2c/mpu6050/MPU6050.c **** }
 10161              		.loc 1 2932 1 view .LVU1366
 10162 0014 0038     		subs	r0, r0, #0
 10163 0016 18BF     		it	ne
 10164 0018 0120     		movne	r0, #1
 10165 001a 10BD     		pop	{r4, pc}
 10166              	.L1053:
 10167              		.align	2
 10168              	.L1052:
 10169 001c 01000000 		.word	mpu6050+1
 10170              		.cfi_endproc
 10171              	.LFE239:
ARM GAS  C:\Users\Mxuan\AppData\Local\Temp\ccfnFihP.s 			page 224


 10173              		.section	.text.MPU6050_getDMPInt3Status,"ax",%progbits
 10174              		.align	1
 10175              		.global	MPU6050_getDMPInt3Status
 10176              		.syntax unified
 10177              		.thumb
 10178              		.thumb_func
 10180              	MPU6050_getDMPInt3Status:
 10181              	.LFB240:
2933:Libraries/ctrl_drv/i2c/mpu6050/MPU6050.c **** bool MPU6050_getDMPInt3Status() {
 10182              		.loc 1 2933 33 is_stmt 1 view -0
 10183              		.cfi_startproc
 10184              		@ args = 0, pretend = 0, frame = 0
 10185              		@ frame_needed = 0, uses_anonymous_args = 0
 10186 0000 10B5     		push	{r4, lr}
 10187              	.LCFI307:
 10188              		.cfi_def_cfa_offset 8
 10189              		.cfi_offset 4, -8
 10190              		.cfi_offset 14, -4
2934:Libraries/ctrl_drv/i2c/mpu6050/MPU6050.c ****     I2Cdev_readBit(mpu6050.devAddr, MPU6050_RA_DMP_INT_STATUS, MPU6050_DMPINT_3_BIT, mpu6050.buffer
 10191              		.loc 1 2934 5 view .LVU1368
 10192 0002 064B     		ldr	r3, .L1056
 10193 0004 5C1E     		subs	r4, r3, #1
 10194 0006 0322     		movs	r2, #3
 10195 0008 3921     		movs	r1, #57
 10196 000a 13F8010C 		ldrb	r0, [r3, #-1]	@ zero_extendqisi2
 10197 000e FFF7FEFF 		bl	I2Cdev_readBit
 10198              	.LVL502:
2935:Libraries/ctrl_drv/i2c/mpu6050/MPU6050.c ****     return mpu6050.buffer[0];
 10199              		.loc 1 2935 5 view .LVU1369
 10200              		.loc 1 2935 26 is_stmt 0 view .LVU1370
 10201 0012 6078     		ldrb	r0, [r4, #1]	@ zero_extendqisi2
2936:Libraries/ctrl_drv/i2c/mpu6050/MPU6050.c **** }
 10202              		.loc 1 2936 1 view .LVU1371
 10203 0014 0038     		subs	r0, r0, #0
 10204 0016 18BF     		it	ne
 10205 0018 0120     		movne	r0, #1
 10206 001a 10BD     		pop	{r4, pc}
 10207              	.L1057:
 10208              		.align	2
 10209              	.L1056:
 10210 001c 01000000 		.word	mpu6050+1
 10211              		.cfi_endproc
 10212              	.LFE240:
 10214              		.section	.text.MPU6050_getDMPInt2Status,"ax",%progbits
 10215              		.align	1
 10216              		.global	MPU6050_getDMPInt2Status
 10217              		.syntax unified
 10218              		.thumb
 10219              		.thumb_func
 10221              	MPU6050_getDMPInt2Status:
 10222              	.LFB241:
2937:Libraries/ctrl_drv/i2c/mpu6050/MPU6050.c **** bool MPU6050_getDMPInt2Status() {
 10223              		.loc 1 2937 33 is_stmt 1 view -0
 10224              		.cfi_startproc
 10225              		@ args = 0, pretend = 0, frame = 0
 10226              		@ frame_needed = 0, uses_anonymous_args = 0
 10227 0000 10B5     		push	{r4, lr}
ARM GAS  C:\Users\Mxuan\AppData\Local\Temp\ccfnFihP.s 			page 225


 10228              	.LCFI308:
 10229              		.cfi_def_cfa_offset 8
 10230              		.cfi_offset 4, -8
 10231              		.cfi_offset 14, -4
2938:Libraries/ctrl_drv/i2c/mpu6050/MPU6050.c ****     I2Cdev_readBit(mpu6050.devAddr, MPU6050_RA_DMP_INT_STATUS, MPU6050_DMPINT_2_BIT, mpu6050.buffer
 10232              		.loc 1 2938 5 view .LVU1373
 10233 0002 064B     		ldr	r3, .L1060
 10234 0004 5C1E     		subs	r4, r3, #1
 10235 0006 0222     		movs	r2, #2
 10236 0008 3921     		movs	r1, #57
 10237 000a 13F8010C 		ldrb	r0, [r3, #-1]	@ zero_extendqisi2
 10238 000e FFF7FEFF 		bl	I2Cdev_readBit
 10239              	.LVL503:
2939:Libraries/ctrl_drv/i2c/mpu6050/MPU6050.c ****     return mpu6050.buffer[0];
 10240              		.loc 1 2939 5 view .LVU1374
 10241              		.loc 1 2939 26 is_stmt 0 view .LVU1375
 10242 0012 6078     		ldrb	r0, [r4, #1]	@ zero_extendqisi2
2940:Libraries/ctrl_drv/i2c/mpu6050/MPU6050.c **** }
 10243              		.loc 1 2940 1 view .LVU1376
 10244 0014 0038     		subs	r0, r0, #0
 10245 0016 18BF     		it	ne
 10246 0018 0120     		movne	r0, #1
 10247 001a 10BD     		pop	{r4, pc}
 10248              	.L1061:
 10249              		.align	2
 10250              	.L1060:
 10251 001c 01000000 		.word	mpu6050+1
 10252              		.cfi_endproc
 10253              	.LFE241:
 10255              		.section	.text.MPU6050_getDMPInt1Status,"ax",%progbits
 10256              		.align	1
 10257              		.global	MPU6050_getDMPInt1Status
 10258              		.syntax unified
 10259              		.thumb
 10260              		.thumb_func
 10262              	MPU6050_getDMPInt1Status:
 10263              	.LFB242:
2941:Libraries/ctrl_drv/i2c/mpu6050/MPU6050.c **** bool MPU6050_getDMPInt1Status() {
 10264              		.loc 1 2941 33 is_stmt 1 view -0
 10265              		.cfi_startproc
 10266              		@ args = 0, pretend = 0, frame = 0
 10267              		@ frame_needed = 0, uses_anonymous_args = 0
 10268 0000 10B5     		push	{r4, lr}
 10269              	.LCFI309:
 10270              		.cfi_def_cfa_offset 8
 10271              		.cfi_offset 4, -8
 10272              		.cfi_offset 14, -4
2942:Libraries/ctrl_drv/i2c/mpu6050/MPU6050.c ****     I2Cdev_readBit(mpu6050.devAddr, MPU6050_RA_DMP_INT_STATUS, MPU6050_DMPINT_1_BIT, mpu6050.buffer
 10273              		.loc 1 2942 5 view .LVU1378
 10274 0002 064B     		ldr	r3, .L1064
 10275 0004 5C1E     		subs	r4, r3, #1
 10276 0006 0122     		movs	r2, #1
 10277 0008 3921     		movs	r1, #57
 10278 000a 13F8010C 		ldrb	r0, [r3, #-1]	@ zero_extendqisi2
 10279 000e FFF7FEFF 		bl	I2Cdev_readBit
 10280              	.LVL504:
2943:Libraries/ctrl_drv/i2c/mpu6050/MPU6050.c ****     return mpu6050.buffer[0];
ARM GAS  C:\Users\Mxuan\AppData\Local\Temp\ccfnFihP.s 			page 226


 10281              		.loc 1 2943 5 view .LVU1379
 10282              		.loc 1 2943 26 is_stmt 0 view .LVU1380
 10283 0012 6078     		ldrb	r0, [r4, #1]	@ zero_extendqisi2
2944:Libraries/ctrl_drv/i2c/mpu6050/MPU6050.c **** }
 10284              		.loc 1 2944 1 view .LVU1381
 10285 0014 0038     		subs	r0, r0, #0
 10286 0016 18BF     		it	ne
 10287 0018 0120     		movne	r0, #1
 10288 001a 10BD     		pop	{r4, pc}
 10289              	.L1065:
 10290              		.align	2
 10291              	.L1064:
 10292 001c 01000000 		.word	mpu6050+1
 10293              		.cfi_endproc
 10294              	.LFE242:
 10296              		.section	.text.MPU6050_getDMPInt0Status,"ax",%progbits
 10297              		.align	1
 10298              		.global	MPU6050_getDMPInt0Status
 10299              		.syntax unified
 10300              		.thumb
 10301              		.thumb_func
 10303              	MPU6050_getDMPInt0Status:
 10304              	.LFB243:
2945:Libraries/ctrl_drv/i2c/mpu6050/MPU6050.c **** bool MPU6050_getDMPInt0Status() {
 10305              		.loc 1 2945 33 is_stmt 1 view -0
 10306              		.cfi_startproc
 10307              		@ args = 0, pretend = 0, frame = 0
 10308              		@ frame_needed = 0, uses_anonymous_args = 0
 10309 0000 10B5     		push	{r4, lr}
 10310              	.LCFI310:
 10311              		.cfi_def_cfa_offset 8
 10312              		.cfi_offset 4, -8
 10313              		.cfi_offset 14, -4
2946:Libraries/ctrl_drv/i2c/mpu6050/MPU6050.c ****     I2Cdev_readBit(mpu6050.devAddr, MPU6050_RA_DMP_INT_STATUS, MPU6050_DMPINT_0_BIT, mpu6050.buffer
 10314              		.loc 1 2946 5 view .LVU1383
 10315 0002 064B     		ldr	r3, .L1068
 10316 0004 5C1E     		subs	r4, r3, #1
 10317 0006 0022     		movs	r2, #0
 10318 0008 3921     		movs	r1, #57
 10319 000a 13F8010C 		ldrb	r0, [r3, #-1]	@ zero_extendqisi2
 10320 000e FFF7FEFF 		bl	I2Cdev_readBit
 10321              	.LVL505:
2947:Libraries/ctrl_drv/i2c/mpu6050/MPU6050.c ****     return mpu6050.buffer[0];
 10322              		.loc 1 2947 5 view .LVU1384
 10323              		.loc 1 2947 26 is_stmt 0 view .LVU1385
 10324 0012 6078     		ldrb	r0, [r4, #1]	@ zero_extendqisi2
2948:Libraries/ctrl_drv/i2c/mpu6050/MPU6050.c **** }
 10325              		.loc 1 2948 1 view .LVU1386
 10326 0014 0038     		subs	r0, r0, #0
 10327 0016 18BF     		it	ne
 10328 0018 0120     		movne	r0, #1
 10329 001a 10BD     		pop	{r4, pc}
 10330              	.L1069:
 10331              		.align	2
 10332              	.L1068:
 10333 001c 01000000 		.word	mpu6050+1
 10334              		.cfi_endproc
ARM GAS  C:\Users\Mxuan\AppData\Local\Temp\ccfnFihP.s 			page 227


 10335              	.LFE243:
 10337              		.section	.text.MPU6050_getIntPLLReadyStatus,"ax",%progbits
 10338              		.align	1
 10339              		.global	MPU6050_getIntPLLReadyStatus
 10340              		.syntax unified
 10341              		.thumb
 10342              		.thumb_func
 10344              	MPU6050_getIntPLLReadyStatus:
 10345              	.LFB244:
2949:Libraries/ctrl_drv/i2c/mpu6050/MPU6050.c **** 
2950:Libraries/ctrl_drv/i2c/mpu6050/MPU6050.c **** // INT_STATUS register (DMP functions)
2951:Libraries/ctrl_drv/i2c/mpu6050/MPU6050.c **** 
2952:Libraries/ctrl_drv/i2c/mpu6050/MPU6050.c **** bool MPU6050_getIntPLLReadyStatus() {
 10346              		.loc 1 2952 37 is_stmt 1 view -0
 10347              		.cfi_startproc
 10348              		@ args = 0, pretend = 0, frame = 0
 10349              		@ frame_needed = 0, uses_anonymous_args = 0
 10350 0000 10B5     		push	{r4, lr}
 10351              	.LCFI311:
 10352              		.cfi_def_cfa_offset 8
 10353              		.cfi_offset 4, -8
 10354              		.cfi_offset 14, -4
2953:Libraries/ctrl_drv/i2c/mpu6050/MPU6050.c ****     I2Cdev_readBit(mpu6050.devAddr, MPU6050_RA_INT_STATUS, MPU6050_INTERRUPT_PLL_RDY_INT_BIT, mpu60
 10355              		.loc 1 2953 5 view .LVU1388
 10356 0002 064B     		ldr	r3, .L1072
 10357 0004 5C1E     		subs	r4, r3, #1
 10358 0006 0222     		movs	r2, #2
 10359 0008 3A21     		movs	r1, #58
 10360 000a 13F8010C 		ldrb	r0, [r3, #-1]	@ zero_extendqisi2
 10361 000e FFF7FEFF 		bl	I2Cdev_readBit
 10362              	.LVL506:
2954:Libraries/ctrl_drv/i2c/mpu6050/MPU6050.c ****     return mpu6050.buffer[0];
 10363              		.loc 1 2954 5 view .LVU1389
 10364              		.loc 1 2954 26 is_stmt 0 view .LVU1390
 10365 0012 6078     		ldrb	r0, [r4, #1]	@ zero_extendqisi2
2955:Libraries/ctrl_drv/i2c/mpu6050/MPU6050.c **** }
 10366              		.loc 1 2955 1 view .LVU1391
 10367 0014 0038     		subs	r0, r0, #0
 10368 0016 18BF     		it	ne
 10369 0018 0120     		movne	r0, #1
 10370 001a 10BD     		pop	{r4, pc}
 10371              	.L1073:
 10372              		.align	2
 10373              	.L1072:
 10374 001c 01000000 		.word	mpu6050+1
 10375              		.cfi_endproc
 10376              	.LFE244:
 10378              		.section	.text.MPU6050_getIntDMPStatus,"ax",%progbits
 10379              		.align	1
 10380              		.global	MPU6050_getIntDMPStatus
 10381              		.syntax unified
 10382              		.thumb
 10383              		.thumb_func
 10385              	MPU6050_getIntDMPStatus:
 10386              	.LFB245:
2956:Libraries/ctrl_drv/i2c/mpu6050/MPU6050.c **** bool MPU6050_getIntDMPStatus() {
 10387              		.loc 1 2956 32 is_stmt 1 view -0
ARM GAS  C:\Users\Mxuan\AppData\Local\Temp\ccfnFihP.s 			page 228


 10388              		.cfi_startproc
 10389              		@ args = 0, pretend = 0, frame = 0
 10390              		@ frame_needed = 0, uses_anonymous_args = 0
 10391 0000 10B5     		push	{r4, lr}
 10392              	.LCFI312:
 10393              		.cfi_def_cfa_offset 8
 10394              		.cfi_offset 4, -8
 10395              		.cfi_offset 14, -4
2957:Libraries/ctrl_drv/i2c/mpu6050/MPU6050.c ****     I2Cdev_readBit(mpu6050.devAddr, MPU6050_RA_INT_STATUS, MPU6050_INTERRUPT_DMP_INT_BIT, mpu6050.b
 10396              		.loc 1 2957 5 view .LVU1393
 10397 0002 064B     		ldr	r3, .L1076
 10398 0004 5C1E     		subs	r4, r3, #1
 10399 0006 0122     		movs	r2, #1
 10400 0008 3A21     		movs	r1, #58
 10401 000a 13F8010C 		ldrb	r0, [r3, #-1]	@ zero_extendqisi2
 10402 000e FFF7FEFF 		bl	I2Cdev_readBit
 10403              	.LVL507:
2958:Libraries/ctrl_drv/i2c/mpu6050/MPU6050.c ****     return mpu6050.buffer[0];
 10404              		.loc 1 2958 5 view .LVU1394
 10405              		.loc 1 2958 26 is_stmt 0 view .LVU1395
 10406 0012 6078     		ldrb	r0, [r4, #1]	@ zero_extendqisi2
2959:Libraries/ctrl_drv/i2c/mpu6050/MPU6050.c **** }
 10407              		.loc 1 2959 1 view .LVU1396
 10408 0014 0038     		subs	r0, r0, #0
 10409 0016 18BF     		it	ne
 10410 0018 0120     		movne	r0, #1
 10411 001a 10BD     		pop	{r4, pc}
 10412              	.L1077:
 10413              		.align	2
 10414              	.L1076:
 10415 001c 01000000 		.word	mpu6050+1
 10416              		.cfi_endproc
 10417              	.LFE245:
 10419              		.section	.text.MPU6050_getDMPEnabled,"ax",%progbits
 10420              		.align	1
 10421              		.global	MPU6050_getDMPEnabled
 10422              		.syntax unified
 10423              		.thumb
 10424              		.thumb_func
 10426              	MPU6050_getDMPEnabled:
 10427              	.LFB246:
2960:Libraries/ctrl_drv/i2c/mpu6050/MPU6050.c **** 
2961:Libraries/ctrl_drv/i2c/mpu6050/MPU6050.c **** // USER_CTRL register (DMP functions)
2962:Libraries/ctrl_drv/i2c/mpu6050/MPU6050.c **** 
2963:Libraries/ctrl_drv/i2c/mpu6050/MPU6050.c **** bool MPU6050_getDMPEnabled() {
 10428              		.loc 1 2963 30 is_stmt 1 view -0
 10429              		.cfi_startproc
 10430              		@ args = 0, pretend = 0, frame = 0
 10431              		@ frame_needed = 0, uses_anonymous_args = 0
 10432 0000 10B5     		push	{r4, lr}
 10433              	.LCFI313:
 10434              		.cfi_def_cfa_offset 8
 10435              		.cfi_offset 4, -8
 10436              		.cfi_offset 14, -4
2964:Libraries/ctrl_drv/i2c/mpu6050/MPU6050.c ****     I2Cdev_readBit(mpu6050.devAddr, MPU6050_RA_USER_CTRL, MPU6050_USERCTRL_DMP_EN_BIT, mpu6050.buff
 10437              		.loc 1 2964 5 view .LVU1398
 10438 0002 064B     		ldr	r3, .L1080
ARM GAS  C:\Users\Mxuan\AppData\Local\Temp\ccfnFihP.s 			page 229


 10439 0004 5C1E     		subs	r4, r3, #1
 10440 0006 0722     		movs	r2, #7
 10441 0008 6A21     		movs	r1, #106
 10442 000a 13F8010C 		ldrb	r0, [r3, #-1]	@ zero_extendqisi2
 10443 000e FFF7FEFF 		bl	I2Cdev_readBit
 10444              	.LVL508:
2965:Libraries/ctrl_drv/i2c/mpu6050/MPU6050.c ****     return mpu6050.buffer[0];
 10445              		.loc 1 2965 5 view .LVU1399
 10446              		.loc 1 2965 26 is_stmt 0 view .LVU1400
 10447 0012 6078     		ldrb	r0, [r4, #1]	@ zero_extendqisi2
2966:Libraries/ctrl_drv/i2c/mpu6050/MPU6050.c **** }
 10448              		.loc 1 2966 1 view .LVU1401
 10449 0014 0038     		subs	r0, r0, #0
 10450 0016 18BF     		it	ne
 10451 0018 0120     		movne	r0, #1
 10452 001a 10BD     		pop	{r4, pc}
 10453              	.L1081:
 10454              		.align	2
 10455              	.L1080:
 10456 001c 01000000 		.word	mpu6050+1
 10457              		.cfi_endproc
 10458              	.LFE246:
 10460              		.section	.text.MPU6050_setDMPEnabled,"ax",%progbits
 10461              		.align	1
 10462              		.global	MPU6050_setDMPEnabled
 10463              		.syntax unified
 10464              		.thumb
 10465              		.thumb_func
 10467              	MPU6050_setDMPEnabled:
 10468              	.LVL509:
 10469              	.LFB247:
2967:Libraries/ctrl_drv/i2c/mpu6050/MPU6050.c **** void MPU6050_setDMPEnabled(bool enabled) {
 10470              		.loc 1 2967 42 is_stmt 1 view -0
 10471              		.cfi_startproc
 10472              		@ args = 0, pretend = 0, frame = 0
 10473              		@ frame_needed = 0, uses_anonymous_args = 0
 10474              		.loc 1 2967 42 is_stmt 0 view .LVU1403
 10475 0000 08B5     		push	{r3, lr}
 10476              	.LCFI314:
 10477              		.cfi_def_cfa_offset 8
 10478              		.cfi_offset 3, -8
 10479              		.cfi_offset 14, -4
 10480 0002 0346     		mov	r3, r0
2968:Libraries/ctrl_drv/i2c/mpu6050/MPU6050.c ****     I2Cdev_writeBit(mpu6050.devAddr, MPU6050_RA_USER_CTRL, MPU6050_USERCTRL_DMP_EN_BIT, enabled);
 10481              		.loc 1 2968 5 is_stmt 1 view .LVU1404
 10482 0004 0722     		movs	r2, #7
 10483 0006 6A21     		movs	r1, #106
 10484 0008 0248     		ldr	r0, .L1084
 10485              	.LVL510:
 10486              		.loc 1 2968 5 is_stmt 0 view .LVU1405
 10487 000a 0078     		ldrb	r0, [r0]	@ zero_extendqisi2
 10488 000c FFF7FEFF 		bl	I2Cdev_writeBit
 10489              	.LVL511:
2969:Libraries/ctrl_drv/i2c/mpu6050/MPU6050.c **** }
 10490              		.loc 1 2969 1 view .LVU1406
 10491 0010 08BD     		pop	{r3, pc}
 10492              	.L1085:
ARM GAS  C:\Users\Mxuan\AppData\Local\Temp\ccfnFihP.s 			page 230


 10493 0012 00BF     		.align	2
 10494              	.L1084:
 10495 0014 00000000 		.word	mpu6050
 10496              		.cfi_endproc
 10497              	.LFE247:
 10499              		.section	.text.MPU6050_resetDMP,"ax",%progbits
 10500              		.align	1
 10501              		.global	MPU6050_resetDMP
 10502              		.syntax unified
 10503              		.thumb
 10504              		.thumb_func
 10506              	MPU6050_resetDMP:
 10507              	.LFB248:
2970:Libraries/ctrl_drv/i2c/mpu6050/MPU6050.c **** void MPU6050_resetDMP() {
 10508              		.loc 1 2970 25 is_stmt 1 view -0
 10509              		.cfi_startproc
 10510              		@ args = 0, pretend = 0, frame = 0
 10511              		@ frame_needed = 0, uses_anonymous_args = 0
 10512 0000 08B5     		push	{r3, lr}
 10513              	.LCFI315:
 10514              		.cfi_def_cfa_offset 8
 10515              		.cfi_offset 3, -8
 10516              		.cfi_offset 14, -4
2971:Libraries/ctrl_drv/i2c/mpu6050/MPU6050.c ****     I2Cdev_writeBit(mpu6050.devAddr, MPU6050_RA_USER_CTRL, MPU6050_USERCTRL_DMP_RESET_BIT, true);
 10517              		.loc 1 2971 5 view .LVU1408
 10518 0002 0123     		movs	r3, #1
 10519 0004 0322     		movs	r2, #3
 10520 0006 6A21     		movs	r1, #106
 10521 0008 0248     		ldr	r0, .L1088
 10522 000a 0078     		ldrb	r0, [r0]	@ zero_extendqisi2
 10523 000c FFF7FEFF 		bl	I2Cdev_writeBit
 10524              	.LVL512:
2972:Libraries/ctrl_drv/i2c/mpu6050/MPU6050.c **** }
 10525              		.loc 1 2972 1 is_stmt 0 view .LVU1409
 10526 0010 08BD     		pop	{r3, pc}
 10527              	.L1089:
 10528 0012 00BF     		.align	2
 10529              	.L1088:
 10530 0014 00000000 		.word	mpu6050
 10531              		.cfi_endproc
 10532              	.LFE248:
 10534              		.section	.text.MPU6050_setMemoryBank,"ax",%progbits
 10535              		.align	1
 10536              		.global	MPU6050_setMemoryBank
 10537              		.syntax unified
 10538              		.thumb
 10539              		.thumb_func
 10541              	MPU6050_setMemoryBank:
 10542              	.LVL513:
 10543              	.LFB249:
2973:Libraries/ctrl_drv/i2c/mpu6050/MPU6050.c **** 
2974:Libraries/ctrl_drv/i2c/mpu6050/MPU6050.c **** // BANK_SEL register
2975:Libraries/ctrl_drv/i2c/mpu6050/MPU6050.c **** 
2976:Libraries/ctrl_drv/i2c/mpu6050/MPU6050.c **** void MPU6050_setMemoryBank(uint8_t bank, bool prefetchEnabled, bool userBank) {
 10544              		.loc 1 2976 79 is_stmt 1 view -0
 10545              		.cfi_startproc
 10546              		@ args = 0, pretend = 0, frame = 0
ARM GAS  C:\Users\Mxuan\AppData\Local\Temp\ccfnFihP.s 			page 231


 10547              		@ frame_needed = 0, uses_anonymous_args = 0
 10548              		.loc 1 2976 79 is_stmt 0 view .LVU1411
 10549 0000 08B5     		push	{r3, lr}
 10550              	.LCFI316:
 10551              		.cfi_def_cfa_offset 8
 10552              		.cfi_offset 3, -8
 10553              		.cfi_offset 14, -4
2977:Libraries/ctrl_drv/i2c/mpu6050/MPU6050.c ****     bank &= 0x1F;
 10554              		.loc 1 2977 5 is_stmt 1 view .LVU1412
 10555              		.loc 1 2977 10 is_stmt 0 view .LVU1413
 10556 0002 00F01F00 		and	r0, r0, #31
 10557              	.LVL514:
2978:Libraries/ctrl_drv/i2c/mpu6050/MPU6050.c ****     if (userBank) bank |= 0x20;
 10558              		.loc 1 2978 5 is_stmt 1 view .LVU1414
 10559              		.loc 1 2978 8 is_stmt 0 view .LVU1415
 10560 0006 0AB1     		cbz	r2, .L1091
 10561              		.loc 1 2978 19 is_stmt 1 discriminator 1 view .LVU1416
 10562              		.loc 1 2978 24 is_stmt 0 discriminator 1 view .LVU1417
 10563 0008 40F02000 		orr	r0, r0, #32
 10564              	.LVL515:
 10565              	.L1091:
2979:Libraries/ctrl_drv/i2c/mpu6050/MPU6050.c ****     if (prefetchEnabled) bank |= 0x40;
 10566              		.loc 1 2979 5 is_stmt 1 view .LVU1418
 10567              		.loc 1 2979 8 is_stmt 0 view .LVU1419
 10568 000c 09B1     		cbz	r1, .L1092
 10569              		.loc 1 2979 26 is_stmt 1 discriminator 1 view .LVU1420
 10570              		.loc 1 2979 31 is_stmt 0 discriminator 1 view .LVU1421
 10571 000e 40F04000 		orr	r0, r0, #64
 10572              	.LVL516:
 10573              	.L1092:
2980:Libraries/ctrl_drv/i2c/mpu6050/MPU6050.c ****     I2Cdev_writeByte(mpu6050.devAddr, MPU6050_RA_BANK_SEL, bank);
 10574              		.loc 1 2980 5 is_stmt 1 view .LVU1422
 10575 0012 0246     		mov	r2, r0
 10576              	.LVL517:
 10577              		.loc 1 2980 5 is_stmt 0 view .LVU1423
 10578 0014 6D21     		movs	r1, #109
 10579              	.LVL518:
 10580              		.loc 1 2980 5 view .LVU1424
 10581 0016 024B     		ldr	r3, .L1094
 10582 0018 1878     		ldrb	r0, [r3]	@ zero_extendqisi2
 10583              	.LVL519:
 10584              		.loc 1 2980 5 view .LVU1425
 10585 001a FFF7FEFF 		bl	I2Cdev_writeByte
 10586              	.LVL520:
2981:Libraries/ctrl_drv/i2c/mpu6050/MPU6050.c **** }
 10587              		.loc 1 2981 1 view .LVU1426
 10588 001e 08BD     		pop	{r3, pc}
 10589              	.L1095:
 10590              		.align	2
 10591              	.L1094:
 10592 0020 00000000 		.word	mpu6050
 10593              		.cfi_endproc
 10594              	.LFE249:
 10596              		.section	.text.MPU6050_setMemoryStartAddress,"ax",%progbits
 10597              		.align	1
 10598              		.global	MPU6050_setMemoryStartAddress
 10599              		.syntax unified
ARM GAS  C:\Users\Mxuan\AppData\Local\Temp\ccfnFihP.s 			page 232


 10600              		.thumb
 10601              		.thumb_func
 10603              	MPU6050_setMemoryStartAddress:
 10604              	.LVL521:
 10605              	.LFB250:
2982:Libraries/ctrl_drv/i2c/mpu6050/MPU6050.c **** 
2983:Libraries/ctrl_drv/i2c/mpu6050/MPU6050.c **** // MEM_START_ADDR register
2984:Libraries/ctrl_drv/i2c/mpu6050/MPU6050.c **** 
2985:Libraries/ctrl_drv/i2c/mpu6050/MPU6050.c **** void MPU6050_setMemoryStartAddress(uint8_t address) {
 10606              		.loc 1 2985 53 is_stmt 1 view -0
 10607              		.cfi_startproc
 10608              		@ args = 0, pretend = 0, frame = 0
 10609              		@ frame_needed = 0, uses_anonymous_args = 0
 10610              		.loc 1 2985 53 is_stmt 0 view .LVU1428
 10611 0000 08B5     		push	{r3, lr}
 10612              	.LCFI317:
 10613              		.cfi_def_cfa_offset 8
 10614              		.cfi_offset 3, -8
 10615              		.cfi_offset 14, -4
 10616 0002 0246     		mov	r2, r0
2986:Libraries/ctrl_drv/i2c/mpu6050/MPU6050.c ****     I2Cdev_writeByte(mpu6050.devAddr, MPU6050_RA_MEM_START_ADDR, address);
 10617              		.loc 1 2986 5 is_stmt 1 view .LVU1429
 10618 0004 6E21     		movs	r1, #110
 10619 0006 024B     		ldr	r3, .L1098
 10620 0008 1878     		ldrb	r0, [r3]	@ zero_extendqisi2
 10621              	.LVL522:
 10622              		.loc 1 2986 5 is_stmt 0 view .LVU1430
 10623 000a FFF7FEFF 		bl	I2Cdev_writeByte
 10624              	.LVL523:
2987:Libraries/ctrl_drv/i2c/mpu6050/MPU6050.c **** }
 10625              		.loc 1 2987 1 view .LVU1431
 10626 000e 08BD     		pop	{r3, pc}
 10627              	.L1099:
 10628              		.align	2
 10629              	.L1098:
 10630 0010 00000000 		.word	mpu6050
 10631              		.cfi_endproc
 10632              	.LFE250:
 10634              		.section	.text.MPU6050_readMemoryByte,"ax",%progbits
 10635              		.align	1
 10636              		.global	MPU6050_readMemoryByte
 10637              		.syntax unified
 10638              		.thumb
 10639              		.thumb_func
 10641              	MPU6050_readMemoryByte:
 10642              	.LFB251:
2988:Libraries/ctrl_drv/i2c/mpu6050/MPU6050.c **** 
2989:Libraries/ctrl_drv/i2c/mpu6050/MPU6050.c **** // MEM_R_W register
2990:Libraries/ctrl_drv/i2c/mpu6050/MPU6050.c **** 
2991:Libraries/ctrl_drv/i2c/mpu6050/MPU6050.c **** uint8_t MPU6050_readMemoryByte() {
 10643              		.loc 1 2991 34 is_stmt 1 view -0
 10644              		.cfi_startproc
 10645              		@ args = 0, pretend = 0, frame = 0
 10646              		@ frame_needed = 0, uses_anonymous_args = 0
 10647 0000 10B5     		push	{r4, lr}
 10648              	.LCFI318:
 10649              		.cfi_def_cfa_offset 8
ARM GAS  C:\Users\Mxuan\AppData\Local\Temp\ccfnFihP.s 			page 233


 10650              		.cfi_offset 4, -8
 10651              		.cfi_offset 14, -4
2992:Libraries/ctrl_drv/i2c/mpu6050/MPU6050.c ****     I2Cdev_readByte(mpu6050.devAddr, MPU6050_RA_MEM_R_W, mpu6050.buffer);
 10652              		.loc 1 2992 5 view .LVU1433
 10653 0002 044A     		ldr	r2, .L1102
 10654 0004 541E     		subs	r4, r2, #1
 10655 0006 6F21     		movs	r1, #111
 10656 0008 12F8010C 		ldrb	r0, [r2, #-1]	@ zero_extendqisi2
 10657 000c FFF7FEFF 		bl	I2Cdev_readByte
 10658              	.LVL524:
2993:Libraries/ctrl_drv/i2c/mpu6050/MPU6050.c ****     return mpu6050.buffer[0];
 10659              		.loc 1 2993 5 view .LVU1434
2994:Libraries/ctrl_drv/i2c/mpu6050/MPU6050.c **** }
 10660              		.loc 1 2994 1 is_stmt 0 view .LVU1435
 10661 0010 6078     		ldrb	r0, [r4, #1]	@ zero_extendqisi2
 10662 0012 10BD     		pop	{r4, pc}
 10663              	.L1103:
 10664              		.align	2
 10665              	.L1102:
 10666 0014 01000000 		.word	mpu6050+1
 10667              		.cfi_endproc
 10668              	.LFE251:
 10670              		.section	.text.MPU6050_writeMemoryByte,"ax",%progbits
 10671              		.align	1
 10672              		.global	MPU6050_writeMemoryByte
 10673              		.syntax unified
 10674              		.thumb
 10675              		.thumb_func
 10677              	MPU6050_writeMemoryByte:
 10678              	.LVL525:
 10679              	.LFB252:
2995:Libraries/ctrl_drv/i2c/mpu6050/MPU6050.c **** void MPU6050_writeMemoryByte(uint8_t data) {
 10680              		.loc 1 2995 44 is_stmt 1 view -0
 10681              		.cfi_startproc
 10682              		@ args = 0, pretend = 0, frame = 0
 10683              		@ frame_needed = 0, uses_anonymous_args = 0
 10684              		.loc 1 2995 44 is_stmt 0 view .LVU1437
 10685 0000 08B5     		push	{r3, lr}
 10686              	.LCFI319:
 10687              		.cfi_def_cfa_offset 8
 10688              		.cfi_offset 3, -8
 10689              		.cfi_offset 14, -4
 10690 0002 0246     		mov	r2, r0
2996:Libraries/ctrl_drv/i2c/mpu6050/MPU6050.c ****     I2Cdev_writeByte(mpu6050.devAddr, MPU6050_RA_MEM_R_W, data);
 10691              		.loc 1 2996 5 is_stmt 1 view .LVU1438
 10692 0004 6F21     		movs	r1, #111
 10693 0006 024B     		ldr	r3, .L1106
 10694 0008 1878     		ldrb	r0, [r3]	@ zero_extendqisi2
 10695              	.LVL526:
 10696              		.loc 1 2996 5 is_stmt 0 view .LVU1439
 10697 000a FFF7FEFF 		bl	I2Cdev_writeByte
 10698              	.LVL527:
2997:Libraries/ctrl_drv/i2c/mpu6050/MPU6050.c **** }
 10699              		.loc 1 2997 1 view .LVU1440
 10700 000e 08BD     		pop	{r3, pc}
 10701              	.L1107:
 10702              		.align	2
ARM GAS  C:\Users\Mxuan\AppData\Local\Temp\ccfnFihP.s 			page 234


 10703              	.L1106:
 10704 0010 00000000 		.word	mpu6050
 10705              		.cfi_endproc
 10706              	.LFE252:
 10708              		.section	.text.MPU6050_readMemoryBlock,"ax",%progbits
 10709              		.align	1
 10710              		.global	MPU6050_readMemoryBlock
 10711              		.syntax unified
 10712              		.thumb
 10713              		.thumb_func
 10715              	MPU6050_readMemoryBlock:
 10716              	.LVL528:
 10717              	.LFB253:
2998:Libraries/ctrl_drv/i2c/mpu6050/MPU6050.c **** void MPU6050_readMemoryBlock(uint8_t *data, uint16_t dataSize, uint8_t bank, uint8_t address) {
 10718              		.loc 1 2998 95 is_stmt 1 view -0
 10719              		.cfi_startproc
 10720              		@ args = 0, pretend = 0, frame = 0
 10721              		@ frame_needed = 0, uses_anonymous_args = 0
 10722              		.loc 1 2998 95 is_stmt 0 view .LVU1442
 10723 0000 2DE9F843 		push	{r3, r4, r5, r6, r7, r8, r9, lr}
 10724              	.LCFI320:
 10725              		.cfi_def_cfa_offset 32
 10726              		.cfi_offset 3, -32
 10727              		.cfi_offset 4, -28
 10728              		.cfi_offset 5, -24
 10729              		.cfi_offset 6, -20
 10730              		.cfi_offset 7, -16
 10731              		.cfi_offset 8, -12
 10732              		.cfi_offset 9, -8
 10733              		.cfi_offset 14, -4
 10734 0004 8046     		mov	r8, r0
 10735 0006 0E46     		mov	r6, r1
 10736 0008 1746     		mov	r7, r2
 10737 000a 9946     		mov	r9, r3
2999:Libraries/ctrl_drv/i2c/mpu6050/MPU6050.c ****     MPU6050_setMemoryBank(bank, false, false);
 10738              		.loc 1 2999 5 is_stmt 1 view .LVU1443
 10739 000c 0022     		movs	r2, #0
 10740              	.LVL529:
 10741              		.loc 1 2999 5 is_stmt 0 view .LVU1444
 10742 000e 1146     		mov	r1, r2
 10743              	.LVL530:
 10744              		.loc 1 2999 5 view .LVU1445
 10745 0010 3846     		mov	r0, r7
 10746              	.LVL531:
 10747              		.loc 1 2999 5 view .LVU1446
 10748 0012 FFF7FEFF 		bl	MPU6050_setMemoryBank
 10749              	.LVL532:
3000:Libraries/ctrl_drv/i2c/mpu6050/MPU6050.c ****     MPU6050_setMemoryStartAddress(address);
 10750              		.loc 1 3000 5 is_stmt 1 view .LVU1447
 10751 0016 4846     		mov	r0, r9
 10752 0018 FFF7FEFF 		bl	MPU6050_setMemoryStartAddress
 10753              	.LVL533:
3001:Libraries/ctrl_drv/i2c/mpu6050/MPU6050.c ****     uint8_t chunkSize;
 10754              		.loc 1 3001 5 view .LVU1448
3002:Libraries/ctrl_drv/i2c/mpu6050/MPU6050.c ****     for (uint16_t i = 0; i < dataSize;) {
 10755              		.loc 1 3002 5 view .LVU1449
 10756              	.LBB2:
ARM GAS  C:\Users\Mxuan\AppData\Local\Temp\ccfnFihP.s 			page 235


 10757              		.loc 1 3002 10 view .LVU1450
 10758              		.loc 1 3002 19 is_stmt 0 view .LVU1451
 10759 001c 0025     		movs	r5, #0
 10760              		.loc 1 3002 5 view .LVU1452
 10761 001e 23E0     		b	.L1109
 10762              	.LVL534:
 10763              	.L1115:
3003:Libraries/ctrl_drv/i2c/mpu6050/MPU6050.c ****         // determine correct chunk size according to bank position and data size
3004:Libraries/ctrl_drv/i2c/mpu6050/MPU6050.c ****         chunkSize = MPU6050_DMP_MEMORY_CHUNK_SIZE;
 10764              		.loc 1 3004 19 view .LVU1453
 10765 0020 1024     		movs	r4, #16
 10766              	.LVL535:
 10767              	.L1110:
3005:Libraries/ctrl_drv/i2c/mpu6050/MPU6050.c **** 
3006:Libraries/ctrl_drv/i2c/mpu6050/MPU6050.c ****         // make sure we don't go past the data size
3007:Libraries/ctrl_drv/i2c/mpu6050/MPU6050.c ****         if (i + chunkSize > dataSize) chunkSize = dataSize - i;
3008:Libraries/ctrl_drv/i2c/mpu6050/MPU6050.c **** 
3009:Libraries/ctrl_drv/i2c/mpu6050/MPU6050.c ****         // make sure this chunk doesn't go past the bank boundary (256 bytes)
3010:Libraries/ctrl_drv/i2c/mpu6050/MPU6050.c ****         if (chunkSize > 256 - address) chunkSize = 256 - address;
 10768              		.loc 1 3010 9 is_stmt 1 view .LVU1454
 10769              		.loc 1 3010 29 is_stmt 0 view .LVU1455
 10770 0022 C9F58073 		rsb	r3, r9, #256
 10771              		.loc 1 3010 12 view .LVU1456
 10772 0026 9C42     		cmp	r4, r3
 10773 0028 02DD     		ble	.L1111
 10774              		.loc 1 3010 40 is_stmt 1 discriminator 1 view .LVU1457
 10775              		.loc 1 3010 50 is_stmt 0 discriminator 1 view .LVU1458
 10776 002a C9F10004 		rsb	r4, r9, #0
 10777              	.LVL536:
 10778              		.loc 1 3010 50 discriminator 1 view .LVU1459
 10779 002e E4B2     		uxtb	r4, r4
 10780              	.LVL537:
 10781              	.L1111:
3011:Libraries/ctrl_drv/i2c/mpu6050/MPU6050.c **** 
3012:Libraries/ctrl_drv/i2c/mpu6050/MPU6050.c ****         // read the chunk of data as specified
3013:Libraries/ctrl_drv/i2c/mpu6050/MPU6050.c ****         I2Cdev_readBytes(mpu6050.devAddr, MPU6050_RA_MEM_R_W, chunkSize, data + i);
 10782              		.loc 1 3013 9 is_stmt 1 view .LVU1460
 10783 0030 08EB0503 		add	r3, r8, r5
 10784 0034 2246     		mov	r2, r4
 10785 0036 6F21     		movs	r1, #111
 10786 0038 1248     		ldr	r0, .L1118
 10787 003a 0078     		ldrb	r0, [r0]	@ zero_extendqisi2
 10788 003c FFF7FEFF 		bl	I2Cdev_readBytes
 10789              	.LVL538:
3014:Libraries/ctrl_drv/i2c/mpu6050/MPU6050.c **** 
3015:Libraries/ctrl_drv/i2c/mpu6050/MPU6050.c ****         // increase byte index by [chunkSize]
3016:Libraries/ctrl_drv/i2c/mpu6050/MPU6050.c ****         i += chunkSize;
 10790              		.loc 1 3016 9 view .LVU1461
 10791              		.loc 1 3016 11 is_stmt 0 view .LVU1462
 10792 0040 2544     		add	r5, r5, r4
 10793              	.LVL539:
 10794              		.loc 1 3016 11 view .LVU1463
 10795 0042 ADB2     		uxth	r5, r5
 10796              	.LVL540:
3017:Libraries/ctrl_drv/i2c/mpu6050/MPU6050.c **** 
3018:Libraries/ctrl_drv/i2c/mpu6050/MPU6050.c ****         // uint8_t automatically wraps to 0 at 256
3019:Libraries/ctrl_drv/i2c/mpu6050/MPU6050.c ****         address += chunkSize;
ARM GAS  C:\Users\Mxuan\AppData\Local\Temp\ccfnFihP.s 			page 236


 10797              		.loc 1 3019 9 is_stmt 1 view .LVU1464
 10798              		.loc 1 3019 17 is_stmt 0 view .LVU1465
 10799 0044 4C44     		add	r4, r4, r9
 10800              	.LVL541:
 10801              		.loc 1 3019 17 view .LVU1466
 10802 0046 5FFA84F9 		uxtb	r9, r4
 10803              	.LVL542:
3020:Libraries/ctrl_drv/i2c/mpu6050/MPU6050.c **** 
3021:Libraries/ctrl_drv/i2c/mpu6050/MPU6050.c ****         // if we aren't done, update bank (if necessary) and address
3022:Libraries/ctrl_drv/i2c/mpu6050/MPU6050.c ****         if (i < dataSize) {
 10804              		.loc 1 3022 9 is_stmt 1 view .LVU1467
 10805              		.loc 1 3022 12 is_stmt 0 view .LVU1468
 10806 004a AE42     		cmp	r6, r5
 10807 004c 0CD9     		bls	.L1109
3023:Libraries/ctrl_drv/i2c/mpu6050/MPU6050.c ****             if (address == 0) bank++;
 10808              		.loc 1 3023 13 is_stmt 1 view .LVU1469
 10809              		.loc 1 3023 16 is_stmt 0 view .LVU1470
 10810 004e B9F1000F 		cmp	r9, #0
 10811 0052 01D1     		bne	.L1113
 10812              		.loc 1 3023 31 is_stmt 1 discriminator 1 view .LVU1471
 10813              		.loc 1 3023 35 is_stmt 0 discriminator 1 view .LVU1472
 10814 0054 0137     		adds	r7, r7, #1
 10815              	.LVL543:
 10816              		.loc 1 3023 35 discriminator 1 view .LVU1473
 10817 0056 FFB2     		uxtb	r7, r7
 10818              	.LVL544:
 10819              	.L1113:
3024:Libraries/ctrl_drv/i2c/mpu6050/MPU6050.c ****             MPU6050_setMemoryBank(bank, false, false);
 10820              		.loc 1 3024 13 is_stmt 1 view .LVU1474
 10821 0058 0022     		movs	r2, #0
 10822 005a 1146     		mov	r1, r2
 10823 005c 3846     		mov	r0, r7
 10824 005e FFF7FEFF 		bl	MPU6050_setMemoryBank
 10825              	.LVL545:
3025:Libraries/ctrl_drv/i2c/mpu6050/MPU6050.c ****             MPU6050_setMemoryStartAddress(address);
 10826              		.loc 1 3025 13 view .LVU1475
 10827 0062 4846     		mov	r0, r9
 10828 0064 FFF7FEFF 		bl	MPU6050_setMemoryStartAddress
 10829              	.LVL546:
 10830              	.L1109:
3002:Libraries/ctrl_drv/i2c/mpu6050/MPU6050.c ****         // determine correct chunk size according to bank position and data size
 10831              		.loc 1 3002 28 discriminator 1 view .LVU1476
 10832 0068 B542     		cmp	r5, r6
 10833 006a 08D2     		bcs	.L1117
3004:Libraries/ctrl_drv/i2c/mpu6050/MPU6050.c **** 
 10834              		.loc 1 3004 9 view .LVU1477
 10835              	.LVL547:
3007:Libraries/ctrl_drv/i2c/mpu6050/MPU6050.c **** 
 10836              		.loc 1 3007 9 view .LVU1478
3007:Libraries/ctrl_drv/i2c/mpu6050/MPU6050.c **** 
 10837              		.loc 1 3007 15 is_stmt 0 view .LVU1479
 10838 006c 05F11003 		add	r3, r5, #16
3007:Libraries/ctrl_drv/i2c/mpu6050/MPU6050.c **** 
 10839              		.loc 1 3007 12 view .LVU1480
 10840 0070 B342     		cmp	r3, r6
 10841 0072 D5DD     		ble	.L1115
3007:Libraries/ctrl_drv/i2c/mpu6050/MPU6050.c **** 
ARM GAS  C:\Users\Mxuan\AppData\Local\Temp\ccfnFihP.s 			page 237


 10842              		.loc 1 3007 39 is_stmt 1 discriminator 1 view .LVU1481
3007:Libraries/ctrl_drv/i2c/mpu6050/MPU6050.c **** 
 10843              		.loc 1 3007 60 is_stmt 0 discriminator 1 view .LVU1482
 10844 0074 F4B2     		uxtb	r4, r6
 10845 0076 EBB2     		uxtb	r3, r5
3007:Libraries/ctrl_drv/i2c/mpu6050/MPU6050.c **** 
 10846              		.loc 1 3007 49 discriminator 1 view .LVU1483
 10847 0078 E41A     		subs	r4, r4, r3
 10848 007a E4B2     		uxtb	r4, r4
 10849              	.LVL548:
3007:Libraries/ctrl_drv/i2c/mpu6050/MPU6050.c **** 
 10850              		.loc 1 3007 49 discriminator 1 view .LVU1484
 10851 007c D1E7     		b	.L1110
 10852              	.LVL549:
 10853              	.L1117:
3007:Libraries/ctrl_drv/i2c/mpu6050/MPU6050.c **** 
 10854              		.loc 1 3007 49 discriminator 1 view .LVU1485
 10855              	.LBE2:
3026:Libraries/ctrl_drv/i2c/mpu6050/MPU6050.c ****         }
3027:Libraries/ctrl_drv/i2c/mpu6050/MPU6050.c ****     }
3028:Libraries/ctrl_drv/i2c/mpu6050/MPU6050.c **** }
 10856              		.loc 1 3028 1 view .LVU1486
 10857 007e BDE8F883 		pop	{r3, r4, r5, r6, r7, r8, r9, pc}
 10858              	.LVL550:
 10859              	.L1119:
 10860              		.loc 1 3028 1 view .LVU1487
 10861 0082 00BF     		.align	2
 10862              	.L1118:
 10863 0084 00000000 		.word	mpu6050
 10864              		.cfi_endproc
 10865              	.LFE253:
 10867              		.section	.text.MPU6050_getDMPConfig1,"ax",%progbits
 10868              		.align	1
 10869              		.global	MPU6050_getDMPConfig1
 10870              		.syntax unified
 10871              		.thumb
 10872              		.thumb_func
 10874              	MPU6050_getDMPConfig1:
 10875              	.LFB254:
3029:Libraries/ctrl_drv/i2c/mpu6050/MPU6050.c **** /*bool MPU6050_writeMemoryBlock(const uint8_t *data, uint16_t dataSize, uint8_t bank, uint8_t addre
3030:Libraries/ctrl_drv/i2c/mpu6050/MPU6050.c ****     MPU6050_setMemoryBank(bank, false, false);
3031:Libraries/ctrl_drv/i2c/mpu6050/MPU6050.c ****     MPU6050_setMemoryStartAddress(address);
3032:Libraries/ctrl_drv/i2c/mpu6050/MPU6050.c ****     uint8_t chunkSize;
3033:Libraries/ctrl_drv/i2c/mpu6050/MPU6050.c ****     uint8_t *verifyBuffer;
3034:Libraries/ctrl_drv/i2c/mpu6050/MPU6050.c ****     uint8_t *progBuffer;
3035:Libraries/ctrl_drv/i2c/mpu6050/MPU6050.c ****     uint16_t i;
3036:Libraries/ctrl_drv/i2c/mpu6050/MPU6050.c ****     uint8_t j;
3037:Libraries/ctrl_drv/i2c/mpu6050/MPU6050.c ****     if (verify) verifyBuffer = (uint8_t *)malloc(MPU6050_DMP_MEMORY_CHUNK_SIZE);
3038:Libraries/ctrl_drv/i2c/mpu6050/MPU6050.c ****     if (useProgMem) progBuffer = (uint8_t *)malloc(MPU6050_DMP_MEMORY_CHUNK_SIZE);
3039:Libraries/ctrl_drv/i2c/mpu6050/MPU6050.c ****     for (i = 0; i < dataSize;) {
3040:Libraries/ctrl_drv/i2c/mpu6050/MPU6050.c ****         // determine correct chunk size according to bank position and data size
3041:Libraries/ctrl_drv/i2c/mpu6050/MPU6050.c ****         chunkSize = MPU6050_DMP_MEMORY_CHUNK_SIZE;
3042:Libraries/ctrl_drv/i2c/mpu6050/MPU6050.c **** 
3043:Libraries/ctrl_drv/i2c/mpu6050/MPU6050.c ****         // make sure we don't go past the data size
3044:Libraries/ctrl_drv/i2c/mpu6050/MPU6050.c ****         if (i + chunkSize > dataSize) chunkSize = dataSize - i;
3045:Libraries/ctrl_drv/i2c/mpu6050/MPU6050.c **** 
3046:Libraries/ctrl_drv/i2c/mpu6050/MPU6050.c ****         // make sure this chunk doesn't go past the bank boundary (256 bytes)
ARM GAS  C:\Users\Mxuan\AppData\Local\Temp\ccfnFihP.s 			page 238


3047:Libraries/ctrl_drv/i2c/mpu6050/MPU6050.c ****         if (chunkSize > 256 - address) chunkSize = 256 - address;
3048:Libraries/ctrl_drv/i2c/mpu6050/MPU6050.c **** 
3049:Libraries/ctrl_drv/i2c/mpu6050/MPU6050.c ****         if (useProgMem) {
3050:Libraries/ctrl_drv/i2c/mpu6050/MPU6050.c ****             // write the chunk of data as specified
3051:Libraries/ctrl_drv/i2c/mpu6050/MPU6050.c ****             for (j = 0; j < chunkSize; j++) progBuffer[j] = pgm_read_byte(data + i + j);
3052:Libraries/ctrl_drv/i2c/mpu6050/MPU6050.c ****         } else {
3053:Libraries/ctrl_drv/i2c/mpu6050/MPU6050.c ****             // write the chunk of data as specified
3054:Libraries/ctrl_drv/i2c/mpu6050/MPU6050.c ****             progBuffer = (uint8_t *)data + i;
3055:Libraries/ctrl_drv/i2c/mpu6050/MPU6050.c ****         }
3056:Libraries/ctrl_drv/i2c/mpu6050/MPU6050.c **** 
3057:Libraries/ctrl_drv/i2c/mpu6050/MPU6050.c ****         I2Cdev_writeBytes(mpu6050.devAddr, MPU6050_RA_MEM_R_W, chunkSize, progBuffer);
3058:Libraries/ctrl_drv/i2c/mpu6050/MPU6050.c **** 
3059:Libraries/ctrl_drv/i2c/mpu6050/MPU6050.c ****         // verify data if needed
3060:Libraries/ctrl_drv/i2c/mpu6050/MPU6050.c ****         if (verify && verifyBuffer) {
3061:Libraries/ctrl_drv/i2c/mpu6050/MPU6050.c ****             MPU6050_setMemoryBank(bank, false, false);
3062:Libraries/ctrl_drv/i2c/mpu6050/MPU6050.c ****             MPU6050_setMemoryStartAddress(address);
3063:Libraries/ctrl_drv/i2c/mpu6050/MPU6050.c ****             I2Cdev_readBytes(mpu6050.devAddr, MPU6050_RA_MEM_R_W, chunkSize, verifyBuffer);
3064:Libraries/ctrl_drv/i2c/mpu6050/MPU6050.c ****             if (memcmp(progBuffer, verifyBuffer, chunkSize) != 0) {
3065:Libraries/ctrl_drv/i2c/mpu6050/MPU6050.c ****                 //Serial.print("Block write verification error, bank ");
3066:Libraries/ctrl_drv/i2c/mpu6050/MPU6050.c ****                 //Serial.print(bank, DEC);
3067:Libraries/ctrl_drv/i2c/mpu6050/MPU6050.c ****                 //Serial.print(", address ");
3068:Libraries/ctrl_drv/i2c/mpu6050/MPU6050.c ****                 //Serial.print(address, DEC);
3069:Libraries/ctrl_drv/i2c/mpu6050/MPU6050.c ****                 //Serial.print("!\nExpected:");
3070:Libraries/ctrl_drv/i2c/mpu6050/MPU6050.c ****                 //for (j = 0; j < chunkSize; j++) {
3071:Libraries/ctrl_drv/i2c/mpu6050/MPU6050.c ****                 //    Serial.print(" 0x");
3072:Libraries/ctrl_drv/i2c/mpu6050/MPU6050.c ****                 //    if (progBuffer[j] < 16) Serial.print("0");
3073:Libraries/ctrl_drv/i2c/mpu6050/MPU6050.c ****                 //    Serial.print(progBuffer[j], HEX);
3074:Libraries/ctrl_drv/i2c/mpu6050/MPU6050.c ****                 //}
3075:Libraries/ctrl_drv/i2c/mpu6050/MPU6050.c ****                 //Serial.print("\nReceived:");
3076:Libraries/ctrl_drv/i2c/mpu6050/MPU6050.c ****                 //for (uint8_t j = 0; j < chunkSize; j++) {
3077:Libraries/ctrl_drv/i2c/mpu6050/MPU6050.c ****                 //    Serial.print(" 0x");
3078:Libraries/ctrl_drv/i2c/mpu6050/MPU6050.c ****                 //    if (verifyBuffer[i + j] < 16) Serial.print("0");
3079:Libraries/ctrl_drv/i2c/mpu6050/MPU6050.c ****                 //    Serial.print(verifyBuffer[i + j], HEX);
3080:Libraries/ctrl_drv/i2c/mpu6050/MPU6050.c ****                 //}
3081:Libraries/ctrl_drv/i2c/mpu6050/MPU6050.c ****                 Serial.print("\n");
3082:Libraries/ctrl_drv/i2c/mpu6050/MPU6050.c ****                 free(verifyBuffer);
3083:Libraries/ctrl_drv/i2c/mpu6050/MPU6050.c ****                 if (useProgMem) free(progBuffer);
3084:Libraries/ctrl_drv/i2c/mpu6050/MPU6050.c ****                 return false; // uh oh.
3085:Libraries/ctrl_drv/i2c/mpu6050/MPU6050.c ****             }
3086:Libraries/ctrl_drv/i2c/mpu6050/MPU6050.c ****         }
3087:Libraries/ctrl_drv/i2c/mpu6050/MPU6050.c **** 
3088:Libraries/ctrl_drv/i2c/mpu6050/MPU6050.c ****         // increase byte index by [chunkSize]
3089:Libraries/ctrl_drv/i2c/mpu6050/MPU6050.c ****         i += chunkSize;
3090:Libraries/ctrl_drv/i2c/mpu6050/MPU6050.c **** 
3091:Libraries/ctrl_drv/i2c/mpu6050/MPU6050.c ****         // uint8_t automatically wraps to 0 at 256
3092:Libraries/ctrl_drv/i2c/mpu6050/MPU6050.c ****         address += chunkSize;
3093:Libraries/ctrl_drv/i2c/mpu6050/MPU6050.c **** 
3094:Libraries/ctrl_drv/i2c/mpu6050/MPU6050.c ****         // if we aren't done, update bank (if necessary) and address
3095:Libraries/ctrl_drv/i2c/mpu6050/MPU6050.c ****         if (i < dataSize) {
3096:Libraries/ctrl_drv/i2c/mpu6050/MPU6050.c ****             if (address == 0) bank++;
3097:Libraries/ctrl_drv/i2c/mpu6050/MPU6050.c ****             MPU6050_setMemoryBank(bank, false, false);
3098:Libraries/ctrl_drv/i2c/mpu6050/MPU6050.c ****             MPU6050_setMemoryStartAddress(address);
3099:Libraries/ctrl_drv/i2c/mpu6050/MPU6050.c ****         }
3100:Libraries/ctrl_drv/i2c/mpu6050/MPU6050.c ****     }
3101:Libraries/ctrl_drv/i2c/mpu6050/MPU6050.c ****     if (verify) free(verifyBuffer);
3102:Libraries/ctrl_drv/i2c/mpu6050/MPU6050.c ****     if (useProgMem) free(progBuffer);
3103:Libraries/ctrl_drv/i2c/mpu6050/MPU6050.c ****     return true;
ARM GAS  C:\Users\Mxuan\AppData\Local\Temp\ccfnFihP.s 			page 239


3104:Libraries/ctrl_drv/i2c/mpu6050/MPU6050.c **** }
3105:Libraries/ctrl_drv/i2c/mpu6050/MPU6050.c **** bool MPU6050_writeProgMemoryBlock(const uint8_t *data, uint16_t dataSize, uint8_t bank, uint8_t add
3106:Libraries/ctrl_drv/i2c/mpu6050/MPU6050.c ****     return MPU6050_writeMemoryBlock(data, dataSize, bank, address, verify, true);
3107:Libraries/ctrl_drv/i2c/mpu6050/MPU6050.c **** }
3108:Libraries/ctrl_drv/i2c/mpu6050/MPU6050.c **** bool MPU6050_writeDMPConfigurationSet(const uint8_t *data, uint16_t dataSize, bool useProgMem) {
3109:Libraries/ctrl_drv/i2c/mpu6050/MPU6050.c ****     uint8_t *progBuffer, success, special;
3110:Libraries/ctrl_drv/i2c/mpu6050/MPU6050.c ****     uint16_t i, j;
3111:Libraries/ctrl_drv/i2c/mpu6050/MPU6050.c ****     if (useProgMem) {
3112:Libraries/ctrl_drv/i2c/mpu6050/MPU6050.c ****         progBuffer = (uint8_t *)malloc(8); // assume 8-byte blocks, realloc later if necessary
3113:Libraries/ctrl_drv/i2c/mpu6050/MPU6050.c ****     }
3114:Libraries/ctrl_drv/i2c/mpu6050/MPU6050.c **** 
3115:Libraries/ctrl_drv/i2c/mpu6050/MPU6050.c ****     // config set data is a long string of blocks with the following structure:
3116:Libraries/ctrl_drv/i2c/mpu6050/MPU6050.c ****     // [bank] [offset] [length] [byte[0], byte[1], ..., byte[length]]
3117:Libraries/ctrl_drv/i2c/mpu6050/MPU6050.c ****     uint8_t bank, offset, length;
3118:Libraries/ctrl_drv/i2c/mpu6050/MPU6050.c ****     for (i = 0; i < dataSize;) {
3119:Libraries/ctrl_drv/i2c/mpu6050/MPU6050.c ****         if (useProgMem) {
3120:Libraries/ctrl_drv/i2c/mpu6050/MPU6050.c ****             bank = pgm_read_byte(data + i++);
3121:Libraries/ctrl_drv/i2c/mpu6050/MPU6050.c ****             offset = pgm_read_byte(data + i++);
3122:Libraries/ctrl_drv/i2c/mpu6050/MPU6050.c ****             length = pgm_read_byte(data + i++);
3123:Libraries/ctrl_drv/i2c/mpu6050/MPU6050.c ****         } else {
3124:Libraries/ctrl_drv/i2c/mpu6050/MPU6050.c ****             bank = data[i++];
3125:Libraries/ctrl_drv/i2c/mpu6050/MPU6050.c ****             offset = data[i++];
3126:Libraries/ctrl_drv/i2c/mpu6050/MPU6050.c ****             length = data[i++];
3127:Libraries/ctrl_drv/i2c/mpu6050/MPU6050.c ****         }
3128:Libraries/ctrl_drv/i2c/mpu6050/MPU6050.c **** 
3129:Libraries/ctrl_drv/i2c/mpu6050/MPU6050.c ****         // write data or perform special action
3130:Libraries/ctrl_drv/i2c/mpu6050/MPU6050.c ****         if (length > 0) {
3131:Libraries/ctrl_drv/i2c/mpu6050/MPU6050.c ****             // regular block of data to write
3132:Libraries/ctrl_drv/i2c/mpu6050/MPU6050.c ****             //Serial.print("Writing config block to bank ");
3133:Libraries/ctrl_drv/i2c/mpu6050/MPU6050.c ****             //Serial.print(bank);
3134:Libraries/ctrl_drv/i2c/mpu6050/MPU6050.c ****             //Serial.print(", offset ");
3135:Libraries/ctrl_drv/i2c/mpu6050/MPU6050.c ****             //Serial.print(offset);
3136:Libraries/ctrl_drv/i2c/mpu6050/MPU6050.c ****             //Serial.print(", length=");
3137:Libraries/ctrl_drv/i2c/mpu6050/MPU6050.c ****             //Serial.println(length);
3138:Libraries/ctrl_drv/i2c/mpu6050/MPU6050.c ****             if (useProgMem) {
3139:Libraries/ctrl_drv/i2c/mpu6050/MPU6050.c ****                 if (sizeof(progBuffer) < length) progBuffer = (uint8_t *)realloc(progBuffer, length
3140:Libraries/ctrl_drv/i2c/mpu6050/MPU6050.c ****                 for (j = 0; j < length; j++) progBuffer[j] = pgm_read_byte(data + i + j);
3141:Libraries/ctrl_drv/i2c/mpu6050/MPU6050.c ****             } else {
3142:Libraries/ctrl_drv/i2c/mpu6050/MPU6050.c ****                 progBuffer = (uint8_t *)data + i;
3143:Libraries/ctrl_drv/i2c/mpu6050/MPU6050.c ****             }
3144:Libraries/ctrl_drv/i2c/mpu6050/MPU6050.c ****             success = MPU6050_writeMemoryBlock(progBuffer, length, bank, offset, true);
3145:Libraries/ctrl_drv/i2c/mpu6050/MPU6050.c ****             i += length;
3146:Libraries/ctrl_drv/i2c/mpu6050/MPU6050.c ****         } else {
3147:Libraries/ctrl_drv/i2c/mpu6050/MPU6050.c ****             // special instruction
3148:Libraries/ctrl_drv/i2c/mpu6050/MPU6050.c ****             // NOTE: this kind of behavior (what and when to do certain things)
3149:Libraries/ctrl_drv/i2c/mpu6050/MPU6050.c ****             // is totally undocumented. This code is in here based on observed
3150:Libraries/ctrl_drv/i2c/mpu6050/MPU6050.c ****             // behavior only, and exactly why (or even whether) it has to be here
3151:Libraries/ctrl_drv/i2c/mpu6050/MPU6050.c ****             // is anybody's guess for now.
3152:Libraries/ctrl_drv/i2c/mpu6050/MPU6050.c ****             if (useProgMem) {
3153:Libraries/ctrl_drv/i2c/mpu6050/MPU6050.c ****                 special = pgm_read_byte(data + i++);
3154:Libraries/ctrl_drv/i2c/mpu6050/MPU6050.c ****             } else {
3155:Libraries/ctrl_drv/i2c/mpu6050/MPU6050.c ****                 special = data[i++];
3156:Libraries/ctrl_drv/i2c/mpu6050/MPU6050.c ****             }
3157:Libraries/ctrl_drv/i2c/mpu6050/MPU6050.c ****             //Serial.print("Special command code ");
3158:Libraries/ctrl_drv/i2c/mpu6050/MPU6050.c ****             //Serial.print(special, HEX);
3159:Libraries/ctrl_drv/i2c/mpu6050/MPU6050.c ****             //Serial.println(" found...");
3160:Libraries/ctrl_drv/i2c/mpu6050/MPU6050.c ****             if (special == 0x01) {
ARM GAS  C:\Users\Mxuan\AppData\Local\Temp\ccfnFihP.s 			page 240


3161:Libraries/ctrl_drv/i2c/mpu6050/MPU6050.c ****                 // enable DMP-related interrupts
3162:Libraries/ctrl_drv/i2c/mpu6050/MPU6050.c **** 
3163:Libraries/ctrl_drv/i2c/mpu6050/MPU6050.c ****                 //setIntZeroMotionEnabled(true);
3164:Libraries/ctrl_drv/i2c/mpu6050/MPU6050.c ****                 //setIntFIFOBufferOverflowEnabled(true);
3165:Libraries/ctrl_drv/i2c/mpu6050/MPU6050.c ****                 //setIntDMPEnabled(true);
3166:Libraries/ctrl_drv/i2c/mpu6050/MPU6050.c ****                 I2Cdev_writeByte(mpu6050.devAddr, MPU6050_RA_INT_ENABLE, 0x32);  // single operatio
3167:Libraries/ctrl_drv/i2c/mpu6050/MPU6050.c **** 
3168:Libraries/ctrl_drv/i2c/mpu6050/MPU6050.c ****                 success = true;
3169:Libraries/ctrl_drv/i2c/mpu6050/MPU6050.c ****             } else {
3170:Libraries/ctrl_drv/i2c/mpu6050/MPU6050.c ****                 // unknown special command
3171:Libraries/ctrl_drv/i2c/mpu6050/MPU6050.c ****                 success = false;
3172:Libraries/ctrl_drv/i2c/mpu6050/MPU6050.c ****             }
3173:Libraries/ctrl_drv/i2c/mpu6050/MPU6050.c ****         }
3174:Libraries/ctrl_drv/i2c/mpu6050/MPU6050.c **** 
3175:Libraries/ctrl_drv/i2c/mpu6050/MPU6050.c ****         if (!success) {
3176:Libraries/ctrl_drv/i2c/mpu6050/MPU6050.c ****             if (useProgMem) free(progBuffer);
3177:Libraries/ctrl_drv/i2c/mpu6050/MPU6050.c ****             return false; // uh oh
3178:Libraries/ctrl_drv/i2c/mpu6050/MPU6050.c ****         }
3179:Libraries/ctrl_drv/i2c/mpu6050/MPU6050.c ****     }
3180:Libraries/ctrl_drv/i2c/mpu6050/MPU6050.c ****     if (useProgMem) free(progBuffer);
3181:Libraries/ctrl_drv/i2c/mpu6050/MPU6050.c ****     return true;
3182:Libraries/ctrl_drv/i2c/mpu6050/MPU6050.c **** }
3183:Libraries/ctrl_drv/i2c/mpu6050/MPU6050.c **** bool MPU6050_writeProgDMPConfigurationSet(const uint8_t *data, uint16_t dataSize) {
3184:Libraries/ctrl_drv/i2c/mpu6050/MPU6050.c ****     return MPU6050_writeDMPConfigurationSet(data, dataSize, true);
3185:Libraries/ctrl_drv/i2c/mpu6050/MPU6050.c **** }*/
3186:Libraries/ctrl_drv/i2c/mpu6050/MPU6050.c **** 
3187:Libraries/ctrl_drv/i2c/mpu6050/MPU6050.c **** // DMP_CFG_1 register
3188:Libraries/ctrl_drv/i2c/mpu6050/MPU6050.c **** 
3189:Libraries/ctrl_drv/i2c/mpu6050/MPU6050.c **** uint8_t MPU6050_getDMPConfig1() {
 10876              		.loc 1 3189 33 is_stmt 1 view -0
 10877              		.cfi_startproc
 10878              		@ args = 0, pretend = 0, frame = 0
 10879              		@ frame_needed = 0, uses_anonymous_args = 0
 10880 0000 10B5     		push	{r4, lr}
 10881              	.LCFI321:
 10882              		.cfi_def_cfa_offset 8
 10883              		.cfi_offset 4, -8
 10884              		.cfi_offset 14, -4
3190:Libraries/ctrl_drv/i2c/mpu6050/MPU6050.c ****     I2Cdev_readByte(mpu6050.devAddr, MPU6050_RA_DMP_CFG_1, mpu6050.buffer);
 10885              		.loc 1 3190 5 view .LVU1489
 10886 0002 044A     		ldr	r2, .L1122
 10887 0004 541E     		subs	r4, r2, #1
 10888 0006 7021     		movs	r1, #112
 10889 0008 12F8010C 		ldrb	r0, [r2, #-1]	@ zero_extendqisi2
 10890 000c FFF7FEFF 		bl	I2Cdev_readByte
 10891              	.LVL551:
3191:Libraries/ctrl_drv/i2c/mpu6050/MPU6050.c ****     return mpu6050.buffer[0];
 10892              		.loc 1 3191 5 view .LVU1490
3192:Libraries/ctrl_drv/i2c/mpu6050/MPU6050.c **** }
 10893              		.loc 1 3192 1 is_stmt 0 view .LVU1491
 10894 0010 6078     		ldrb	r0, [r4, #1]	@ zero_extendqisi2
 10895 0012 10BD     		pop	{r4, pc}
 10896              	.L1123:
 10897              		.align	2
 10898              	.L1122:
 10899 0014 01000000 		.word	mpu6050+1
 10900              		.cfi_endproc
ARM GAS  C:\Users\Mxuan\AppData\Local\Temp\ccfnFihP.s 			page 241


 10901              	.LFE254:
 10903              		.section	.text.MPU6050_setDMPConfig1,"ax",%progbits
 10904              		.align	1
 10905              		.global	MPU6050_setDMPConfig1
 10906              		.syntax unified
 10907              		.thumb
 10908              		.thumb_func
 10910              	MPU6050_setDMPConfig1:
 10911              	.LVL552:
 10912              	.LFB255:
3193:Libraries/ctrl_drv/i2c/mpu6050/MPU6050.c **** void MPU6050_setDMPConfig1(uint8_t config) {
 10913              		.loc 1 3193 44 is_stmt 1 view -0
 10914              		.cfi_startproc
 10915              		@ args = 0, pretend = 0, frame = 0
 10916              		@ frame_needed = 0, uses_anonymous_args = 0
 10917              		.loc 1 3193 44 is_stmt 0 view .LVU1493
 10918 0000 08B5     		push	{r3, lr}
 10919              	.LCFI322:
 10920              		.cfi_def_cfa_offset 8
 10921              		.cfi_offset 3, -8
 10922              		.cfi_offset 14, -4
 10923 0002 0246     		mov	r2, r0
3194:Libraries/ctrl_drv/i2c/mpu6050/MPU6050.c ****     I2Cdev_writeByte(mpu6050.devAddr, MPU6050_RA_DMP_CFG_1, config);
 10924              		.loc 1 3194 5 is_stmt 1 view .LVU1494
 10925 0004 7021     		movs	r1, #112
 10926 0006 024B     		ldr	r3, .L1126
 10927 0008 1878     		ldrb	r0, [r3]	@ zero_extendqisi2
 10928              	.LVL553:
 10929              		.loc 1 3194 5 is_stmt 0 view .LVU1495
 10930 000a FFF7FEFF 		bl	I2Cdev_writeByte
 10931              	.LVL554:
3195:Libraries/ctrl_drv/i2c/mpu6050/MPU6050.c **** }
 10932              		.loc 1 3195 1 view .LVU1496
 10933 000e 08BD     		pop	{r3, pc}
 10934              	.L1127:
 10935              		.align	2
 10936              	.L1126:
 10937 0010 00000000 		.word	mpu6050
 10938              		.cfi_endproc
 10939              	.LFE255:
 10941              		.section	.text.MPU6050_getDMPConfig2,"ax",%progbits
 10942              		.align	1
 10943              		.global	MPU6050_getDMPConfig2
 10944              		.syntax unified
 10945              		.thumb
 10946              		.thumb_func
 10948              	MPU6050_getDMPConfig2:
 10949              	.LFB256:
3196:Libraries/ctrl_drv/i2c/mpu6050/MPU6050.c **** 
3197:Libraries/ctrl_drv/i2c/mpu6050/MPU6050.c **** // DMP_CFG_2 register
3198:Libraries/ctrl_drv/i2c/mpu6050/MPU6050.c **** 
3199:Libraries/ctrl_drv/i2c/mpu6050/MPU6050.c **** uint8_t MPU6050_getDMPConfig2() {
 10950              		.loc 1 3199 33 is_stmt 1 view -0
 10951              		.cfi_startproc
 10952              		@ args = 0, pretend = 0, frame = 0
 10953              		@ frame_needed = 0, uses_anonymous_args = 0
 10954 0000 10B5     		push	{r4, lr}
ARM GAS  C:\Users\Mxuan\AppData\Local\Temp\ccfnFihP.s 			page 242


 10955              	.LCFI323:
 10956              		.cfi_def_cfa_offset 8
 10957              		.cfi_offset 4, -8
 10958              		.cfi_offset 14, -4
3200:Libraries/ctrl_drv/i2c/mpu6050/MPU6050.c ****     I2Cdev_readByte(mpu6050.devAddr, MPU6050_RA_DMP_CFG_2, mpu6050.buffer);
 10959              		.loc 1 3200 5 view .LVU1498
 10960 0002 044A     		ldr	r2, .L1130
 10961 0004 541E     		subs	r4, r2, #1
 10962 0006 7121     		movs	r1, #113
 10963 0008 12F8010C 		ldrb	r0, [r2, #-1]	@ zero_extendqisi2
 10964 000c FFF7FEFF 		bl	I2Cdev_readByte
 10965              	.LVL555:
3201:Libraries/ctrl_drv/i2c/mpu6050/MPU6050.c ****     return mpu6050.buffer[0];
 10966              		.loc 1 3201 5 view .LVU1499
3202:Libraries/ctrl_drv/i2c/mpu6050/MPU6050.c **** }
 10967              		.loc 1 3202 1 is_stmt 0 view .LVU1500
 10968 0010 6078     		ldrb	r0, [r4, #1]	@ zero_extendqisi2
 10969 0012 10BD     		pop	{r4, pc}
 10970              	.L1131:
 10971              		.align	2
 10972              	.L1130:
 10973 0014 01000000 		.word	mpu6050+1
 10974              		.cfi_endproc
 10975              	.LFE256:
 10977              		.section	.text.MPU6050_setDMPConfig2,"ax",%progbits
 10978              		.align	1
 10979              		.global	MPU6050_setDMPConfig2
 10980              		.syntax unified
 10981              		.thumb
 10982              		.thumb_func
 10984              	MPU6050_setDMPConfig2:
 10985              	.LVL556:
 10986              	.LFB257:
3203:Libraries/ctrl_drv/i2c/mpu6050/MPU6050.c **** void MPU6050_setDMPConfig2(uint8_t config) {
 10987              		.loc 1 3203 44 is_stmt 1 view -0
 10988              		.cfi_startproc
 10989              		@ args = 0, pretend = 0, frame = 0
 10990              		@ frame_needed = 0, uses_anonymous_args = 0
 10991              		.loc 1 3203 44 is_stmt 0 view .LVU1502
 10992 0000 08B5     		push	{r3, lr}
 10993              	.LCFI324:
 10994              		.cfi_def_cfa_offset 8
 10995              		.cfi_offset 3, -8
 10996              		.cfi_offset 14, -4
 10997 0002 0246     		mov	r2, r0
3204:Libraries/ctrl_drv/i2c/mpu6050/MPU6050.c ****     I2Cdev_writeByte(mpu6050.devAddr, MPU6050_RA_DMP_CFG_2, config);
 10998              		.loc 1 3204 5 is_stmt 1 view .LVU1503
 10999 0004 7121     		movs	r1, #113
 11000 0006 024B     		ldr	r3, .L1134
 11001 0008 1878     		ldrb	r0, [r3]	@ zero_extendqisi2
 11002              	.LVL557:
 11003              		.loc 1 3204 5 is_stmt 0 view .LVU1504
 11004 000a FFF7FEFF 		bl	I2Cdev_writeByte
 11005              	.LVL558:
3205:Libraries/ctrl_drv/i2c/mpu6050/MPU6050.c **** }
 11006              		.loc 1 3205 1 view .LVU1505
 11007 000e 08BD     		pop	{r3, pc}
ARM GAS  C:\Users\Mxuan\AppData\Local\Temp\ccfnFihP.s 			page 243


 11008              	.L1135:
 11009              		.align	2
 11010              	.L1134:
 11011 0010 00000000 		.word	mpu6050
 11012              		.cfi_endproc
 11013              	.LFE257:
 11015              		.section	.bss.mpu6050,"aw",%nobits
 11016              		.align	2
 11019              	mpu6050:
 11020 0000 00000000 		.space	24
 11020      00000000 
 11020      00000000 
 11020      00000000 
 11020      00000000 
 11021              		.text
 11022              	.Letext0:
 11023              		.file 2 "d:\\_environment\\arm-gnu-toolchain\\arm-none-eabi\\include\\machine\\_default_types.h"
 11024              		.file 3 "d:\\_environment\\arm-gnu-toolchain\\arm-none-eabi\\include\\sys\\_stdint.h"
 11025              		.file 4 "Libraries/ctrl_drv/i2c/I2Cdev.h"
ARM GAS  C:\Users\Mxuan\AppData\Local\Temp\ccfnFihP.s 			page 244


DEFINED SYMBOLS
                            *ABS*:00000000 MPU6050.c
C:\Users\Mxuan\AppData\Local\Temp\ccfnFihP.s:19     .text.MPU6050:00000000 $t
C:\Users\Mxuan\AppData\Local\Temp\ccfnFihP.s:25     .text.MPU6050:00000000 MPU6050
C:\Users\Mxuan\AppData\Local\Temp\ccfnFihP.s:42     .text.MPU6050:00000008 $d
C:\Users\Mxuan\AppData\Local\Temp\ccfnFihP.s:11019  .bss.mpu6050:00000000 mpu6050
C:\Users\Mxuan\AppData\Local\Temp\ccfnFihP.s:47     .text.MPU6050_getAuxVDDIOLevel:00000000 $t
C:\Users\Mxuan\AppData\Local\Temp\ccfnFihP.s:53     .text.MPU6050_getAuxVDDIOLevel:00000000 MPU6050_getAuxVDDIOLevel
C:\Users\Mxuan\AppData\Local\Temp\ccfnFihP.s:79     .text.MPU6050_getAuxVDDIOLevel:00000018 $d
C:\Users\Mxuan\AppData\Local\Temp\ccfnFihP.s:84     .text.MPU6050_setAuxVDDIOLevel:00000000 $t
C:\Users\Mxuan\AppData\Local\Temp\ccfnFihP.s:90     .text.MPU6050_setAuxVDDIOLevel:00000000 MPU6050_setAuxVDDIOLevel
C:\Users\Mxuan\AppData\Local\Temp\ccfnFihP.s:118    .text.MPU6050_setAuxVDDIOLevel:00000014 $d
C:\Users\Mxuan\AppData\Local\Temp\ccfnFihP.s:123    .text.MPU6050_getRate:00000000 $t
C:\Users\Mxuan\AppData\Local\Temp\ccfnFihP.s:129    .text.MPU6050_getRate:00000000 MPU6050_getRate
C:\Users\Mxuan\AppData\Local\Temp\ccfnFihP.s:154    .text.MPU6050_getRate:00000014 $d
C:\Users\Mxuan\AppData\Local\Temp\ccfnFihP.s:159    .text.MPU6050_setRate:00000000 $t
C:\Users\Mxuan\AppData\Local\Temp\ccfnFihP.s:165    .text.MPU6050_setRate:00000000 MPU6050_setRate
C:\Users\Mxuan\AppData\Local\Temp\ccfnFihP.s:192    .text.MPU6050_setRate:00000010 $d
C:\Users\Mxuan\AppData\Local\Temp\ccfnFihP.s:197    .text.MPU6050_getExternalFrameSync:00000000 $t
C:\Users\Mxuan\AppData\Local\Temp\ccfnFihP.s:203    .text.MPU6050_getExternalFrameSync:00000000 MPU6050_getExternalFrameSync
C:\Users\Mxuan\AppData\Local\Temp\ccfnFihP.s:238    .text.MPU6050_getExternalFrameSync:00000020 $d
C:\Users\Mxuan\AppData\Local\Temp\ccfnFihP.s:243    .text.MPU6050_setExternalFrameSync:00000000 $t
C:\Users\Mxuan\AppData\Local\Temp\ccfnFihP.s:249    .text.MPU6050_setExternalFrameSync:00000000 MPU6050_setExternalFrameSync
C:\Users\Mxuan\AppData\Local\Temp\ccfnFihP.s:284    .text.MPU6050_setExternalFrameSync:0000001c $d
C:\Users\Mxuan\AppData\Local\Temp\ccfnFihP.s:289    .text.MPU6050_getDLPFMode:00000000 $t
C:\Users\Mxuan\AppData\Local\Temp\ccfnFihP.s:295    .text.MPU6050_getDLPFMode:00000000 MPU6050_getDLPFMode
C:\Users\Mxuan\AppData\Local\Temp\ccfnFihP.s:330    .text.MPU6050_getDLPFMode:00000020 $d
C:\Users\Mxuan\AppData\Local\Temp\ccfnFihP.s:335    .text.MPU6050_setDLPFMode:00000000 $t
C:\Users\Mxuan\AppData\Local\Temp\ccfnFihP.s:341    .text.MPU6050_setDLPFMode:00000000 MPU6050_setDLPFMode
C:\Users\Mxuan\AppData\Local\Temp\ccfnFihP.s:376    .text.MPU6050_setDLPFMode:0000001c $d
C:\Users\Mxuan\AppData\Local\Temp\ccfnFihP.s:381    .text.MPU6050_getFullScaleGyroRange:00000000 $t
C:\Users\Mxuan\AppData\Local\Temp\ccfnFihP.s:387    .text.MPU6050_getFullScaleGyroRange:00000000 MPU6050_getFullScaleGyroRange
C:\Users\Mxuan\AppData\Local\Temp\ccfnFihP.s:422    .text.MPU6050_getFullScaleGyroRange:00000020 $d
C:\Users\Mxuan\AppData\Local\Temp\ccfnFihP.s:427    .text.MPU6050_setFullScaleGyroRange:00000000 $t
C:\Users\Mxuan\AppData\Local\Temp\ccfnFihP.s:433    .text.MPU6050_setFullScaleGyroRange:00000000 MPU6050_setFullScaleGyroRange
C:\Users\Mxuan\AppData\Local\Temp\ccfnFihP.s:466    .text.MPU6050_setFullScaleGyroRange:0000001e $d
C:\Users\Mxuan\AppData\Local\Temp\ccfnFihP.s:470    .text.MPU6050_setFullScaleGyroRange:00000022 $t
C:\Users\Mxuan\AppData\Local\Temp\ccfnFihP.s:516    .text.MPU6050_setFullScaleGyroRange:00000044 $d
C:\Users\Mxuan\AppData\Local\Temp\ccfnFihP.s:525    .text.MPU6050_getGyroRangeScale:00000000 $t
C:\Users\Mxuan\AppData\Local\Temp\ccfnFihP.s:531    .text.MPU6050_getGyroRangeScale:00000000 MPU6050_getGyroRangeScale
C:\Users\Mxuan\AppData\Local\Temp\ccfnFihP.s:546    .text.MPU6050_getGyroRangeScale:00000008 $d
C:\Users\Mxuan\AppData\Local\Temp\ccfnFihP.s:551    .text.MPU6050_getAccelXSelfTest:00000000 $t
C:\Users\Mxuan\AppData\Local\Temp\ccfnFihP.s:557    .text.MPU6050_getAccelXSelfTest:00000000 MPU6050_getAccelXSelfTest
C:\Users\Mxuan\AppData\Local\Temp\ccfnFihP.s:587    .text.MPU6050_getAccelXSelfTest:0000001c $d
C:\Users\Mxuan\AppData\Local\Temp\ccfnFihP.s:592    .text.MPU6050_setAccelXSelfTest:00000000 $t
C:\Users\Mxuan\AppData\Local\Temp\ccfnFihP.s:598    .text.MPU6050_setAccelXSelfTest:00000000 MPU6050_setAccelXSelfTest
C:\Users\Mxuan\AppData\Local\Temp\ccfnFihP.s:626    .text.MPU6050_setAccelXSelfTest:00000014 $d
C:\Users\Mxuan\AppData\Local\Temp\ccfnFihP.s:631    .text.MPU6050_getAccelYSelfTest:00000000 $t
C:\Users\Mxuan\AppData\Local\Temp\ccfnFihP.s:637    .text.MPU6050_getAccelYSelfTest:00000000 MPU6050_getAccelYSelfTest
C:\Users\Mxuan\AppData\Local\Temp\ccfnFihP.s:667    .text.MPU6050_getAccelYSelfTest:0000001c $d
C:\Users\Mxuan\AppData\Local\Temp\ccfnFihP.s:672    .text.MPU6050_setAccelYSelfTest:00000000 $t
C:\Users\Mxuan\AppData\Local\Temp\ccfnFihP.s:678    .text.MPU6050_setAccelYSelfTest:00000000 MPU6050_setAccelYSelfTest
C:\Users\Mxuan\AppData\Local\Temp\ccfnFihP.s:706    .text.MPU6050_setAccelYSelfTest:00000014 $d
C:\Users\Mxuan\AppData\Local\Temp\ccfnFihP.s:711    .text.MPU6050_getAccelZSelfTest:00000000 $t
C:\Users\Mxuan\AppData\Local\Temp\ccfnFihP.s:717    .text.MPU6050_getAccelZSelfTest:00000000 MPU6050_getAccelZSelfTest
C:\Users\Mxuan\AppData\Local\Temp\ccfnFihP.s:747    .text.MPU6050_getAccelZSelfTest:0000001c $d
C:\Users\Mxuan\AppData\Local\Temp\ccfnFihP.s:752    .text.MPU6050_setAccelZSelfTest:00000000 $t
ARM GAS  C:\Users\Mxuan\AppData\Local\Temp\ccfnFihP.s 			page 245


C:\Users\Mxuan\AppData\Local\Temp\ccfnFihP.s:758    .text.MPU6050_setAccelZSelfTest:00000000 MPU6050_setAccelZSelfTest
C:\Users\Mxuan\AppData\Local\Temp\ccfnFihP.s:786    .text.MPU6050_setAccelZSelfTest:00000014 $d
C:\Users\Mxuan\AppData\Local\Temp\ccfnFihP.s:791    .text.MPU6050_getFullScaleAccelRange:00000000 $t
C:\Users\Mxuan\AppData\Local\Temp\ccfnFihP.s:797    .text.MPU6050_getFullScaleAccelRange:00000000 MPU6050_getFullScaleAccelRange
C:\Users\Mxuan\AppData\Local\Temp\ccfnFihP.s:832    .text.MPU6050_getFullScaleAccelRange:00000020 $d
C:\Users\Mxuan\AppData\Local\Temp\ccfnFihP.s:837    .text.MPU6050_setFullScaleAccelRange:00000000 $t
C:\Users\Mxuan\AppData\Local\Temp\ccfnFihP.s:843    .text.MPU6050_setFullScaleAccelRange:00000000 MPU6050_setFullScaleAccelRange
C:\Users\Mxuan\AppData\Local\Temp\ccfnFihP.s:876    .text.MPU6050_setFullScaleAccelRange:0000001e $d
C:\Users\Mxuan\AppData\Local\Temp\ccfnFihP.s:880    .text.MPU6050_setFullScaleAccelRange:00000022 $t
C:\Users\Mxuan\AppData\Local\Temp\ccfnFihP.s:926    .text.MPU6050_setFullScaleAccelRange:0000004c $d
C:\Users\Mxuan\AppData\Local\Temp\ccfnFihP.s:931    .text.MPU6050_getAccRangeScale:00000000 $t
C:\Users\Mxuan\AppData\Local\Temp\ccfnFihP.s:937    .text.MPU6050_getAccRangeScale:00000000 MPU6050_getAccRangeScale
C:\Users\Mxuan\AppData\Local\Temp\ccfnFihP.s:952    .text.MPU6050_getAccRangeScale:00000008 $d
C:\Users\Mxuan\AppData\Local\Temp\ccfnFihP.s:957    .text.MPU6050_getDHPFMode:00000000 $t
C:\Users\Mxuan\AppData\Local\Temp\ccfnFihP.s:963    .text.MPU6050_getDHPFMode:00000000 MPU6050_getDHPFMode
C:\Users\Mxuan\AppData\Local\Temp\ccfnFihP.s:998    .text.MPU6050_getDHPFMode:00000020 $d
C:\Users\Mxuan\AppData\Local\Temp\ccfnFihP.s:1003   .text.MPU6050_setDHPFMode:00000000 $t
C:\Users\Mxuan\AppData\Local\Temp\ccfnFihP.s:1009   .text.MPU6050_setDHPFMode:00000000 MPU6050_setDHPFMode
C:\Users\Mxuan\AppData\Local\Temp\ccfnFihP.s:1044   .text.MPU6050_setDHPFMode:0000001c $d
C:\Users\Mxuan\AppData\Local\Temp\ccfnFihP.s:1049   .text.MPU6050_getFreefallDetectionThreshold:00000000 $t
C:\Users\Mxuan\AppData\Local\Temp\ccfnFihP.s:1055   .text.MPU6050_getFreefallDetectionThreshold:00000000 MPU6050_getFreefallDetectionThreshold
C:\Users\Mxuan\AppData\Local\Temp\ccfnFihP.s:1080   .text.MPU6050_getFreefallDetectionThreshold:00000014 $d
C:\Users\Mxuan\AppData\Local\Temp\ccfnFihP.s:1085   .text.MPU6050_setFreefallDetectionThreshold:00000000 $t
C:\Users\Mxuan\AppData\Local\Temp\ccfnFihP.s:1091   .text.MPU6050_setFreefallDetectionThreshold:00000000 MPU6050_setFreefallDetectionThreshold
C:\Users\Mxuan\AppData\Local\Temp\ccfnFihP.s:1118   .text.MPU6050_setFreefallDetectionThreshold:00000010 $d
C:\Users\Mxuan\AppData\Local\Temp\ccfnFihP.s:1123   .text.MPU6050_getFreefallDetectionDuration:00000000 $t
C:\Users\Mxuan\AppData\Local\Temp\ccfnFihP.s:1129   .text.MPU6050_getFreefallDetectionDuration:00000000 MPU6050_getFreefallDetectionDuration
C:\Users\Mxuan\AppData\Local\Temp\ccfnFihP.s:1154   .text.MPU6050_getFreefallDetectionDuration:00000014 $d
C:\Users\Mxuan\AppData\Local\Temp\ccfnFihP.s:1159   .text.MPU6050_setFreefallDetectionDuration:00000000 $t
C:\Users\Mxuan\AppData\Local\Temp\ccfnFihP.s:1165   .text.MPU6050_setFreefallDetectionDuration:00000000 MPU6050_setFreefallDetectionDuration
C:\Users\Mxuan\AppData\Local\Temp\ccfnFihP.s:1192   .text.MPU6050_setFreefallDetectionDuration:00000010 $d
C:\Users\Mxuan\AppData\Local\Temp\ccfnFihP.s:1197   .text.MPU6050_getMotionDetectionThreshold:00000000 $t
C:\Users\Mxuan\AppData\Local\Temp\ccfnFihP.s:1203   .text.MPU6050_getMotionDetectionThreshold:00000000 MPU6050_getMotionDetectionThreshold
C:\Users\Mxuan\AppData\Local\Temp\ccfnFihP.s:1228   .text.MPU6050_getMotionDetectionThreshold:00000014 $d
C:\Users\Mxuan\AppData\Local\Temp\ccfnFihP.s:1233   .text.MPU6050_setMotionDetectionThreshold:00000000 $t
C:\Users\Mxuan\AppData\Local\Temp\ccfnFihP.s:1239   .text.MPU6050_setMotionDetectionThreshold:00000000 MPU6050_setMotionDetectionThreshold
C:\Users\Mxuan\AppData\Local\Temp\ccfnFihP.s:1266   .text.MPU6050_setMotionDetectionThreshold:00000010 $d
C:\Users\Mxuan\AppData\Local\Temp\ccfnFihP.s:1271   .text.MPU6050_getMotionDetectionDuration:00000000 $t
C:\Users\Mxuan\AppData\Local\Temp\ccfnFihP.s:1277   .text.MPU6050_getMotionDetectionDuration:00000000 MPU6050_getMotionDetectionDuration
C:\Users\Mxuan\AppData\Local\Temp\ccfnFihP.s:1302   .text.MPU6050_getMotionDetectionDuration:00000014 $d
C:\Users\Mxuan\AppData\Local\Temp\ccfnFihP.s:1307   .text.MPU6050_setMotionDetectionDuration:00000000 $t
C:\Users\Mxuan\AppData\Local\Temp\ccfnFihP.s:1313   .text.MPU6050_setMotionDetectionDuration:00000000 MPU6050_setMotionDetectionDuration
C:\Users\Mxuan\AppData\Local\Temp\ccfnFihP.s:1340   .text.MPU6050_setMotionDetectionDuration:00000010 $d
C:\Users\Mxuan\AppData\Local\Temp\ccfnFihP.s:1345   .text.MPU6050_getZeroMotionDetectionThreshold:00000000 $t
C:\Users\Mxuan\AppData\Local\Temp\ccfnFihP.s:1351   .text.MPU6050_getZeroMotionDetectionThreshold:00000000 MPU6050_getZeroMotionDetectionThreshold
C:\Users\Mxuan\AppData\Local\Temp\ccfnFihP.s:1376   .text.MPU6050_getZeroMotionDetectionThreshold:00000014 $d
C:\Users\Mxuan\AppData\Local\Temp\ccfnFihP.s:1381   .text.MPU6050_setZeroMotionDetectionThreshold:00000000 $t
C:\Users\Mxuan\AppData\Local\Temp\ccfnFihP.s:1387   .text.MPU6050_setZeroMotionDetectionThreshold:00000000 MPU6050_setZeroMotionDetectionThreshold
C:\Users\Mxuan\AppData\Local\Temp\ccfnFihP.s:1414   .text.MPU6050_setZeroMotionDetectionThreshold:00000010 $d
C:\Users\Mxuan\AppData\Local\Temp\ccfnFihP.s:1419   .text.MPU6050_getZeroMotionDetectionDuration:00000000 $t
C:\Users\Mxuan\AppData\Local\Temp\ccfnFihP.s:1425   .text.MPU6050_getZeroMotionDetectionDuration:00000000 MPU6050_getZeroMotionDetectionDuration
C:\Users\Mxuan\AppData\Local\Temp\ccfnFihP.s:1450   .text.MPU6050_getZeroMotionDetectionDuration:00000014 $d
C:\Users\Mxuan\AppData\Local\Temp\ccfnFihP.s:1455   .text.MPU6050_setZeroMotionDetectionDuration:00000000 $t
C:\Users\Mxuan\AppData\Local\Temp\ccfnFihP.s:1461   .text.MPU6050_setZeroMotionDetectionDuration:00000000 MPU6050_setZeroMotionDetectionDuration
C:\Users\Mxuan\AppData\Local\Temp\ccfnFihP.s:1488   .text.MPU6050_setZeroMotionDetectionDuration:00000010 $d
C:\Users\Mxuan\AppData\Local\Temp\ccfnFihP.s:1493   .text.MPU6050_getTempFIFOEnabled:00000000 $t
C:\Users\Mxuan\AppData\Local\Temp\ccfnFihP.s:1499   .text.MPU6050_getTempFIFOEnabled:00000000 MPU6050_getTempFIFOEnabled
ARM GAS  C:\Users\Mxuan\AppData\Local\Temp\ccfnFihP.s 			page 246


C:\Users\Mxuan\AppData\Local\Temp\ccfnFihP.s:1529   .text.MPU6050_getTempFIFOEnabled:0000001c $d
C:\Users\Mxuan\AppData\Local\Temp\ccfnFihP.s:1534   .text.MPU6050_setTempFIFOEnabled:00000000 $t
C:\Users\Mxuan\AppData\Local\Temp\ccfnFihP.s:1540   .text.MPU6050_setTempFIFOEnabled:00000000 MPU6050_setTempFIFOEnabled
C:\Users\Mxuan\AppData\Local\Temp\ccfnFihP.s:1568   .text.MPU6050_setTempFIFOEnabled:00000014 $d
C:\Users\Mxuan\AppData\Local\Temp\ccfnFihP.s:1573   .text.MPU6050_getXGyroFIFOEnabled:00000000 $t
C:\Users\Mxuan\AppData\Local\Temp\ccfnFihP.s:1579   .text.MPU6050_getXGyroFIFOEnabled:00000000 MPU6050_getXGyroFIFOEnabled
C:\Users\Mxuan\AppData\Local\Temp\ccfnFihP.s:1609   .text.MPU6050_getXGyroFIFOEnabled:0000001c $d
C:\Users\Mxuan\AppData\Local\Temp\ccfnFihP.s:1614   .text.MPU6050_setXGyroFIFOEnabled:00000000 $t
C:\Users\Mxuan\AppData\Local\Temp\ccfnFihP.s:1620   .text.MPU6050_setXGyroFIFOEnabled:00000000 MPU6050_setXGyroFIFOEnabled
C:\Users\Mxuan\AppData\Local\Temp\ccfnFihP.s:1648   .text.MPU6050_setXGyroFIFOEnabled:00000014 $d
C:\Users\Mxuan\AppData\Local\Temp\ccfnFihP.s:1653   .text.MPU6050_getYGyroFIFOEnabled:00000000 $t
C:\Users\Mxuan\AppData\Local\Temp\ccfnFihP.s:1659   .text.MPU6050_getYGyroFIFOEnabled:00000000 MPU6050_getYGyroFIFOEnabled
C:\Users\Mxuan\AppData\Local\Temp\ccfnFihP.s:1689   .text.MPU6050_getYGyroFIFOEnabled:0000001c $d
C:\Users\Mxuan\AppData\Local\Temp\ccfnFihP.s:1694   .text.MPU6050_setYGyroFIFOEnabled:00000000 $t
C:\Users\Mxuan\AppData\Local\Temp\ccfnFihP.s:1700   .text.MPU6050_setYGyroFIFOEnabled:00000000 MPU6050_setYGyroFIFOEnabled
C:\Users\Mxuan\AppData\Local\Temp\ccfnFihP.s:1728   .text.MPU6050_setYGyroFIFOEnabled:00000014 $d
C:\Users\Mxuan\AppData\Local\Temp\ccfnFihP.s:1733   .text.MPU6050_getZGyroFIFOEnabled:00000000 $t
C:\Users\Mxuan\AppData\Local\Temp\ccfnFihP.s:1739   .text.MPU6050_getZGyroFIFOEnabled:00000000 MPU6050_getZGyroFIFOEnabled
C:\Users\Mxuan\AppData\Local\Temp\ccfnFihP.s:1769   .text.MPU6050_getZGyroFIFOEnabled:0000001c $d
C:\Users\Mxuan\AppData\Local\Temp\ccfnFihP.s:1774   .text.MPU6050_setZGyroFIFOEnabled:00000000 $t
C:\Users\Mxuan\AppData\Local\Temp\ccfnFihP.s:1780   .text.MPU6050_setZGyroFIFOEnabled:00000000 MPU6050_setZGyroFIFOEnabled
C:\Users\Mxuan\AppData\Local\Temp\ccfnFihP.s:1808   .text.MPU6050_setZGyroFIFOEnabled:00000014 $d
C:\Users\Mxuan\AppData\Local\Temp\ccfnFihP.s:1813   .text.MPU6050_getAccelFIFOEnabled:00000000 $t
C:\Users\Mxuan\AppData\Local\Temp\ccfnFihP.s:1819   .text.MPU6050_getAccelFIFOEnabled:00000000 MPU6050_getAccelFIFOEnabled
C:\Users\Mxuan\AppData\Local\Temp\ccfnFihP.s:1849   .text.MPU6050_getAccelFIFOEnabled:0000001c $d
C:\Users\Mxuan\AppData\Local\Temp\ccfnFihP.s:1854   .text.MPU6050_setAccelFIFOEnabled:00000000 $t
C:\Users\Mxuan\AppData\Local\Temp\ccfnFihP.s:1860   .text.MPU6050_setAccelFIFOEnabled:00000000 MPU6050_setAccelFIFOEnabled
C:\Users\Mxuan\AppData\Local\Temp\ccfnFihP.s:1888   .text.MPU6050_setAccelFIFOEnabled:00000014 $d
C:\Users\Mxuan\AppData\Local\Temp\ccfnFihP.s:1893   .text.MPU6050_getSlave2FIFOEnabled:00000000 $t
C:\Users\Mxuan\AppData\Local\Temp\ccfnFihP.s:1899   .text.MPU6050_getSlave2FIFOEnabled:00000000 MPU6050_getSlave2FIFOEnabled
C:\Users\Mxuan\AppData\Local\Temp\ccfnFihP.s:1929   .text.MPU6050_getSlave2FIFOEnabled:0000001c $d
C:\Users\Mxuan\AppData\Local\Temp\ccfnFihP.s:1934   .text.MPU6050_setSlave2FIFOEnabled:00000000 $t
C:\Users\Mxuan\AppData\Local\Temp\ccfnFihP.s:1940   .text.MPU6050_setSlave2FIFOEnabled:00000000 MPU6050_setSlave2FIFOEnabled
C:\Users\Mxuan\AppData\Local\Temp\ccfnFihP.s:1968   .text.MPU6050_setSlave2FIFOEnabled:00000014 $d
C:\Users\Mxuan\AppData\Local\Temp\ccfnFihP.s:1973   .text.MPU6050_getSlave1FIFOEnabled:00000000 $t
C:\Users\Mxuan\AppData\Local\Temp\ccfnFihP.s:1979   .text.MPU6050_getSlave1FIFOEnabled:00000000 MPU6050_getSlave1FIFOEnabled
C:\Users\Mxuan\AppData\Local\Temp\ccfnFihP.s:2009   .text.MPU6050_getSlave1FIFOEnabled:0000001c $d
C:\Users\Mxuan\AppData\Local\Temp\ccfnFihP.s:2014   .text.MPU6050_setSlave1FIFOEnabled:00000000 $t
C:\Users\Mxuan\AppData\Local\Temp\ccfnFihP.s:2020   .text.MPU6050_setSlave1FIFOEnabled:00000000 MPU6050_setSlave1FIFOEnabled
C:\Users\Mxuan\AppData\Local\Temp\ccfnFihP.s:2048   .text.MPU6050_setSlave1FIFOEnabled:00000014 $d
C:\Users\Mxuan\AppData\Local\Temp\ccfnFihP.s:2053   .text.MPU6050_getSlave0FIFOEnabled:00000000 $t
C:\Users\Mxuan\AppData\Local\Temp\ccfnFihP.s:2059   .text.MPU6050_getSlave0FIFOEnabled:00000000 MPU6050_getSlave0FIFOEnabled
C:\Users\Mxuan\AppData\Local\Temp\ccfnFihP.s:2089   .text.MPU6050_getSlave0FIFOEnabled:0000001c $d
C:\Users\Mxuan\AppData\Local\Temp\ccfnFihP.s:2094   .text.MPU6050_setSlave0FIFOEnabled:00000000 $t
C:\Users\Mxuan\AppData\Local\Temp\ccfnFihP.s:2100   .text.MPU6050_setSlave0FIFOEnabled:00000000 MPU6050_setSlave0FIFOEnabled
C:\Users\Mxuan\AppData\Local\Temp\ccfnFihP.s:2128   .text.MPU6050_setSlave0FIFOEnabled:00000014 $d
C:\Users\Mxuan\AppData\Local\Temp\ccfnFihP.s:2133   .text.MPU6050_getMultiMasterEnabled:00000000 $t
C:\Users\Mxuan\AppData\Local\Temp\ccfnFihP.s:2139   .text.MPU6050_getMultiMasterEnabled:00000000 MPU6050_getMultiMasterEnabled
C:\Users\Mxuan\AppData\Local\Temp\ccfnFihP.s:2169   .text.MPU6050_getMultiMasterEnabled:0000001c $d
C:\Users\Mxuan\AppData\Local\Temp\ccfnFihP.s:2174   .text.MPU6050_setMultiMasterEnabled:00000000 $t
C:\Users\Mxuan\AppData\Local\Temp\ccfnFihP.s:2180   .text.MPU6050_setMultiMasterEnabled:00000000 MPU6050_setMultiMasterEnabled
C:\Users\Mxuan\AppData\Local\Temp\ccfnFihP.s:2208   .text.MPU6050_setMultiMasterEnabled:00000014 $d
C:\Users\Mxuan\AppData\Local\Temp\ccfnFihP.s:2213   .text.MPU6050_getWaitForExternalSensorEnabled:00000000 $t
C:\Users\Mxuan\AppData\Local\Temp\ccfnFihP.s:2219   .text.MPU6050_getWaitForExternalSensorEnabled:00000000 MPU6050_getWaitForExternalSensorEnabled
C:\Users\Mxuan\AppData\Local\Temp\ccfnFihP.s:2249   .text.MPU6050_getWaitForExternalSensorEnabled:0000001c $d
C:\Users\Mxuan\AppData\Local\Temp\ccfnFihP.s:2254   .text.MPU6050_setWaitForExternalSensorEnabled:00000000 $t
C:\Users\Mxuan\AppData\Local\Temp\ccfnFihP.s:2260   .text.MPU6050_setWaitForExternalSensorEnabled:00000000 MPU6050_setWaitForExternalSensorEnabled
ARM GAS  C:\Users\Mxuan\AppData\Local\Temp\ccfnFihP.s 			page 247


C:\Users\Mxuan\AppData\Local\Temp\ccfnFihP.s:2288   .text.MPU6050_setWaitForExternalSensorEnabled:00000014 $d
C:\Users\Mxuan\AppData\Local\Temp\ccfnFihP.s:2293   .text.MPU6050_getSlave3FIFOEnabled:00000000 $t
C:\Users\Mxuan\AppData\Local\Temp\ccfnFihP.s:2299   .text.MPU6050_getSlave3FIFOEnabled:00000000 MPU6050_getSlave3FIFOEnabled
C:\Users\Mxuan\AppData\Local\Temp\ccfnFihP.s:2329   .text.MPU6050_getSlave3FIFOEnabled:0000001c $d
C:\Users\Mxuan\AppData\Local\Temp\ccfnFihP.s:2334   .text.MPU6050_setSlave3FIFOEnabled:00000000 $t
C:\Users\Mxuan\AppData\Local\Temp\ccfnFihP.s:2340   .text.MPU6050_setSlave3FIFOEnabled:00000000 MPU6050_setSlave3FIFOEnabled
C:\Users\Mxuan\AppData\Local\Temp\ccfnFihP.s:2368   .text.MPU6050_setSlave3FIFOEnabled:00000014 $d
C:\Users\Mxuan\AppData\Local\Temp\ccfnFihP.s:2373   .text.MPU6050_getSlaveReadWriteTransitionEnabled:00000000 $t
C:\Users\Mxuan\AppData\Local\Temp\ccfnFihP.s:2379   .text.MPU6050_getSlaveReadWriteTransitionEnabled:00000000 MPU6050_getSlaveReadWriteTransitionEnabled
C:\Users\Mxuan\AppData\Local\Temp\ccfnFihP.s:2409   .text.MPU6050_getSlaveReadWriteTransitionEnabled:0000001c $d
C:\Users\Mxuan\AppData\Local\Temp\ccfnFihP.s:2414   .text.MPU6050_setSlaveReadWriteTransitionEnabled:00000000 $t
C:\Users\Mxuan\AppData\Local\Temp\ccfnFihP.s:2420   .text.MPU6050_setSlaveReadWriteTransitionEnabled:00000000 MPU6050_setSlaveReadWriteTransitionEnabled
C:\Users\Mxuan\AppData\Local\Temp\ccfnFihP.s:2448   .text.MPU6050_setSlaveReadWriteTransitionEnabled:00000014 $d
C:\Users\Mxuan\AppData\Local\Temp\ccfnFihP.s:2453   .text.MPU6050_getMasterClockSpeed:00000000 $t
C:\Users\Mxuan\AppData\Local\Temp\ccfnFihP.s:2459   .text.MPU6050_getMasterClockSpeed:00000000 MPU6050_getMasterClockSpeed
C:\Users\Mxuan\AppData\Local\Temp\ccfnFihP.s:2494   .text.MPU6050_getMasterClockSpeed:00000020 $d
C:\Users\Mxuan\AppData\Local\Temp\ccfnFihP.s:2499   .text.MPU6050_setMasterClockSpeed:00000000 $t
C:\Users\Mxuan\AppData\Local\Temp\ccfnFihP.s:2505   .text.MPU6050_setMasterClockSpeed:00000000 MPU6050_setMasterClockSpeed
C:\Users\Mxuan\AppData\Local\Temp\ccfnFihP.s:2540   .text.MPU6050_setMasterClockSpeed:0000001c $d
C:\Users\Mxuan\AppData\Local\Temp\ccfnFihP.s:2545   .text.MPU6050_getSlaveAddress:00000000 $t
C:\Users\Mxuan\AppData\Local\Temp\ccfnFihP.s:2551   .text.MPU6050_getSlaveAddress:00000000 MPU6050_getSlaveAddress
C:\Users\Mxuan\AppData\Local\Temp\ccfnFihP.s:2594   .text.MPU6050_getSlaveAddress:00000024 $d
C:\Users\Mxuan\AppData\Local\Temp\ccfnFihP.s:2599   .text.MPU6050_setSlaveAddress:00000000 $t
C:\Users\Mxuan\AppData\Local\Temp\ccfnFihP.s:2605   .text.MPU6050_setSlaveAddress:00000000 MPU6050_setSlaveAddress
C:\Users\Mxuan\AppData\Local\Temp\ccfnFihP.s:2642   .text.MPU6050_setSlaveAddress:0000001c $d
C:\Users\Mxuan\AppData\Local\Temp\ccfnFihP.s:2647   .text.MPU6050_getSlaveRegister:00000000 $t
C:\Users\Mxuan\AppData\Local\Temp\ccfnFihP.s:2653   .text.MPU6050_getSlaveRegister:00000000 MPU6050_getSlaveRegister
C:\Users\Mxuan\AppData\Local\Temp\ccfnFihP.s:2696   .text.MPU6050_getSlaveRegister:00000024 $d
C:\Users\Mxuan\AppData\Local\Temp\ccfnFihP.s:2701   .text.MPU6050_setSlaveRegister:00000000 $t
C:\Users\Mxuan\AppData\Local\Temp\ccfnFihP.s:2707   .text.MPU6050_setSlaveRegister:00000000 MPU6050_setSlaveRegister
C:\Users\Mxuan\AppData\Local\Temp\ccfnFihP.s:2744   .text.MPU6050_setSlaveRegister:0000001c $d
C:\Users\Mxuan\AppData\Local\Temp\ccfnFihP.s:2749   .text.MPU6050_getSlaveEnabled:00000000 $t
C:\Users\Mxuan\AppData\Local\Temp\ccfnFihP.s:2755   .text.MPU6050_getSlaveEnabled:00000000 MPU6050_getSlaveEnabled
C:\Users\Mxuan\AppData\Local\Temp\ccfnFihP.s:2802   .text.MPU6050_getSlaveEnabled:0000002c $d
C:\Users\Mxuan\AppData\Local\Temp\ccfnFihP.s:2807   .text.MPU6050_setSlaveEnabled:00000000 $t
C:\Users\Mxuan\AppData\Local\Temp\ccfnFihP.s:2813   .text.MPU6050_setSlaveEnabled:00000000 MPU6050_setSlaveEnabled
C:\Users\Mxuan\AppData\Local\Temp\ccfnFihP.s:2851   .text.MPU6050_setSlaveEnabled:00000020 $d
C:\Users\Mxuan\AppData\Local\Temp\ccfnFihP.s:2856   .text.MPU6050_getSlaveWordByteSwap:00000000 $t
C:\Users\Mxuan\AppData\Local\Temp\ccfnFihP.s:2862   .text.MPU6050_getSlaveWordByteSwap:00000000 MPU6050_getSlaveWordByteSwap
C:\Users\Mxuan\AppData\Local\Temp\ccfnFihP.s:2909   .text.MPU6050_getSlaveWordByteSwap:0000002c $d
C:\Users\Mxuan\AppData\Local\Temp\ccfnFihP.s:2914   .text.MPU6050_setSlaveWordByteSwap:00000000 $t
C:\Users\Mxuan\AppData\Local\Temp\ccfnFihP.s:2920   .text.MPU6050_setSlaveWordByteSwap:00000000 MPU6050_setSlaveWordByteSwap
C:\Users\Mxuan\AppData\Local\Temp\ccfnFihP.s:2958   .text.MPU6050_setSlaveWordByteSwap:00000020 $d
C:\Users\Mxuan\AppData\Local\Temp\ccfnFihP.s:2963   .text.MPU6050_getSlaveWriteMode:00000000 $t
C:\Users\Mxuan\AppData\Local\Temp\ccfnFihP.s:2969   .text.MPU6050_getSlaveWriteMode:00000000 MPU6050_getSlaveWriteMode
C:\Users\Mxuan\AppData\Local\Temp\ccfnFihP.s:3016   .text.MPU6050_getSlaveWriteMode:0000002c $d
C:\Users\Mxuan\AppData\Local\Temp\ccfnFihP.s:3021   .text.MPU6050_setSlaveWriteMode:00000000 $t
C:\Users\Mxuan\AppData\Local\Temp\ccfnFihP.s:3027   .text.MPU6050_setSlaveWriteMode:00000000 MPU6050_setSlaveWriteMode
C:\Users\Mxuan\AppData\Local\Temp\ccfnFihP.s:3065   .text.MPU6050_setSlaveWriteMode:00000020 $d
C:\Users\Mxuan\AppData\Local\Temp\ccfnFihP.s:3070   .text.MPU6050_getSlaveWordGroupOffset:00000000 $t
C:\Users\Mxuan\AppData\Local\Temp\ccfnFihP.s:3076   .text.MPU6050_getSlaveWordGroupOffset:00000000 MPU6050_getSlaveWordGroupOffset
C:\Users\Mxuan\AppData\Local\Temp\ccfnFihP.s:3123   .text.MPU6050_getSlaveWordGroupOffset:0000002c $d
C:\Users\Mxuan\AppData\Local\Temp\ccfnFihP.s:3128   .text.MPU6050_setSlaveWordGroupOffset:00000000 $t
C:\Users\Mxuan\AppData\Local\Temp\ccfnFihP.s:3134   .text.MPU6050_setSlaveWordGroupOffset:00000000 MPU6050_setSlaveWordGroupOffset
C:\Users\Mxuan\AppData\Local\Temp\ccfnFihP.s:3172   .text.MPU6050_setSlaveWordGroupOffset:00000020 $d
C:\Users\Mxuan\AppData\Local\Temp\ccfnFihP.s:3177   .text.MPU6050_getSlaveDataLength:00000000 $t
C:\Users\Mxuan\AppData\Local\Temp\ccfnFihP.s:3183   .text.MPU6050_getSlaveDataLength:00000000 MPU6050_getSlaveDataLength
ARM GAS  C:\Users\Mxuan\AppData\Local\Temp\ccfnFihP.s 			page 248


C:\Users\Mxuan\AppData\Local\Temp\ccfnFihP.s:3236   .text.MPU6050_getSlaveDataLength:00000030 $d
C:\Users\Mxuan\AppData\Local\Temp\ccfnFihP.s:3241   .text.MPU6050_setSlaveDataLength:00000000 $t
C:\Users\Mxuan\AppData\Local\Temp\ccfnFihP.s:3247   .text.MPU6050_setSlaveDataLength:00000000 MPU6050_setSlaveDataLength
C:\Users\Mxuan\AppData\Local\Temp\ccfnFihP.s:3292   .text.MPU6050_setSlaveDataLength:00000028 $d
C:\Users\Mxuan\AppData\Local\Temp\ccfnFihP.s:3297   .text.MPU6050_getSlave4Address:00000000 $t
C:\Users\Mxuan\AppData\Local\Temp\ccfnFihP.s:3303   .text.MPU6050_getSlave4Address:00000000 MPU6050_getSlave4Address
C:\Users\Mxuan\AppData\Local\Temp\ccfnFihP.s:3328   .text.MPU6050_getSlave4Address:00000014 $d
C:\Users\Mxuan\AppData\Local\Temp\ccfnFihP.s:3333   .text.MPU6050_setSlave4Address:00000000 $t
C:\Users\Mxuan\AppData\Local\Temp\ccfnFihP.s:3339   .text.MPU6050_setSlave4Address:00000000 MPU6050_setSlave4Address
C:\Users\Mxuan\AppData\Local\Temp\ccfnFihP.s:3366   .text.MPU6050_setSlave4Address:00000010 $d
C:\Users\Mxuan\AppData\Local\Temp\ccfnFihP.s:3371   .text.MPU6050_getSlave4Register:00000000 $t
C:\Users\Mxuan\AppData\Local\Temp\ccfnFihP.s:3377   .text.MPU6050_getSlave4Register:00000000 MPU6050_getSlave4Register
C:\Users\Mxuan\AppData\Local\Temp\ccfnFihP.s:3402   .text.MPU6050_getSlave4Register:00000014 $d
C:\Users\Mxuan\AppData\Local\Temp\ccfnFihP.s:3407   .text.MPU6050_setSlave4Register:00000000 $t
C:\Users\Mxuan\AppData\Local\Temp\ccfnFihP.s:3413   .text.MPU6050_setSlave4Register:00000000 MPU6050_setSlave4Register
C:\Users\Mxuan\AppData\Local\Temp\ccfnFihP.s:3440   .text.MPU6050_setSlave4Register:00000010 $d
C:\Users\Mxuan\AppData\Local\Temp\ccfnFihP.s:3445   .text.MPU6050_setSlave4OutputByte:00000000 $t
C:\Users\Mxuan\AppData\Local\Temp\ccfnFihP.s:3451   .text.MPU6050_setSlave4OutputByte:00000000 MPU6050_setSlave4OutputByte
C:\Users\Mxuan\AppData\Local\Temp\ccfnFihP.s:3478   .text.MPU6050_setSlave4OutputByte:00000010 $d
C:\Users\Mxuan\AppData\Local\Temp\ccfnFihP.s:3483   .text.MPU6050_getSlave4Enabled:00000000 $t
C:\Users\Mxuan\AppData\Local\Temp\ccfnFihP.s:3489   .text.MPU6050_getSlave4Enabled:00000000 MPU6050_getSlave4Enabled
C:\Users\Mxuan\AppData\Local\Temp\ccfnFihP.s:3519   .text.MPU6050_getSlave4Enabled:0000001c $d
C:\Users\Mxuan\AppData\Local\Temp\ccfnFihP.s:3524   .text.MPU6050_setSlave4Enabled:00000000 $t
C:\Users\Mxuan\AppData\Local\Temp\ccfnFihP.s:3530   .text.MPU6050_setSlave4Enabled:00000000 MPU6050_setSlave4Enabled
C:\Users\Mxuan\AppData\Local\Temp\ccfnFihP.s:3558   .text.MPU6050_setSlave4Enabled:00000014 $d
C:\Users\Mxuan\AppData\Local\Temp\ccfnFihP.s:3563   .text.MPU6050_getSlave4InterruptEnabled:00000000 $t
C:\Users\Mxuan\AppData\Local\Temp\ccfnFihP.s:3569   .text.MPU6050_getSlave4InterruptEnabled:00000000 MPU6050_getSlave4InterruptEnabled
C:\Users\Mxuan\AppData\Local\Temp\ccfnFihP.s:3599   .text.MPU6050_getSlave4InterruptEnabled:0000001c $d
C:\Users\Mxuan\AppData\Local\Temp\ccfnFihP.s:3604   .text.MPU6050_setSlave4InterruptEnabled:00000000 $t
C:\Users\Mxuan\AppData\Local\Temp\ccfnFihP.s:3610   .text.MPU6050_setSlave4InterruptEnabled:00000000 MPU6050_setSlave4InterruptEnabled
C:\Users\Mxuan\AppData\Local\Temp\ccfnFihP.s:3638   .text.MPU6050_setSlave4InterruptEnabled:00000014 $d
C:\Users\Mxuan\AppData\Local\Temp\ccfnFihP.s:3643   .text.MPU6050_getSlave4WriteMode:00000000 $t
C:\Users\Mxuan\AppData\Local\Temp\ccfnFihP.s:3649   .text.MPU6050_getSlave4WriteMode:00000000 MPU6050_getSlave4WriteMode
C:\Users\Mxuan\AppData\Local\Temp\ccfnFihP.s:3679   .text.MPU6050_getSlave4WriteMode:0000001c $d
C:\Users\Mxuan\AppData\Local\Temp\ccfnFihP.s:3684   .text.MPU6050_setSlave4WriteMode:00000000 $t
C:\Users\Mxuan\AppData\Local\Temp\ccfnFihP.s:3690   .text.MPU6050_setSlave4WriteMode:00000000 MPU6050_setSlave4WriteMode
C:\Users\Mxuan\AppData\Local\Temp\ccfnFihP.s:3718   .text.MPU6050_setSlave4WriteMode:00000014 $d
C:\Users\Mxuan\AppData\Local\Temp\ccfnFihP.s:3723   .text.MPU6050_getSlave4MasterDelay:00000000 $t
C:\Users\Mxuan\AppData\Local\Temp\ccfnFihP.s:3729   .text.MPU6050_getSlave4MasterDelay:00000000 MPU6050_getSlave4MasterDelay
C:\Users\Mxuan\AppData\Local\Temp\ccfnFihP.s:3764   .text.MPU6050_getSlave4MasterDelay:00000020 $d
C:\Users\Mxuan\AppData\Local\Temp\ccfnFihP.s:3769   .text.MPU6050_setSlave4MasterDelay:00000000 $t
C:\Users\Mxuan\AppData\Local\Temp\ccfnFihP.s:3775   .text.MPU6050_setSlave4MasterDelay:00000000 MPU6050_setSlave4MasterDelay
C:\Users\Mxuan\AppData\Local\Temp\ccfnFihP.s:3810   .text.MPU6050_setSlave4MasterDelay:0000001c $d
C:\Users\Mxuan\AppData\Local\Temp\ccfnFihP.s:3815   .text.MPU6050_getSlate4InputByte:00000000 $t
C:\Users\Mxuan\AppData\Local\Temp\ccfnFihP.s:3821   .text.MPU6050_getSlate4InputByte:00000000 MPU6050_getSlate4InputByte
C:\Users\Mxuan\AppData\Local\Temp\ccfnFihP.s:3846   .text.MPU6050_getSlate4InputByte:00000014 $d
C:\Users\Mxuan\AppData\Local\Temp\ccfnFihP.s:3851   .text.MPU6050_getPassthroughStatus:00000000 $t
C:\Users\Mxuan\AppData\Local\Temp\ccfnFihP.s:3857   .text.MPU6050_getPassthroughStatus:00000000 MPU6050_getPassthroughStatus
C:\Users\Mxuan\AppData\Local\Temp\ccfnFihP.s:3887   .text.MPU6050_getPassthroughStatus:0000001c $d
C:\Users\Mxuan\AppData\Local\Temp\ccfnFihP.s:3892   .text.MPU6050_getSlave4IsDone:00000000 $t
C:\Users\Mxuan\AppData\Local\Temp\ccfnFihP.s:3898   .text.MPU6050_getSlave4IsDone:00000000 MPU6050_getSlave4IsDone
C:\Users\Mxuan\AppData\Local\Temp\ccfnFihP.s:3928   .text.MPU6050_getSlave4IsDone:0000001c $d
C:\Users\Mxuan\AppData\Local\Temp\ccfnFihP.s:3933   .text.MPU6050_getLostArbitration:00000000 $t
C:\Users\Mxuan\AppData\Local\Temp\ccfnFihP.s:3939   .text.MPU6050_getLostArbitration:00000000 MPU6050_getLostArbitration
C:\Users\Mxuan\AppData\Local\Temp\ccfnFihP.s:3969   .text.MPU6050_getLostArbitration:0000001c $d
C:\Users\Mxuan\AppData\Local\Temp\ccfnFihP.s:3974   .text.MPU6050_getSlave4Nack:00000000 $t
C:\Users\Mxuan\AppData\Local\Temp\ccfnFihP.s:3980   .text.MPU6050_getSlave4Nack:00000000 MPU6050_getSlave4Nack
ARM GAS  C:\Users\Mxuan\AppData\Local\Temp\ccfnFihP.s 			page 249


C:\Users\Mxuan\AppData\Local\Temp\ccfnFihP.s:4010   .text.MPU6050_getSlave4Nack:0000001c $d
C:\Users\Mxuan\AppData\Local\Temp\ccfnFihP.s:4015   .text.MPU6050_getSlave3Nack:00000000 $t
C:\Users\Mxuan\AppData\Local\Temp\ccfnFihP.s:4021   .text.MPU6050_getSlave3Nack:00000000 MPU6050_getSlave3Nack
C:\Users\Mxuan\AppData\Local\Temp\ccfnFihP.s:4051   .text.MPU6050_getSlave3Nack:0000001c $d
C:\Users\Mxuan\AppData\Local\Temp\ccfnFihP.s:4056   .text.MPU6050_getSlave2Nack:00000000 $t
C:\Users\Mxuan\AppData\Local\Temp\ccfnFihP.s:4062   .text.MPU6050_getSlave2Nack:00000000 MPU6050_getSlave2Nack
C:\Users\Mxuan\AppData\Local\Temp\ccfnFihP.s:4092   .text.MPU6050_getSlave2Nack:0000001c $d
C:\Users\Mxuan\AppData\Local\Temp\ccfnFihP.s:4097   .text.MPU6050_getSlave1Nack:00000000 $t
C:\Users\Mxuan\AppData\Local\Temp\ccfnFihP.s:4103   .text.MPU6050_getSlave1Nack:00000000 MPU6050_getSlave1Nack
C:\Users\Mxuan\AppData\Local\Temp\ccfnFihP.s:4133   .text.MPU6050_getSlave1Nack:0000001c $d
C:\Users\Mxuan\AppData\Local\Temp\ccfnFihP.s:4138   .text.MPU6050_getSlave0Nack:00000000 $t
C:\Users\Mxuan\AppData\Local\Temp\ccfnFihP.s:4144   .text.MPU6050_getSlave0Nack:00000000 MPU6050_getSlave0Nack
C:\Users\Mxuan\AppData\Local\Temp\ccfnFihP.s:4174   .text.MPU6050_getSlave0Nack:0000001c $d
C:\Users\Mxuan\AppData\Local\Temp\ccfnFihP.s:4179   .text.MPU6050_getInterruptMode:00000000 $t
C:\Users\Mxuan\AppData\Local\Temp\ccfnFihP.s:4185   .text.MPU6050_getInterruptMode:00000000 MPU6050_getInterruptMode
C:\Users\Mxuan\AppData\Local\Temp\ccfnFihP.s:4215   .text.MPU6050_getInterruptMode:0000001c $d
C:\Users\Mxuan\AppData\Local\Temp\ccfnFihP.s:4220   .text.MPU6050_setInterruptMode:00000000 $t
C:\Users\Mxuan\AppData\Local\Temp\ccfnFihP.s:4226   .text.MPU6050_setInterruptMode:00000000 MPU6050_setInterruptMode
C:\Users\Mxuan\AppData\Local\Temp\ccfnFihP.s:4254   .text.MPU6050_setInterruptMode:00000014 $d
C:\Users\Mxuan\AppData\Local\Temp\ccfnFihP.s:4259   .text.MPU6050_getInterruptDrive:00000000 $t
C:\Users\Mxuan\AppData\Local\Temp\ccfnFihP.s:4265   .text.MPU6050_getInterruptDrive:00000000 MPU6050_getInterruptDrive
C:\Users\Mxuan\AppData\Local\Temp\ccfnFihP.s:4295   .text.MPU6050_getInterruptDrive:0000001c $d
C:\Users\Mxuan\AppData\Local\Temp\ccfnFihP.s:4300   .text.MPU6050_setInterruptDrive:00000000 $t
C:\Users\Mxuan\AppData\Local\Temp\ccfnFihP.s:4306   .text.MPU6050_setInterruptDrive:00000000 MPU6050_setInterruptDrive
C:\Users\Mxuan\AppData\Local\Temp\ccfnFihP.s:4334   .text.MPU6050_setInterruptDrive:00000014 $d
C:\Users\Mxuan\AppData\Local\Temp\ccfnFihP.s:4339   .text.MPU6050_getInterruptLatch:00000000 $t
C:\Users\Mxuan\AppData\Local\Temp\ccfnFihP.s:4345   .text.MPU6050_getInterruptLatch:00000000 MPU6050_getInterruptLatch
C:\Users\Mxuan\AppData\Local\Temp\ccfnFihP.s:4375   .text.MPU6050_getInterruptLatch:0000001c $d
C:\Users\Mxuan\AppData\Local\Temp\ccfnFihP.s:4380   .text.MPU6050_setInterruptLatch:00000000 $t
C:\Users\Mxuan\AppData\Local\Temp\ccfnFihP.s:4386   .text.MPU6050_setInterruptLatch:00000000 MPU6050_setInterruptLatch
C:\Users\Mxuan\AppData\Local\Temp\ccfnFihP.s:4414   .text.MPU6050_setInterruptLatch:00000014 $d
C:\Users\Mxuan\AppData\Local\Temp\ccfnFihP.s:4419   .text.MPU6050_getInterruptLatchClear:00000000 $t
C:\Users\Mxuan\AppData\Local\Temp\ccfnFihP.s:4425   .text.MPU6050_getInterruptLatchClear:00000000 MPU6050_getInterruptLatchClear
C:\Users\Mxuan\AppData\Local\Temp\ccfnFihP.s:4455   .text.MPU6050_getInterruptLatchClear:0000001c $d
C:\Users\Mxuan\AppData\Local\Temp\ccfnFihP.s:4460   .text.MPU6050_setInterruptLatchClear:00000000 $t
C:\Users\Mxuan\AppData\Local\Temp\ccfnFihP.s:4466   .text.MPU6050_setInterruptLatchClear:00000000 MPU6050_setInterruptLatchClear
C:\Users\Mxuan\AppData\Local\Temp\ccfnFihP.s:4494   .text.MPU6050_setInterruptLatchClear:00000014 $d
C:\Users\Mxuan\AppData\Local\Temp\ccfnFihP.s:4499   .text.MPU6050_getFSyncInterruptLevel:00000000 $t
C:\Users\Mxuan\AppData\Local\Temp\ccfnFihP.s:4505   .text.MPU6050_getFSyncInterruptLevel:00000000 MPU6050_getFSyncInterruptLevel
C:\Users\Mxuan\AppData\Local\Temp\ccfnFihP.s:4535   .text.MPU6050_getFSyncInterruptLevel:0000001c $d
C:\Users\Mxuan\AppData\Local\Temp\ccfnFihP.s:4540   .text.MPU6050_setFSyncInterruptLevel:00000000 $t
C:\Users\Mxuan\AppData\Local\Temp\ccfnFihP.s:4546   .text.MPU6050_setFSyncInterruptLevel:00000000 MPU6050_setFSyncInterruptLevel
C:\Users\Mxuan\AppData\Local\Temp\ccfnFihP.s:4574   .text.MPU6050_setFSyncInterruptLevel:00000014 $d
C:\Users\Mxuan\AppData\Local\Temp\ccfnFihP.s:4579   .text.MPU6050_getFSyncInterruptEnabled:00000000 $t
C:\Users\Mxuan\AppData\Local\Temp\ccfnFihP.s:4585   .text.MPU6050_getFSyncInterruptEnabled:00000000 MPU6050_getFSyncInterruptEnabled
C:\Users\Mxuan\AppData\Local\Temp\ccfnFihP.s:4615   .text.MPU6050_getFSyncInterruptEnabled:0000001c $d
C:\Users\Mxuan\AppData\Local\Temp\ccfnFihP.s:4620   .text.MPU6050_setFSyncInterruptEnabled:00000000 $t
C:\Users\Mxuan\AppData\Local\Temp\ccfnFihP.s:4626   .text.MPU6050_setFSyncInterruptEnabled:00000000 MPU6050_setFSyncInterruptEnabled
C:\Users\Mxuan\AppData\Local\Temp\ccfnFihP.s:4654   .text.MPU6050_setFSyncInterruptEnabled:00000014 $d
C:\Users\Mxuan\AppData\Local\Temp\ccfnFihP.s:4659   .text.MPU6050_getI2CBypassEnabled:00000000 $t
C:\Users\Mxuan\AppData\Local\Temp\ccfnFihP.s:4665   .text.MPU6050_getI2CBypassEnabled:00000000 MPU6050_getI2CBypassEnabled
C:\Users\Mxuan\AppData\Local\Temp\ccfnFihP.s:4695   .text.MPU6050_getI2CBypassEnabled:0000001c $d
C:\Users\Mxuan\AppData\Local\Temp\ccfnFihP.s:4700   .text.MPU6050_setI2CBypassEnabled:00000000 $t
C:\Users\Mxuan\AppData\Local\Temp\ccfnFihP.s:4706   .text.MPU6050_setI2CBypassEnabled:00000000 MPU6050_setI2CBypassEnabled
C:\Users\Mxuan\AppData\Local\Temp\ccfnFihP.s:4734   .text.MPU6050_setI2CBypassEnabled:00000014 $d
C:\Users\Mxuan\AppData\Local\Temp\ccfnFihP.s:4739   .text.MPU6050_getClockOutputEnabled:00000000 $t
C:\Users\Mxuan\AppData\Local\Temp\ccfnFihP.s:4745   .text.MPU6050_getClockOutputEnabled:00000000 MPU6050_getClockOutputEnabled
ARM GAS  C:\Users\Mxuan\AppData\Local\Temp\ccfnFihP.s 			page 250


C:\Users\Mxuan\AppData\Local\Temp\ccfnFihP.s:4775   .text.MPU6050_getClockOutputEnabled:0000001c $d
C:\Users\Mxuan\AppData\Local\Temp\ccfnFihP.s:4780   .text.MPU6050_setClockOutputEnabled:00000000 $t
C:\Users\Mxuan\AppData\Local\Temp\ccfnFihP.s:4786   .text.MPU6050_setClockOutputEnabled:00000000 MPU6050_setClockOutputEnabled
C:\Users\Mxuan\AppData\Local\Temp\ccfnFihP.s:4814   .text.MPU6050_setClockOutputEnabled:00000014 $d
C:\Users\Mxuan\AppData\Local\Temp\ccfnFihP.s:4819   .text.MPU6050_getIntEnabled:00000000 $t
C:\Users\Mxuan\AppData\Local\Temp\ccfnFihP.s:4825   .text.MPU6050_getIntEnabled:00000000 MPU6050_getIntEnabled
C:\Users\Mxuan\AppData\Local\Temp\ccfnFihP.s:4850   .text.MPU6050_getIntEnabled:00000014 $d
C:\Users\Mxuan\AppData\Local\Temp\ccfnFihP.s:4855   .text.MPU6050_setIntEnabled:00000000 $t
C:\Users\Mxuan\AppData\Local\Temp\ccfnFihP.s:4861   .text.MPU6050_setIntEnabled:00000000 MPU6050_setIntEnabled
C:\Users\Mxuan\AppData\Local\Temp\ccfnFihP.s:4888   .text.MPU6050_setIntEnabled:00000010 $d
C:\Users\Mxuan\AppData\Local\Temp\ccfnFihP.s:4893   .text.MPU6050_getIntFreefallEnabled:00000000 $t
C:\Users\Mxuan\AppData\Local\Temp\ccfnFihP.s:4899   .text.MPU6050_getIntFreefallEnabled:00000000 MPU6050_getIntFreefallEnabled
C:\Users\Mxuan\AppData\Local\Temp\ccfnFihP.s:4929   .text.MPU6050_getIntFreefallEnabled:0000001c $d
C:\Users\Mxuan\AppData\Local\Temp\ccfnFihP.s:4934   .text.MPU6050_setIntFreefallEnabled:00000000 $t
C:\Users\Mxuan\AppData\Local\Temp\ccfnFihP.s:4940   .text.MPU6050_setIntFreefallEnabled:00000000 MPU6050_setIntFreefallEnabled
C:\Users\Mxuan\AppData\Local\Temp\ccfnFihP.s:4968   .text.MPU6050_setIntFreefallEnabled:00000014 $d
C:\Users\Mxuan\AppData\Local\Temp\ccfnFihP.s:4973   .text.MPU6050_getIntMotionEnabled:00000000 $t
C:\Users\Mxuan\AppData\Local\Temp\ccfnFihP.s:4979   .text.MPU6050_getIntMotionEnabled:00000000 MPU6050_getIntMotionEnabled
C:\Users\Mxuan\AppData\Local\Temp\ccfnFihP.s:5009   .text.MPU6050_getIntMotionEnabled:0000001c $d
C:\Users\Mxuan\AppData\Local\Temp\ccfnFihP.s:5014   .text.MPU6050_setIntMotionEnabled:00000000 $t
C:\Users\Mxuan\AppData\Local\Temp\ccfnFihP.s:5020   .text.MPU6050_setIntMotionEnabled:00000000 MPU6050_setIntMotionEnabled
C:\Users\Mxuan\AppData\Local\Temp\ccfnFihP.s:5048   .text.MPU6050_setIntMotionEnabled:00000014 $d
C:\Users\Mxuan\AppData\Local\Temp\ccfnFihP.s:5053   .text.MPU6050_getIntZeroMotionEnabled:00000000 $t
C:\Users\Mxuan\AppData\Local\Temp\ccfnFihP.s:5059   .text.MPU6050_getIntZeroMotionEnabled:00000000 MPU6050_getIntZeroMotionEnabled
C:\Users\Mxuan\AppData\Local\Temp\ccfnFihP.s:5089   .text.MPU6050_getIntZeroMotionEnabled:0000001c $d
C:\Users\Mxuan\AppData\Local\Temp\ccfnFihP.s:5094   .text.MPU6050_setIntZeroMotionEnabled:00000000 $t
C:\Users\Mxuan\AppData\Local\Temp\ccfnFihP.s:5100   .text.MPU6050_setIntZeroMotionEnabled:00000000 MPU6050_setIntZeroMotionEnabled
C:\Users\Mxuan\AppData\Local\Temp\ccfnFihP.s:5128   .text.MPU6050_setIntZeroMotionEnabled:00000014 $d
C:\Users\Mxuan\AppData\Local\Temp\ccfnFihP.s:5133   .text.MPU6050_getIntFIFOBufferOverflowEnabled:00000000 $t
C:\Users\Mxuan\AppData\Local\Temp\ccfnFihP.s:5139   .text.MPU6050_getIntFIFOBufferOverflowEnabled:00000000 MPU6050_getIntFIFOBufferOverflowEnabled
C:\Users\Mxuan\AppData\Local\Temp\ccfnFihP.s:5169   .text.MPU6050_getIntFIFOBufferOverflowEnabled:0000001c $d
C:\Users\Mxuan\AppData\Local\Temp\ccfnFihP.s:5174   .text.MPU6050_setIntFIFOBufferOverflowEnabled:00000000 $t
C:\Users\Mxuan\AppData\Local\Temp\ccfnFihP.s:5180   .text.MPU6050_setIntFIFOBufferOverflowEnabled:00000000 MPU6050_setIntFIFOBufferOverflowEnabled
C:\Users\Mxuan\AppData\Local\Temp\ccfnFihP.s:5208   .text.MPU6050_setIntFIFOBufferOverflowEnabled:00000014 $d
C:\Users\Mxuan\AppData\Local\Temp\ccfnFihP.s:5213   .text.MPU6050_getIntI2CMasterEnabled:00000000 $t
C:\Users\Mxuan\AppData\Local\Temp\ccfnFihP.s:5219   .text.MPU6050_getIntI2CMasterEnabled:00000000 MPU6050_getIntI2CMasterEnabled
C:\Users\Mxuan\AppData\Local\Temp\ccfnFihP.s:5249   .text.MPU6050_getIntI2CMasterEnabled:0000001c $d
C:\Users\Mxuan\AppData\Local\Temp\ccfnFihP.s:5254   .text.MPU6050_setIntI2CMasterEnabled:00000000 $t
C:\Users\Mxuan\AppData\Local\Temp\ccfnFihP.s:5260   .text.MPU6050_setIntI2CMasterEnabled:00000000 MPU6050_setIntI2CMasterEnabled
C:\Users\Mxuan\AppData\Local\Temp\ccfnFihP.s:5288   .text.MPU6050_setIntI2CMasterEnabled:00000014 $d
C:\Users\Mxuan\AppData\Local\Temp\ccfnFihP.s:5293   .text.MPU6050_getIntDataReadyEnabled:00000000 $t
C:\Users\Mxuan\AppData\Local\Temp\ccfnFihP.s:5299   .text.MPU6050_getIntDataReadyEnabled:00000000 MPU6050_getIntDataReadyEnabled
C:\Users\Mxuan\AppData\Local\Temp\ccfnFihP.s:5329   .text.MPU6050_getIntDataReadyEnabled:0000001c $d
C:\Users\Mxuan\AppData\Local\Temp\ccfnFihP.s:5334   .text.MPU6050_setIntDataReadyEnabled:00000000 $t
C:\Users\Mxuan\AppData\Local\Temp\ccfnFihP.s:5340   .text.MPU6050_setIntDataReadyEnabled:00000000 MPU6050_setIntDataReadyEnabled
C:\Users\Mxuan\AppData\Local\Temp\ccfnFihP.s:5368   .text.MPU6050_setIntDataReadyEnabled:00000014 $d
C:\Users\Mxuan\AppData\Local\Temp\ccfnFihP.s:5373   .text.MPU6050_getIntStatus:00000000 $t
C:\Users\Mxuan\AppData\Local\Temp\ccfnFihP.s:5379   .text.MPU6050_getIntStatus:00000000 MPU6050_getIntStatus
C:\Users\Mxuan\AppData\Local\Temp\ccfnFihP.s:5404   .text.MPU6050_getIntStatus:00000014 $d
C:\Users\Mxuan\AppData\Local\Temp\ccfnFihP.s:5409   .text.MPU6050_getIntFreefallStatus:00000000 $t
C:\Users\Mxuan\AppData\Local\Temp\ccfnFihP.s:5415   .text.MPU6050_getIntFreefallStatus:00000000 MPU6050_getIntFreefallStatus
C:\Users\Mxuan\AppData\Local\Temp\ccfnFihP.s:5445   .text.MPU6050_getIntFreefallStatus:0000001c $d
C:\Users\Mxuan\AppData\Local\Temp\ccfnFihP.s:5450   .text.MPU6050_getIntMotionStatus:00000000 $t
C:\Users\Mxuan\AppData\Local\Temp\ccfnFihP.s:5456   .text.MPU6050_getIntMotionStatus:00000000 MPU6050_getIntMotionStatus
C:\Users\Mxuan\AppData\Local\Temp\ccfnFihP.s:5486   .text.MPU6050_getIntMotionStatus:0000001c $d
C:\Users\Mxuan\AppData\Local\Temp\ccfnFihP.s:5491   .text.MPU6050_getIntZeroMotionStatus:00000000 $t
C:\Users\Mxuan\AppData\Local\Temp\ccfnFihP.s:5497   .text.MPU6050_getIntZeroMotionStatus:00000000 MPU6050_getIntZeroMotionStatus
ARM GAS  C:\Users\Mxuan\AppData\Local\Temp\ccfnFihP.s 			page 251


C:\Users\Mxuan\AppData\Local\Temp\ccfnFihP.s:5527   .text.MPU6050_getIntZeroMotionStatus:0000001c $d
C:\Users\Mxuan\AppData\Local\Temp\ccfnFihP.s:5532   .text.MPU6050_getIntFIFOBufferOverflowStatus:00000000 $t
C:\Users\Mxuan\AppData\Local\Temp\ccfnFihP.s:5538   .text.MPU6050_getIntFIFOBufferOverflowStatus:00000000 MPU6050_getIntFIFOBufferOverflowStatus
C:\Users\Mxuan\AppData\Local\Temp\ccfnFihP.s:5568   .text.MPU6050_getIntFIFOBufferOverflowStatus:0000001c $d
C:\Users\Mxuan\AppData\Local\Temp\ccfnFihP.s:5573   .text.MPU6050_getIntI2CMasterStatus:00000000 $t
C:\Users\Mxuan\AppData\Local\Temp\ccfnFihP.s:5579   .text.MPU6050_getIntI2CMasterStatus:00000000 MPU6050_getIntI2CMasterStatus
C:\Users\Mxuan\AppData\Local\Temp\ccfnFihP.s:5609   .text.MPU6050_getIntI2CMasterStatus:0000001c $d
C:\Users\Mxuan\AppData\Local\Temp\ccfnFihP.s:5614   .text.MPU6050_getIntDataReadyStatus:00000000 $t
C:\Users\Mxuan\AppData\Local\Temp\ccfnFihP.s:5620   .text.MPU6050_getIntDataReadyStatus:00000000 MPU6050_getIntDataReadyStatus
C:\Users\Mxuan\AppData\Local\Temp\ccfnFihP.s:5650   .text.MPU6050_getIntDataReadyStatus:0000001c $d
C:\Users\Mxuan\AppData\Local\Temp\ccfnFihP.s:5655   .text.MPU6050_getMotion6:00000000 $t
C:\Users\Mxuan\AppData\Local\Temp\ccfnFihP.s:5661   .text.MPU6050_getMotion6:00000000 MPU6050_getMotion6
C:\Users\Mxuan\AppData\Local\Temp\ccfnFihP.s:5761   .text.MPU6050_getMotion6:00000064 $d
C:\Users\Mxuan\AppData\Local\Temp\ccfnFihP.s:5766   .text.MPU6050_getMotion9:00000000 $t
C:\Users\Mxuan\AppData\Local\Temp\ccfnFihP.s:5772   .text.MPU6050_getMotion9:00000000 MPU6050_getMotion9
C:\Users\Mxuan\AppData\Local\Temp\ccfnFihP.s:5805   .text.MPU6050_getAcceleration:00000000 $t
C:\Users\Mxuan\AppData\Local\Temp\ccfnFihP.s:5811   .text.MPU6050_getAcceleration:00000000 MPU6050_getAcceleration
C:\Users\Mxuan\AppData\Local\Temp\ccfnFihP.s:5879   .text.MPU6050_getAcceleration:0000003c $d
C:\Users\Mxuan\AppData\Local\Temp\ccfnFihP.s:5884   .text.MPU6050_getAccelerationX:00000000 $t
C:\Users\Mxuan\AppData\Local\Temp\ccfnFihP.s:5890   .text.MPU6050_getAccelerationX:00000000 MPU6050_getAccelerationX
C:\Users\Mxuan\AppData\Local\Temp\ccfnFihP.s:5922   .text.MPU6050_getAccelerationX:00000020 $d
C:\Users\Mxuan\AppData\Local\Temp\ccfnFihP.s:5927   .text.MPU6050_getAccelerationY:00000000 $t
C:\Users\Mxuan\AppData\Local\Temp\ccfnFihP.s:5933   .text.MPU6050_getAccelerationY:00000000 MPU6050_getAccelerationY
C:\Users\Mxuan\AppData\Local\Temp\ccfnFihP.s:5965   .text.MPU6050_getAccelerationY:00000020 $d
C:\Users\Mxuan\AppData\Local\Temp\ccfnFihP.s:5970   .text.MPU6050_getAccelerationZ:00000000 $t
C:\Users\Mxuan\AppData\Local\Temp\ccfnFihP.s:5976   .text.MPU6050_getAccelerationZ:00000000 MPU6050_getAccelerationZ
C:\Users\Mxuan\AppData\Local\Temp\ccfnFihP.s:6008   .text.MPU6050_getAccelerationZ:00000020 $d
C:\Users\Mxuan\AppData\Local\Temp\ccfnFihP.s:6013   .text.MPU6050_getTemperature:00000000 $t
C:\Users\Mxuan\AppData\Local\Temp\ccfnFihP.s:6019   .text.MPU6050_getTemperature:00000000 MPU6050_getTemperature
C:\Users\Mxuan\AppData\Local\Temp\ccfnFihP.s:6051   .text.MPU6050_getTemperature:00000020 $d
C:\Users\Mxuan\AppData\Local\Temp\ccfnFihP.s:6056   .text.MPU6050_getRotation:00000000 $t
C:\Users\Mxuan\AppData\Local\Temp\ccfnFihP.s:6062   .text.MPU6050_getRotation:00000000 MPU6050_getRotation
C:\Users\Mxuan\AppData\Local\Temp\ccfnFihP.s:6130   .text.MPU6050_getRotation:0000003c $d
C:\Users\Mxuan\AppData\Local\Temp\ccfnFihP.s:6135   .text.MPU6050_getRotationX:00000000 $t
C:\Users\Mxuan\AppData\Local\Temp\ccfnFihP.s:6141   .text.MPU6050_getRotationX:00000000 MPU6050_getRotationX
C:\Users\Mxuan\AppData\Local\Temp\ccfnFihP.s:6173   .text.MPU6050_getRotationX:00000020 $d
C:\Users\Mxuan\AppData\Local\Temp\ccfnFihP.s:6178   .text.MPU6050_getRotationY:00000000 $t
C:\Users\Mxuan\AppData\Local\Temp\ccfnFihP.s:6184   .text.MPU6050_getRotationY:00000000 MPU6050_getRotationY
C:\Users\Mxuan\AppData\Local\Temp\ccfnFihP.s:6216   .text.MPU6050_getRotationY:00000020 $d
C:\Users\Mxuan\AppData\Local\Temp\ccfnFihP.s:6221   .text.MPU6050_getRotationZ:00000000 $t
C:\Users\Mxuan\AppData\Local\Temp\ccfnFihP.s:6227   .text.MPU6050_getRotationZ:00000000 MPU6050_getRotationZ
C:\Users\Mxuan\AppData\Local\Temp\ccfnFihP.s:6259   .text.MPU6050_getRotationZ:00000020 $d
C:\Users\Mxuan\AppData\Local\Temp\ccfnFihP.s:6264   .text.MPU6050_getExternalSensorByte:00000000 $t
C:\Users\Mxuan\AppData\Local\Temp\ccfnFihP.s:6270   .text.MPU6050_getExternalSensorByte:00000000 MPU6050_getExternalSensorByte
C:\Users\Mxuan\AppData\Local\Temp\ccfnFihP.s:6300   .text.MPU6050_getExternalSensorByte:00000018 $d
C:\Users\Mxuan\AppData\Local\Temp\ccfnFihP.s:6305   .text.MPU6050_getExternalSensorWord:00000000 $t
C:\Users\Mxuan\AppData\Local\Temp\ccfnFihP.s:6311   .text.MPU6050_getExternalSensorWord:00000000 MPU6050_getExternalSensorWord
C:\Users\Mxuan\AppData\Local\Temp\ccfnFihP.s:6346   .text.MPU6050_getExternalSensorWord:00000024 $d
C:\Users\Mxuan\AppData\Local\Temp\ccfnFihP.s:6351   .text.MPU6050_getExternalSensorDWord:00000000 $t
C:\Users\Mxuan\AppData\Local\Temp\ccfnFihP.s:6357   .text.MPU6050_getExternalSensorDWord:00000000 MPU6050_getExternalSensorDWord
C:\Users\Mxuan\AppData\Local\Temp\ccfnFihP.s:6402   .text.MPU6050_getExternalSensorDWord:00000030 $d
C:\Users\Mxuan\AppData\Local\Temp\ccfnFihP.s:6407   .text.MPU6050_getXNegMotionDetected:00000000 $t
C:\Users\Mxuan\AppData\Local\Temp\ccfnFihP.s:6413   .text.MPU6050_getXNegMotionDetected:00000000 MPU6050_getXNegMotionDetected
C:\Users\Mxuan\AppData\Local\Temp\ccfnFihP.s:6443   .text.MPU6050_getXNegMotionDetected:0000001c $d
C:\Users\Mxuan\AppData\Local\Temp\ccfnFihP.s:6448   .text.MPU6050_getXPosMotionDetected:00000000 $t
C:\Users\Mxuan\AppData\Local\Temp\ccfnFihP.s:6454   .text.MPU6050_getXPosMotionDetected:00000000 MPU6050_getXPosMotionDetected
C:\Users\Mxuan\AppData\Local\Temp\ccfnFihP.s:6484   .text.MPU6050_getXPosMotionDetected:0000001c $d
ARM GAS  C:\Users\Mxuan\AppData\Local\Temp\ccfnFihP.s 			page 252


C:\Users\Mxuan\AppData\Local\Temp\ccfnFihP.s:6489   .text.MPU6050_getYNegMotionDetected:00000000 $t
C:\Users\Mxuan\AppData\Local\Temp\ccfnFihP.s:6495   .text.MPU6050_getYNegMotionDetected:00000000 MPU6050_getYNegMotionDetected
C:\Users\Mxuan\AppData\Local\Temp\ccfnFihP.s:6525   .text.MPU6050_getYNegMotionDetected:0000001c $d
C:\Users\Mxuan\AppData\Local\Temp\ccfnFihP.s:6530   .text.MPU6050_getYPosMotionDetected:00000000 $t
C:\Users\Mxuan\AppData\Local\Temp\ccfnFihP.s:6536   .text.MPU6050_getYPosMotionDetected:00000000 MPU6050_getYPosMotionDetected
C:\Users\Mxuan\AppData\Local\Temp\ccfnFihP.s:6566   .text.MPU6050_getYPosMotionDetected:0000001c $d
C:\Users\Mxuan\AppData\Local\Temp\ccfnFihP.s:6571   .text.MPU6050_getZNegMotionDetected:00000000 $t
C:\Users\Mxuan\AppData\Local\Temp\ccfnFihP.s:6577   .text.MPU6050_getZNegMotionDetected:00000000 MPU6050_getZNegMotionDetected
C:\Users\Mxuan\AppData\Local\Temp\ccfnFihP.s:6607   .text.MPU6050_getZNegMotionDetected:0000001c $d
C:\Users\Mxuan\AppData\Local\Temp\ccfnFihP.s:6612   .text.MPU6050_getZPosMotionDetected:00000000 $t
C:\Users\Mxuan\AppData\Local\Temp\ccfnFihP.s:6618   .text.MPU6050_getZPosMotionDetected:00000000 MPU6050_getZPosMotionDetected
C:\Users\Mxuan\AppData\Local\Temp\ccfnFihP.s:6648   .text.MPU6050_getZPosMotionDetected:0000001c $d
C:\Users\Mxuan\AppData\Local\Temp\ccfnFihP.s:6653   .text.MPU6050_getZeroMotionDetected:00000000 $t
C:\Users\Mxuan\AppData\Local\Temp\ccfnFihP.s:6659   .text.MPU6050_getZeroMotionDetected:00000000 MPU6050_getZeroMotionDetected
C:\Users\Mxuan\AppData\Local\Temp\ccfnFihP.s:6689   .text.MPU6050_getZeroMotionDetected:0000001c $d
C:\Users\Mxuan\AppData\Local\Temp\ccfnFihP.s:6694   .text.MPU6050_setSlaveOutputByte:00000000 $t
C:\Users\Mxuan\AppData\Local\Temp\ccfnFihP.s:6700   .text.MPU6050_setSlaveOutputByte:00000000 MPU6050_setSlaveOutputByte
C:\Users\Mxuan\AppData\Local\Temp\ccfnFihP.s:6736   .text.MPU6050_setSlaveOutputByte:00000018 $d
C:\Users\Mxuan\AppData\Local\Temp\ccfnFihP.s:6741   .text.MPU6050_getExternalShadowDelayEnabled:00000000 $t
C:\Users\Mxuan\AppData\Local\Temp\ccfnFihP.s:6747   .text.MPU6050_getExternalShadowDelayEnabled:00000000 MPU6050_getExternalShadowDelayEnabled
C:\Users\Mxuan\AppData\Local\Temp\ccfnFihP.s:6777   .text.MPU6050_getExternalShadowDelayEnabled:0000001c $d
C:\Users\Mxuan\AppData\Local\Temp\ccfnFihP.s:6782   .text.MPU6050_setExternalShadowDelayEnabled:00000000 $t
C:\Users\Mxuan\AppData\Local\Temp\ccfnFihP.s:6788   .text.MPU6050_setExternalShadowDelayEnabled:00000000 MPU6050_setExternalShadowDelayEnabled
C:\Users\Mxuan\AppData\Local\Temp\ccfnFihP.s:6816   .text.MPU6050_setExternalShadowDelayEnabled:00000014 $d
C:\Users\Mxuan\AppData\Local\Temp\ccfnFihP.s:6821   .text.MPU6050_getSlaveDelayEnabled:00000000 $t
C:\Users\Mxuan\AppData\Local\Temp\ccfnFihP.s:6827   .text.MPU6050_getSlaveDelayEnabled:00000000 MPU6050_getSlaveDelayEnabled
C:\Users\Mxuan\AppData\Local\Temp\ccfnFihP.s:6872   .text.MPU6050_getSlaveDelayEnabled:00000024 $d
C:\Users\Mxuan\AppData\Local\Temp\ccfnFihP.s:6877   .text.MPU6050_setSlaveDelayEnabled:00000000 $t
C:\Users\Mxuan\AppData\Local\Temp\ccfnFihP.s:6883   .text.MPU6050_setSlaveDelayEnabled:00000000 MPU6050_setSlaveDelayEnabled
C:\Users\Mxuan\AppData\Local\Temp\ccfnFihP.s:6913   .text.MPU6050_setSlaveDelayEnabled:00000014 $d
C:\Users\Mxuan\AppData\Local\Temp\ccfnFihP.s:6918   .text.MPU6050_resetGyroscopePath:00000000 $t
C:\Users\Mxuan\AppData\Local\Temp\ccfnFihP.s:6924   .text.MPU6050_resetGyroscopePath:00000000 MPU6050_resetGyroscopePath
C:\Users\Mxuan\AppData\Local\Temp\ccfnFihP.s:6948   .text.MPU6050_resetGyroscopePath:00000014 $d
C:\Users\Mxuan\AppData\Local\Temp\ccfnFihP.s:6953   .text.MPU6050_resetAccelerometerPath:00000000 $t
C:\Users\Mxuan\AppData\Local\Temp\ccfnFihP.s:6959   .text.MPU6050_resetAccelerometerPath:00000000 MPU6050_resetAccelerometerPath
C:\Users\Mxuan\AppData\Local\Temp\ccfnFihP.s:6983   .text.MPU6050_resetAccelerometerPath:00000014 $d
C:\Users\Mxuan\AppData\Local\Temp\ccfnFihP.s:6988   .text.MPU6050_resetTemperaturePath:00000000 $t
C:\Users\Mxuan\AppData\Local\Temp\ccfnFihP.s:6994   .text.MPU6050_resetTemperaturePath:00000000 MPU6050_resetTemperaturePath
C:\Users\Mxuan\AppData\Local\Temp\ccfnFihP.s:7018   .text.MPU6050_resetTemperaturePath:00000014 $d
C:\Users\Mxuan\AppData\Local\Temp\ccfnFihP.s:7023   .text.MPU6050_getAccelerometerPowerOnDelay:00000000 $t
C:\Users\Mxuan\AppData\Local\Temp\ccfnFihP.s:7029   .text.MPU6050_getAccelerometerPowerOnDelay:00000000 MPU6050_getAccelerometerPowerOnDelay
C:\Users\Mxuan\AppData\Local\Temp\ccfnFihP.s:7064   .text.MPU6050_getAccelerometerPowerOnDelay:00000020 $d
C:\Users\Mxuan\AppData\Local\Temp\ccfnFihP.s:7069   .text.MPU6050_setAccelerometerPowerOnDelay:00000000 $t
C:\Users\Mxuan\AppData\Local\Temp\ccfnFihP.s:7075   .text.MPU6050_setAccelerometerPowerOnDelay:00000000 MPU6050_setAccelerometerPowerOnDelay
C:\Users\Mxuan\AppData\Local\Temp\ccfnFihP.s:7110   .text.MPU6050_setAccelerometerPowerOnDelay:0000001c $d
C:\Users\Mxuan\AppData\Local\Temp\ccfnFihP.s:7115   .text.MPU6050_getFreefallDetectionCounterDecrement:00000000 $t
C:\Users\Mxuan\AppData\Local\Temp\ccfnFihP.s:7121   .text.MPU6050_getFreefallDetectionCounterDecrement:00000000 MPU6050_getFreefallDetectionCounterDecrement
C:\Users\Mxuan\AppData\Local\Temp\ccfnFihP.s:7156   .text.MPU6050_getFreefallDetectionCounterDecrement:00000020 $d
C:\Users\Mxuan\AppData\Local\Temp\ccfnFihP.s:7161   .text.MPU6050_setFreefallDetectionCounterDecrement:00000000 $t
C:\Users\Mxuan\AppData\Local\Temp\ccfnFihP.s:7167   .text.MPU6050_setFreefallDetectionCounterDecrement:00000000 MPU6050_setFreefallDetectionCounterDecrement
C:\Users\Mxuan\AppData\Local\Temp\ccfnFihP.s:7202   .text.MPU6050_setFreefallDetectionCounterDecrement:0000001c $d
C:\Users\Mxuan\AppData\Local\Temp\ccfnFihP.s:7207   .text.MPU6050_getMotionDetectionCounterDecrement:00000000 $t
C:\Users\Mxuan\AppData\Local\Temp\ccfnFihP.s:7213   .text.MPU6050_getMotionDetectionCounterDecrement:00000000 MPU6050_getMotionDetectionCounterDecrement
C:\Users\Mxuan\AppData\Local\Temp\ccfnFihP.s:7248   .text.MPU6050_getMotionDetectionCounterDecrement:00000020 $d
C:\Users\Mxuan\AppData\Local\Temp\ccfnFihP.s:7253   .text.MPU6050_setMotionDetectionCounterDecrement:00000000 $t
C:\Users\Mxuan\AppData\Local\Temp\ccfnFihP.s:7259   .text.MPU6050_setMotionDetectionCounterDecrement:00000000 MPU6050_setMotionDetectionCounterDecrement
C:\Users\Mxuan\AppData\Local\Temp\ccfnFihP.s:7294   .text.MPU6050_setMotionDetectionCounterDecrement:0000001c $d
ARM GAS  C:\Users\Mxuan\AppData\Local\Temp\ccfnFihP.s 			page 253


C:\Users\Mxuan\AppData\Local\Temp\ccfnFihP.s:7299   .text.MPU6050_getFIFOEnabled:00000000 $t
C:\Users\Mxuan\AppData\Local\Temp\ccfnFihP.s:7305   .text.MPU6050_getFIFOEnabled:00000000 MPU6050_getFIFOEnabled
C:\Users\Mxuan\AppData\Local\Temp\ccfnFihP.s:7335   .text.MPU6050_getFIFOEnabled:0000001c $d
C:\Users\Mxuan\AppData\Local\Temp\ccfnFihP.s:7340   .text.MPU6050_setFIFOEnabled:00000000 $t
C:\Users\Mxuan\AppData\Local\Temp\ccfnFihP.s:7346   .text.MPU6050_setFIFOEnabled:00000000 MPU6050_setFIFOEnabled
C:\Users\Mxuan\AppData\Local\Temp\ccfnFihP.s:7374   .text.MPU6050_setFIFOEnabled:00000014 $d
C:\Users\Mxuan\AppData\Local\Temp\ccfnFihP.s:7379   .text.MPU6050_getI2CMasterModeEnabled:00000000 $t
C:\Users\Mxuan\AppData\Local\Temp\ccfnFihP.s:7385   .text.MPU6050_getI2CMasterModeEnabled:00000000 MPU6050_getI2CMasterModeEnabled
C:\Users\Mxuan\AppData\Local\Temp\ccfnFihP.s:7415   .text.MPU6050_getI2CMasterModeEnabled:0000001c $d
C:\Users\Mxuan\AppData\Local\Temp\ccfnFihP.s:7420   .text.MPU6050_setI2CMasterModeEnabled:00000000 $t
C:\Users\Mxuan\AppData\Local\Temp\ccfnFihP.s:7426   .text.MPU6050_setI2CMasterModeEnabled:00000000 MPU6050_setI2CMasterModeEnabled
C:\Users\Mxuan\AppData\Local\Temp\ccfnFihP.s:7454   .text.MPU6050_setI2CMasterModeEnabled:00000014 $d
C:\Users\Mxuan\AppData\Local\Temp\ccfnFihP.s:7459   .text.MPU6050_switchSPIEnabled:00000000 $t
C:\Users\Mxuan\AppData\Local\Temp\ccfnFihP.s:7465   .text.MPU6050_switchSPIEnabled:00000000 MPU6050_switchSPIEnabled
C:\Users\Mxuan\AppData\Local\Temp\ccfnFihP.s:7493   .text.MPU6050_switchSPIEnabled:00000014 $d
C:\Users\Mxuan\AppData\Local\Temp\ccfnFihP.s:7498   .text.MPU6050_resetFIFO:00000000 $t
C:\Users\Mxuan\AppData\Local\Temp\ccfnFihP.s:7504   .text.MPU6050_resetFIFO:00000000 MPU6050_resetFIFO
C:\Users\Mxuan\AppData\Local\Temp\ccfnFihP.s:7528   .text.MPU6050_resetFIFO:00000014 $d
C:\Users\Mxuan\AppData\Local\Temp\ccfnFihP.s:7533   .text.MPU6050_resetI2CMaster:00000000 $t
C:\Users\Mxuan\AppData\Local\Temp\ccfnFihP.s:7539   .text.MPU6050_resetI2CMaster:00000000 MPU6050_resetI2CMaster
C:\Users\Mxuan\AppData\Local\Temp\ccfnFihP.s:7563   .text.MPU6050_resetI2CMaster:00000014 $d
C:\Users\Mxuan\AppData\Local\Temp\ccfnFihP.s:7568   .text.MPU6050_resetSensors:00000000 $t
C:\Users\Mxuan\AppData\Local\Temp\ccfnFihP.s:7574   .text.MPU6050_resetSensors:00000000 MPU6050_resetSensors
C:\Users\Mxuan\AppData\Local\Temp\ccfnFihP.s:7598   .text.MPU6050_resetSensors:00000014 $d
C:\Users\Mxuan\AppData\Local\Temp\ccfnFihP.s:7603   .text.MPU6050_reset:00000000 $t
C:\Users\Mxuan\AppData\Local\Temp\ccfnFihP.s:7609   .text.MPU6050_reset:00000000 MPU6050_reset
C:\Users\Mxuan\AppData\Local\Temp\ccfnFihP.s:7633   .text.MPU6050_reset:00000014 $d
C:\Users\Mxuan\AppData\Local\Temp\ccfnFihP.s:7638   .text.MPU6050_getSleepEnabled:00000000 $t
C:\Users\Mxuan\AppData\Local\Temp\ccfnFihP.s:7644   .text.MPU6050_getSleepEnabled:00000000 MPU6050_getSleepEnabled
C:\Users\Mxuan\AppData\Local\Temp\ccfnFihP.s:7674   .text.MPU6050_getSleepEnabled:0000001c $d
C:\Users\Mxuan\AppData\Local\Temp\ccfnFihP.s:7679   .text.MPU6050_setSleepEnabled:00000000 $t
C:\Users\Mxuan\AppData\Local\Temp\ccfnFihP.s:7685   .text.MPU6050_setSleepEnabled:00000000 MPU6050_setSleepEnabled
C:\Users\Mxuan\AppData\Local\Temp\ccfnFihP.s:7713   .text.MPU6050_setSleepEnabled:00000014 $d
C:\Users\Mxuan\AppData\Local\Temp\ccfnFihP.s:7718   .text.MPU6050_getWakeCycleEnabled:00000000 $t
C:\Users\Mxuan\AppData\Local\Temp\ccfnFihP.s:7724   .text.MPU6050_getWakeCycleEnabled:00000000 MPU6050_getWakeCycleEnabled
C:\Users\Mxuan\AppData\Local\Temp\ccfnFihP.s:7754   .text.MPU6050_getWakeCycleEnabled:0000001c $d
C:\Users\Mxuan\AppData\Local\Temp\ccfnFihP.s:7759   .text.MPU6050_setWakeCycleEnabled:00000000 $t
C:\Users\Mxuan\AppData\Local\Temp\ccfnFihP.s:7765   .text.MPU6050_setWakeCycleEnabled:00000000 MPU6050_setWakeCycleEnabled
C:\Users\Mxuan\AppData\Local\Temp\ccfnFihP.s:7793   .text.MPU6050_setWakeCycleEnabled:00000014 $d
C:\Users\Mxuan\AppData\Local\Temp\ccfnFihP.s:7798   .text.MPU6050_getTempSensorEnabled:00000000 $t
C:\Users\Mxuan\AppData\Local\Temp\ccfnFihP.s:7804   .text.MPU6050_getTempSensorEnabled:00000000 MPU6050_getTempSensorEnabled
C:\Users\Mxuan\AppData\Local\Temp\ccfnFihP.s:7833   .text.MPU6050_getTempSensorEnabled:0000001c $d
C:\Users\Mxuan\AppData\Local\Temp\ccfnFihP.s:7838   .text.MPU6050_setTempSensorEnabled:00000000 $t
C:\Users\Mxuan\AppData\Local\Temp\ccfnFihP.s:7844   .text.MPU6050_setTempSensorEnabled:00000000 MPU6050_setTempSensorEnabled
C:\Users\Mxuan\AppData\Local\Temp\ccfnFihP.s:7872   .text.MPU6050_setTempSensorEnabled:00000014 $d
C:\Users\Mxuan\AppData\Local\Temp\ccfnFihP.s:7877   .text.MPU6050_getClockSource:00000000 $t
C:\Users\Mxuan\AppData\Local\Temp\ccfnFihP.s:7883   .text.MPU6050_getClockSource:00000000 MPU6050_getClockSource
C:\Users\Mxuan\AppData\Local\Temp\ccfnFihP.s:7918   .text.MPU6050_getClockSource:00000020 $d
C:\Users\Mxuan\AppData\Local\Temp\ccfnFihP.s:7923   .text.MPU6050_setClockSource:00000000 $t
C:\Users\Mxuan\AppData\Local\Temp\ccfnFihP.s:7929   .text.MPU6050_setClockSource:00000000 MPU6050_setClockSource
C:\Users\Mxuan\AppData\Local\Temp\ccfnFihP.s:7964   .text.MPU6050_setClockSource:0000001c $d
C:\Users\Mxuan\AppData\Local\Temp\ccfnFihP.s:7969   .text.MPU6050_initialize:00000000 $t
C:\Users\Mxuan\AppData\Local\Temp\ccfnFihP.s:7975   .text.MPU6050_initialize:00000000 MPU6050_initialize
C:\Users\Mxuan\AppData\Local\Temp\ccfnFihP.s:8020   .text.MPU6050_getWakeFrequency:00000000 $t
C:\Users\Mxuan\AppData\Local\Temp\ccfnFihP.s:8026   .text.MPU6050_getWakeFrequency:00000000 MPU6050_getWakeFrequency
C:\Users\Mxuan\AppData\Local\Temp\ccfnFihP.s:8061   .text.MPU6050_getWakeFrequency:00000020 $d
C:\Users\Mxuan\AppData\Local\Temp\ccfnFihP.s:8066   .text.MPU6050_setWakeFrequency:00000000 $t
ARM GAS  C:\Users\Mxuan\AppData\Local\Temp\ccfnFihP.s 			page 254


C:\Users\Mxuan\AppData\Local\Temp\ccfnFihP.s:8072   .text.MPU6050_setWakeFrequency:00000000 MPU6050_setWakeFrequency
C:\Users\Mxuan\AppData\Local\Temp\ccfnFihP.s:8107   .text.MPU6050_setWakeFrequency:0000001c $d
C:\Users\Mxuan\AppData\Local\Temp\ccfnFihP.s:8112   .text.MPU6050_getStandbyXAccelEnabled:00000000 $t
C:\Users\Mxuan\AppData\Local\Temp\ccfnFihP.s:8118   .text.MPU6050_getStandbyXAccelEnabled:00000000 MPU6050_getStandbyXAccelEnabled
C:\Users\Mxuan\AppData\Local\Temp\ccfnFihP.s:8148   .text.MPU6050_getStandbyXAccelEnabled:0000001c $d
C:\Users\Mxuan\AppData\Local\Temp\ccfnFihP.s:8153   .text.MPU6050_setStandbyXAccelEnabled:00000000 $t
C:\Users\Mxuan\AppData\Local\Temp\ccfnFihP.s:8159   .text.MPU6050_setStandbyXAccelEnabled:00000000 MPU6050_setStandbyXAccelEnabled
C:\Users\Mxuan\AppData\Local\Temp\ccfnFihP.s:8187   .text.MPU6050_setStandbyXAccelEnabled:00000014 $d
C:\Users\Mxuan\AppData\Local\Temp\ccfnFihP.s:8192   .text.MPU6050_getStandbyYAccelEnabled:00000000 $t
C:\Users\Mxuan\AppData\Local\Temp\ccfnFihP.s:8198   .text.MPU6050_getStandbyYAccelEnabled:00000000 MPU6050_getStandbyYAccelEnabled
C:\Users\Mxuan\AppData\Local\Temp\ccfnFihP.s:8228   .text.MPU6050_getStandbyYAccelEnabled:0000001c $d
C:\Users\Mxuan\AppData\Local\Temp\ccfnFihP.s:8233   .text.MPU6050_setStandbyYAccelEnabled:00000000 $t
C:\Users\Mxuan\AppData\Local\Temp\ccfnFihP.s:8239   .text.MPU6050_setStandbyYAccelEnabled:00000000 MPU6050_setStandbyYAccelEnabled
C:\Users\Mxuan\AppData\Local\Temp\ccfnFihP.s:8267   .text.MPU6050_setStandbyYAccelEnabled:00000014 $d
C:\Users\Mxuan\AppData\Local\Temp\ccfnFihP.s:8272   .text.MPU6050_getStandbyZAccelEnabled:00000000 $t
C:\Users\Mxuan\AppData\Local\Temp\ccfnFihP.s:8278   .text.MPU6050_getStandbyZAccelEnabled:00000000 MPU6050_getStandbyZAccelEnabled
C:\Users\Mxuan\AppData\Local\Temp\ccfnFihP.s:8308   .text.MPU6050_getStandbyZAccelEnabled:0000001c $d
C:\Users\Mxuan\AppData\Local\Temp\ccfnFihP.s:8313   .text.MPU6050_setStandbyZAccelEnabled:00000000 $t
C:\Users\Mxuan\AppData\Local\Temp\ccfnFihP.s:8319   .text.MPU6050_setStandbyZAccelEnabled:00000000 MPU6050_setStandbyZAccelEnabled
C:\Users\Mxuan\AppData\Local\Temp\ccfnFihP.s:8347   .text.MPU6050_setStandbyZAccelEnabled:00000014 $d
C:\Users\Mxuan\AppData\Local\Temp\ccfnFihP.s:8352   .text.MPU6050_getStandbyXGyroEnabled:00000000 $t
C:\Users\Mxuan\AppData\Local\Temp\ccfnFihP.s:8358   .text.MPU6050_getStandbyXGyroEnabled:00000000 MPU6050_getStandbyXGyroEnabled
C:\Users\Mxuan\AppData\Local\Temp\ccfnFihP.s:8388   .text.MPU6050_getStandbyXGyroEnabled:0000001c $d
C:\Users\Mxuan\AppData\Local\Temp\ccfnFihP.s:8393   .text.MPU6050_setStandbyXGyroEnabled:00000000 $t
C:\Users\Mxuan\AppData\Local\Temp\ccfnFihP.s:8399   .text.MPU6050_setStandbyXGyroEnabled:00000000 MPU6050_setStandbyXGyroEnabled
C:\Users\Mxuan\AppData\Local\Temp\ccfnFihP.s:8427   .text.MPU6050_setStandbyXGyroEnabled:00000014 $d
C:\Users\Mxuan\AppData\Local\Temp\ccfnFihP.s:8432   .text.MPU6050_getStandbyYGyroEnabled:00000000 $t
C:\Users\Mxuan\AppData\Local\Temp\ccfnFihP.s:8438   .text.MPU6050_getStandbyYGyroEnabled:00000000 MPU6050_getStandbyYGyroEnabled
C:\Users\Mxuan\AppData\Local\Temp\ccfnFihP.s:8468   .text.MPU6050_getStandbyYGyroEnabled:0000001c $d
C:\Users\Mxuan\AppData\Local\Temp\ccfnFihP.s:8473   .text.MPU6050_setStandbyYGyroEnabled:00000000 $t
C:\Users\Mxuan\AppData\Local\Temp\ccfnFihP.s:8479   .text.MPU6050_setStandbyYGyroEnabled:00000000 MPU6050_setStandbyYGyroEnabled
C:\Users\Mxuan\AppData\Local\Temp\ccfnFihP.s:8507   .text.MPU6050_setStandbyYGyroEnabled:00000014 $d
C:\Users\Mxuan\AppData\Local\Temp\ccfnFihP.s:8512   .text.MPU6050_getStandbyZGyroEnabled:00000000 $t
C:\Users\Mxuan\AppData\Local\Temp\ccfnFihP.s:8518   .text.MPU6050_getStandbyZGyroEnabled:00000000 MPU6050_getStandbyZGyroEnabled
C:\Users\Mxuan\AppData\Local\Temp\ccfnFihP.s:8548   .text.MPU6050_getStandbyZGyroEnabled:0000001c $d
C:\Users\Mxuan\AppData\Local\Temp\ccfnFihP.s:8553   .text.MPU6050_setStandbyZGyroEnabled:00000000 $t
C:\Users\Mxuan\AppData\Local\Temp\ccfnFihP.s:8559   .text.MPU6050_setStandbyZGyroEnabled:00000000 MPU6050_setStandbyZGyroEnabled
C:\Users\Mxuan\AppData\Local\Temp\ccfnFihP.s:8587   .text.MPU6050_setStandbyZGyroEnabled:00000014 $d
C:\Users\Mxuan\AppData\Local\Temp\ccfnFihP.s:8592   .text.MPU6050_getFIFOCount:00000000 $t
C:\Users\Mxuan\AppData\Local\Temp\ccfnFihP.s:8598   .text.MPU6050_getFIFOCount:00000000 MPU6050_getFIFOCount
C:\Users\Mxuan\AppData\Local\Temp\ccfnFihP.s:8628   .text.MPU6050_getFIFOCount:00000020 $d
C:\Users\Mxuan\AppData\Local\Temp\ccfnFihP.s:8633   .text.MPU6050_getFIFOByte:00000000 $t
C:\Users\Mxuan\AppData\Local\Temp\ccfnFihP.s:8639   .text.MPU6050_getFIFOByte:00000000 MPU6050_getFIFOByte
C:\Users\Mxuan\AppData\Local\Temp\ccfnFihP.s:8664   .text.MPU6050_getFIFOByte:00000014 $d
C:\Users\Mxuan\AppData\Local\Temp\ccfnFihP.s:8669   .text.MPU6050_getFIFOBytes:00000000 $t
C:\Users\Mxuan\AppData\Local\Temp\ccfnFihP.s:8675   .text.MPU6050_getFIFOBytes:00000000 MPU6050_getFIFOBytes
C:\Users\Mxuan\AppData\Local\Temp\ccfnFihP.s:8705   .text.MPU6050_getFIFOBytes:00000014 $d
C:\Users\Mxuan\AppData\Local\Temp\ccfnFihP.s:8710   .text.MPU6050_setFIFOByte:00000000 $t
C:\Users\Mxuan\AppData\Local\Temp\ccfnFihP.s:8716   .text.MPU6050_setFIFOByte:00000000 MPU6050_setFIFOByte
C:\Users\Mxuan\AppData\Local\Temp\ccfnFihP.s:8743   .text.MPU6050_setFIFOByte:00000010 $d
C:\Users\Mxuan\AppData\Local\Temp\ccfnFihP.s:8748   .text.MPU6050_getDeviceID:00000000 $t
C:\Users\Mxuan\AppData\Local\Temp\ccfnFihP.s:8754   .text.MPU6050_getDeviceID:00000000 MPU6050_getDeviceID
C:\Users\Mxuan\AppData\Local\Temp\ccfnFihP.s:8780   .text.MPU6050_getDeviceID:00000018 $d
C:\Users\Mxuan\AppData\Local\Temp\ccfnFihP.s:8785   .text.MPU6050_testConnection:00000000 $t
C:\Users\Mxuan\AppData\Local\Temp\ccfnFihP.s:8791   .text.MPU6050_testConnection:00000000 MPU6050_testConnection
C:\Users\Mxuan\AppData\Local\Temp\ccfnFihP.s:8820   .text.MPU6050_setDeviceID:00000000 $t
C:\Users\Mxuan\AppData\Local\Temp\ccfnFihP.s:8826   .text.MPU6050_setDeviceID:00000000 MPU6050_setDeviceID
ARM GAS  C:\Users\Mxuan\AppData\Local\Temp\ccfnFihP.s 			page 255


C:\Users\Mxuan\AppData\Local\Temp\ccfnFihP.s:8861   .text.MPU6050_setDeviceID:0000001c $d
C:\Users\Mxuan\AppData\Local\Temp\ccfnFihP.s:8866   .text.MPU6050_getOTPBankValid:00000000 $t
C:\Users\Mxuan\AppData\Local\Temp\ccfnFihP.s:8872   .text.MPU6050_getOTPBankValid:00000000 MPU6050_getOTPBankValid
C:\Users\Mxuan\AppData\Local\Temp\ccfnFihP.s:8898   .text.MPU6050_getOTPBankValid:00000018 $d
C:\Users\Mxuan\AppData\Local\Temp\ccfnFihP.s:8903   .text.MPU6050_setOTPBankValid:00000000 $t
C:\Users\Mxuan\AppData\Local\Temp\ccfnFihP.s:8909   .text.MPU6050_setOTPBankValid:00000000 MPU6050_setOTPBankValid
C:\Users\Mxuan\AppData\Local\Temp\ccfnFihP.s:8937   .text.MPU6050_setOTPBankValid:00000014 $d
C:\Users\Mxuan\AppData\Local\Temp\ccfnFihP.s:8942   .text.MPU6050_getXGyroOffsetTC:00000000 $t
C:\Users\Mxuan\AppData\Local\Temp\ccfnFihP.s:8948   .text.MPU6050_getXGyroOffsetTC:00000000 MPU6050_getXGyroOffsetTC
C:\Users\Mxuan\AppData\Local\Temp\ccfnFihP.s:8983   .text.MPU6050_getXGyroOffsetTC:00000020 $d
C:\Users\Mxuan\AppData\Local\Temp\ccfnFihP.s:8988   .text.MPU6050_setXGyroOffsetTC:00000000 $t
C:\Users\Mxuan\AppData\Local\Temp\ccfnFihP.s:8994   .text.MPU6050_setXGyroOffsetTC:00000000 MPU6050_setXGyroOffsetTC
C:\Users\Mxuan\AppData\Local\Temp\ccfnFihP.s:9031   .text.MPU6050_setXGyroOffsetTC:0000001c $d
C:\Users\Mxuan\AppData\Local\Temp\ccfnFihP.s:9036   .text.MPU6050_getYGyroOffsetTC:00000000 $t
C:\Users\Mxuan\AppData\Local\Temp\ccfnFihP.s:9042   .text.MPU6050_getYGyroOffsetTC:00000000 MPU6050_getYGyroOffsetTC
C:\Users\Mxuan\AppData\Local\Temp\ccfnFihP.s:9077   .text.MPU6050_getYGyroOffsetTC:00000020 $d
C:\Users\Mxuan\AppData\Local\Temp\ccfnFihP.s:9082   .text.MPU6050_setYGyroOffsetTC:00000000 $t
C:\Users\Mxuan\AppData\Local\Temp\ccfnFihP.s:9088   .text.MPU6050_setYGyroOffsetTC:00000000 MPU6050_setYGyroOffsetTC
C:\Users\Mxuan\AppData\Local\Temp\ccfnFihP.s:9125   .text.MPU6050_setYGyroOffsetTC:0000001c $d
C:\Users\Mxuan\AppData\Local\Temp\ccfnFihP.s:9130   .text.MPU6050_getZGyroOffsetTC:00000000 $t
C:\Users\Mxuan\AppData\Local\Temp\ccfnFihP.s:9136   .text.MPU6050_getZGyroOffsetTC:00000000 MPU6050_getZGyroOffsetTC
C:\Users\Mxuan\AppData\Local\Temp\ccfnFihP.s:9171   .text.MPU6050_getZGyroOffsetTC:00000020 $d
C:\Users\Mxuan\AppData\Local\Temp\ccfnFihP.s:9176   .text.MPU6050_setZGyroOffsetTC:00000000 $t
C:\Users\Mxuan\AppData\Local\Temp\ccfnFihP.s:9182   .text.MPU6050_setZGyroOffsetTC:00000000 MPU6050_setZGyroOffsetTC
C:\Users\Mxuan\AppData\Local\Temp\ccfnFihP.s:9219   .text.MPU6050_setZGyroOffsetTC:0000001c $d
C:\Users\Mxuan\AppData\Local\Temp\ccfnFihP.s:9224   .text.MPU6050_getXFineGain:00000000 $t
C:\Users\Mxuan\AppData\Local\Temp\ccfnFihP.s:9230   .text.MPU6050_getXFineGain:00000000 MPU6050_getXFineGain
C:\Users\Mxuan\AppData\Local\Temp\ccfnFihP.s:9255   .text.MPU6050_getXFineGain:00000018 $d
C:\Users\Mxuan\AppData\Local\Temp\ccfnFihP.s:9260   .text.MPU6050_setXFineGain:00000000 $t
C:\Users\Mxuan\AppData\Local\Temp\ccfnFihP.s:9266   .text.MPU6050_setXFineGain:00000000 MPU6050_setXFineGain
C:\Users\Mxuan\AppData\Local\Temp\ccfnFihP.s:9293   .text.MPU6050_setXFineGain:00000010 $d
C:\Users\Mxuan\AppData\Local\Temp\ccfnFihP.s:9298   .text.MPU6050_getYFineGain:00000000 $t
C:\Users\Mxuan\AppData\Local\Temp\ccfnFihP.s:9304   .text.MPU6050_getYFineGain:00000000 MPU6050_getYFineGain
C:\Users\Mxuan\AppData\Local\Temp\ccfnFihP.s:9329   .text.MPU6050_getYFineGain:00000018 $d
C:\Users\Mxuan\AppData\Local\Temp\ccfnFihP.s:9334   .text.MPU6050_setYFineGain:00000000 $t
C:\Users\Mxuan\AppData\Local\Temp\ccfnFihP.s:9340   .text.MPU6050_setYFineGain:00000000 MPU6050_setYFineGain
C:\Users\Mxuan\AppData\Local\Temp\ccfnFihP.s:9367   .text.MPU6050_setYFineGain:00000010 $d
C:\Users\Mxuan\AppData\Local\Temp\ccfnFihP.s:9372   .text.MPU6050_getZFineGain:00000000 $t
C:\Users\Mxuan\AppData\Local\Temp\ccfnFihP.s:9378   .text.MPU6050_getZFineGain:00000000 MPU6050_getZFineGain
C:\Users\Mxuan\AppData\Local\Temp\ccfnFihP.s:9403   .text.MPU6050_getZFineGain:00000018 $d
C:\Users\Mxuan\AppData\Local\Temp\ccfnFihP.s:9408   .text.MPU6050_setZFineGain:00000000 $t
C:\Users\Mxuan\AppData\Local\Temp\ccfnFihP.s:9414   .text.MPU6050_setZFineGain:00000000 MPU6050_setZFineGain
C:\Users\Mxuan\AppData\Local\Temp\ccfnFihP.s:9441   .text.MPU6050_setZFineGain:00000010 $d
C:\Users\Mxuan\AppData\Local\Temp\ccfnFihP.s:9446   .text.MPU6050_getXAccelOffset:00000000 $t
C:\Users\Mxuan\AppData\Local\Temp\ccfnFihP.s:9452   .text.MPU6050_getXAccelOffset:00000000 MPU6050_getXAccelOffset
C:\Users\Mxuan\AppData\Local\Temp\ccfnFihP.s:9484   .text.MPU6050_getXAccelOffset:00000020 $d
C:\Users\Mxuan\AppData\Local\Temp\ccfnFihP.s:9489   .text.MPU6050_setXAccelOffset:00000000 $t
C:\Users\Mxuan\AppData\Local\Temp\ccfnFihP.s:9495   .text.MPU6050_setXAccelOffset:00000000 MPU6050_setXAccelOffset
C:\Users\Mxuan\AppData\Local\Temp\ccfnFihP.s:9522   .text.MPU6050_setXAccelOffset:00000010 $d
C:\Users\Mxuan\AppData\Local\Temp\ccfnFihP.s:9527   .text.MPU6050_getYAccelOffset:00000000 $t
C:\Users\Mxuan\AppData\Local\Temp\ccfnFihP.s:9533   .text.MPU6050_getYAccelOffset:00000000 MPU6050_getYAccelOffset
C:\Users\Mxuan\AppData\Local\Temp\ccfnFihP.s:9565   .text.MPU6050_getYAccelOffset:00000020 $d
C:\Users\Mxuan\AppData\Local\Temp\ccfnFihP.s:9570   .text.MPU6050_setYAccelOffset:00000000 $t
C:\Users\Mxuan\AppData\Local\Temp\ccfnFihP.s:9576   .text.MPU6050_setYAccelOffset:00000000 MPU6050_setYAccelOffset
C:\Users\Mxuan\AppData\Local\Temp\ccfnFihP.s:9603   .text.MPU6050_setYAccelOffset:00000010 $d
C:\Users\Mxuan\AppData\Local\Temp\ccfnFihP.s:9608   .text.MPU6050_getZAccelOffset:00000000 $t
C:\Users\Mxuan\AppData\Local\Temp\ccfnFihP.s:9614   .text.MPU6050_getZAccelOffset:00000000 MPU6050_getZAccelOffset
ARM GAS  C:\Users\Mxuan\AppData\Local\Temp\ccfnFihP.s 			page 256


C:\Users\Mxuan\AppData\Local\Temp\ccfnFihP.s:9646   .text.MPU6050_getZAccelOffset:00000020 $d
C:\Users\Mxuan\AppData\Local\Temp\ccfnFihP.s:9651   .text.MPU6050_setZAccelOffset:00000000 $t
C:\Users\Mxuan\AppData\Local\Temp\ccfnFihP.s:9657   .text.MPU6050_setZAccelOffset:00000000 MPU6050_setZAccelOffset
C:\Users\Mxuan\AppData\Local\Temp\ccfnFihP.s:9684   .text.MPU6050_setZAccelOffset:00000010 $d
C:\Users\Mxuan\AppData\Local\Temp\ccfnFihP.s:9689   .text.MPU6050_getXGyroOffset:00000000 $t
C:\Users\Mxuan\AppData\Local\Temp\ccfnFihP.s:9695   .text.MPU6050_getXGyroOffset:00000000 MPU6050_getXGyroOffset
C:\Users\Mxuan\AppData\Local\Temp\ccfnFihP.s:9727   .text.MPU6050_getXGyroOffset:00000020 $d
C:\Users\Mxuan\AppData\Local\Temp\ccfnFihP.s:9732   .text.MPU6050_setXGyroOffset:00000000 $t
C:\Users\Mxuan\AppData\Local\Temp\ccfnFihP.s:9738   .text.MPU6050_setXGyroOffset:00000000 MPU6050_setXGyroOffset
C:\Users\Mxuan\AppData\Local\Temp\ccfnFihP.s:9765   .text.MPU6050_setXGyroOffset:00000010 $d
C:\Users\Mxuan\AppData\Local\Temp\ccfnFihP.s:9770   .text.MPU6050_getYGyroOffset:00000000 $t
C:\Users\Mxuan\AppData\Local\Temp\ccfnFihP.s:9776   .text.MPU6050_getYGyroOffset:00000000 MPU6050_getYGyroOffset
C:\Users\Mxuan\AppData\Local\Temp\ccfnFihP.s:9808   .text.MPU6050_getYGyroOffset:00000020 $d
C:\Users\Mxuan\AppData\Local\Temp\ccfnFihP.s:9813   .text.MPU6050_setYGyroOffset:00000000 $t
C:\Users\Mxuan\AppData\Local\Temp\ccfnFihP.s:9819   .text.MPU6050_setYGyroOffset:00000000 MPU6050_setYGyroOffset
C:\Users\Mxuan\AppData\Local\Temp\ccfnFihP.s:9846   .text.MPU6050_setYGyroOffset:00000010 $d
C:\Users\Mxuan\AppData\Local\Temp\ccfnFihP.s:9851   .text.MPU6050_getZGyroOffset:00000000 $t
C:\Users\Mxuan\AppData\Local\Temp\ccfnFihP.s:9857   .text.MPU6050_getZGyroOffset:00000000 MPU6050_getZGyroOffset
C:\Users\Mxuan\AppData\Local\Temp\ccfnFihP.s:9889   .text.MPU6050_getZGyroOffset:00000020 $d
C:\Users\Mxuan\AppData\Local\Temp\ccfnFihP.s:9894   .text.MPU6050_setZGyroOffset:00000000 $t
C:\Users\Mxuan\AppData\Local\Temp\ccfnFihP.s:9900   .text.MPU6050_setZGyroOffset:00000000 MPU6050_setZGyroOffset
C:\Users\Mxuan\AppData\Local\Temp\ccfnFihP.s:9927   .text.MPU6050_setZGyroOffset:00000010 $d
C:\Users\Mxuan\AppData\Local\Temp\ccfnFihP.s:9932   .text.MPU6050_getIntPLLReadyEnabled:00000000 $t
C:\Users\Mxuan\AppData\Local\Temp\ccfnFihP.s:9938   .text.MPU6050_getIntPLLReadyEnabled:00000000 MPU6050_getIntPLLReadyEnabled
C:\Users\Mxuan\AppData\Local\Temp\ccfnFihP.s:9968   .text.MPU6050_getIntPLLReadyEnabled:0000001c $d
C:\Users\Mxuan\AppData\Local\Temp\ccfnFihP.s:9973   .text.MPU6050_setIntPLLReadyEnabled:00000000 $t
C:\Users\Mxuan\AppData\Local\Temp\ccfnFihP.s:9979   .text.MPU6050_setIntPLLReadyEnabled:00000000 MPU6050_setIntPLLReadyEnabled
C:\Users\Mxuan\AppData\Local\Temp\ccfnFihP.s:10007  .text.MPU6050_setIntPLLReadyEnabled:00000014 $d
C:\Users\Mxuan\AppData\Local\Temp\ccfnFihP.s:10012  .text.MPU6050_getIntDMPEnabled:00000000 $t
C:\Users\Mxuan\AppData\Local\Temp\ccfnFihP.s:10018  .text.MPU6050_getIntDMPEnabled:00000000 MPU6050_getIntDMPEnabled
C:\Users\Mxuan\AppData\Local\Temp\ccfnFihP.s:10048  .text.MPU6050_getIntDMPEnabled:0000001c $d
C:\Users\Mxuan\AppData\Local\Temp\ccfnFihP.s:10053  .text.MPU6050_setIntDMPEnabled:00000000 $t
C:\Users\Mxuan\AppData\Local\Temp\ccfnFihP.s:10059  .text.MPU6050_setIntDMPEnabled:00000000 MPU6050_setIntDMPEnabled
C:\Users\Mxuan\AppData\Local\Temp\ccfnFihP.s:10087  .text.MPU6050_setIntDMPEnabled:00000014 $d
C:\Users\Mxuan\AppData\Local\Temp\ccfnFihP.s:10092  .text.MPU6050_getDMPInt5Status:00000000 $t
C:\Users\Mxuan\AppData\Local\Temp\ccfnFihP.s:10098  .text.MPU6050_getDMPInt5Status:00000000 MPU6050_getDMPInt5Status
C:\Users\Mxuan\AppData\Local\Temp\ccfnFihP.s:10128  .text.MPU6050_getDMPInt5Status:0000001c $d
C:\Users\Mxuan\AppData\Local\Temp\ccfnFihP.s:10133  .text.MPU6050_getDMPInt4Status:00000000 $t
C:\Users\Mxuan\AppData\Local\Temp\ccfnFihP.s:10139  .text.MPU6050_getDMPInt4Status:00000000 MPU6050_getDMPInt4Status
C:\Users\Mxuan\AppData\Local\Temp\ccfnFihP.s:10169  .text.MPU6050_getDMPInt4Status:0000001c $d
C:\Users\Mxuan\AppData\Local\Temp\ccfnFihP.s:10174  .text.MPU6050_getDMPInt3Status:00000000 $t
C:\Users\Mxuan\AppData\Local\Temp\ccfnFihP.s:10180  .text.MPU6050_getDMPInt3Status:00000000 MPU6050_getDMPInt3Status
C:\Users\Mxuan\AppData\Local\Temp\ccfnFihP.s:10210  .text.MPU6050_getDMPInt3Status:0000001c $d
C:\Users\Mxuan\AppData\Local\Temp\ccfnFihP.s:10215  .text.MPU6050_getDMPInt2Status:00000000 $t
C:\Users\Mxuan\AppData\Local\Temp\ccfnFihP.s:10221  .text.MPU6050_getDMPInt2Status:00000000 MPU6050_getDMPInt2Status
C:\Users\Mxuan\AppData\Local\Temp\ccfnFihP.s:10251  .text.MPU6050_getDMPInt2Status:0000001c $d
C:\Users\Mxuan\AppData\Local\Temp\ccfnFihP.s:10256  .text.MPU6050_getDMPInt1Status:00000000 $t
C:\Users\Mxuan\AppData\Local\Temp\ccfnFihP.s:10262  .text.MPU6050_getDMPInt1Status:00000000 MPU6050_getDMPInt1Status
C:\Users\Mxuan\AppData\Local\Temp\ccfnFihP.s:10292  .text.MPU6050_getDMPInt1Status:0000001c $d
C:\Users\Mxuan\AppData\Local\Temp\ccfnFihP.s:10297  .text.MPU6050_getDMPInt0Status:00000000 $t
C:\Users\Mxuan\AppData\Local\Temp\ccfnFihP.s:10303  .text.MPU6050_getDMPInt0Status:00000000 MPU6050_getDMPInt0Status
C:\Users\Mxuan\AppData\Local\Temp\ccfnFihP.s:10333  .text.MPU6050_getDMPInt0Status:0000001c $d
C:\Users\Mxuan\AppData\Local\Temp\ccfnFihP.s:10338  .text.MPU6050_getIntPLLReadyStatus:00000000 $t
C:\Users\Mxuan\AppData\Local\Temp\ccfnFihP.s:10344  .text.MPU6050_getIntPLLReadyStatus:00000000 MPU6050_getIntPLLReadyStatus
C:\Users\Mxuan\AppData\Local\Temp\ccfnFihP.s:10374  .text.MPU6050_getIntPLLReadyStatus:0000001c $d
C:\Users\Mxuan\AppData\Local\Temp\ccfnFihP.s:10379  .text.MPU6050_getIntDMPStatus:00000000 $t
C:\Users\Mxuan\AppData\Local\Temp\ccfnFihP.s:10385  .text.MPU6050_getIntDMPStatus:00000000 MPU6050_getIntDMPStatus
ARM GAS  C:\Users\Mxuan\AppData\Local\Temp\ccfnFihP.s 			page 257


C:\Users\Mxuan\AppData\Local\Temp\ccfnFihP.s:10415  .text.MPU6050_getIntDMPStatus:0000001c $d
C:\Users\Mxuan\AppData\Local\Temp\ccfnFihP.s:10420  .text.MPU6050_getDMPEnabled:00000000 $t
C:\Users\Mxuan\AppData\Local\Temp\ccfnFihP.s:10426  .text.MPU6050_getDMPEnabled:00000000 MPU6050_getDMPEnabled
C:\Users\Mxuan\AppData\Local\Temp\ccfnFihP.s:10456  .text.MPU6050_getDMPEnabled:0000001c $d
C:\Users\Mxuan\AppData\Local\Temp\ccfnFihP.s:10461  .text.MPU6050_setDMPEnabled:00000000 $t
C:\Users\Mxuan\AppData\Local\Temp\ccfnFihP.s:10467  .text.MPU6050_setDMPEnabled:00000000 MPU6050_setDMPEnabled
C:\Users\Mxuan\AppData\Local\Temp\ccfnFihP.s:10495  .text.MPU6050_setDMPEnabled:00000014 $d
C:\Users\Mxuan\AppData\Local\Temp\ccfnFihP.s:10500  .text.MPU6050_resetDMP:00000000 $t
C:\Users\Mxuan\AppData\Local\Temp\ccfnFihP.s:10506  .text.MPU6050_resetDMP:00000000 MPU6050_resetDMP
C:\Users\Mxuan\AppData\Local\Temp\ccfnFihP.s:10530  .text.MPU6050_resetDMP:00000014 $d
C:\Users\Mxuan\AppData\Local\Temp\ccfnFihP.s:10535  .text.MPU6050_setMemoryBank:00000000 $t
C:\Users\Mxuan\AppData\Local\Temp\ccfnFihP.s:10541  .text.MPU6050_setMemoryBank:00000000 MPU6050_setMemoryBank
C:\Users\Mxuan\AppData\Local\Temp\ccfnFihP.s:10592  .text.MPU6050_setMemoryBank:00000020 $d
C:\Users\Mxuan\AppData\Local\Temp\ccfnFihP.s:10597  .text.MPU6050_setMemoryStartAddress:00000000 $t
C:\Users\Mxuan\AppData\Local\Temp\ccfnFihP.s:10603  .text.MPU6050_setMemoryStartAddress:00000000 MPU6050_setMemoryStartAddress
C:\Users\Mxuan\AppData\Local\Temp\ccfnFihP.s:10630  .text.MPU6050_setMemoryStartAddress:00000010 $d
C:\Users\Mxuan\AppData\Local\Temp\ccfnFihP.s:10635  .text.MPU6050_readMemoryByte:00000000 $t
C:\Users\Mxuan\AppData\Local\Temp\ccfnFihP.s:10641  .text.MPU6050_readMemoryByte:00000000 MPU6050_readMemoryByte
C:\Users\Mxuan\AppData\Local\Temp\ccfnFihP.s:10666  .text.MPU6050_readMemoryByte:00000014 $d
C:\Users\Mxuan\AppData\Local\Temp\ccfnFihP.s:10671  .text.MPU6050_writeMemoryByte:00000000 $t
C:\Users\Mxuan\AppData\Local\Temp\ccfnFihP.s:10677  .text.MPU6050_writeMemoryByte:00000000 MPU6050_writeMemoryByte
C:\Users\Mxuan\AppData\Local\Temp\ccfnFihP.s:10704  .text.MPU6050_writeMemoryByte:00000010 $d
C:\Users\Mxuan\AppData\Local\Temp\ccfnFihP.s:10709  .text.MPU6050_readMemoryBlock:00000000 $t
C:\Users\Mxuan\AppData\Local\Temp\ccfnFihP.s:10715  .text.MPU6050_readMemoryBlock:00000000 MPU6050_readMemoryBlock
C:\Users\Mxuan\AppData\Local\Temp\ccfnFihP.s:10863  .text.MPU6050_readMemoryBlock:00000084 $d
C:\Users\Mxuan\AppData\Local\Temp\ccfnFihP.s:10868  .text.MPU6050_getDMPConfig1:00000000 $t
C:\Users\Mxuan\AppData\Local\Temp\ccfnFihP.s:10874  .text.MPU6050_getDMPConfig1:00000000 MPU6050_getDMPConfig1
C:\Users\Mxuan\AppData\Local\Temp\ccfnFihP.s:10899  .text.MPU6050_getDMPConfig1:00000014 $d
C:\Users\Mxuan\AppData\Local\Temp\ccfnFihP.s:10904  .text.MPU6050_setDMPConfig1:00000000 $t
C:\Users\Mxuan\AppData\Local\Temp\ccfnFihP.s:10910  .text.MPU6050_setDMPConfig1:00000000 MPU6050_setDMPConfig1
C:\Users\Mxuan\AppData\Local\Temp\ccfnFihP.s:10937  .text.MPU6050_setDMPConfig1:00000010 $d
C:\Users\Mxuan\AppData\Local\Temp\ccfnFihP.s:10942  .text.MPU6050_getDMPConfig2:00000000 $t
C:\Users\Mxuan\AppData\Local\Temp\ccfnFihP.s:10948  .text.MPU6050_getDMPConfig2:00000000 MPU6050_getDMPConfig2
C:\Users\Mxuan\AppData\Local\Temp\ccfnFihP.s:10973  .text.MPU6050_getDMPConfig2:00000014 $d
C:\Users\Mxuan\AppData\Local\Temp\ccfnFihP.s:10978  .text.MPU6050_setDMPConfig2:00000000 $t
C:\Users\Mxuan\AppData\Local\Temp\ccfnFihP.s:10984  .text.MPU6050_setDMPConfig2:00000000 MPU6050_setDMPConfig2
C:\Users\Mxuan\AppData\Local\Temp\ccfnFihP.s:11011  .text.MPU6050_setDMPConfig2:00000010 $d
C:\Users\Mxuan\AppData\Local\Temp\ccfnFihP.s:11016  .bss.mpu6050:00000000 $d

UNDEFINED SYMBOLS
I2Cdev_readBit
I2Cdev_writeBit
I2Cdev_readByte
I2Cdev_writeByte
I2Cdev_readBits
I2Cdev_writeBits
I2Cdev_readBytes
I2Cdev_writeWord
