ARM GAS  C:\Users\Mxuan\AppData\Local\Temp\ccfYpEI2.s 			page 1


   1              		.cpu cortex-m4
   2              		.arch armv7e-m
   3              		.fpu softvfp
   4              		.eabi_attribute 20, 1
   5              		.eabi_attribute 21, 1
   6              		.eabi_attribute 23, 3
   7              		.eabi_attribute 24, 1
   8              		.eabi_attribute 25, 1
   9              		.eabi_attribute 26, 1
  10              		.eabi_attribute 30, 1
  11              		.eabi_attribute 34, 1
  12              		.eabi_attribute 18, 4
  13              		.file	"user_main.c"
  14              		.text
  15              	.Ltext0:
  16              		.cfi_sections	.debug_frame
  17              		.file 1 "./UserApp/user_main.c"
  18              		.section	.rodata.user_main.str1.4,"aMS",%progbits,1
  19              		.align	2
  20              	.LC0:
  21 0000 61646331 		.ascii	"adc1=%d, adc2=%d, adc3=%d\015\012\000"
  21      3D25642C 
  21      20616463 
  21      323D2564 
  21      2C206164 
  22              		.section	.text.user_main,"ax",%progbits
  23              		.align	1
  24              		.global	user_main
  25              		.syntax unified
  26              		.thumb
  27              		.thumb_func
  29              	user_main:
  30              	.LFB127:
   1:./UserApp/user_main.c **** /* Includes ------------------------------------------------------------------*/
   2:./UserApp/user_main.c **** #include <stdarg.h>
   3:./UserApp/user_main.c **** #include "user_main.h"
   4:./UserApp/user_main.c **** #include "usart.h"
   5:./UserApp/user_main.c **** #include "FreeRTOS.h"
   6:./UserApp/user_main.c **** #include "task.h"
   7:./UserApp/user_main.c **** #include "adc.h"
   8:./UserApp/user_main.c **** #include "lib_printf.h"
   9:./UserApp/user_main.c **** #include "communication.h"
  10:./UserApp/user_main.c **** /* Private define ------------------------------------------------------------*/
  11:./UserApp/user_main.c **** 
  12:./UserApp/user_main.c **** /* Private macro -------------------------------------------------------------*/
  13:./UserApp/user_main.c **** /* Private typedef -----------------------------------------------------------*/
  14:./UserApp/user_main.c **** /* Private variables ---------------------------------------------------------*/
  15:./UserApp/user_main.c **** /* Private function prototypes -----------------------------------------------*/
  16:./UserApp/user_main.c **** /* Private functions ---------------------------------------------------------*/
  17:./UserApp/user_main.c **** uint16_t adc_val[3] = { 0 };
  18:./UserApp/user_main.c **** 
  19:./UserApp/user_main.c **** void user_main(void)
  20:./UserApp/user_main.c **** {
  31              		.loc 1 20 1 view -0
  32              		.cfi_startproc
  33              		@ Volatile: function does not return.
  34              		@ args = 0, pretend = 0, frame = 0
ARM GAS  C:\Users\Mxuan\AppData\Local\Temp\ccfYpEI2.s 			page 2


  35              		@ frame_needed = 0, uses_anonymous_args = 0
  36 0000 08B5     		push	{r3, lr}
  37              	.LCFI0:
  38              		.cfi_def_cfa_offset 8
  39              		.cfi_offset 3, -8
  40              		.cfi_offset 14, -4
  21:./UserApp/user_main.c **** 	HAL_ADC_Start_DMA(&hadc1, (uint32_t *)adc_val, 3);
  41              		.loc 1 21 2 view .LVU1
  42 0002 0322     		movs	r2, #3
  43 0004 0749     		ldr	r1, .L4
  44 0006 0848     		ldr	r0, .L4+4
  45 0008 FFF7FEFF 		bl	HAL_ADC_Start_DMA
  46              	.LVL0:
  47              	.L2:
  22:./UserApp/user_main.c **** 
  23:./UserApp/user_main.c **** 	for (;;) {
  48              		.loc 1 23 2 discriminator 1 view .LVU2
  24:./UserApp/user_main.c **** 		uart_print("adc1=%d, adc2=%d, adc3=%d\r\n", adc_val[0], adc_val[1], adc_val[2]);
  49              		.loc 1 24 3 discriminator 1 view .LVU3
  50              		.loc 1 24 54 is_stmt 0 discriminator 1 view .LVU4
  51 000c 0549     		ldr	r1, .L4
  52              		.loc 1 24 3 discriminator 1 view .LVU5
  53 000e 8B88     		ldrh	r3, [r1, #4]
  54 0010 4A88     		ldrh	r2, [r1, #2]
  55 0012 0988     		ldrh	r1, [r1]
  56 0014 0548     		ldr	r0, .L4+8
  57 0016 FFF7FEFF 		bl	uart_print
  58              	.LVL1:
  25:./UserApp/user_main.c **** 		vTaskDelay(100);
  59              		.loc 1 25 3 is_stmt 1 discriminator 1 view .LVU6
  60 001a 6420     		movs	r0, #100
  61 001c FFF7FEFF 		bl	vTaskDelay
  62              	.LVL2:
  23:./UserApp/user_main.c **** 		uart_print("adc1=%d, adc2=%d, adc3=%d\r\n", adc_val[0], adc_val[1], adc_val[2]);
  63              		.loc 1 23 2 discriminator 1 view .LVU7
  64 0020 F4E7     		b	.L2
  65              	.L5:
  66 0022 00BF     		.align	2
  67              	.L4:
  68 0024 00000000 		.word	adc_val
  69 0028 00000000 		.word	hadc1
  70 002c 00000000 		.word	.LC0
  71              		.cfi_endproc
  72              	.LFE127:
  74              		.global	adc_val
  75              		.section	.bss.adc_val,"aw",%nobits
  76              		.align	2
  79              	adc_val:
  80 0000 00000000 		.space	6
  80      0000
  81              		.text
  82              	.Letext0:
  83              		.file 2 "d:\\_environment\\arm-gnu-toolchain\\arm-none-eabi\\include\\machine\\_default_types.h"
  84              		.file 3 "d:\\_environment\\arm-gnu-toolchain\\arm-none-eabi\\include\\sys\\_stdint.h"
  85              		.file 4 "Drivers/CMSIS/Device/ST/STM32F1xx/Include/stm32f103xb.h"
  86              		.file 5 "Drivers/CMSIS/Device/ST/STM32F1xx/Include/stm32f1xx.h"
  87              		.file 6 "Drivers/STM32F1xx_HAL_Driver/Inc/stm32f1xx_hal_def.h"
ARM GAS  C:\Users\Mxuan\AppData\Local\Temp\ccfYpEI2.s 			page 3


  88              		.file 7 "Drivers/STM32F1xx_HAL_Driver/Inc/stm32f1xx_hal_dma.h"
  89              		.file 8 "Drivers/STM32F1xx_HAL_Driver/Inc/stm32f1xx_hal_adc.h"
  90              		.file 9 "Middlewares/Third_Party/FreeRTOS/Source/portable/GCC/ARM_CM3/portmacro.h"
  91              		.file 10 "Core/Inc/adc.h"
  92              		.file 11 "Middlewares/Third_Party/FreeRTOS/Source/include/task.h"
  93              		.file 12 "./UserApp/communication.h"
ARM GAS  C:\Users\Mxuan\AppData\Local\Temp\ccfYpEI2.s 			page 4


DEFINED SYMBOLS
                            *ABS*:00000000 user_main.c
C:\Users\Mxuan\AppData\Local\Temp\ccfYpEI2.s:19     .rodata.user_main.str1.4:00000000 $d
C:\Users\Mxuan\AppData\Local\Temp\ccfYpEI2.s:23     .text.user_main:00000000 $t
C:\Users\Mxuan\AppData\Local\Temp\ccfYpEI2.s:29     .text.user_main:00000000 user_main
C:\Users\Mxuan\AppData\Local\Temp\ccfYpEI2.s:68     .text.user_main:00000024 $d
C:\Users\Mxuan\AppData\Local\Temp\ccfYpEI2.s:79     .bss.adc_val:00000000 adc_val
C:\Users\Mxuan\AppData\Local\Temp\ccfYpEI2.s:76     .bss.adc_val:00000000 $d

UNDEFINED SYMBOLS
HAL_ADC_Start_DMA
uart_print
vTaskDelay
hadc1
